ARM GAS  /tmp/ccSpRog1.s 			page 1


   1              		.arch armv8.1-m.main
   2              		.fpu fpv5-d16
   3              		.arch_extension dsp
   4              		.arch_extension fp
   5              		.arch_extension fp.dp
   6              		.arch_extension mve
   7              		.arch_extension mve.fp
   8              		.eabi_attribute 5, "cortex-m55"
   9              		.eabi_attribute 28, 1
  10              		.eabi_attribute 20, 1
  11              		.eabi_attribute 21, 1
  12              		.eabi_attribute 23, 3
  13              		.eabi_attribute 24, 1
  14              		.eabi_attribute 25, 1
  15              		.eabi_attribute 26, 1
  16              		.eabi_attribute 30, 4
  17              		.eabi_attribute 34, 1
  18              		.eabi_attribute 38, 1
  19              		.eabi_attribute 18, 4
  20              		.file	"app_cam.c"
  21              		.text
  22              	.Ltext0:
  23              		.cfi_sections	.debug_frame
  24              		.file 1 "Src/app_cam.c"
  25              		.section	.rodata.CAM_InitCropConfig.str1.1,"aMS",%progbits,1
  26              	.LC0:
  27 0000 72617469 		.ascii	"ratio >= 1\000"
  27      6F203E3D 
  27      203100
  28              	.LC1:
  29 000b 5372632F 		.ascii	"Src/app_cam.c\000"
  29      6170705F 
  29      63616D2E 
  29      6300
  30              	.LC2:
  31 0019 72617469 		.ascii	"ratio < 64\000"
  31      6F203C20 
  31      363400
  32              		.section	.text.CAM_InitCropConfig,"ax",%progbits
  33              		.align	1
  34              		.syntax unified
  35              		.thumb
  36              		.thumb_func
  38              	CAM_InitCropConfig:
  39              	.LVL0:
  40              	.LFB3342:
   1:Src/app_cam.c ****  /**
   2:Src/app_cam.c ****  ******************************************************************************
   3:Src/app_cam.c ****  * @file    app_cam.c
   4:Src/app_cam.c ****  * @author  GPM Application Team
   5:Src/app_cam.c ****  *
   6:Src/app_cam.c ****  ******************************************************************************
   7:Src/app_cam.c ****  * @attention
   8:Src/app_cam.c ****  *
   9:Src/app_cam.c ****  * Copyright (c) 2023 STMicroelectronics.
  10:Src/app_cam.c ****  * All rights reserved.
  11:Src/app_cam.c ****  *
ARM GAS  /tmp/ccSpRog1.s 			page 2


  12:Src/app_cam.c ****  * This software is licensed under terms that can be found in the LICENSE file
  13:Src/app_cam.c ****  * in the root directory of this software component.
  14:Src/app_cam.c ****  * If no LICENSE file comes with this software, it is provided AS-IS.
  15:Src/app_cam.c ****  *
  16:Src/app_cam.c ****  ******************************************************************************
  17:Src/app_cam.c ****  */
  18:Src/app_cam.c **** #include <assert.h>
  19:Src/app_cam.c **** #include "app.h"
  20:Src/app_cam.c **** #include "cmw_camera.h"
  21:Src/app_cam.c **** #include "app_cam.h"
  22:Src/app_cam.c **** #include "app_config.h"
  23:Src/app_cam.c **** #include "utils.h"
  24:Src/app_cam.c **** 
  25:Src/app_cam.c **** /**
  26:Src/app_cam.c ****  * @brief Calculates the correct crop window to maintain aspect ratio.
  27:Src/app_cam.c ****  * @details This function takes the raw sensor dimensions and the target output dimensions.
  28:Src/app_cam.c ****  * It calculates a centered crop region on the sensor that matches the
  29:Src/app_cam.c ****  * target's aspect ratio. This prevents the final image from looking
  30:Src/app_cam.c ****  * stretched or squashed.
  31:Src/app_cam.c ****  * @param roi Pointer to the region-of-interest structure to be filled.
  32:Src/app_cam.c ****  * @param sensor_width The full width of the camera sensor.
  33:Src/app_cam.c ****  * @param sensor_height The full height of the camera sensor.
  34:Src/app_cam.c ****  */
  35:Src/app_cam.c **** static void CAM_InitCropConfig(CMW_Manual_roi_area_t *roi, int sensor_width, int sensor_height)
  36:Src/app_cam.c **** {
  41              		.loc 1 36 1 view -0
  42              		.cfi_startproc
  43              		@ args = 0, pretend = 0, frame = 0
  44              		@ frame_needed = 0, uses_anonymous_args = 0
  37:Src/app_cam.c ****   const float ratiox = (float)sensor_width / LCD_BG_WIDTH;
  45              		.loc 1 37 3 view .LVU1
  46              		.loc 1 37 24 is_stmt 0 view .LVU2
  47 0000 07EE901A 		vmov	s15, r1	@ int
  48 0004 F8EEE76A 		vcvt.f32.s32	s13, s15
  38:Src/app_cam.c ****   const float ratioy = (float)sensor_height / LCD_BG_HEIGHT;
  49              		.loc 1 38 24 view .LVU3
  50 0008 07EE902A 		vmov	s15, r2	@ int
  37:Src/app_cam.c ****   const float ratiox = (float)sensor_width / LCD_BG_WIDTH;
  51              		.loc 1 37 15 view .LVU4
  52 000c 9FED286A 		vldr.32	s12, .L18
  53              		.loc 1 38 24 view .LVU5
  54 0010 B8EEE77A 		vcvt.f32.s32	s14, s15
  55              		.loc 1 38 15 view .LVU6
  56 0014 DFED275A 		vldr.32	s11, .L18+4
  37:Src/app_cam.c ****   const float ratiox = (float)sensor_width / LCD_BG_WIDTH;
  57              		.loc 1 37 15 view .LVU7
  58 0018 86EE865A 		vdiv.f32	s10, s13, s12
  59              	.LVL1:
  60              		.loc 1 38 3 is_stmt 1 view .LVU8
  61              		.loc 1 38 15 is_stmt 0 view .LVU9
  62 001c C7EE257A 		vdiv.f32	s15, s14, s11
  63              	.LVL2:
  39:Src/app_cam.c ****   const float ratio = MIN(ratiox, ratioy);
  64              		.loc 1 39 3 is_stmt 1 view .LVU10
  65              		.loc 1 39 23 is_stmt 0 discriminator 1 view .LVU11
  66 0020 B4EE675A 		vcmp.f32	s10, s15
  67 0024 F1EE10FA 		vmrs	APSR_nzcv, FPSCR
ARM GAS  /tmp/ccSpRog1.s 			page 3


  68 0028 48BF     		it	mi
  69 002a F0EE457A 		vmovmi.f32	s15, s10
  70              	.LVL3:
  40:Src/app_cam.c **** 
  41:Src/app_cam.c ****   assert(ratio >= 1);
  71              		.loc 1 41 3 is_stmt 1 view .LVU12
  72 002e B7EE005A 		vmov.f32	s10, #1.0e+0
  73              	.LVL4:
  74              		.loc 1 41 3 is_stmt 0 view .LVU13
  75 0032 F4EEC57A 		vcmpe.f32	s15, s10
  76 0036 F1EE10FA 		vmrs	APSR_nzcv, FPSCR
  36:Src/app_cam.c ****   const float ratiox = (float)sensor_width / LCD_BG_WIDTH;
  77              		.loc 1 36 1 view .LVU14
  78 003a 08B5     		push	{r3, lr}
  79              		.cfi_def_cfa_offset 8
  80              		.cfi_offset 3, -8
  81              		.cfi_offset 14, -4
  82              		.loc 1 41 3 view .LVU15
  83 003c 05DA     		bge	.L4
  84              		.loc 1 41 3 discriminator 1 view .LVU16
  85 003e 2921     		movs	r1, #41
  86              	.LVL5:
  87              		.loc 1 41 3 discriminator 1 view .LVU17
  88 0040 1D4B     		ldr	r3, .L18+8
  89 0042 1E4A     		ldr	r2, .L18+12
  90              	.LVL6:
  91              	.L17:
  42:Src/app_cam.c ****   assert(ratio < 64);
  92              		.loc 1 42 3 discriminator 1 view .LVU18
  93 0044 1E48     		ldr	r0, .L18+16
  94              	.LVL7:
  95              		.loc 1 42 3 discriminator 1 view .LVU19
  96 0046 FFF7FEFF 		bl	__assert_func
  97              	.LVL8:
  98              	.L4:
  99              		.loc 1 42 3 is_stmt 1 view .LVU20
 100 004a 9FED1E5A 		vldr.32	s10, .L18+20
 101 004e F4EEC57A 		vcmpe.f32	s15, s10
 102 0052 F1EE10FA 		vmrs	APSR_nzcv, FPSCR
 103 0056 03D4     		bmi	.L5
 104              		.loc 1 42 3 is_stmt 0 discriminator 1 view .LVU21
 105 0058 2A21     		movs	r1, #42
 106              	.LVL9:
 107              		.loc 1 42 3 discriminator 1 view .LVU22
 108 005a 1B4B     		ldr	r3, .L18+24
 109 005c 174A     		ldr	r2, .L18+12
 110              	.LVL10:
 111              		.loc 1 42 3 discriminator 1 view .LVU23
 112 005e F1E7     		b	.L17
 113              	.LVL11:
 114              	.L5:
  43:Src/app_cam.c **** 
  44:Src/app_cam.c ****   roi->width = (uint32_t) MIN(LCD_BG_WIDTH * ratio, sensor_width);
 115              		.loc 1 44 3 is_stmt 1 view .LVU24
 116              		.loc 1 44 27 is_stmt 0 view .LVU25
 117 0060 27EE866A 		vmul.f32	s12, s15, s12
 118              	.LVL12:
ARM GAS  /tmp/ccSpRog1.s 			page 4


  45:Src/app_cam.c ****   roi->height = (uint32_t) MIN(LCD_BG_HEIGHT * ratio, sensor_height);
 119              		.loc 1 45 28 view .LVU26
 120 0064 67EEA57A 		vmul.f32	s15, s15, s11
 121              	.LVL13:
  44:Src/app_cam.c ****   roi->height = (uint32_t) MIN(LCD_BG_HEIGHT * ratio, sensor_height);
 122              		.loc 1 44 16 view .LVU27
 123 0068 F4EEC66A 		vcmpe.f32	s13, s12
 124 006c F1EE10FA 		vmrs	APSR_nzcv, FPSCR
 125              		.loc 1 45 17 view .LVU28
 126 0070 B4EEE77A 		vcmpe.f32	s14, s15
  44:Src/app_cam.c ****   roi->height = (uint32_t) MIN(LCD_BG_HEIGHT * ratio, sensor_height);
 127              		.loc 1 44 16 discriminator 1 view .LVU29
 128 0074 CCBF     		ite	gt
 129 0076 FCEEC66A 		vcvtgt.u32.f32	s13, s12
 130              	.LVL14:
  44:Src/app_cam.c ****   roi->height = (uint32_t) MIN(LCD_BG_HEIGHT * ratio, sensor_height);
 131              		.loc 1 44 16 discriminator 2 view .LVU30
 132 007a FCEEE66A 		vcvtle.u32.f32	s13, s13
 133              		.loc 1 45 17 view .LVU31
 134 007e F1EE10FA 		vmrs	APSR_nzcv, FPSCR
  46:Src/app_cam.c ****   roi->offset_x = (sensor_width - roi->width + 1) / 2;
 135              		.loc 1 46 46 view .LVU32
 136 0082 16EE903A 		vmov	r3, s13	@ int
  45:Src/app_cam.c ****   roi->height = (uint32_t) MIN(LCD_BG_HEIGHT * ratio, sensor_height);
 137              		.loc 1 45 17 discriminator 1 view .LVU33
 138 0086 CCBF     		ite	gt
 139 0088 BCEEE77A 		vcvtgt.u32.f32	s14, s15
 140              	.LVL15:
  45:Src/app_cam.c ****   roi->height = (uint32_t) MIN(LCD_BG_HEIGHT * ratio, sensor_height);
 141              		.loc 1 45 17 discriminator 2 view .LVU34
 142 008c BCEEC77A 		vcvtle.u32.f32	s14, s14
 143              		.loc 1 46 46 view .LVU35
 144 0090 0131     		adds	r1, r1, #1
 145              	.LVL16:
 146              		.loc 1 46 46 view .LVU36
 147 0092 C91A     		subs	r1, r1, r3
 148              	.LVL17:
  47:Src/app_cam.c ****   roi->offset_y = (sensor_height - roi->height + 1) / 2;
 149              		.loc 1 47 48 view .LVU37
 150 0094 17EE103A 		vmov	r3, s14	@ int
 151 0098 0132     		adds	r2, r2, #1
 152              	.LVL18:
 153              		.loc 1 47 48 view .LVU38
 154 009a D21A     		subs	r2, r2, r3
 155              	.LVL19:
  46:Src/app_cam.c ****   roi->offset_x = (sensor_width - roi->width + 1) / 2;
 156              		.loc 1 46 51 view .LVU39
 157 009c 4908     		lsrs	r1, r1, #1
 158              		.loc 1 47 53 view .LVU40
 159 009e 5208     		lsrs	r2, r2, #1
  44:Src/app_cam.c ****   roi->height = (uint32_t) MIN(LCD_BG_HEIGHT * ratio, sensor_height);
 160              		.loc 1 44 14 discriminator 4 view .LVU41
 161 00a0 C0ED006A 		vstr.32	s13, [r0]	@ int
  45:Src/app_cam.c ****   roi->offset_x = (sensor_width - roi->width + 1) / 2;
 162              		.loc 1 45 3 is_stmt 1 view .LVU42
  45:Src/app_cam.c ****   roi->offset_x = (sensor_width - roi->width + 1) / 2;
 163              		.loc 1 45 15 is_stmt 0 discriminator 4 view .LVU43
ARM GAS  /tmp/ccSpRog1.s 			page 5


 164 00a4 80ED017A 		vstr.32	s14, [r0, #4]	@ int
  46:Src/app_cam.c ****   roi->offset_x = (sensor_width - roi->width + 1) / 2;
 165              		.loc 1 46 3 is_stmt 1 view .LVU44
  46:Src/app_cam.c ****   roi->offset_x = (sensor_width - roi->width + 1) / 2;
 166              		.loc 1 46 17 is_stmt 0 view .LVU45
 167 00a8 8160     		str	r1, [r0, #8]
 168              		.loc 1 47 3 is_stmt 1 view .LVU46
 169              		.loc 1 47 17 is_stmt 0 view .LVU47
 170 00aa C260     		str	r2, [r0, #12]
  48:Src/app_cam.c **** }
 171              		.loc 1 48 1 view .LVU48
 172 00ac 08BD     		pop	{r3, pc}
 173              	.L19:
 174 00ae 00BF     		.align	2
 175              	.L18:
 176 00b0 00004844 		.word	1145569280
 177 00b4 0000F043 		.word	1139802112
 178 00b8 00000000 		.word	.LC0
 179 00bc 00000000 		.word	__func__.4
 180 00c0 0B000000 		.word	.LC1
 181 00c4 00008042 		.word	1115684864
 182 00c8 19000000 		.word	.LC2
 183              		.cfi_endproc
 184              	.LFE3342:
 186              		.section	.rodata.CAM_Init.str1.1,"aMS",%progbits,1
 187              	.LC3:
 188 0000 72657420 		.ascii	"ret == CMW_ERROR_NONE\000"
 188      3D3D2043 
 188      4D575F45 
 188      52524F52 
 188      5F4E4F4E 
 189              	.LC4:
 190 0016 72657420 		.ascii	"ret == HAL_OK\000"
 190      3D3D2048 
 190      414C5F4F 
 190      4B00
 191              	.LC5:
 192 0024 68775F70 		.ascii	"hw_pitch == dcmipp_conf.output_width * dcmipp_conf."
 192      69746368 
 192      203D3D20 
 192      64636D69 
 192      70705F63 
 193 0057 6F757470 		.ascii	"output_bpp\000"
 193      75745F62 
 193      707000
 194              		.section	.text.CAM_Init,"ax",%progbits
 195              		.align	1
 196              		.global	CAM_Init
 197              		.syntax unified
 198              		.thumb
 199              		.thumb_func
 201              	CAM_Init:
 202              	.LFB3345:
  49:Src/app_cam.c **** 
  50:Src/app_cam.c **** /**
  51:Src/app_cam.c ****  * @brief Configures the DCMIPP's main pipe for the display.
  52:Src/app_cam.c ****  * @details This sets up the hardware pipeline (Pipe 1) that takes the camera
ARM GAS  /tmp/ccSpRog1.s 			page 6


  53:Src/app_cam.c ****  * data, resizes it to match the LCD resolution (e.g., 800x480),
  54:Src/app_cam.c ****  * and prepares it for display.
  55:Src/app_cam.c ****  * @param sensor_width The full width of the camera sensor.
  56:Src/app_cam.c ****  * @param sensor_height The full height of the camera sensor.
  57:Src/app_cam.c ****  */
  58:Src/app_cam.c **** static void DCMIPP_PipeInitDisplay(int sensor_width, int sensor_height)
  59:Src/app_cam.c **** {
  60:Src/app_cam.c ****   CMW_DCMIPP_Conf_t dcmipp_conf;
  61:Src/app_cam.c ****   uint32_t hw_pitch;
  62:Src/app_cam.c ****   int ret;
  63:Src/app_cam.c **** 
  64:Src/app_cam.c ****   assert(LCD_BG_WIDTH >= LCD_BG_HEIGHT);
  65:Src/app_cam.c **** 
  66:Src/app_cam.c ****   dcmipp_conf.output_width = LCD_BG_WIDTH;
  67:Src/app_cam.c ****   dcmipp_conf.output_height = LCD_BG_HEIGHT;
  68:Src/app_cam.c ****   dcmipp_conf.output_format = DISPLAY_FORMAT;
  69:Src/app_cam.c ****   dcmipp_conf.output_bpp = DISPLAY_BPP;
  70:Src/app_cam.c ****   dcmipp_conf.mode = CMW_Aspect_ratio_manual_roi;
  71:Src/app_cam.c ****   dcmipp_conf.enable_swap = 1;
  72:Src/app_cam.c ****   dcmipp_conf.enable_gamma_conversion = 0;
  73:Src/app_cam.c **** 
  74:Src/app_cam.c ****   /* Calculate the sensor crop window to maintain the display's aspect ratio. */
  75:Src/app_cam.c ****   CAM_InitCropConfig(&dcmipp_conf.manual_conf, sensor_width, sensor_height);
  76:Src/app_cam.c ****   
  77:Src/app_cam.c ****   /* Send the final configuration to the hardware driver for Pipe 1. */
  78:Src/app_cam.c ****   ret = CMW_CAMERA_SetPipeConfig(DCMIPP_PIPE1, &dcmipp_conf, &hw_pitch);
  79:Src/app_cam.c ****   assert(ret == HAL_OK);
  80:Src/app_cam.c ****   assert(hw_pitch == dcmipp_conf.output_width * dcmipp_conf.output_bpp);
  81:Src/app_cam.c **** }
  82:Src/app_cam.c **** 
  83:Src/app_cam.c **** /**
  84:Src/app_cam.c ****  * @brief Configures the DCMIPP's ancillary pipe for the Neural Network.
  85:Src/app_cam.c ****  * @details This sets up the hardware pipeline (Pipe 2) that creates a smaller,
  86:Src/app_cam.c ****  * dedicated video stream to be used as input for the first AI model.
  87:Src/app_cam.c ****  * *** FUNCTION TO MODIFY FOR DMS ***
  88:Src/app_cam.c ****  * @param sensor_width The full width of the camera sensor.
  89:Src/app_cam.c ****  * @param sensor_height The full height of the camera sensor.
  90:Src/app_cam.c ****  */
  91:Src/app_cam.c **** static void DCMIPP_PipeInitNn(int sensor_width, int sensor_height)
  92:Src/app_cam.c **** {
  93:Src/app_cam.c ****   CMW_DCMIPP_Conf_t dcmipp_conf;
  94:Src/app_cam.c ****   uint32_t hw_pitch;
  95:Src/app_cam.c ****   int ret;
  96:Src/app_cam.c **** 
  97:Src/app_cam.c ****   assert(LCD_BG_HEIGHT <= LCD_BG_WIDTH);
  98:Src/app_cam.c ****   /* Define the properties for the NN input image. Change NN_WIDTH, NN_HEIGHT, etc.,
  99:Src/app_cam.c ****     in app_config.h to match your face detector's requirements (e.g., 224x224). */
 100:Src/app_cam.c ****   dcmipp_conf.output_width = NN_WIDTH;
 101:Src/app_cam.c **** 
 102:Src/app_cam.c ****   /* This line adjusts the height to match the screen's aspect ratio. This prevents
 103:Src/app_cam.c ****     distortion and ensures AI coordinates map correctly to the display. If your model
 104:Src/app_cam.c ****     needs a perfect square input, this may result in black bars (padding). */
 105:Src/app_cam.c ****   dcmipp_conf.output_height = (int) (NN_HEIGHT * ((float)LCD_BG_HEIGHT / LCD_BG_WIDTH));
 106:Src/app_cam.c ****   dcmipp_conf.output_format = NN_FORMAT;
 107:Src/app_cam.c ****   dcmipp_conf.output_bpp = NN_BPP;
 108:Src/app_cam.c ****   dcmipp_conf.mode = CMW_Aspect_ratio_manual_roi;
 109:Src/app_cam.c ****   dcmipp_conf.enable_swap = 1;
ARM GAS  /tmp/ccSpRog1.s 			page 7


 110:Src/app_cam.c ****   dcmipp_conf.enable_gamma_conversion = 0;
 111:Src/app_cam.c ****   
 112:Src/app_cam.c ****   /* Calculate the sensor crop window to maintain the NN input's aspect ratio. */
 113:Src/app_cam.c ****   CAM_InitCropConfig(&dcmipp_conf.manual_conf, sensor_width, sensor_height);
 114:Src/app_cam.c **** 
 115:Src/app_cam.c ****   /* Send the final configuration to the hardware driver for Pipe 2. */
 116:Src/app_cam.c ****   ret = CMW_CAMERA_SetPipeConfig(DCMIPP_PIPE2, &dcmipp_conf, &hw_pitch);
 117:Src/app_cam.c ****   assert(ret == HAL_OK);
 118:Src/app_cam.c ****   assert(hw_pitch == dcmipp_conf.output_width * dcmipp_conf.output_bpp);
 119:Src/app_cam.c **** }
 120:Src/app_cam.c **** 
 121:Src/app_cam.c **** /**
 122:Src/app_cam.c ****  * @brief Initializes the entire camera system.
 123:Src/app_cam.c ****  * @details This is the main entry point. It powers up the camera sensor and then
 124:Src/app_cam.c ****  * configures both the display and NN hardware pipelines.
 125:Src/app_cam.c ****  */
 126:Src/app_cam.c **** void CAM_Init(void)
 127:Src/app_cam.c **** {
 203              		.loc 1 127 1 is_stmt 1 view -0
 204              		.cfi_startproc
 205              		@ args = 0, pretend = 0, frame = 72
 206              		@ frame_needed = 0, uses_anonymous_args = 0
 128:Src/app_cam.c ****   CMW_CameraInit_t cam_conf;
 207              		.loc 1 128 3 view .LVU50
 129:Src/app_cam.c ****   int ret;
 208              		.loc 1 129 3 view .LVU51
 130:Src/app_cam.c **** 
 131:Src/app_cam.c ****   /* Let sensor driver choose which width/height to use */
 132:Src/app_cam.c ****   cam_conf.width = 0;
 209              		.loc 1 132 3 view .LVU52
 127:Src/app_cam.c ****   CMW_CameraInit_t cam_conf;
 210              		.loc 1 127 1 is_stmt 0 view .LVU53
 211 0000 70B5     		push	{r4, r5, r6, lr}
 212              		.cfi_def_cfa_offset 16
 213              		.cfi_offset 4, -16
 214              		.cfi_offset 5, -12
 215              		.cfi_offset 6, -8
 216              		.cfi_offset 14, -4
 217              		.loc 1 132 18 view .LVU54
 218 0002 0023     		movs	r3, #0
 133:Src/app_cam.c ****   cam_conf.height = 0;
 134:Src/app_cam.c ****   cam_conf.fps = CAMERA_FPS;
 219              		.loc 1 134 16 view .LVU55
 220 0004 1E22     		movs	r2, #30
 135:Src/app_cam.c ****   cam_conf.pixel_format = 0; /* Default; Not implemented yet */
 136:Src/app_cam.c ****   cam_conf.anti_flicker = 0;
 137:Src/app_cam.c ****   cam_conf.mirror_flip = CAMERA_FLIP;
 221              		.loc 1 137 24 view .LVU56
 222 0006 0224     		movs	r4, #2
 127:Src/app_cam.c ****   CMW_CameraInit_t cam_conf;
 223              		.loc 1 127 1 view .LVU57
 224 0008 92B0     		sub	sp, sp, #72
 225              		.cfi_def_cfa_offset 88
 138:Src/app_cam.c ****   ret = CMW_CAMERA_Init(&cam_conf);
 226              		.loc 1 138 9 view .LVU58
 227 000a 01A8     		add	r0, sp, #4
 133:Src/app_cam.c ****   cam_conf.fps = CAMERA_FPS;
ARM GAS  /tmp/ccSpRog1.s 			page 8


 228              		.loc 1 133 19 view .LVU59
 229 000c CDE90133 		strd	r3, r3, [sp, #4]
 134:Src/app_cam.c ****   cam_conf.pixel_format = 0; /* Default; Not implemented yet */
 230              		.loc 1 134 3 is_stmt 1 view .LVU60
 135:Src/app_cam.c ****   cam_conf.anti_flicker = 0;
 231              		.loc 1 135 25 is_stmt 0 view .LVU61
 232 0010 CDE90323 		strd	r2, r3, [sp, #12]
 136:Src/app_cam.c ****   cam_conf.mirror_flip = CAMERA_FLIP;
 233              		.loc 1 136 3 is_stmt 1 view .LVU62
 136:Src/app_cam.c ****   cam_conf.mirror_flip = CAMERA_FLIP;
 234              		.loc 1 136 25 is_stmt 0 view .LVU63
 235 0014 0593     		str	r3, [sp, #20]
 137:Src/app_cam.c ****   ret = CMW_CAMERA_Init(&cam_conf);
 236              		.loc 1 137 3 is_stmt 1 view .LVU64
 137:Src/app_cam.c ****   ret = CMW_CAMERA_Init(&cam_conf);
 237              		.loc 1 137 24 is_stmt 0 view .LVU65
 238 0016 0694     		str	r4, [sp, #24]
 239              		.loc 1 138 3 is_stmt 1 view .LVU66
 240              		.loc 1 138 9 is_stmt 0 view .LVU67
 241 0018 FFF7FEFF 		bl	CMW_CAMERA_Init
 242              	.LVL20:
 139:Src/app_cam.c ****   assert(ret == CMW_ERROR_NONE);
 243              		.loc 1 139 3 is_stmt 1 view .LVU68
 244 001c 28B1     		cbz	r0, .L21
 245              		.loc 1 139 3 is_stmt 0 discriminator 1 view .LVU69
 246 001e 8B21     		movs	r1, #139
 247 0020 284B     		ldr	r3, .L27
 248 0022 294A     		ldr	r2, .L27+4
 249              	.LVL21:
 250              	.L26:
 251              	.LBB6:
 252              	.LBB7:
  79:Src/app_cam.c ****   assert(hw_pitch == dcmipp_conf.output_width * dcmipp_conf.output_bpp);
 253              		.loc 1 79 3 discriminator 1 view .LVU70
 254 0024 2948     		ldr	r0, .L27+8
 255 0026 FFF7FEFF 		bl	__assert_func
 256              	.LVL22:
 257              	.L21:
  79:Src/app_cam.c ****   assert(hw_pitch == dcmipp_conf.output_width * dcmipp_conf.output_bpp);
 258              		.loc 1 79 3 discriminator 1 view .LVU71
 259              	.LBE7:
 260              	.LBE6:
 140:Src/app_cam.c **** 
 141:Src/app_cam.c ****   /* Now that we have the actual sensor resolution, configure the two DCMIPP pipelines. */
 142:Src/app_cam.c ****   DCMIPP_PipeInitDisplay(cam_conf.width, cam_conf.height);
 261              		.loc 1 142 3 is_stmt 1 view .LVU72
 262              	.LBB9:
 263              	.LBI6:
  58:Src/app_cam.c **** {
 264              		.loc 1 58 13 view .LVU73
 265              	.LBB8:
  60:Src/app_cam.c ****   uint32_t hw_pitch;
 266              		.loc 1 60 3 view .LVU74
  61:Src/app_cam.c ****   int ret;
 267              		.loc 1 61 3 view .LVU75
  62:Src/app_cam.c **** 
 268              		.loc 1 62 3 view .LVU76
ARM GAS  /tmp/ccSpRog1.s 			page 9


  64:Src/app_cam.c **** 
 269              		.loc 1 64 3 view .LVU77
  66:Src/app_cam.c ****   dcmipp_conf.output_height = LCD_BG_HEIGHT;
 270              		.loc 1 66 3 view .LVU78
  67:Src/app_cam.c ****   dcmipp_conf.output_format = DISPLAY_FORMAT;
 271              		.loc 1 67 29 is_stmt 0 view .LVU79
 272 002a 4FF44871 		mov	r1, #800
 273 002e 4FF4F073 		mov	r3, #480
  71:Src/app_cam.c ****   dcmipp_conf.enable_gamma_conversion = 0;
 274              		.loc 1 71 27 view .LVU80
 275 0032 0125     		movs	r5, #1
  67:Src/app_cam.c ****   dcmipp_conf.output_format = DISPLAY_FORMAT;
 276              		.loc 1 67 29 view .LVU81
 277 0034 CDE90713 		strd	r1, r3, [sp, #28]
  68:Src/app_cam.c ****   dcmipp_conf.output_bpp = DISPLAY_BPP;
 278              		.loc 1 68 3 is_stmt 1 view .LVU82
  75:Src/app_cam.c ****   
 279              		.loc 1 75 3 is_stmt 0 view .LVU83
 280 0038 DDE90112 		ldrd	r1, r2, [sp, #4]
  69:Src/app_cam.c ****   dcmipp_conf.mode = CMW_Aspect_ratio_manual_roi;
 281              		.loc 1 69 26 view .LVU84
 282 003c 0423     		movs	r3, #4
  70:Src/app_cam.c ****   dcmipp_conf.enable_swap = 1;
 283              		.loc 1 70 20 view .LVU85
 284 003e 0326     		movs	r6, #3
  72:Src/app_cam.c **** 
 285              		.loc 1 72 39 view .LVU86
 286 0040 CDE90B50 		strd	r5, r0, [sp, #44]
  75:Src/app_cam.c ****   
 287              		.loc 1 75 3 view .LVU87
 288 0044 0EA8     		add	r0, sp, #56
 289              	.LVL23:
  68:Src/app_cam.c ****   dcmipp_conf.output_bpp = DISPLAY_BPP;
 290              		.loc 1 68 29 view .LVU88
 291 0046 0994     		str	r4, [sp, #36]
  69:Src/app_cam.c ****   dcmipp_conf.mode = CMW_Aspect_ratio_manual_roi;
 292              		.loc 1 69 3 is_stmt 1 view .LVU89
  69:Src/app_cam.c ****   dcmipp_conf.mode = CMW_Aspect_ratio_manual_roi;
 293              		.loc 1 69 26 is_stmt 0 view .LVU90
 294 0048 0A93     		str	r3, [sp, #40]
  70:Src/app_cam.c ****   dcmipp_conf.enable_swap = 1;
 295              		.loc 1 70 3 is_stmt 1 view .LVU91
  70:Src/app_cam.c ****   dcmipp_conf.enable_swap = 1;
 296              		.loc 1 70 20 is_stmt 0 view .LVU92
 297 004a 0D96     		str	r6, [sp, #52]
  71:Src/app_cam.c ****   dcmipp_conf.enable_gamma_conversion = 0;
 298              		.loc 1 71 3 is_stmt 1 view .LVU93
  75:Src/app_cam.c ****   
 299              		.loc 1 75 3 view .LVU94
 300 004c FFF7FEFF 		bl	CAM_InitCropConfig
 301              	.LVL24:
  78:Src/app_cam.c ****   assert(ret == HAL_OK);
 302              		.loc 1 78 3 view .LVU95
  78:Src/app_cam.c ****   assert(ret == HAL_OK);
 303              		.loc 1 78 9 is_stmt 0 view .LVU96
 304 0050 6A46     		mov	r2, sp
 305 0052 2846     		mov	r0, r5
ARM GAS  /tmp/ccSpRog1.s 			page 10


 306 0054 07A9     		add	r1, sp, #28
 307 0056 FFF7FEFF 		bl	CMW_CAMERA_SetPipeConfig
 308              	.LVL25:
  79:Src/app_cam.c ****   assert(hw_pitch == dcmipp_conf.output_width * dcmipp_conf.output_bpp);
 309              		.loc 1 79 3 is_stmt 1 view .LVU97
 310 005a 18B1     		cbz	r0, .L22
  79:Src/app_cam.c ****   assert(hw_pitch == dcmipp_conf.output_width * dcmipp_conf.output_bpp);
 311              		.loc 1 79 3 is_stmt 0 discriminator 1 view .LVU98
 312 005c 4F21     		movs	r1, #79
 313 005e 1C4B     		ldr	r3, .L27+12
 314 0060 1C4A     		ldr	r2, .L27+16
 315 0062 DFE7     		b	.L26
 316              	.L22:
  80:Src/app_cam.c **** }
 317              		.loc 1 80 3 is_stmt 1 view .LVU99
 318 0064 0A9A     		ldr	r2, [sp, #40]
 319 0066 079B     		ldr	r3, [sp, #28]
 320 0068 5343     		muls	r3, r2, r3
 321 006a 009A     		ldr	r2, [sp]
 322 006c 9342     		cmp	r3, r2
 323 006e 03D0     		beq	.L23
  80:Src/app_cam.c **** }
 324              		.loc 1 80 3 is_stmt 0 discriminator 1 view .LVU100
 325 0070 5021     		movs	r1, #80
 326 0072 194B     		ldr	r3, .L27+20
 327 0074 174A     		ldr	r2, .L27+16
 328 0076 D5E7     		b	.L26
 329              	.L23:
 330              	.LVL26:
  80:Src/app_cam.c **** }
 331              		.loc 1 80 3 discriminator 1 view .LVU101
 332              	.LBE8:
 333              	.LBE9:
 143:Src/app_cam.c ****   DCMIPP_PipeInitNn(cam_conf.width, cam_conf.height);
 334              		.loc 1 143 3 is_stmt 1 view .LVU102
 335              	.LBB10:
 336              	.LBI10:
  91:Src/app_cam.c **** {
 337              		.loc 1 91 13 view .LVU103
 338              	.LBB11:
  93:Src/app_cam.c ****   uint32_t hw_pitch;
 339              		.loc 1 93 3 view .LVU104
  94:Src/app_cam.c ****   int ret;
 340              		.loc 1 94 3 view .LVU105
  95:Src/app_cam.c **** 
 341              		.loc 1 95 3 view .LVU106
  97:Src/app_cam.c ****   /* Define the properties for the NN input image. Change NN_WIDTH, NN_HEIGHT, etc.,
 342              		.loc 1 97 3 view .LVU107
 100:Src/app_cam.c **** 
 343              		.loc 1 100 3 view .LVU108
 105:Src/app_cam.c ****   dcmipp_conf.output_format = NN_FORMAT;
 344              		.loc 1 105 29 is_stmt 0 view .LVU109
 345 0078 4FF4A072 		mov	r2, #320
 346 007c C023     		movs	r3, #192
 107:Src/app_cam.c ****   dcmipp_conf.mode = CMW_Aspect_ratio_manual_roi;
 347              		.loc 1 107 26 view .LVU110
 348 007e CDE90906 		strd	r0, r6, [sp, #36]
ARM GAS  /tmp/ccSpRog1.s 			page 11


 105:Src/app_cam.c ****   dcmipp_conf.output_format = NN_FORMAT;
 349              		.loc 1 105 29 view .LVU111
 350 0082 CDE90723 		strd	r2, r3, [sp, #28]
 106:Src/app_cam.c ****   dcmipp_conf.output_bpp = NN_BPP;
 351              		.loc 1 106 3 is_stmt 1 view .LVU112
 108:Src/app_cam.c ****   dcmipp_conf.enable_swap = 1;
 352              		.loc 1 108 3 view .LVU113
 113:Src/app_cam.c **** 
 353              		.loc 1 113 3 is_stmt 0 view .LVU114
 354 0086 DDE90112 		ldrd	r1, r2, [sp, #4]
 110:Src/app_cam.c ****   
 355              		.loc 1 110 39 view .LVU115
 356 008a CDE90B50 		strd	r5, r0, [sp, #44]
 113:Src/app_cam.c **** 
 357              		.loc 1 113 3 view .LVU116
 358 008e 0EA8     		add	r0, sp, #56
 108:Src/app_cam.c ****   dcmipp_conf.enable_swap = 1;
 359              		.loc 1 108 20 view .LVU117
 360 0090 0D96     		str	r6, [sp, #52]
 109:Src/app_cam.c ****   dcmipp_conf.enable_gamma_conversion = 0;
 361              		.loc 1 109 3 is_stmt 1 view .LVU118
 113:Src/app_cam.c **** 
 362              		.loc 1 113 3 view .LVU119
 363 0092 FFF7FEFF 		bl	CAM_InitCropConfig
 364              	.LVL27:
 116:Src/app_cam.c ****   assert(ret == HAL_OK);
 365              		.loc 1 116 3 view .LVU120
 116:Src/app_cam.c ****   assert(ret == HAL_OK);
 366              		.loc 1 116 9 is_stmt 0 view .LVU121
 367 0096 6A46     		mov	r2, sp
 368 0098 2046     		mov	r0, r4
 369 009a 07A9     		add	r1, sp, #28
 370 009c FFF7FEFF 		bl	CMW_CAMERA_SetPipeConfig
 371              	.LVL28:
 117:Src/app_cam.c ****   assert(hw_pitch == dcmipp_conf.output_width * dcmipp_conf.output_bpp);
 372              		.loc 1 117 3 is_stmt 1 view .LVU122
 373 00a0 18B1     		cbz	r0, .L24
 117:Src/app_cam.c ****   assert(hw_pitch == dcmipp_conf.output_width * dcmipp_conf.output_bpp);
 374              		.loc 1 117 3 is_stmt 0 discriminator 1 view .LVU123
 375 00a2 7521     		movs	r1, #117
 376 00a4 0A4B     		ldr	r3, .L27+12
 377 00a6 0D4A     		ldr	r2, .L27+24
 378 00a8 BCE7     		b	.L26
 379              	.L24:
 118:Src/app_cam.c **** }
 380              		.loc 1 118 3 is_stmt 1 view .LVU124
 381 00aa 0A9A     		ldr	r2, [sp, #40]
 382 00ac 079B     		ldr	r3, [sp, #28]
 383 00ae 5343     		muls	r3, r2, r3
 384 00b0 009A     		ldr	r2, [sp]
 385 00b2 9342     		cmp	r3, r2
 386 00b4 03D0     		beq	.L20
 118:Src/app_cam.c **** }
 387              		.loc 1 118 3 is_stmt 0 discriminator 1 view .LVU125
 388 00b6 7621     		movs	r1, #118
 389 00b8 074B     		ldr	r3, .L27+20
 390 00ba 084A     		ldr	r2, .L27+24
ARM GAS  /tmp/ccSpRog1.s 			page 12


 391 00bc B2E7     		b	.L26
 392              	.L20:
 393              	.LBE11:
 394              	.LBE10:
 144:Src/app_cam.c **** }
 395              		.loc 1 144 1 view .LVU126
 396 00be 12B0     		add	sp, sp, #72
 397              		.cfi_def_cfa_offset 16
 398              		@ sp needed
 399 00c0 70BD     		pop	{r4, r5, r6, pc}
 400              	.L28:
 401 00c2 00BF     		.align	2
 402              	.L27:
 403 00c4 00000000 		.word	.LC3
 404 00c8 00000000 		.word	__func__.6
 405 00cc 0B000000 		.word	.LC1
 406 00d0 16000000 		.word	.LC4
 407 00d4 00000000 		.word	__func__.5
 408 00d8 24000000 		.word	.LC5
 409 00dc 00000000 		.word	__func__.3
 410              		.cfi_endproc
 411              	.LFE3345:
 413              		.section	.text.CAM_DisplayPipe_Start,"ax",%progbits
 414              		.align	1
 415              		.global	CAM_DisplayPipe_Start
 416              		.syntax unified
 417              		.thumb
 418              		.thumb_func
 420              	CAM_DisplayPipe_Start:
 421              	.LVL29:
 422              	.LFB3346:
 145:Src/app_cam.c **** 
 146:Src/app_cam.c **** /**
 147:Src/app_cam.c ****  * @brief Starts the video stream for the display pipe.
 148:Src/app_cam.c ****  * @param display_pipe_dst Pointer to the destination buffer for the display frames.
 149:Src/app_cam.c ****  * @param cam_mode The camera mode (e.g., continuous streaming).
 150:Src/app_cam.c ****  */
 151:Src/app_cam.c **** void CAM_DisplayPipe_Start(uint8_t *display_pipe_dst, uint32_t cam_mode)
 152:Src/app_cam.c **** {
 423              		.loc 1 152 1 is_stmt 1 view -0
 424              		.cfi_startproc
 425              		@ args = 0, pretend = 0, frame = 0
 426              		@ frame_needed = 0, uses_anonymous_args = 0
 153:Src/app_cam.c ****   int ret;
 427              		.loc 1 153 3 view .LVU128
 154:Src/app_cam.c **** 
 155:Src/app_cam.c ****   ret = CMW_CAMERA_Start(DCMIPP_PIPE1, display_pipe_dst, cam_mode);
 428              		.loc 1 155 3 view .LVU129
 152:Src/app_cam.c ****   int ret;
 429              		.loc 1 152 1 is_stmt 0 view .LVU130
 430 0000 0A46     		mov	r2, r1
 431 0002 08B5     		push	{r3, lr}
 432              		.cfi_def_cfa_offset 8
 433              		.cfi_offset 3, -8
 434              		.cfi_offset 14, -4
 435              		.loc 1 155 9 view .LVU131
 436 0004 0146     		mov	r1, r0
ARM GAS  /tmp/ccSpRog1.s 			page 13


 437              	.LVL30:
 438              		.loc 1 155 9 view .LVU132
 439 0006 0120     		movs	r0, #1
 440              	.LVL31:
 441              		.loc 1 155 9 view .LVU133
 442 0008 FFF7FEFF 		bl	CMW_CAMERA_Start
 443              	.LVL32:
 156:Src/app_cam.c ****   assert(ret == CMW_ERROR_NONE);
 444              		.loc 1 156 3 is_stmt 1 view .LVU134
 445 000c 28B1     		cbz	r0, .L29
 446              		.loc 1 156 3 is_stmt 0 discriminator 1 view .LVU135
 447 000e 9C21     		movs	r1, #156
 448 0010 024B     		ldr	r3, .L31
 449 0012 034A     		ldr	r2, .L31+4
 450 0014 0348     		ldr	r0, .L31+8
 451              	.LVL33:
 452              		.loc 1 156 3 discriminator 1 view .LVU136
 453 0016 FFF7FEFF 		bl	__assert_func
 454              	.LVL34:
 455              	.L29:
 157:Src/app_cam.c **** }
 456              		.loc 1 157 1 view .LVU137
 457 001a 08BD     		pop	{r3, pc}
 458              	.L32:
 459              		.align	2
 460              	.L31:
 461 001c 00000000 		.word	.LC3
 462 0020 00000000 		.word	__func__.2
 463 0024 0B000000 		.word	.LC1
 464              		.cfi_endproc
 465              	.LFE3346:
 467              		.section	.text.CAM_NNPipe_Start,"ax",%progbits
 468              		.align	1
 469              		.global	CAM_NNPipe_Start
 470              		.syntax unified
 471              		.thumb
 472              		.thumb_func
 474              	CAM_NNPipe_Start:
 475              	.LVL35:
 476              	.LFB3347:
 158:Src/app_cam.c **** 
 159:Src/app_cam.c **** /**
 160:Src/app_cam.c ****  * @brief Starts the video stream for the NN input pipe.
 161:Src/app_cam.c ****  * @param nn_pipe_dst Pointer to the destination buffer for the AI model's input frames.
 162:Src/app_cam.c ****  * @param cam_mode The camera mode (e.g., continuous streaming).
 163:Src/app_cam.c ****  */
 164:Src/app_cam.c **** void CAM_NNPipe_Start(uint8_t *nn_pipe_dst, uint32_t cam_mode)
 165:Src/app_cam.c **** {
 477              		.loc 1 165 1 is_stmt 1 view -0
 478              		.cfi_startproc
 479              		@ args = 0, pretend = 0, frame = 0
 480              		@ frame_needed = 0, uses_anonymous_args = 0
 166:Src/app_cam.c ****   int ret;
 481              		.loc 1 166 3 view .LVU139
 167:Src/app_cam.c **** 
 168:Src/app_cam.c ****   ret = CMW_CAMERA_Start(DCMIPP_PIPE2, nn_pipe_dst, cam_mode);
 482              		.loc 1 168 3 view .LVU140
ARM GAS  /tmp/ccSpRog1.s 			page 14


 165:Src/app_cam.c ****   int ret;
 483              		.loc 1 165 1 is_stmt 0 view .LVU141
 484 0000 0A46     		mov	r2, r1
 485 0002 08B5     		push	{r3, lr}
 486              		.cfi_def_cfa_offset 8
 487              		.cfi_offset 3, -8
 488              		.cfi_offset 14, -4
 489              		.loc 1 168 9 view .LVU142
 490 0004 0146     		mov	r1, r0
 491              	.LVL36:
 492              		.loc 1 168 9 view .LVU143
 493 0006 0220     		movs	r0, #2
 494              	.LVL37:
 495              		.loc 1 168 9 view .LVU144
 496 0008 FFF7FEFF 		bl	CMW_CAMERA_Start
 497              	.LVL38:
 169:Src/app_cam.c ****   assert(ret == CMW_ERROR_NONE);
 498              		.loc 1 169 3 is_stmt 1 view .LVU145
 499 000c 28B1     		cbz	r0, .L33
 500              		.loc 1 169 3 is_stmt 0 discriminator 1 view .LVU146
 501 000e A921     		movs	r1, #169
 502 0010 024B     		ldr	r3, .L35
 503 0012 034A     		ldr	r2, .L35+4
 504 0014 0348     		ldr	r0, .L35+8
 505              	.LVL39:
 506              		.loc 1 169 3 discriminator 1 view .LVU147
 507 0016 FFF7FEFF 		bl	__assert_func
 508              	.LVL40:
 509              	.L33:
 170:Src/app_cam.c **** }
 510              		.loc 1 170 1 view .LVU148
 511 001a 08BD     		pop	{r3, pc}
 512              	.L36:
 513              		.align	2
 514              	.L35:
 515 001c 00000000 		.word	.LC3
 516 0020 00000000 		.word	__func__.1
 517 0024 0B000000 		.word	.LC1
 518              		.cfi_endproc
 519              	.LFE3347:
 521              		.section	.text.CAM_IspUpdate,"ax",%progbits
 522              		.align	1
 523              		.global	CAM_IspUpdate
 524              		.syntax unified
 525              		.thumb
 526              		.thumb_func
 528              	CAM_IspUpdate:
 529              	.LFB3348:
 171:Src/app_cam.c **** 
 172:Src/app_cam.c **** /**
 173:Src/app_cam.c ****  * @brief Main processing loop function for the camera.
 174:Src/app_cam.c ****  * @details This function should be called periodically (e.g., in your main while loop).
 175:Src/app_cam.c ****  * It runs the camera's internal Image Signal Processing (ISP) tasks,
 176:Src/app_cam.c ****  * such as auto-white-balance and auto-exposure.
 177:Src/app_cam.c ****  */
 178:Src/app_cam.c **** void CAM_IspUpdate(void)
 179:Src/app_cam.c **** {
ARM GAS  /tmp/ccSpRog1.s 			page 15


 530              		.loc 1 179 1 is_stmt 1 view -0
 531              		.cfi_startproc
 532              		@ args = 0, pretend = 0, frame = 0
 533              		@ frame_needed = 0, uses_anonymous_args = 0
 180:Src/app_cam.c ****   int ret;
 534              		.loc 1 180 3 view .LVU150
 181:Src/app_cam.c **** 
 182:Src/app_cam.c ****   ret = CMW_CAMERA_Run();
 535              		.loc 1 182 3 view .LVU151
 179:Src/app_cam.c ****   int ret;
 536              		.loc 1 179 1 is_stmt 0 view .LVU152
 537 0000 08B5     		push	{r3, lr}
 538              		.cfi_def_cfa_offset 8
 539              		.cfi_offset 3, -8
 540              		.cfi_offset 14, -4
 541              		.loc 1 182 9 view .LVU153
 542 0002 FFF7FEFF 		bl	CMW_CAMERA_Run
 543              	.LVL41:
 183:Src/app_cam.c ****   assert(ret == CMW_ERROR_NONE);
 544              		.loc 1 183 3 is_stmt 1 view .LVU154
 545 0006 28B1     		cbz	r0, .L37
 546              		.loc 1 183 3 is_stmt 0 discriminator 1 view .LVU155
 547 0008 B721     		movs	r1, #183
 548 000a 034B     		ldr	r3, .L39
 549 000c 034A     		ldr	r2, .L39+4
 550 000e 0448     		ldr	r0, .L39+8
 551              	.LVL42:
 552              		.loc 1 183 3 discriminator 1 view .LVU156
 553 0010 FFF7FEFF 		bl	__assert_func
 554              	.LVL43:
 555              	.L37:
 184:Src/app_cam.c **** }
 556              		.loc 1 184 1 view .LVU157
 557 0014 08BD     		pop	{r3, pc}
 558              	.L40:
 559 0016 00BF     		.align	2
 560              	.L39:
 561 0018 00000000 		.word	.LC3
 562 001c 00000000 		.word	__func__.0
 563 0020 0B000000 		.word	.LC1
 564              		.cfi_endproc
 565              	.LFE3348:
 567              		.section	.rodata.__func__.0,"a"
 570              	__func__.0:
 571 0000 43414D5F 		.ascii	"CAM_IspUpdate\000"
 571      49737055 
 571      70646174 
 571      6500
 572              		.section	.rodata.__func__.1,"a"
 575              	__func__.1:
 576 0000 43414D5F 		.ascii	"CAM_NNPipe_Start\000"
 576      4E4E5069 
 576      70655F53 
 576      74617274 
 576      00
 577              		.section	.rodata.__func__.2,"a"
 580              	__func__.2:
ARM GAS  /tmp/ccSpRog1.s 			page 16


 581 0000 43414D5F 		.ascii	"CAM_DisplayPipe_Start\000"
 581      44697370 
 581      6C617950 
 581      6970655F 
 581      53746172 
 582              		.section	.rodata.__func__.3,"a"
 585              	__func__.3:
 586 0000 44434D49 		.ascii	"DCMIPP_PipeInitNn\000"
 586      50505F50 
 586      69706549 
 586      6E69744E 
 586      6E00
 587              		.section	.rodata.__func__.4,"a"
 590              	__func__.4:
 591 0000 43414D5F 		.ascii	"CAM_InitCropConfig\000"
 591      496E6974 
 591      43726F70 
 591      436F6E66 
 591      696700
 592              		.section	.rodata.__func__.5,"a"
 595              	__func__.5:
 596 0000 44434D49 		.ascii	"DCMIPP_PipeInitDisplay\000"
 596      50505F50 
 596      69706549 
 596      6E697444 
 596      6973706C 
 597              		.section	.rodata.__func__.6,"a"
 600              	__func__.6:
 601 0000 43414D5F 		.ascii	"CAM_Init\000"
 601      496E6974 
 601      00
 602              		.text
 603              	.Letext0:
 604              		.file 2 "/home/tanjiajun2002/renesas/rzv/e2studio_v2025-01_fsp_v3.1.0/toolchains/gcc_arm/arm-gnu-t
 605              		.file 3 "/home/tanjiajun2002/renesas/rzv/e2studio_v2025-01_fsp_v3.1.0/toolchains/gcc_arm/arm-gnu-t
 606              		.file 4 "STM32Cube_FW_N6/Drivers/STM32N6xx_HAL_Driver/Inc/stm32n6xx_hal_def.h"
 607              		.file 5 "Lib/Camera_Middleware/cmw_camera.h"
 608              		.file 6 "/home/tanjiajun2002/renesas/rzv/e2studio_v2025-01_fsp_v3.1.0/toolchains/gcc_arm/arm-gnu-t
ARM GAS  /tmp/ccSpRog1.s 			page 17

