ARM GAS  /tmp/cc1nC4Xu.s 			page 1


   1              		.arch armv8.1-m.main
   2              		.fpu fpv5-d16
   3              		.arch_extension dsp
   4              		.arch_extension fp
   5              		.arch_extension fp.dp
   6              		.arch_extension mve
   7              		.arch_extension mve.fp
   8              		.eabi_attribute 5, "cortex-m55"
   9              		.eabi_attribute 28, 1
  10              		.eabi_attribute 20, 1
  11              		.eabi_attribute 21, 1
  12              		.eabi_attribute 23, 3
  13              		.eabi_attribute 24, 1
  14              		.eabi_attribute 25, 1
  15              		.eabi_attribute 26, 1
  16              		.eabi_attribute 30, 4
  17              		.eabi_attribute 34, 1
  18              		.eabi_attribute 38, 1
  19              		.eabi_attribute 18, 4
  20              		.file	"face_landmark.c"
  21              		.text
  22              	.Ltext0:
  23              		.cfi_sections	.debug_frame
  24              		.file 1 "Model/face_landmark.c"
  25              		.section	.text._ec_blob_cache_start_func_109,"ax",%progbits
  26              		.align	1
  27              		.syntax unified
  28              		.thumb
  29              		.thumb_func
  31              	_ec_blob_cache_start_func_109:
  32              	.LVL0:
  33              	.LFB4855:
   1:Model/face_landmark.c **** /* AUTOGENERATED DO NOT MODIFY */
   2:Model/face_landmark.c **** 
   3:Model/face_landmark.c **** /**
   4:Model/face_landmark.c ****   ******************************************************************************
   5:Model/face_landmark.c ****   * @file    face_landmark.c
   6:Model/face_landmark.c ****   * @brief   NN Code autogenerated DO NOT MODIFY IT
   7:Model/face_landmark.c ****   ******************************************************************************
   8:Model/face_landmark.c ****   * @attention
   9:Model/face_landmark.c ****   *
  10:Model/face_landmark.c ****   * Copyright (c) 2023 STMicroelectronics.
  11:Model/face_landmark.c ****   * All rights reserved.
  12:Model/face_landmark.c ****   *
  13:Model/face_landmark.c ****   * This software is licensed under terms that can be found in the LICENSE file
  14:Model/face_landmark.c ****   * in the root directory of this software component.
  15:Model/face_landmark.c ****   * If no LICENSE file comes with this software, it is provided AS-IS.
  16:Model/face_landmark.c ****   *
  17:Model/face_landmark.c ****   ******************************************************************************
  18:Model/face_landmark.c ****   */
  19:Model/face_landmark.c **** 
  20:Model/face_landmark.c **** /*
  21:Model/face_landmark.c ****  * GIT_SHA         "e619e8606099384540d70eeaaa8091752b1bebe9"
  22:Model/face_landmark.c ****  * GIT_BRANCH      "STAI-2.2"
  23:Model/face_landmark.c ****  * GIT_DESCRIPTION "atonn-v1.1.1-14-ge619e860"
  24:Model/face_landmark.c ****  *
  25:Model/face_landmark.c ****  * Command Line options:
ARM GAS  /tmp/cc1nC4Xu.s 			page 2


  26:Model/face_landmark.c ****  * --load-mdesc-file = "/home/tanjiajun2002/ST/STEdgeAI/2.2/Utilities/configs/stm32n6"
  27:Model/face_landmark.c ****  * --load-mpool-file = "/home/tanjiajun2002/Work/local/st/x-cube-n6-ai-hand-landmarks/Model/my_mpoo
  28:Model/face_landmark.c ****  * --cache-maintenance = true
  29:Model/face_landmark.c ****  * --enable-virtual-mem-pools = true
  30:Model/face_landmark.c ****  * --native-float = true
  31:Model/face_landmark.c ****  * --json-quant-file = "/home/tanjiajun2002/Work/local/st/x-cube-n6-ai-hand-landmarks/Model/st_ai_o
  32:Model/face_landmark.c ****  * --optimization = 3
  33:Model/face_landmark.c ****  * --Os = true
  34:Model/face_landmark.c ****  * --Omax-ca-pipe = 4
  35:Model/face_landmark.c ****  * --Ocache-opt = true
  36:Model/face_landmark.c ****  * --enable-epoch-controller = true
  37:Model/face_landmark.c ****  * --output-info-file = "c_info"
  38:Model/face_landmark.c ****  * --Oalt-sched = true
  39:Model/face_landmark.c ****  * --onnx-input = "/home/tanjiajun2002/Work/local/st/x-cube-n6-ai-hand-landmarks/Model/st_ai_output
  40:Model/face_landmark.c ****  * --out-dir-prefix = "/home/tanjiajun2002/Work/local/st/x-cube-n6-ai-hand-landmarks/Model/st_ai_ws
  41:Model/face_landmark.c ****  * --network-name = "face_landmark"
  42:Model/face_landmark.c ****  * --all-buffers-info = true
  43:Model/face_landmark.c ****  * --mvei = true
  44:Model/face_landmark.c ****  */
  45:Model/face_landmark.c **** 
  46:Model/face_landmark.c **** #include "ll_aton_NN_interface.h"
  47:Model/face_landmark.c **** #include "ll_aton.h"
  48:Model/face_landmark.c **** #include "ll_aton_lib.h"
  49:Model/face_landmark.c **** #include "ll_aton_version.h"
  50:Model/face_landmark.c **** #include "ll_sw.h"
  51:Model/face_landmark.c **** #include "ecloader.h"
  52:Model/face_landmark.c **** 
  53:Model/face_landmark.c **** #if LL_ATON_VERSION_MAJOR != 1 || LL_ATON_VERSION_MINOR != 1 || LL_ATON_VERSION_MICRO != 1 || LL_AT
  54:Model/face_landmark.c **** #  error "Possible mismatch in ll_aton library used"
  55:Model/face_landmark.c **** #endif
  56:Model/face_landmark.c **** 
  57:Model/face_landmark.c **** #if !defined(LL_ATON_DBG_BUFFER_INFO_EXCLUDED)
  58:Model/face_landmark.c **** #  define LL_ATON_DBG_BUFFER_INFO_EXCLUDED 0
  59:Model/face_landmark.c **** #endif
  60:Model/face_landmark.c **** 
  61:Model/face_landmark.c **** /* global pool 4 is ? */
  62:Model/face_landmark.c **** /* index=4 file postfix=xSPI1 name=hyperRAM offset=0x90000000  absolute_mode size=16777208 READ_WRI
  63:Model/face_landmark.c **** /* global pool 5 is 627.98 KB */
  64:Model/face_landmark.c **** /* index=5 file postfix=xSPI2 name=octoFlash offset=0x71380000  absolute_mode size=4194296 READ_ONL
  65:Model/face_landmark.c **** /* global pool 8 is 720.00 KB */
  66:Model/face_landmark.c **** /* index=8 file postfix=AXISRAM3_AXISRAM4_AXISRAM5_AXISRAM6 name=npuRAM3_npuRAM4_npuRAM5_npuRAM6 of
  67:Model/face_landmark.c **** /* global pool 1 is ? */
  68:Model/face_landmark.c **** /* index=1 file postfix=AXISRAM5 name=npuRAM5 offset=0x342e0000  absolute_mode size=458752 READ_WRI
  69:Model/face_landmark.c **** /* global pool 2 is 272.00 KB */
  70:Model/face_landmark.c **** /* index=2 file postfix=AXISRAM4 name=npuRAM4 offset=0x34270000  absolute_mode size=458752 READ_WRI
  71:Model/face_landmark.c **** /* global pool 3 is 448.00 KB */
  72:Model/face_landmark.c **** /* index=3 file postfix=AXISRAM3 name=npuRAM3 offset=0x34200000  absolute_mode size=458752 READ_WRI
  73:Model/face_landmark.c **** /* global pool 0 is ? */
  74:Model/face_landmark.c **** /* index=0 file postfix=AXISRAM6 name=npuRAM6 offset=0x34350000  absolute_mode size=458744 READ_WRI
  75:Model/face_landmark.c **** 
  76:Model/face_landmark.c **** LL_ATON_User_IO_Result_t LL_ATON_Set_User_Input_Buffer_face_landmark(uint32_t num, void* buffer, ui
  77:Model/face_landmark.c **** {
  78:Model/face_landmark.c ****   { 
  79:Model/face_landmark.c ****     return LL_ATON_User_IO_WRONG_INDEX;
  80:Model/face_landmark.c ****   }
  81:Model/face_landmark.c **** }
  82:Model/face_landmark.c **** 
ARM GAS  /tmp/cc1nC4Xu.s 			page 3


  83:Model/face_landmark.c **** void *LL_ATON_Get_User_Input_Buffer_face_landmark(uint32_t num)
  84:Model/face_landmark.c **** {
  85:Model/face_landmark.c ****   { 
  86:Model/face_landmark.c ****     return NULL;
  87:Model/face_landmark.c ****   }
  88:Model/face_landmark.c **** }
  89:Model/face_landmark.c **** 
  90:Model/face_landmark.c **** LL_ATON_User_IO_Result_t LL_ATON_Set_User_Output_Buffer_face_landmark(uint32_t num, void* buffer, u
  91:Model/face_landmark.c **** {
  92:Model/face_landmark.c ****   { 
  93:Model/face_landmark.c ****     return LL_ATON_User_IO_WRONG_INDEX;
  94:Model/face_landmark.c ****   }
  95:Model/face_landmark.c **** }
  96:Model/face_landmark.c **** 
  97:Model/face_landmark.c **** void *LL_ATON_Get_User_Output_Buffer_face_landmark(uint32_t num)
  98:Model/face_landmark.c **** {
  99:Model/face_landmark.c ****   { 
 100:Model/face_landmark.c ****     return NULL;
 101:Model/face_landmark.c ****   }
 102:Model/face_landmark.c **** }
 103:Model/face_landmark.c **** 
 104:Model/face_landmark.c **** #include "face_landmark_ecblobs.h"
 105:Model/face_landmark.c **** 
 106:Model/face_landmark.c **** /* scheduling epoch=0    nodes=234 ----------------------------------------------------------------
 107:Model/face_landmark.c **** 
 108:Model/face_landmark.c **** // Epoch Controller Blob (name='_ec_blob_face_landmark_1') micro instructions needed
 109:Model/face_landmark.c **** 
 110:Model/face_landmark.c **** // Epoch Controller Blob (name='_ec_blob_face_landmark_1') start function
 111:Model/face_landmark.c **** static void _ec_blob_cache_start_func_1(const void *epoch_block) {
 112:Model/face_landmark.c ****   LL_ATON_LIB_UNUSED(epoch_block);
 113:Model/face_landmark.c **** 
 114:Model/face_landmark.c ****   /* *** MCU cache invalidate (only) operation (HW, whole range) *** */
 115:Model/face_landmark.c ****   /*     memory pool: 8 */
 116:Model/face_landmark.c ****   /*     start: ((uintptr_t)(ATON_LIB_PHYSICAL_TO_VIRTUAL_ADDR(0x34200000UL + 73728))) */
 117:Model/face_landmark.c ****   /*     end:   ((uintptr_t)(ATON_LIB_PHYSICAL_TO_VIRTUAL_ADDR(0x34200000UL + 110592))) */
 118:Model/face_landmark.c ****   LL_ATON_Cache_MCU_Invalidate_Range(((uintptr_t)(ATON_LIB_PHYSICAL_TO_VIRTUAL_ADDR(0x34200000UL + 
 119:Model/face_landmark.c **** 
 120:Model/face_landmark.c **** };
 121:Model/face_landmark.c **** 
 122:Model/face_landmark.c **** 
 123:Model/face_landmark.c **** /* scheduling epoch=12   nodes=1   ----------------------------------------------------------------
 124:Model/face_landmark.c **** 
 125:Model/face_landmark.c **** static void LL_ATON_End_EpochBlock_12(const void *epoch_block)
 126:Model/face_landmark.c **** {
 127:Model/face_landmark.c ****   LL_ATON_LIB_UNUSED(epoch_block);
 128:Model/face_landmark.c **** 
 129:Model/face_landmark.c ****   /* *** MCU cache invalidate (only) operation (SW, whole range) *** */
 130:Model/face_landmark.c ****   /*     memory pool: 8 */
 131:Model/face_landmark.c ****   /*     start: ((uintptr_t)(ATON_LIB_PHYSICAL_TO_VIRTUAL_ADDR(0x34200000UL + 110592))) */
 132:Model/face_landmark.c ****   /*     end:   ((uintptr_t)(ATON_LIB_PHYSICAL_TO_VIRTUAL_ADDR(0x34200000UL + 147456))) */
 133:Model/face_landmark.c ****   LL_ATON_Cache_MCU_Invalidate_Range(((uintptr_t)(ATON_LIB_PHYSICAL_TO_VIRTUAL_ADDR(0x34200000UL + 
 134:Model/face_landmark.c **** 
 135:Model/face_landmark.c ****   /* Reset the stream switch */
 136:Model/face_landmark.c ****   LL_Switch_Init(NULL, 0);
 137:Model/face_landmark.c **** 
 138:Model/face_landmark.c **** /* Unit= 27 [PROCESSOR 0] */
 139:Model/face_landmark.c **** /* kind=Transpose node=Transpose_32 */
ARM GAS  /tmp/cc1nC4Xu.s 			page 4


 140:Model/face_landmark.c ****   static const uint32_t Transpose_32_tensor_shape_in_12_shape_0[] = { 1, 48, 48, 16 };
 141:Model/face_landmark.c ****   static const LL_LIB_TensorShape_TypeDef Transpose_32_tensor_shape_in_12[] = {
 142:Model/face_landmark.c ****     {
 143:Model/face_landmark.c ****       .addr_base = {(unsigned char *)(0x34200000UL) /* Equivalent hex address = 0x34200000UL */},
 144:Model/face_landmark.c ****       .offset_start = 73728,
 145:Model/face_landmark.c ****       .offset_end = 110592,
 146:Model/face_landmark.c ****       .offset_limit = 110656,
 147:Model/face_landmark.c ****       .ndims = 4,
 148:Model/face_landmark.c ****       .nbits = 8,
 149:Model/face_landmark.c ****       .shape = Transpose_32_tensor_shape_in_12_shape_0,
 150:Model/face_landmark.c ****       .batch = 16,
 151:Model/face_landmark.c ****     }
 152:Model/face_landmark.c ****   };
 153:Model/face_landmark.c **** 
 154:Model/face_landmark.c ****   static const uint32_t Transpose_32_tensor_axes_offsets_in_12_0[] = { 36864, 768, 16, 1 };
 155:Model/face_landmark.c ****   static const uint32_t* Transpose_32_tensor_axes_offsets_in_12[] = {
 156:Model/face_landmark.c ****     Transpose_32_tensor_axes_offsets_in_12_0
 157:Model/face_landmark.c ****   };
 158:Model/face_landmark.c **** 
 159:Model/face_landmark.c ****   static const uint32_t Transpose_32_tensor_shape_out_12_shape_0[] = { 1, 16, 48, 48 };
 160:Model/face_landmark.c ****   static const LL_LIB_TensorShape_TypeDef Transpose_32_tensor_shape_out_12[] = {
 161:Model/face_landmark.c ****     {
 162:Model/face_landmark.c ****       .addr_base = {(unsigned char *)(0x34200000UL) /* Equivalent hex address = 0x34200000UL */},
 163:Model/face_landmark.c ****       .offset_start = 110592,
 164:Model/face_landmark.c ****       .offset_end = 147456,
 165:Model/face_landmark.c ****       .offset_limit = 147520,
 166:Model/face_landmark.c ****       .ndims = 4,
 167:Model/face_landmark.c ****       .nbits = 8,
 168:Model/face_landmark.c ****       .shape = Transpose_32_tensor_shape_out_12_shape_0,
 169:Model/face_landmark.c ****       .batch = 48,
 170:Model/face_landmark.c ****     }
 171:Model/face_landmark.c ****   };
 172:Model/face_landmark.c **** 
 173:Model/face_landmark.c ****   static const uint32_t Transpose_32_tensor_axes_offsets_out_12_0[] = { 36864, 2304, 48, 1 };
 174:Model/face_landmark.c ****   static const uint32_t* Transpose_32_tensor_axes_offsets_out_12[] = {
 175:Model/face_landmark.c ****     Transpose_32_tensor_axes_offsets_out_12_0
 176:Model/face_landmark.c ****   };
 177:Model/face_landmark.c **** 
 178:Model/face_landmark.c ****   static const uint8_t Transpose_32_perm_to_use_array_in_12[] = { 0, 3, 2, 1 };
 179:Model/face_landmark.c ****   static const uint8_t Transpose_32_target_pos_array_in_12[] = { 0, 3, 2, 1 };
 180:Model/face_landmark.c ****   LL_ATON_LIB_DMA_Transpose(&Transpose_32_tensor_shape_in_12[0], Transpose_32_tensor_axes_offsets_i
 181:Model/face_landmark.c **** 
 182:Model/face_landmark.c ****   /* *** MCU cache clean (only) operation (SW, whole range) *** */
 183:Model/face_landmark.c ****   /*     memory pool: 8 */
 184:Model/face_landmark.c ****   /*     start: ((uintptr_t)(ATON_LIB_PHYSICAL_TO_VIRTUAL_ADDR(0x34200000UL + 110592))) */
 185:Model/face_landmark.c ****   /*     end:   ((uintptr_t)(ATON_LIB_PHYSICAL_TO_VIRTUAL_ADDR(0x34200000UL + 147456))) */
 186:Model/face_landmark.c ****   LL_ATON_Cache_MCU_Clean_Range(((uintptr_t)(ATON_LIB_PHYSICAL_TO_VIRTUAL_ADDR(0x34200000UL + 11059
 187:Model/face_landmark.c **** 
 188:Model/face_landmark.c **** }
 189:Model/face_landmark.c **** 
 190:Model/face_landmark.c **** 
 191:Model/face_landmark.c **** // Epoch Controller Blob (name='_ec_blob_face_landmark_13') micro instructions needed
 192:Model/face_landmark.c **** 
 193:Model/face_landmark.c **** // Epoch Controller Blob (name='_ec_blob_face_landmark_13') start function
 194:Model/face_landmark.c **** static void _ec_blob_cache_start_func_13(const void *epoch_block) {
 195:Model/face_landmark.c ****   LL_ATON_LIB_UNUSED(epoch_block);
 196:Model/face_landmark.c **** 
ARM GAS  /tmp/cc1nC4Xu.s 			page 5


 197:Model/face_landmark.c ****   /* *** MCU cache invalidate (only) operation (HW, whole range) *** */
 198:Model/face_landmark.c ****   /*     memory pool: 8 */
 199:Model/face_landmark.c ****   /*     start: ((uintptr_t)(ATON_LIB_PHYSICAL_TO_VIRTUAL_ADDR(0x34200000UL + 73728))) */
 200:Model/face_landmark.c ****   /*     end:   ((uintptr_t)(ATON_LIB_PHYSICAL_TO_VIRTUAL_ADDR(0x34200000UL + 147456))) */
 201:Model/face_landmark.c ****   LL_ATON_Cache_MCU_Invalidate_Range(((uintptr_t)(ATON_LIB_PHYSICAL_TO_VIRTUAL_ADDR(0x34200000UL + 
 202:Model/face_landmark.c **** 
 203:Model/face_landmark.c **** };
 204:Model/face_landmark.c **** 
 205:Model/face_landmark.c **** 
 206:Model/face_landmark.c **** /* scheduling epoch=15   nodes=1   ----------------------------------------------------------------
 207:Model/face_landmark.c **** 
 208:Model/face_landmark.c **** static void LL_ATON_End_EpochBlock_15(const void *epoch_block)
 209:Model/face_landmark.c **** {
 210:Model/face_landmark.c ****   LL_ATON_LIB_UNUSED(epoch_block);
 211:Model/face_landmark.c **** 
 212:Model/face_landmark.c ****   /* *** MCU cache invalidate (only) operation (SW, whole range) *** */
 213:Model/face_landmark.c ****   /*     memory pool: 8 */
 214:Model/face_landmark.c ****   /*     start: ((uintptr_t)(ATON_LIB_PHYSICAL_TO_VIRTUAL_ADDR(0x34200000UL + 147456))) */
 215:Model/face_landmark.c ****   /*     end:   ((uintptr_t)(ATON_LIB_PHYSICAL_TO_VIRTUAL_ADDR(0x34200000UL + 221184))) */
 216:Model/face_landmark.c ****   LL_ATON_Cache_MCU_Invalidate_Range(((uintptr_t)(ATON_LIB_PHYSICAL_TO_VIRTUAL_ADDR(0x34200000UL + 
 217:Model/face_landmark.c **** 
 218:Model/face_landmark.c ****   /* Reset the stream switch */
 219:Model/face_landmark.c ****   LL_Switch_Init(NULL, 0);
 220:Model/face_landmark.c **** 
 221:Model/face_landmark.c **** /* Unit= 27 [PROCESSOR 0] */
 222:Model/face_landmark.c **** /* kind=Transpose node=Transpose_34 */
 223:Model/face_landmark.c ****   static const uint32_t Transpose_34_tensor_shape_in_15_shape_0[] = { 1, 48, 32, 48 };
 224:Model/face_landmark.c ****   static const LL_LIB_TensorShape_TypeDef Transpose_34_tensor_shape_in_15[] = {
 225:Model/face_landmark.c ****     {
 226:Model/face_landmark.c ****       .addr_base = {(unsigned char *)(0x34200000UL) /* Equivalent hex address = 0x34200000UL */},
 227:Model/face_landmark.c ****       .offset_start = 73728,
 228:Model/face_landmark.c ****       .offset_end = 147456,
 229:Model/face_landmark.c ****       .offset_limit = 147520,
 230:Model/face_landmark.c ****       .ndims = 4,
 231:Model/face_landmark.c ****       .nbits = 8,
 232:Model/face_landmark.c ****       .shape = Transpose_34_tensor_shape_in_15_shape_0,
 233:Model/face_landmark.c ****       .batch = 1,
 234:Model/face_landmark.c ****     }
 235:Model/face_landmark.c ****   };
 236:Model/face_landmark.c **** 
 237:Model/face_landmark.c ****   static const uint32_t Transpose_34_tensor_axes_offsets_in_15_0[] = { 73728, 1536, 48, 1 };
 238:Model/face_landmark.c ****   static const uint32_t* Transpose_34_tensor_axes_offsets_in_15[] = {
 239:Model/face_landmark.c ****     Transpose_34_tensor_axes_offsets_in_15_0
 240:Model/face_landmark.c ****   };
 241:Model/face_landmark.c **** 
 242:Model/face_landmark.c ****   static const uint32_t Transpose_34_tensor_shape_out_15_shape_0[] = { 1, 32, 48, 48 };
 243:Model/face_landmark.c ****   static const LL_LIB_TensorShape_TypeDef Transpose_34_tensor_shape_out_15[] = {
 244:Model/face_landmark.c ****     {
 245:Model/face_landmark.c ****       .addr_base = {(unsigned char *)(0x34200000UL) /* Equivalent hex address = 0x34200000UL */},
 246:Model/face_landmark.c ****       .offset_start = 147456,
 247:Model/face_landmark.c ****       .offset_end = 221184,
 248:Model/face_landmark.c ****       .offset_limit = 221248,
 249:Model/face_landmark.c ****       .ndims = 4,
 250:Model/face_landmark.c ****       .nbits = 8,
 251:Model/face_landmark.c ****       .shape = Transpose_34_tensor_shape_out_15_shape_0,
 252:Model/face_landmark.c ****       .batch = 1,
 253:Model/face_landmark.c ****     }
ARM GAS  /tmp/cc1nC4Xu.s 			page 6


 254:Model/face_landmark.c ****   };
 255:Model/face_landmark.c **** 
 256:Model/face_landmark.c ****   static const uint32_t Transpose_34_tensor_axes_offsets_out_15_0[] = { 73728, 2304, 48, 1 };
 257:Model/face_landmark.c ****   static const uint32_t* Transpose_34_tensor_axes_offsets_out_15[] = {
 258:Model/face_landmark.c ****     Transpose_34_tensor_axes_offsets_out_15_0
 259:Model/face_landmark.c ****   };
 260:Model/face_landmark.c **** 
 261:Model/face_landmark.c ****   static const uint8_t Transpose_34_perm_to_use_array_in_15[] = { 0, 2, 1, 3 };
 262:Model/face_landmark.c ****   static const uint8_t Transpose_34_target_pos_array_in_15[] = { 0, 2, 1, 3 };
 263:Model/face_landmark.c ****   LL_ATON_LIB_DMA_Transpose(&Transpose_34_tensor_shape_in_15[0], Transpose_34_tensor_axes_offsets_i
 264:Model/face_landmark.c **** 
 265:Model/face_landmark.c ****   /* *** MCU cache clean (only) operation (SW, whole range) *** */
 266:Model/face_landmark.c ****   /*     memory pool: 8 */
 267:Model/face_landmark.c ****   /*     start: ((uintptr_t)(ATON_LIB_PHYSICAL_TO_VIRTUAL_ADDR(0x34200000UL + 147456))) */
 268:Model/face_landmark.c ****   /*     end:   ((uintptr_t)(ATON_LIB_PHYSICAL_TO_VIRTUAL_ADDR(0x34200000UL + 221184))) */
 269:Model/face_landmark.c ****   LL_ATON_Cache_MCU_Clean_Range(((uintptr_t)(ATON_LIB_PHYSICAL_TO_VIRTUAL_ADDR(0x34200000UL + 14745
 270:Model/face_landmark.c **** 
 271:Model/face_landmark.c **** }
 272:Model/face_landmark.c **** 
 273:Model/face_landmark.c **** 
 274:Model/face_landmark.c **** // Epoch Controller Blob (name='_ec_blob_face_landmark_16') micro instructions needed
 275:Model/face_landmark.c **** 
 276:Model/face_landmark.c **** // Epoch Controller Blob (name='_ec_blob_face_landmark_16') start function
 277:Model/face_landmark.c **** static void _ec_blob_cache_start_func_16(const void *epoch_block) {
 278:Model/face_landmark.c ****   LL_ATON_LIB_UNUSED(epoch_block);
 279:Model/face_landmark.c **** 
 280:Model/face_landmark.c ****   /* *** MCU cache invalidate (only) operation (HW, whole range) *** */
 281:Model/face_landmark.c ****   /*     memory pool: 8 */
 282:Model/face_landmark.c ****   /*     start: ((uintptr_t)(ATON_LIB_PHYSICAL_TO_VIRTUAL_ADDR(0x34200000UL + 147456))) */
 283:Model/face_landmark.c ****   /*     end:   ((uintptr_t)(ATON_LIB_PHYSICAL_TO_VIRTUAL_ADDR(0x34200000UL + 184320))) */
 284:Model/face_landmark.c ****   LL_ATON_Cache_MCU_Invalidate_Range(((uintptr_t)(ATON_LIB_PHYSICAL_TO_VIRTUAL_ADDR(0x34200000UL + 
 285:Model/face_landmark.c **** 
 286:Model/face_landmark.c **** };
 287:Model/face_landmark.c **** 
 288:Model/face_landmark.c **** 
 289:Model/face_landmark.c **** /* scheduling epoch=29   nodes=1   ----------------------------------------------------------------
 290:Model/face_landmark.c **** 
 291:Model/face_landmark.c **** static void LL_ATON_End_EpochBlock_29(const void *epoch_block)
 292:Model/face_landmark.c **** {
 293:Model/face_landmark.c ****   LL_ATON_LIB_UNUSED(epoch_block);
 294:Model/face_landmark.c **** 
 295:Model/face_landmark.c ****   /* *** MCU cache invalidate (only) operation (SW, whole range) *** */
 296:Model/face_landmark.c ****   /*     memory pool: 8 */
 297:Model/face_landmark.c ****   /*     start: ((uintptr_t)(ATON_LIB_PHYSICAL_TO_VIRTUAL_ADDR(0x34200000UL + 0))) */
 298:Model/face_landmark.c ****   /*     end:   ((uintptr_t)(ATON_LIB_PHYSICAL_TO_VIRTUAL_ADDR(0x34200000UL + 36864))) */
 299:Model/face_landmark.c ****   LL_ATON_Cache_MCU_Invalidate_Range(((uintptr_t)(ATON_LIB_PHYSICAL_TO_VIRTUAL_ADDR(0x34200000UL + 
 300:Model/face_landmark.c **** 
 301:Model/face_landmark.c ****   /* Reset the stream switch */
 302:Model/face_landmark.c ****   LL_Switch_Init(NULL, 0);
 303:Model/face_landmark.c **** 
 304:Model/face_landmark.c **** /* Unit= 27 [PROCESSOR 0] */
 305:Model/face_landmark.c **** /* kind=Transpose node=Transpose_68 */
 306:Model/face_landmark.c ****   static const uint32_t Transpose_68_tensor_shape_in_29_shape_0[] = { 1, 24, 64, 24 };
 307:Model/face_landmark.c ****   static const LL_LIB_TensorShape_TypeDef Transpose_68_tensor_shape_in_29[] = {
 308:Model/face_landmark.c ****     {
 309:Model/face_landmark.c ****       .addr_base = {(unsigned char *)(0x34200000UL) /* Equivalent hex address = 0x34200000UL */},
 310:Model/face_landmark.c ****       .offset_start = 147456,
ARM GAS  /tmp/cc1nC4Xu.s 			page 7


 311:Model/face_landmark.c ****       .offset_end = 184320,
 312:Model/face_landmark.c ****       .offset_limit = 184384,
 313:Model/face_landmark.c ****       .ndims = 4,
 314:Model/face_landmark.c ****       .nbits = 8,
 315:Model/face_landmark.c ****       .shape = Transpose_68_tensor_shape_in_29_shape_0,
 316:Model/face_landmark.c ****       .batch = 1,
 317:Model/face_landmark.c ****     }
 318:Model/face_landmark.c ****   };
 319:Model/face_landmark.c **** 
 320:Model/face_landmark.c ****   static const uint32_t Transpose_68_tensor_axes_offsets_in_29_0[] = { 36864, 1536, 24, 1 };
 321:Model/face_landmark.c ****   static const uint32_t* Transpose_68_tensor_axes_offsets_in_29[] = {
 322:Model/face_landmark.c ****     Transpose_68_tensor_axes_offsets_in_29_0
 323:Model/face_landmark.c ****   };
 324:Model/face_landmark.c **** 
 325:Model/face_landmark.c ****   static const uint32_t Transpose_68_tensor_shape_out_29_shape_0[] = { 1, 64, 24, 24 };
 326:Model/face_landmark.c ****   static const LL_LIB_TensorShape_TypeDef Transpose_68_tensor_shape_out_29[] = {
 327:Model/face_landmark.c ****     {
 328:Model/face_landmark.c ****       .addr_base = {(unsigned char *)(0x34200000UL) /* Equivalent hex address = 0x34200000UL */},
 329:Model/face_landmark.c ****       .offset_start = 0,
 330:Model/face_landmark.c ****       .offset_end = 36864,
 331:Model/face_landmark.c ****       .offset_limit = 36928,
 332:Model/face_landmark.c ****       .ndims = 4,
 333:Model/face_landmark.c ****       .nbits = 8,
 334:Model/face_landmark.c ****       .shape = Transpose_68_tensor_shape_out_29_shape_0,
 335:Model/face_landmark.c ****       .batch = 1,
 336:Model/face_landmark.c ****     }
 337:Model/face_landmark.c ****   };
 338:Model/face_landmark.c **** 
 339:Model/face_landmark.c ****   static const uint32_t Transpose_68_tensor_axes_offsets_out_29_0[] = { 36864, 576, 24, 1 };
 340:Model/face_landmark.c ****   static const uint32_t* Transpose_68_tensor_axes_offsets_out_29[] = {
 341:Model/face_landmark.c ****     Transpose_68_tensor_axes_offsets_out_29_0
 342:Model/face_landmark.c ****   };
 343:Model/face_landmark.c **** 
 344:Model/face_landmark.c ****   static const uint8_t Transpose_68_perm_to_use_array_in_29[] = { 0, 2, 1, 3 };
 345:Model/face_landmark.c ****   static const uint8_t Transpose_68_target_pos_array_in_29[] = { 0, 2, 1, 3 };
 346:Model/face_landmark.c ****   LL_ATON_LIB_DMA_Transpose(&Transpose_68_tensor_shape_in_29[0], Transpose_68_tensor_axes_offsets_i
 347:Model/face_landmark.c **** 
 348:Model/face_landmark.c ****   /* *** MCU cache clean (only) operation (SW, whole range) *** */
 349:Model/face_landmark.c ****   /*     memory pool: 8 */
 350:Model/face_landmark.c ****   /*     start: ((uintptr_t)(ATON_LIB_PHYSICAL_TO_VIRTUAL_ADDR(0x34200000UL + 0))) */
 351:Model/face_landmark.c ****   /*     end:   ((uintptr_t)(ATON_LIB_PHYSICAL_TO_VIRTUAL_ADDR(0x34200000UL + 36864))) */
 352:Model/face_landmark.c ****   LL_ATON_Cache_MCU_Clean_Range(((uintptr_t)(ATON_LIB_PHYSICAL_TO_VIRTUAL_ADDR(0x34200000UL + 0))) 
 353:Model/face_landmark.c **** 
 354:Model/face_landmark.c **** }
 355:Model/face_landmark.c **** 
 356:Model/face_landmark.c **** 
 357:Model/face_landmark.c **** // Epoch Controller Blob (name='_ec_blob_face_landmark_30') micro instructions needed
 358:Model/face_landmark.c **** 
 359:Model/face_landmark.c **** // Epoch Controller Blob (name='_ec_blob_face_landmark_30') start function
 360:Model/face_landmark.c **** static void _ec_blob_cache_start_func_30(const void *epoch_block) {
 361:Model/face_landmark.c ****   LL_ATON_LIB_UNUSED(epoch_block);
 362:Model/face_landmark.c **** 
 363:Model/face_landmark.c ****   /* *** MCU cache invalidate (only) operation (HW, whole range) *** */
 364:Model/face_landmark.c ****   /*     memory pool: 8 */
 365:Model/face_landmark.c ****   /*     start: ((uintptr_t)(ATON_LIB_PHYSICAL_TO_VIRTUAL_ADDR(0x34200000UL + 73728))) */
 366:Model/face_landmark.c ****   /*     end:   ((uintptr_t)(ATON_LIB_PHYSICAL_TO_VIRTUAL_ADDR(0x34200000UL + 92160))) */
 367:Model/face_landmark.c ****   LL_ATON_Cache_MCU_Invalidate_Range(((uintptr_t)(ATON_LIB_PHYSICAL_TO_VIRTUAL_ADDR(0x34200000UL + 
ARM GAS  /tmp/cc1nC4Xu.s 			page 8


 368:Model/face_landmark.c **** 
 369:Model/face_landmark.c **** };
 370:Model/face_landmark.c **** 
 371:Model/face_landmark.c **** 
 372:Model/face_landmark.c **** /* scheduling epoch=45   nodes=1   ----------------------------------------------------------------
 373:Model/face_landmark.c **** 
 374:Model/face_landmark.c **** static void LL_ATON_End_EpochBlock_45(const void *epoch_block)
 375:Model/face_landmark.c **** {
 376:Model/face_landmark.c ****   LL_ATON_LIB_UNUSED(epoch_block);
 377:Model/face_landmark.c **** 
 378:Model/face_landmark.c ****   /* *** MCU cache invalidate (only) operation (SW, whole range) *** */
 379:Model/face_landmark.c ****   /*     memory pool: 8 */
 380:Model/face_landmark.c ****   /*     start: ((uintptr_t)(ATON_LIB_PHYSICAL_TO_VIRTUAL_ADDR(0x34200000UL + 0))) */
 381:Model/face_landmark.c ****   /*     end:   ((uintptr_t)(ATON_LIB_PHYSICAL_TO_VIRTUAL_ADDR(0x34200000UL + 18432))) */
 382:Model/face_landmark.c ****   LL_ATON_Cache_MCU_Invalidate_Range(((uintptr_t)(ATON_LIB_PHYSICAL_TO_VIRTUAL_ADDR(0x34200000UL + 
 383:Model/face_landmark.c **** 
 384:Model/face_landmark.c ****   /* Reset the stream switch */
 385:Model/face_landmark.c ****   LL_Switch_Init(NULL, 0);
 386:Model/face_landmark.c **** 
 387:Model/face_landmark.c **** /* Unit= 27 [PROCESSOR 0] */
 388:Model/face_landmark.c **** /* kind=Transpose node=Transpose_102 */
 389:Model/face_landmark.c ****   static const uint32_t Transpose_102_tensor_shape_in_45_shape_0[] = { 1, 12, 128, 12 };
 390:Model/face_landmark.c ****   static const LL_LIB_TensorShape_TypeDef Transpose_102_tensor_shape_in_45[] = {
 391:Model/face_landmark.c ****     {
 392:Model/face_landmark.c ****       .addr_base = {(unsigned char *)(0x34200000UL) /* Equivalent hex address = 0x34200000UL */},
 393:Model/face_landmark.c ****       .offset_start = 73728,
 394:Model/face_landmark.c ****       .offset_end = 92160,
 395:Model/face_landmark.c ****       .offset_limit = 92224,
 396:Model/face_landmark.c ****       .ndims = 4,
 397:Model/face_landmark.c ****       .nbits = 8,
 398:Model/face_landmark.c ****       .shape = Transpose_102_tensor_shape_in_45_shape_0,
 399:Model/face_landmark.c ****       .batch = 1,
 400:Model/face_landmark.c ****     }
 401:Model/face_landmark.c ****   };
 402:Model/face_landmark.c **** 
 403:Model/face_landmark.c ****   static const uint32_t Transpose_102_tensor_axes_offsets_in_45_0[] = { 18432, 1536, 12, 1 };
 404:Model/face_landmark.c ****   static const uint32_t* Transpose_102_tensor_axes_offsets_in_45[] = {
 405:Model/face_landmark.c ****     Transpose_102_tensor_axes_offsets_in_45_0
 406:Model/face_landmark.c ****   };
 407:Model/face_landmark.c **** 
 408:Model/face_landmark.c ****   static const uint32_t Transpose_102_tensor_shape_out_45_shape_0[] = { 1, 128, 12, 12 };
 409:Model/face_landmark.c ****   static const LL_LIB_TensorShape_TypeDef Transpose_102_tensor_shape_out_45[] = {
 410:Model/face_landmark.c ****     {
 411:Model/face_landmark.c ****       .addr_base = {(unsigned char *)(0x34200000UL) /* Equivalent hex address = 0x34200000UL */},
 412:Model/face_landmark.c ****       .offset_start = 0,
 413:Model/face_landmark.c ****       .offset_end = 18432,
 414:Model/face_landmark.c ****       .offset_limit = 18496,
 415:Model/face_landmark.c ****       .ndims = 4,
 416:Model/face_landmark.c ****       .nbits = 8,
 417:Model/face_landmark.c ****       .shape = Transpose_102_tensor_shape_out_45_shape_0,
 418:Model/face_landmark.c ****       .batch = 1,
 419:Model/face_landmark.c ****     }
 420:Model/face_landmark.c ****   };
 421:Model/face_landmark.c **** 
 422:Model/face_landmark.c ****   static const uint32_t Transpose_102_tensor_axes_offsets_out_45_0[] = { 18432, 144, 12, 1 };
 423:Model/face_landmark.c ****   static const uint32_t* Transpose_102_tensor_axes_offsets_out_45[] = {
 424:Model/face_landmark.c ****     Transpose_102_tensor_axes_offsets_out_45_0
ARM GAS  /tmp/cc1nC4Xu.s 			page 9


 425:Model/face_landmark.c ****   };
 426:Model/face_landmark.c **** 
 427:Model/face_landmark.c ****   static const uint8_t Transpose_102_perm_to_use_array_in_45[] = { 0, 2, 1, 3 };
 428:Model/face_landmark.c ****   static const uint8_t Transpose_102_target_pos_array_in_45[] = { 0, 2, 1, 3 };
 429:Model/face_landmark.c ****   LL_ATON_LIB_DMA_Transpose(&Transpose_102_tensor_shape_in_45[0], Transpose_102_tensor_axes_offsets
 430:Model/face_landmark.c **** 
 431:Model/face_landmark.c ****   /* *** MCU cache clean (only) operation (SW, whole range) *** */
 432:Model/face_landmark.c ****   /*     memory pool: 8 */
 433:Model/face_landmark.c ****   /*     start: ((uintptr_t)(ATON_LIB_PHYSICAL_TO_VIRTUAL_ADDR(0x34200000UL + 0))) */
 434:Model/face_landmark.c ****   /*     end:   ((uintptr_t)(ATON_LIB_PHYSICAL_TO_VIRTUAL_ADDR(0x34200000UL + 18432))) */
 435:Model/face_landmark.c ****   LL_ATON_Cache_MCU_Clean_Range(((uintptr_t)(ATON_LIB_PHYSICAL_TO_VIRTUAL_ADDR(0x34200000UL + 0))) 
 436:Model/face_landmark.c **** 
 437:Model/face_landmark.c **** }
 438:Model/face_landmark.c **** 
 439:Model/face_landmark.c **** 
 440:Model/face_landmark.c **** // Epoch Controller Blob (name='_ec_blob_face_landmark_46') micro instructions needed
 441:Model/face_landmark.c **** 
 442:Model/face_landmark.c **** // Epoch Controller Blob (name='_ec_blob_face_landmark_46') start function
 443:Model/face_landmark.c **** static void _ec_blob_cache_start_func_46(const void *epoch_block) {
 444:Model/face_landmark.c ****   LL_ATON_LIB_UNUSED(epoch_block);
 445:Model/face_landmark.c **** 
 446:Model/face_landmark.c ****   /* *** MCU cache invalidate (only) operation (HW, whole range) *** */
 447:Model/face_landmark.c ****   /*     memory pool: 8 */
 448:Model/face_landmark.c ****   /*     start: ((uintptr_t)(ATON_LIB_PHYSICAL_TO_VIRTUAL_ADDR(0x34200000UL + 2304))) */
 449:Model/face_landmark.c ****   /*     end:   ((uintptr_t)(ATON_LIB_PHYSICAL_TO_VIRTUAL_ADDR(0x34200000UL + 2880))) */
 450:Model/face_landmark.c ****   LL_ATON_Cache_MCU_Invalidate_Range(((uintptr_t)(ATON_LIB_PHYSICAL_TO_VIRTUAL_ADDR(0x34200000UL + 
 451:Model/face_landmark.c **** 
 452:Model/face_landmark.c **** };
 453:Model/face_landmark.c **** 
 454:Model/face_landmark.c **** 
 455:Model/face_landmark.c **** /* scheduling epoch=92   nodes=1   ----------------------------------------------------------------
 456:Model/face_landmark.c **** 
 457:Model/face_landmark.c **** static void LL_ATON_End_EpochBlock_92(const void *epoch_block)
 458:Model/face_landmark.c **** {
 459:Model/face_landmark.c ****   LL_ATON_LIB_UNUSED(epoch_block);
 460:Model/face_landmark.c **** 
 461:Model/face_landmark.c ****   /* *** MCU cache invalidate (only) operation (SW, whole range) *** */
 462:Model/face_landmark.c ****   /*     memory pool: 8 */
 463:Model/face_landmark.c ****   /*     start: ((uintptr_t)(ATON_LIB_PHYSICAL_TO_VIRTUAL_ADDR(0x34200000UL + 4608))) */
 464:Model/face_landmark.c ****   /*     end:   ((uintptr_t)(ATON_LIB_PHYSICAL_TO_VIRTUAL_ADDR(0x34200000UL + 5184))) */
 465:Model/face_landmark.c ****   LL_ATON_Cache_MCU_Invalidate_Range(((uintptr_t)(ATON_LIB_PHYSICAL_TO_VIRTUAL_ADDR(0x34200000UL + 
 466:Model/face_landmark.c **** 
 467:Model/face_landmark.c ****   /* Reset the stream switch */
 468:Model/face_landmark.c ****   LL_Switch_Init(NULL, 0);
 469:Model/face_landmark.c **** 
 470:Model/face_landmark.c **** /* Unit= 27 [PROCESSOR 0] */
 471:Model/face_landmark.c **** /* kind=SpaceToDepth node=SpaceToDepth_inserted_id1067 */
 472:Model/face_landmark.c ****   static const uint32_t SpaceToDepth_inserted_id1067_tensor_info_in_92__shape_1_32_3_3[] = { 1, 3, 
 473:Model/face_landmark.c ****   static const uint32_t SpaceToDepth_inserted_id1067_tensor_info_in_92__mem_shape_L_1_32_3_3[] = { 
 474:Model/face_landmark.c ****   static const float SpaceToDepth_inserted_id1067_tensor_info_in_92_Conv2D_189_zero_off_out_330_cop
 475:Model/face_landmark.c ****   static const int16_t SpaceToDepth_inserted_id1067_tensor_info_in_92_Conv2D_189_zero_off_out_330_c
 476:Model/face_landmark.c ****   static const LL_Buffer_InfoTypeDef SpaceToDepth_inserted_id1067_tensor_info_in_92[] = {
 477:Model/face_landmark.c ****     {
 478:Model/face_landmark.c ****       .name = "Conv2D_189_zero_off_out_330_copy_in_52",
 479:Model/face_landmark.c ****       .addr_base = {(unsigned char *)(0x34200000UL) /* Equivalent hex address = 0x34200000UL */},
 480:Model/face_landmark.c ****       .offset_start = 2304,
 481:Model/face_landmark.c ****       .offset_end = 2880,
ARM GAS  /tmp/cc1nC4Xu.s 			page 10


 482:Model/face_landmark.c ****       .offset_limit = 2944,
 483:Model/face_landmark.c ****       .is_user_allocated = 0,
 484:Model/face_landmark.c ****       .is_param = 0,
 485:Model/face_landmark.c ****       .epoch = 92,
 486:Model/face_landmark.c ****       .batch = 32,
 487:Model/face_landmark.c ****       .mem_shape = SpaceToDepth_inserted_id1067_tensor_info_in_92__mem_shape_L_1_32_3_3,
 488:Model/face_landmark.c ****       .mem_ndims = 4,
 489:Model/face_landmark.c ****       .chpos = CHPos_Last,
 490:Model/face_landmark.c ****       .Qm = 15,
 491:Model/face_landmark.c ****       .Qn = 0,
 492:Model/face_landmark.c ****       .Qunsigned = 0,
 493:Model/face_landmark.c ****       .type = DataType_INT16,
 494:Model/face_landmark.c ****       .nbits = 16,
 495:Model/face_landmark.c ****       .ndims = 4,
 496:Model/face_landmark.c ****       .shape = SpaceToDepth_inserted_id1067_tensor_info_in_92__shape_1_32_3_3,
 497:Model/face_landmark.c ****       .per_channel = 0,
 498:Model/face_landmark.c ****       .scale = SpaceToDepth_inserted_id1067_tensor_info_in_92_Conv2D_189_zero_off_out_330_copy_in_5
 499:Model/face_landmark.c ****       .offset = SpaceToDepth_inserted_id1067_tensor_info_in_92_Conv2D_189_zero_off_out_330_copy_in_
 500:Model/face_landmark.c ****     },
 501:Model/face_landmark.c ****     {
 502:Model/face_landmark.c ****       .name = NULL,
 503:Model/face_landmark.c ****     }
 504:Model/face_landmark.c ****   };
 505:Model/face_landmark.c **** 
 506:Model/face_landmark.c ****   static const uint32_t SpaceToDepth_inserted_id1067_tensor_info_out_92__shape_1_288_1_1[] = { 1, 1
 507:Model/face_landmark.c ****   static const uint32_t SpaceToDepth_inserted_id1067_tensor_info_out_92__mem_shape_F_1_288_1_1[] = 
 508:Model/face_landmark.c ****   static const float SpaceToDepth_inserted_id1067_tensor_info_out_92_Conv2D_189_zero_off_out_330_in
 509:Model/face_landmark.c ****   static const int16_t SpaceToDepth_inserted_id1067_tensor_info_out_92_Conv2D_189_zero_off_out_330_
 510:Model/face_landmark.c ****   static const LL_Buffer_InfoTypeDef SpaceToDepth_inserted_id1067_tensor_info_out_92[] = {
 511:Model/face_landmark.c ****     {
 512:Model/face_landmark.c ****       .name = "Conv2D_189_zero_off_out_330_inserted_out1066_cp_in_52",
 513:Model/face_landmark.c ****       .addr_base = {(unsigned char *)(0x34200000UL) /* Equivalent hex address = 0x34200000UL */},
 514:Model/face_landmark.c ****       .offset_start = 4608,
 515:Model/face_landmark.c ****       .offset_end = 5184,
 516:Model/face_landmark.c ****       .offset_limit = 5248,
 517:Model/face_landmark.c ****       .is_user_allocated = 0,
 518:Model/face_landmark.c ****       .is_param = 0,
 519:Model/face_landmark.c ****       .epoch = 92,
 520:Model/face_landmark.c ****       .batch = 288,
 521:Model/face_landmark.c ****       .mem_shape = SpaceToDepth_inserted_id1067_tensor_info_out_92__mem_shape_F_1_288_1_1,
 522:Model/face_landmark.c ****       .mem_ndims = 4,
 523:Model/face_landmark.c ****       .chpos = CHPos_First,
 524:Model/face_landmark.c ****       .Qm = 15,
 525:Model/face_landmark.c ****       .Qn = 0,
 526:Model/face_landmark.c ****       .Qunsigned = 0,
 527:Model/face_landmark.c ****       .type = DataType_INT16,
 528:Model/face_landmark.c ****       .nbits = 16,
 529:Model/face_landmark.c ****       .ndims = 4,
 530:Model/face_landmark.c ****       .shape = SpaceToDepth_inserted_id1067_tensor_info_out_92__shape_1_288_1_1,
 531:Model/face_landmark.c ****       .per_channel = 0,
 532:Model/face_landmark.c ****       .scale = SpaceToDepth_inserted_id1067_tensor_info_out_92_Conv2D_189_zero_off_out_330_inserted
 533:Model/face_landmark.c ****       .offset = SpaceToDepth_inserted_id1067_tensor_info_out_92_Conv2D_189_zero_off_out_330_inserte
 534:Model/face_landmark.c ****     },
 535:Model/face_landmark.c ****     {
 536:Model/face_landmark.c ****       .name = NULL,
 537:Model/face_landmark.c ****     }
 538:Model/face_landmark.c ****   };
ARM GAS  /tmp/cc1nC4Xu.s 			page 11


 539:Model/face_landmark.c **** 
 540:Model/face_landmark.c ****   LL_ATON_LIB_DMA_SpaceToDepth(SpaceToDepth_inserted_id1067_tensor_info_in_92, 1, SpaceToDepth_inse
 541:Model/face_landmark.c **** 
 542:Model/face_landmark.c ****   /* *** MCU cache clean (only) operation (SW, whole range) *** */
 543:Model/face_landmark.c ****   /*     memory pool: 8 */
 544:Model/face_landmark.c ****   /*     start: ((uintptr_t)(ATON_LIB_PHYSICAL_TO_VIRTUAL_ADDR(0x34200000UL + 4608))) */
 545:Model/face_landmark.c ****   /*     end:   ((uintptr_t)(ATON_LIB_PHYSICAL_TO_VIRTUAL_ADDR(0x34200000UL + 5184))) */
 546:Model/face_landmark.c ****   LL_ATON_Cache_MCU_Clean_Range(((uintptr_t)(ATON_LIB_PHYSICAL_TO_VIRTUAL_ADDR(0x34200000UL + 4608)
 547:Model/face_landmark.c **** 
 548:Model/face_landmark.c **** }
 549:Model/face_landmark.c **** 
 550:Model/face_landmark.c **** 
 551:Model/face_landmark.c **** // Epoch Controller Blob (name='_ec_blob_face_landmark_93') micro instructions needed
 552:Model/face_landmark.c **** 
 553:Model/face_landmark.c **** // Epoch Controller Blob (name='_ec_blob_face_landmark_93') start function
 554:Model/face_landmark.c **** static void _ec_blob_cache_start_func_93(const void *epoch_block) {
 555:Model/face_landmark.c ****   LL_ATON_LIB_UNUSED(epoch_block);
 556:Model/face_landmark.c **** 
 557:Model/face_landmark.c ****   /* *** MCU cache invalidate (only) operation (HW, whole range) *** */
 558:Model/face_landmark.c ****   /*     memory pool: 8 */
 559:Model/face_landmark.c ****   /*     start: ((uintptr_t)(ATON_LIB_PHYSICAL_TO_VIRTUAL_ADDR(0x34200000UL + 0))) */
 560:Model/face_landmark.c ****   /*     end:   ((uintptr_t)(ATON_LIB_PHYSICAL_TO_VIRTUAL_ADDR(0x34200000UL + 576))) */
 561:Model/face_landmark.c ****   LL_ATON_Cache_MCU_Invalidate_Range(((uintptr_t)(ATON_LIB_PHYSICAL_TO_VIRTUAL_ADDR(0x34200000UL + 
 562:Model/face_landmark.c **** 
 563:Model/face_landmark.c ****   /* *** MCU cache invalidate (only) operation (HW, whole range) *** */
 564:Model/face_landmark.c ****   /*     memory pool: 8 */
 565:Model/face_landmark.c ****   /*     start: ((uintptr_t)(ATON_LIB_PHYSICAL_TO_VIRTUAL_ADDR(0x34200000UL + 5184))) */
 566:Model/face_landmark.c ****   /*     end:   ((uintptr_t)(ATON_LIB_PHYSICAL_TO_VIRTUAL_ADDR(0x34200000UL + 5216))) */
 567:Model/face_landmark.c ****   LL_ATON_Cache_MCU_Invalidate_Range(((uintptr_t)(ATON_LIB_PHYSICAL_TO_VIRTUAL_ADDR(0x34200000UL + 
 568:Model/face_landmark.c **** 
 569:Model/face_landmark.c **** };
 570:Model/face_landmark.c **** 
 571:Model/face_landmark.c **** 
 572:Model/face_landmark.c **** /* scheduling epoch=108  nodes=1   ----------------------------------------------------------------
 573:Model/face_landmark.c **** 
 574:Model/face_landmark.c **** static void LL_ATON_End_EpochBlock_108(const void *epoch_block)
 575:Model/face_landmark.c **** {
 576:Model/face_landmark.c ****   LL_ATON_LIB_UNUSED(epoch_block);
 577:Model/face_landmark.c **** 
 578:Model/face_landmark.c ****   /* *** MCU cache invalidate (only) operation (SW, whole range) *** */
 579:Model/face_landmark.c ****   /*     memory pool: 8 */
 580:Model/face_landmark.c ****   /*     start: ((uintptr_t)(ATON_LIB_PHYSICAL_TO_VIRTUAL_ADDR(0x34200000UL + 1408))) */
 581:Model/face_landmark.c ****   /*     end:   ((uintptr_t)(ATON_LIB_PHYSICAL_TO_VIRTUAL_ADDR(0x34200000UL + 1984))) */
 582:Model/face_landmark.c ****   LL_ATON_Cache_MCU_Invalidate_Range(((uintptr_t)(ATON_LIB_PHYSICAL_TO_VIRTUAL_ADDR(0x34200000UL + 
 583:Model/face_landmark.c **** 
 584:Model/face_landmark.c ****   /* Reset the stream switch */
 585:Model/face_landmark.c ****   LL_Switch_Init(NULL, 0);
 586:Model/face_landmark.c **** 
 587:Model/face_landmark.c **** /* Unit= 27 [PROCESSOR 0] */
 588:Model/face_landmark.c **** /* kind=SpaceToDepth node=SpaceToDepth_inserted_id1075 */
 589:Model/face_landmark.c ****   static const uint32_t SpaceToDepth_inserted_id1075_tensor_info_in_108__shape_1_32_3_3[] = { 1, 3,
 590:Model/face_landmark.c ****   static const uint32_t SpaceToDepth_inserted_id1075_tensor_info_in_108__mem_shape_L_1_32_3_3[] = {
 591:Model/face_landmark.c ****   static const float SpaceToDepth_inserted_id1075_tensor_info_in_108_Conv2D_236_zero_off_out_420_co
 592:Model/face_landmark.c ****   static const int16_t SpaceToDepth_inserted_id1075_tensor_info_in_108_Conv2D_236_zero_off_out_420_
 593:Model/face_landmark.c ****   static const LL_Buffer_InfoTypeDef SpaceToDepth_inserted_id1075_tensor_info_in_108[] = {
 594:Model/face_landmark.c ****     {
 595:Model/face_landmark.c ****       .name = "Conv2D_236_zero_off_out_420_copy_in_55",
ARM GAS  /tmp/cc1nC4Xu.s 			page 12


 596:Model/face_landmark.c ****       .addr_base = {(unsigned char *)(0x34200000UL) /* Equivalent hex address = 0x34200000UL */},
 597:Model/face_landmark.c ****       .offset_start = 0,
 598:Model/face_landmark.c ****       .offset_end = 576,
 599:Model/face_landmark.c ****       .offset_limit = 640,
 600:Model/face_landmark.c ****       .is_user_allocated = 0,
 601:Model/face_landmark.c ****       .is_param = 0,
 602:Model/face_landmark.c ****       .epoch = 108,
 603:Model/face_landmark.c ****       .batch = 32,
 604:Model/face_landmark.c ****       .mem_shape = SpaceToDepth_inserted_id1075_tensor_info_in_108__mem_shape_L_1_32_3_3,
 605:Model/face_landmark.c ****       .mem_ndims = 4,
 606:Model/face_landmark.c ****       .chpos = CHPos_Last,
 607:Model/face_landmark.c ****       .Qm = 15,
 608:Model/face_landmark.c ****       .Qn = 0,
 609:Model/face_landmark.c ****       .Qunsigned = 0,
 610:Model/face_landmark.c ****       .type = DataType_INT16,
 611:Model/face_landmark.c ****       .nbits = 16,
 612:Model/face_landmark.c ****       .ndims = 4,
 613:Model/face_landmark.c ****       .shape = SpaceToDepth_inserted_id1075_tensor_info_in_108__shape_1_32_3_3,
 614:Model/face_landmark.c ****       .per_channel = 0,
 615:Model/face_landmark.c ****       .scale = SpaceToDepth_inserted_id1075_tensor_info_in_108_Conv2D_236_zero_off_out_420_copy_in_
 616:Model/face_landmark.c ****       .offset = SpaceToDepth_inserted_id1075_tensor_info_in_108_Conv2D_236_zero_off_out_420_copy_in
 617:Model/face_landmark.c ****     },
 618:Model/face_landmark.c ****     {
 619:Model/face_landmark.c ****       .name = NULL,
 620:Model/face_landmark.c ****     }
 621:Model/face_landmark.c ****   };
 622:Model/face_landmark.c **** 
 623:Model/face_landmark.c ****   static const uint32_t SpaceToDepth_inserted_id1075_tensor_info_out_108__shape_1_288_1_1[] = { 1, 
 624:Model/face_landmark.c ****   static const uint32_t SpaceToDepth_inserted_id1075_tensor_info_out_108__mem_shape_F_1_288_1_1[] =
 625:Model/face_landmark.c ****   static const float SpaceToDepth_inserted_id1075_tensor_info_out_108_Conv2D_236_zero_off_out_420_i
 626:Model/face_landmark.c ****   static const int16_t SpaceToDepth_inserted_id1075_tensor_info_out_108_Conv2D_236_zero_off_out_420
 627:Model/face_landmark.c ****   static const LL_Buffer_InfoTypeDef SpaceToDepth_inserted_id1075_tensor_info_out_108[] = {
 628:Model/face_landmark.c ****     {
 629:Model/face_landmark.c ****       .name = "Conv2D_236_zero_off_out_420_inserted_out1074_cp_in_55",
 630:Model/face_landmark.c ****       .addr_base = {(unsigned char *)(0x34200000UL) /* Equivalent hex address = 0x34200000UL */},
 631:Model/face_landmark.c ****       .offset_start = 1408,
 632:Model/face_landmark.c ****       .offset_end = 1984,
 633:Model/face_landmark.c ****       .offset_limit = 2048,
 634:Model/face_landmark.c ****       .is_user_allocated = 0,
 635:Model/face_landmark.c ****       .is_param = 0,
 636:Model/face_landmark.c ****       .epoch = 108,
 637:Model/face_landmark.c ****       .batch = 288,
 638:Model/face_landmark.c ****       .mem_shape = SpaceToDepth_inserted_id1075_tensor_info_out_108__mem_shape_F_1_288_1_1,
 639:Model/face_landmark.c ****       .mem_ndims = 4,
 640:Model/face_landmark.c ****       .chpos = CHPos_First,
 641:Model/face_landmark.c ****       .Qm = 15,
 642:Model/face_landmark.c ****       .Qn = 0,
 643:Model/face_landmark.c ****       .Qunsigned = 0,
 644:Model/face_landmark.c ****       .type = DataType_INT16,
 645:Model/face_landmark.c ****       .nbits = 16,
 646:Model/face_landmark.c ****       .ndims = 4,
 647:Model/face_landmark.c ****       .shape = SpaceToDepth_inserted_id1075_tensor_info_out_108__shape_1_288_1_1,
 648:Model/face_landmark.c ****       .per_channel = 0,
 649:Model/face_landmark.c ****       .scale = SpaceToDepth_inserted_id1075_tensor_info_out_108_Conv2D_236_zero_off_out_420_inserte
 650:Model/face_landmark.c ****       .offset = SpaceToDepth_inserted_id1075_tensor_info_out_108_Conv2D_236_zero_off_out_420_insert
 651:Model/face_landmark.c ****     },
 652:Model/face_landmark.c ****     {
ARM GAS  /tmp/cc1nC4Xu.s 			page 13


 653:Model/face_landmark.c ****       .name = NULL,
 654:Model/face_landmark.c ****     }
 655:Model/face_landmark.c ****   };
 656:Model/face_landmark.c **** 
 657:Model/face_landmark.c ****   LL_ATON_LIB_DMA_SpaceToDepth(SpaceToDepth_inserted_id1075_tensor_info_in_108, 1, SpaceToDepth_ins
 658:Model/face_landmark.c **** 
 659:Model/face_landmark.c ****   /* *** MCU cache clean (only) operation (SW, whole range) *** */
 660:Model/face_landmark.c ****   /*     memory pool: 8 */
 661:Model/face_landmark.c ****   /*     start: ((uintptr_t)(ATON_LIB_PHYSICAL_TO_VIRTUAL_ADDR(0x34200000UL + 1408))) */
 662:Model/face_landmark.c ****   /*     end:   ((uintptr_t)(ATON_LIB_PHYSICAL_TO_VIRTUAL_ADDR(0x34200000UL + 1984))) */
 663:Model/face_landmark.c ****   LL_ATON_Cache_MCU_Clean_Range(((uintptr_t)(ATON_LIB_PHYSICAL_TO_VIRTUAL_ADDR(0x34200000UL + 1408)
 664:Model/face_landmark.c **** 
 665:Model/face_landmark.c **** }
 666:Model/face_landmark.c **** 
 667:Model/face_landmark.c **** 
 668:Model/face_landmark.c **** // Epoch Controller Blob (name='_ec_blob_face_landmark_109') micro instructions needed
 669:Model/face_landmark.c **** 
 670:Model/face_landmark.c **** // Epoch Controller Blob (name='_ec_blob_face_landmark_109') start function
 671:Model/face_landmark.c **** static void _ec_blob_cache_start_func_109(const void *epoch_block) {
  34              		.loc 1 671 68 view -0
  35              		.cfi_startproc
  36              		@ args = 0, pretend = 0, frame = 0
  37              		@ frame_needed = 0, uses_anonymous_args = 0
  38              		@ link register save eliminated.
 672:Model/face_landmark.c ****   LL_ATON_LIB_UNUSED(epoch_block);
  39              		.loc 1 672 3 view .LVU1
 673:Model/face_landmark.c **** 
 674:Model/face_landmark.c ****   /* *** MCU cache invalidate (only) operation (HW, whole range) *** */
 675:Model/face_landmark.c ****   /*     memory pool: 8 */
 676:Model/face_landmark.c ****   /*     start: ((uintptr_t)(ATON_LIB_PHYSICAL_TO_VIRTUAL_ADDR(0x34200000UL + 0))) */
 677:Model/face_landmark.c ****   /*     end:   ((uintptr_t)(ATON_LIB_PHYSICAL_TO_VIRTUAL_ADDR(0x34200000UL + 1408))) */
 678:Model/face_landmark.c ****   LL_ATON_Cache_MCU_Invalidate_Range(((uintptr_t)(ATON_LIB_PHYSICAL_TO_VIRTUAL_ADDR(0x34200000UL + 
  40              		.loc 1 678 3 view .LVU2
  41              	.LBB42:
  42              	.LBI42:
  43              		.file 2 "Lib/AI_Runtime/Npu/ll_aton/ll_aton_caches_interface.h"
   1:Lib/AI_Runtime/Npu/ll_aton/ll_aton_caches_interface.h **** /**
   2:Lib/AI_Runtime/Npu/ll_aton/ll_aton_caches_interface.h ****  ******************************************************************************
   3:Lib/AI_Runtime/Npu/ll_aton/ll_aton_caches_interface.h ****  * @file    ll_aton_caches_interface.h
   4:Lib/AI_Runtime/Npu/ll_aton/ll_aton_caches_interface.h ****  * @author  SRA Artificial Intelligence & Embedded Architectures
   5:Lib/AI_Runtime/Npu/ll_aton/ll_aton_caches_interface.h ****  * @brief   Header file for defining an implementing generic cache handling
   6:Lib/AI_Runtime/Npu/ll_aton/ll_aton_caches_interface.h ****  *          functions for the application writer
   7:Lib/AI_Runtime/Npu/ll_aton/ll_aton_caches_interface.h ****  ******************************************************************************
   8:Lib/AI_Runtime/Npu/ll_aton/ll_aton_caches_interface.h ****  * @attention
   9:Lib/AI_Runtime/Npu/ll_aton/ll_aton_caches_interface.h ****  *
  10:Lib/AI_Runtime/Npu/ll_aton/ll_aton_caches_interface.h ****  * Copyright (c) 2024 STMicroelectronics.
  11:Lib/AI_Runtime/Npu/ll_aton/ll_aton_caches_interface.h ****  * All rights reserved.
  12:Lib/AI_Runtime/Npu/ll_aton/ll_aton_caches_interface.h ****  *
  13:Lib/AI_Runtime/Npu/ll_aton/ll_aton_caches_interface.h ****  * This software is licensed under terms that can be found in the LICENSE file
  14:Lib/AI_Runtime/Npu/ll_aton/ll_aton_caches_interface.h ****  * in the root directory of this software component.
  15:Lib/AI_Runtime/Npu/ll_aton/ll_aton_caches_interface.h ****  * If no LICENSE file comes with this software, it is provided AS-IS.
  16:Lib/AI_Runtime/Npu/ll_aton/ll_aton_caches_interface.h ****  *
  17:Lib/AI_Runtime/Npu/ll_aton/ll_aton_caches_interface.h ****  ******************************************************************************
  18:Lib/AI_Runtime/Npu/ll_aton/ll_aton_caches_interface.h ****  */
  19:Lib/AI_Runtime/Npu/ll_aton/ll_aton_caches_interface.h **** 
  20:Lib/AI_Runtime/Npu/ll_aton/ll_aton_caches_interface.h **** #ifndef __LL_ATON_CACHES_H
  21:Lib/AI_Runtime/Npu/ll_aton/ll_aton_caches_interface.h **** #define __LL_ATON_CACHES_H
ARM GAS  /tmp/cc1nC4Xu.s 			page 14


  22:Lib/AI_Runtime/Npu/ll_aton/ll_aton_caches_interface.h **** 
  23:Lib/AI_Runtime/Npu/ll_aton/ll_aton_caches_interface.h **** #include <stdint.h>
  24:Lib/AI_Runtime/Npu/ll_aton/ll_aton_caches_interface.h **** 
  25:Lib/AI_Runtime/Npu/ll_aton/ll_aton_caches_interface.h **** #ifdef __cplusplus
  26:Lib/AI_Runtime/Npu/ll_aton/ll_aton_caches_interface.h **** extern "C"
  27:Lib/AI_Runtime/Npu/ll_aton/ll_aton_caches_interface.h **** {
  28:Lib/AI_Runtime/Npu/ll_aton/ll_aton_caches_interface.h **** #endif
  29:Lib/AI_Runtime/Npu/ll_aton/ll_aton_caches_interface.h **** 
  30:Lib/AI_Runtime/Npu/ll_aton/ll_aton_caches_interface.h **** #include "ll_aton_osal.h"
  31:Lib/AI_Runtime/Npu/ll_aton/ll_aton_caches_interface.h **** #include "ll_aton_platform.h"
  32:Lib/AI_Runtime/Npu/ll_aton/ll_aton_caches_interface.h **** 
  33:Lib/AI_Runtime/Npu/ll_aton/ll_aton_caches_interface.h **** #if !defined(BUILD_AI_NETWORK_RELOC)
  34:Lib/AI_Runtime/Npu/ll_aton/ll_aton_caches_interface.h **** 
  35:Lib/AI_Runtime/Npu/ll_aton/ll_aton_caches_interface.h **** #if (LL_ATON_PLATFORM == LL_ATON_PLAT_STM32N6)
  36:Lib/AI_Runtime/Npu/ll_aton/ll_aton_caches_interface.h **** 
  37:Lib/AI_Runtime/Npu/ll_aton/ll_aton_caches_interface.h ****   /*** MCU cache maintenance functions ***/
  38:Lib/AI_Runtime/Npu/ll_aton/ll_aton_caches_interface.h **** 
  39:Lib/AI_Runtime/Npu/ll_aton/ll_aton_caches_interface.h ****   /**
  40:Lib/AI_Runtime/Npu/ll_aton/ll_aton_caches_interface.h ****    * @brief perform MCU cache clean maintenance operation on an address range
  41:Lib/AI_Runtime/Npu/ll_aton/ll_aton_caches_interface.h ****    * @details whenever the content of a buffer is changed by the application (which is especially t
  42:Lib/AI_Runtime/Npu/ll_aton/ll_aton_caches_interface.h ****    *          buffers) cache maintenance MUST be taken into account before being able to run the ne
  43:Lib/AI_Runtime/Npu/ll_aton/ll_aton_caches_interface.h ****    * @param[in] virtual_addr start address (host-side/virtual) of address range
  44:Lib/AI_Runtime/Npu/ll_aton/ll_aton_caches_interface.h ****    * @param[in] size size of address range
  45:Lib/AI_Runtime/Npu/ll_aton/ll_aton_caches_interface.h ****    *
  46:Lib/AI_Runtime/Npu/ll_aton/ll_aton_caches_interface.h ****    * @note the address range should fulfill alignment constraints with respect to the MCU cache lin
  47:Lib/AI_Runtime/Npu/ll_aton/ll_aton_caches_interface.h ****    *       for both its `address` & `size` (to better correspond to what this operation will actual
  48:Lib/AI_Runtime/Npu/ll_aton/ll_aton_caches_interface.h ****    * @note this function is intended to handle the case where a buffer has been filled by the MCU/p
  49:Lib/AI_Runtime/Npu/ll_aton/ll_aton_caches_interface.h ****    *       passing thru the MCU cache) and should be called AFTER that the buffer has been filled
  50:Lib/AI_Runtime/Npu/ll_aton/ll_aton_caches_interface.h ****    */
  51:Lib/AI_Runtime/Npu/ll_aton/ll_aton_caches_interface.h ****   static inline void LL_ATON_Cache_MCU_Clean_Range(uintptr_t virtual_addr, uint32_t size)
  52:Lib/AI_Runtime/Npu/ll_aton/ll_aton_caches_interface.h ****   {
  53:Lib/AI_Runtime/Npu/ll_aton/ll_aton_caches_interface.h ****     LL_ATON_OSAL_LOCK_MCU_CACHE();
  54:Lib/AI_Runtime/Npu/ll_aton/ll_aton_caches_interface.h ****     mcu_cache_clean_range(virtual_addr, virtual_addr + size);
  55:Lib/AI_Runtime/Npu/ll_aton/ll_aton_caches_interface.h ****     LL_ATON_OSAL_UNLOCK_MCU_CACHE();
  56:Lib/AI_Runtime/Npu/ll_aton/ll_aton_caches_interface.h ****   }
  57:Lib/AI_Runtime/Npu/ll_aton/ll_aton_caches_interface.h **** 
  58:Lib/AI_Runtime/Npu/ll_aton/ll_aton_caches_interface.h ****   /**
  59:Lib/AI_Runtime/Npu/ll_aton/ll_aton_caches_interface.h ****    * @brief perform MCU cache invalidate maintenance operation on an address range
  60:Lib/AI_Runtime/Npu/ll_aton/ll_aton_caches_interface.h ****    * @details whenever the content of a buffer is changed by the application (which is especially t
  61:Lib/AI_Runtime/Npu/ll_aton/ll_aton_caches_interface.h ****    *          buffers) cache maintenance MUST be taken into account before being able to run the ne
  62:Lib/AI_Runtime/Npu/ll_aton/ll_aton_caches_interface.h ****    * @param[in] virtual_addr start address (host-side/virtual) of address range
  63:Lib/AI_Runtime/Npu/ll_aton/ll_aton_caches_interface.h ****    * @param[in] size size of address range
  64:Lib/AI_Runtime/Npu/ll_aton/ll_aton_caches_interface.h ****    *
  65:Lib/AI_Runtime/Npu/ll_aton/ll_aton_caches_interface.h ****    * @note the address range should fulfill alignment constraints with respect to the MCU cache lin
  66:Lib/AI_Runtime/Npu/ll_aton/ll_aton_caches_interface.h ****    *       for both its `address` & `size` (to better correspond to what this operation will actual
  67:Lib/AI_Runtime/Npu/ll_aton/ll_aton_caches_interface.h ****    * @note this function is intended to handle the case where a buffer has been filled by-passing t
  68:Lib/AI_Runtime/Npu/ll_aton/ll_aton_caches_interface.h ****    *       cache (e.g. using a DMA) and should be called BEFORE the buffer gets filled
  69:Lib/AI_Runtime/Npu/ll_aton/ll_aton_caches_interface.h ****    */
  70:Lib/AI_Runtime/Npu/ll_aton/ll_aton_caches_interface.h ****   static inline void LL_ATON_Cache_MCU_Invalidate_Range(uintptr_t virtual_addr, uint32_t size)
  44              		.loc 2 70 22 view .LVU3
  45              	.LBB43:
  71:Lib/AI_Runtime/Npu/ll_aton/ll_aton_caches_interface.h ****   {
  72:Lib/AI_Runtime/Npu/ll_aton/ll_aton_caches_interface.h ****     LL_ATON_OSAL_LOCK_MCU_CACHE();
  46              		.loc 2 72 34 view .LVU4
  73:Lib/AI_Runtime/Npu/ll_aton/ll_aton_caches_interface.h ****     mcu_cache_invalidate_range(virtual_addr, virtual_addr + size);
  47              		.loc 2 73 5 view .LVU5
  48 0000 0149     		ldr	r1, .L2
ARM GAS  /tmp/cc1nC4Xu.s 			page 15


  49 0002 0248     		ldr	r0, .L2+4
  50              	.LVL1:
  51              		.loc 2 73 5 is_stmt 0 view .LVU6
  52 0004 FFF7FEBF 		b	mcu_cache_invalidate_range
  53              	.LVL2:
  54              	.L3:
  55              		.align	2
  56              	.L2:
  57 0008 80052034 		.word	874513792
  58 000c 00002034 		.word	874512384
  59              	.LBE43:
  60              	.LBE42:
  61              		.cfi_endproc
  62              	.LFE4855:
  64              		.section	.text._ec_blob_cache_start_func_93,"ax",%progbits
  65              		.align	1
  66              		.syntax unified
  67              		.thumb
  68              		.thumb_func
  70              	_ec_blob_cache_start_func_93:
  71              	.LVL3:
  72              	.LFB4853:
 554:Model/face_landmark.c ****   LL_ATON_LIB_UNUSED(epoch_block);
  73              		.loc 1 554 67 is_stmt 1 view -0
  74              		.cfi_startproc
  75              		@ args = 0, pretend = 0, frame = 0
  76              		@ frame_needed = 0, uses_anonymous_args = 0
 555:Model/face_landmark.c **** 
  77              		.loc 1 555 3 view .LVU8
 561:Model/face_landmark.c **** 
  78              		.loc 1 561 3 view .LVU9
  79              	.LBB44:
  80              	.LBI44:
  70:Lib/AI_Runtime/Npu/ll_aton/ll_aton_caches_interface.h ****   {
  81              		.loc 2 70 22 view .LVU10
  82              	.LBB45:
  72:Lib/AI_Runtime/Npu/ll_aton/ll_aton_caches_interface.h ****     mcu_cache_invalidate_range(virtual_addr, virtual_addr + size);
  83              		.loc 2 72 34 view .LVU11
  84              		.loc 2 73 5 view .LVU12
  85              	.LBE45:
  86              	.LBE44:
 554:Model/face_landmark.c ****   LL_ATON_LIB_UNUSED(epoch_block);
  87              		.loc 1 554 67 is_stmt 0 view .LVU13
  88 0000 08B5     		push	{r3, lr}
  89              		.cfi_def_cfa_offset 8
  90              		.cfi_offset 3, -8
  91              		.cfi_offset 14, -4
  92              	.LBB47:
  93              	.LBB46:
  94              		.loc 2 73 5 view .LVU14
  95 0002 0549     		ldr	r1, .L5
  96 0004 0548     		ldr	r0, .L5+4
  97              	.LVL4:
  98              		.loc 2 73 5 view .LVU15
  99 0006 FFF7FEFF 		bl	mcu_cache_invalidate_range
 100              	.LVL5:
  74:Lib/AI_Runtime/Npu/ll_aton/ll_aton_caches_interface.h ****     LL_ATON_OSAL_UNLOCK_MCU_CACHE();
ARM GAS  /tmp/cc1nC4Xu.s 			page 16


 101              		.loc 2 74 36 is_stmt 1 view .LVU16
 102              		.loc 2 74 36 is_stmt 0 view .LVU17
 103              	.LBE46:
 104              	.LBE47:
 567:Model/face_landmark.c **** 
 105              		.loc 1 567 3 is_stmt 1 view .LVU18
 106              	.LBB48:
 107              	.LBI48:
  70:Lib/AI_Runtime/Npu/ll_aton/ll_aton_caches_interface.h ****   {
 108              		.loc 2 70 22 view .LVU19
 109              	.LBB49:
  72:Lib/AI_Runtime/Npu/ll_aton/ll_aton_caches_interface.h ****     mcu_cache_invalidate_range(virtual_addr, virtual_addr + size);
 110              		.loc 2 72 34 view .LVU20
  73:Lib/AI_Runtime/Npu/ll_aton/ll_aton_caches_interface.h ****     LL_ATON_OSAL_UNLOCK_MCU_CACHE();
 111              		.loc 2 73 5 view .LVU21
 112              	.LBE49:
 113              	.LBE48:
 569:Model/face_landmark.c **** 
 114              		.loc 1 569 1 is_stmt 0 view .LVU22
 115 000a BDE80840 		pop	{r3, lr}
 116              		.cfi_restore 14
 117              		.cfi_restore 3
 118              		.cfi_def_cfa_offset 0
 119              	.LBB51:
 120              	.LBB50:
  73:Lib/AI_Runtime/Npu/ll_aton/ll_aton_caches_interface.h ****     LL_ATON_OSAL_UNLOCK_MCU_CACHE();
 121              		.loc 2 73 5 view .LVU23
 122 000e 0449     		ldr	r1, .L5+8
 123 0010 0448     		ldr	r0, .L5+12
 124 0012 FFF7FEBF 		b	mcu_cache_invalidate_range
 125              	.LVL6:
 126              	.L6:
 127 0016 00BF     		.align	2
 128              	.L5:
 129 0018 40022034 		.word	874512960
 130 001c 00002034 		.word	874512384
 131 0020 60142034 		.word	874517600
 132 0024 40142034 		.word	874517568
 133              	.LBE50:
 134              	.LBE51:
 135              		.cfi_endproc
 136              	.LFE4853:
 138              		.section	.text._ec_blob_cache_start_func_46,"ax",%progbits
 139              		.align	1
 140              		.syntax unified
 141              		.thumb
 142              		.thumb_func
 144              	_ec_blob_cache_start_func_46:
 145              	.LVL7:
 146              	.LFB4851:
 443:Model/face_landmark.c ****   LL_ATON_LIB_UNUSED(epoch_block);
 147              		.loc 1 443 67 is_stmt 1 view -0
 148              		.cfi_startproc
 149              		@ args = 0, pretend = 0, frame = 0
 150              		@ frame_needed = 0, uses_anonymous_args = 0
 151              		@ link register save eliminated.
 444:Model/face_landmark.c **** 
ARM GAS  /tmp/cc1nC4Xu.s 			page 17


 152              		.loc 1 444 3 view .LVU25
 450:Model/face_landmark.c **** 
 153              		.loc 1 450 3 view .LVU26
 154              	.LBB52:
 155              	.LBI52:
  70:Lib/AI_Runtime/Npu/ll_aton/ll_aton_caches_interface.h ****   {
 156              		.loc 2 70 22 view .LVU27
 157              	.LBB53:
  72:Lib/AI_Runtime/Npu/ll_aton/ll_aton_caches_interface.h ****     mcu_cache_invalidate_range(virtual_addr, virtual_addr + size);
 158              		.loc 2 72 34 view .LVU28
  73:Lib/AI_Runtime/Npu/ll_aton/ll_aton_caches_interface.h ****     LL_ATON_OSAL_UNLOCK_MCU_CACHE();
 159              		.loc 2 73 5 view .LVU29
 160 0000 0149     		ldr	r1, .L8
 161 0002 0248     		ldr	r0, .L8+4
 162              	.LVL8:
  73:Lib/AI_Runtime/Npu/ll_aton/ll_aton_caches_interface.h ****     LL_ATON_OSAL_UNLOCK_MCU_CACHE();
 163              		.loc 2 73 5 is_stmt 0 view .LVU30
 164 0004 FFF7FEBF 		b	mcu_cache_invalidate_range
 165              	.LVL9:
 166              	.L9:
 167              		.align	2
 168              	.L8:
 169 0008 400B2034 		.word	874515264
 170 000c 00092034 		.word	874514688
 171              	.LBE53:
 172              	.LBE52:
 173              		.cfi_endproc
 174              	.LFE4851:
 176              		.section	.text._ec_blob_cache_start_func_30,"ax",%progbits
 177              		.align	1
 178              		.syntax unified
 179              		.thumb
 180              		.thumb_func
 182              	_ec_blob_cache_start_func_30:
 183              	.LVL10:
 184              	.LFB4849:
 360:Model/face_landmark.c ****   LL_ATON_LIB_UNUSED(epoch_block);
 185              		.loc 1 360 67 is_stmt 1 view -0
 186              		.cfi_startproc
 187              		@ args = 0, pretend = 0, frame = 0
 188              		@ frame_needed = 0, uses_anonymous_args = 0
 189              		@ link register save eliminated.
 361:Model/face_landmark.c **** 
 190              		.loc 1 361 3 view .LVU32
 367:Model/face_landmark.c **** 
 191              		.loc 1 367 3 view .LVU33
 192              	.LBB54:
 193              	.LBI54:
  70:Lib/AI_Runtime/Npu/ll_aton/ll_aton_caches_interface.h ****   {
 194              		.loc 2 70 22 view .LVU34
 195              	.LBB55:
  72:Lib/AI_Runtime/Npu/ll_aton/ll_aton_caches_interface.h ****     mcu_cache_invalidate_range(virtual_addr, virtual_addr + size);
 196              		.loc 2 72 34 view .LVU35
  73:Lib/AI_Runtime/Npu/ll_aton/ll_aton_caches_interface.h ****     LL_ATON_OSAL_UNLOCK_MCU_CACHE();
 197              		.loc 2 73 5 view .LVU36
 198 0000 0149     		ldr	r1, .L11
 199 0002 0248     		ldr	r0, .L11+4
ARM GAS  /tmp/cc1nC4Xu.s 			page 18


 200              	.LVL11:
  73:Lib/AI_Runtime/Npu/ll_aton/ll_aton_caches_interface.h ****     LL_ATON_OSAL_UNLOCK_MCU_CACHE();
 201              		.loc 2 73 5 is_stmt 0 view .LVU37
 202 0004 FFF7FEBF 		b	mcu_cache_invalidate_range
 203              	.LVL12:
 204              	.L12:
 205              		.align	2
 206              	.L11:
 207 0008 00682134 		.word	874604544
 208 000c 00202134 		.word	874586112
 209              	.LBE55:
 210              	.LBE54:
 211              		.cfi_endproc
 212              	.LFE4849:
 214              		.section	.text._ec_blob_cache_start_func_16,"ax",%progbits
 215              		.align	1
 216              		.syntax unified
 217              		.thumb
 218              		.thumb_func
 220              	_ec_blob_cache_start_func_16:
 221              	.LVL13:
 222              	.LFB4847:
 277:Model/face_landmark.c ****   LL_ATON_LIB_UNUSED(epoch_block);
 223              		.loc 1 277 67 is_stmt 1 view -0
 224              		.cfi_startproc
 225              		@ args = 0, pretend = 0, frame = 0
 226              		@ frame_needed = 0, uses_anonymous_args = 0
 227              		@ link register save eliminated.
 278:Model/face_landmark.c **** 
 228              		.loc 1 278 3 view .LVU39
 284:Model/face_landmark.c **** 
 229              		.loc 1 284 3 view .LVU40
 230              	.LBB56:
 231              	.LBI56:
  70:Lib/AI_Runtime/Npu/ll_aton/ll_aton_caches_interface.h ****   {
 232              		.loc 2 70 22 view .LVU41
 233              	.LBB57:
  72:Lib/AI_Runtime/Npu/ll_aton/ll_aton_caches_interface.h ****     mcu_cache_invalidate_range(virtual_addr, virtual_addr + size);
 234              		.loc 2 72 34 view .LVU42
  73:Lib/AI_Runtime/Npu/ll_aton/ll_aton_caches_interface.h ****     LL_ATON_OSAL_UNLOCK_MCU_CACHE();
 235              		.loc 2 73 5 view .LVU43
 236 0000 0149     		ldr	r1, .L14
 237 0002 0248     		ldr	r0, .L14+4
 238              	.LVL14:
  73:Lib/AI_Runtime/Npu/ll_aton/ll_aton_caches_interface.h ****     LL_ATON_OSAL_UNLOCK_MCU_CACHE();
 239              		.loc 2 73 5 is_stmt 0 view .LVU44
 240 0004 FFF7FEBF 		b	mcu_cache_invalidate_range
 241              	.LVL15:
 242              	.L15:
 243              		.align	2
 244              	.L14:
 245 0008 00D02234 		.word	874696704
 246 000c 00402234 		.word	874659840
 247              	.LBE57:
 248              	.LBE56:
 249              		.cfi_endproc
 250              	.LFE4847:
ARM GAS  /tmp/cc1nC4Xu.s 			page 19


 252              		.section	.text._ec_blob_cache_start_func_13,"ax",%progbits
 253              		.align	1
 254              		.syntax unified
 255              		.thumb
 256              		.thumb_func
 258              	_ec_blob_cache_start_func_13:
 259              	.LVL16:
 260              	.LFB4845:
 194:Model/face_landmark.c ****   LL_ATON_LIB_UNUSED(epoch_block);
 261              		.loc 1 194 67 is_stmt 1 view -0
 262              		.cfi_startproc
 263              		@ args = 0, pretend = 0, frame = 0
 264              		@ frame_needed = 0, uses_anonymous_args = 0
 265              		@ link register save eliminated.
 195:Model/face_landmark.c **** 
 266              		.loc 1 195 3 view .LVU46
 201:Model/face_landmark.c **** 
 267              		.loc 1 201 3 view .LVU47
 268              	.LBB58:
 269              	.LBI58:
  70:Lib/AI_Runtime/Npu/ll_aton/ll_aton_caches_interface.h ****   {
 270              		.loc 2 70 22 view .LVU48
 271              	.LBB59:
  72:Lib/AI_Runtime/Npu/ll_aton/ll_aton_caches_interface.h ****     mcu_cache_invalidate_range(virtual_addr, virtual_addr + size);
 272              		.loc 2 72 34 view .LVU49
  73:Lib/AI_Runtime/Npu/ll_aton/ll_aton_caches_interface.h ****     LL_ATON_OSAL_UNLOCK_MCU_CACHE();
 273              		.loc 2 73 5 view .LVU50
 274 0000 0149     		ldr	r1, .L17
 275 0002 0248     		ldr	r0, .L17+4
 276              	.LVL17:
  73:Lib/AI_Runtime/Npu/ll_aton/ll_aton_caches_interface.h ****     LL_ATON_OSAL_UNLOCK_MCU_CACHE();
 277              		.loc 2 73 5 is_stmt 0 view .LVU51
 278 0004 FFF7FEBF 		b	mcu_cache_invalidate_range
 279              	.LVL18:
 280              	.L18:
 281              		.align	2
 282              	.L17:
 283 0008 00402234 		.word	874659840
 284 000c 00202134 		.word	874586112
 285              	.LBE59:
 286              	.LBE58:
 287              		.cfi_endproc
 288              	.LFE4845:
 290              		.section	.text._ec_blob_cache_start_func_1,"ax",%progbits
 291              		.align	1
 292              		.syntax unified
 293              		.thumb
 294              		.thumb_func
 296              	_ec_blob_cache_start_func_1:
 297              	.LVL19:
 298              	.LFB4843:
 111:Model/face_landmark.c ****   LL_ATON_LIB_UNUSED(epoch_block);
 299              		.loc 1 111 66 is_stmt 1 view -0
 300              		.cfi_startproc
 301              		@ args = 0, pretend = 0, frame = 0
 302              		@ frame_needed = 0, uses_anonymous_args = 0
 303              		@ link register save eliminated.
ARM GAS  /tmp/cc1nC4Xu.s 			page 20


 112:Model/face_landmark.c **** 
 304              		.loc 1 112 3 view .LVU53
 118:Model/face_landmark.c **** 
 305              		.loc 1 118 3 view .LVU54
 306              	.LBB60:
 307              	.LBI60:
  70:Lib/AI_Runtime/Npu/ll_aton/ll_aton_caches_interface.h ****   {
 308              		.loc 2 70 22 view .LVU55
 309              	.LBB61:
  72:Lib/AI_Runtime/Npu/ll_aton/ll_aton_caches_interface.h ****     mcu_cache_invalidate_range(virtual_addr, virtual_addr + size);
 310              		.loc 2 72 34 view .LVU56
  73:Lib/AI_Runtime/Npu/ll_aton/ll_aton_caches_interface.h ****     LL_ATON_OSAL_UNLOCK_MCU_CACHE();
 311              		.loc 2 73 5 view .LVU57
 312 0000 0149     		ldr	r1, .L20
 313 0002 0248     		ldr	r0, .L20+4
 314              	.LVL20:
  73:Lib/AI_Runtime/Npu/ll_aton/ll_aton_caches_interface.h ****     LL_ATON_OSAL_UNLOCK_MCU_CACHE();
 315              		.loc 2 73 5 is_stmt 0 view .LVU58
 316 0004 FFF7FEBF 		b	mcu_cache_invalidate_range
 317              	.LVL21:
 318              	.L21:
 319              		.align	2
 320              	.L20:
 321 0008 00B02134 		.word	874622976
 322 000c 00202134 		.word	874586112
 323              	.LBE61:
 324              	.LBE60:
 325              		.cfi_endproc
 326              	.LFE4843:
 328              		.section	.text.LL_ATON_End_EpochBlock_108,"ax",%progbits
 329              		.align	1
 330              		.syntax unified
 331              		.thumb
 332              		.thumb_func
 334              	LL_ATON_End_EpochBlock_108:
 335              	.LVL22:
 336              	.LFB4854:
 575:Model/face_landmark.c ****   LL_ATON_LIB_UNUSED(epoch_block);
 337              		.loc 1 575 1 is_stmt 1 view -0
 338              		.cfi_startproc
 339              		@ args = 0, pretend = 0, frame = 0
 340              		@ frame_needed = 0, uses_anonymous_args = 0
 576:Model/face_landmark.c **** 
 341              		.loc 1 576 3 view .LVU60
 582:Model/face_landmark.c **** 
 342              		.loc 1 582 3 view .LVU61
 343              	.LBB62:
 344              	.LBI62:
  70:Lib/AI_Runtime/Npu/ll_aton/ll_aton_caches_interface.h ****   {
 345              		.loc 2 70 22 view .LVU62
 346              	.LBB63:
  72:Lib/AI_Runtime/Npu/ll_aton/ll_aton_caches_interface.h ****     mcu_cache_invalidate_range(virtual_addr, virtual_addr + size);
 347              		.loc 2 72 34 view .LVU63
  73:Lib/AI_Runtime/Npu/ll_aton/ll_aton_caches_interface.h ****     LL_ATON_OSAL_UNLOCK_MCU_CACHE();
 348              		.loc 2 73 5 view .LVU64
 349              	.LBE63:
 350              	.LBE62:
ARM GAS  /tmp/cc1nC4Xu.s 			page 21


 575:Model/face_landmark.c ****   LL_ATON_LIB_UNUSED(epoch_block);
 351              		.loc 1 575 1 is_stmt 0 view .LVU65
 352 0000 30B5     		push	{r4, r5, lr}
 353              		.cfi_def_cfa_offset 12
 354              		.cfi_offset 4, -12
 355              		.cfi_offset 5, -8
 356              		.cfi_offset 14, -4
 357              	.LBB66:
 358              	.LBB64:
  73:Lib/AI_Runtime/Npu/ll_aton/ll_aton_caches_interface.h ****     LL_ATON_OSAL_UNLOCK_MCU_CACHE();
 359              		.loc 2 73 5 view .LVU66
 360 0002 0E4D     		ldr	r5, .L23
 361 0004 0E4C     		ldr	r4, .L23+4
 362              	.LBE64:
 363              	.LBE66:
 575:Model/face_landmark.c ****   LL_ATON_LIB_UNUSED(epoch_block);
 364              		.loc 1 575 1 view .LVU67
 365 0006 85B0     		sub	sp, sp, #20
 366              		.cfi_def_cfa_offset 32
 367              	.LBB67:
 368              	.LBB65:
  73:Lib/AI_Runtime/Npu/ll_aton/ll_aton_caches_interface.h ****     LL_ATON_OSAL_UNLOCK_MCU_CACHE();
 369              		.loc 2 73 5 view .LVU68
 370 0008 2946     		mov	r1, r5
 371 000a 2046     		mov	r0, r4
 372              	.LVL23:
  73:Lib/AI_Runtime/Npu/ll_aton/ll_aton_caches_interface.h ****     LL_ATON_OSAL_UNLOCK_MCU_CACHE();
 373              		.loc 2 73 5 view .LVU69
 374 000c FFF7FEFF 		bl	mcu_cache_invalidate_range
 375              	.LVL24:
 376              		.loc 2 74 36 is_stmt 1 view .LVU70
 377              		.loc 2 74 36 is_stmt 0 view .LVU71
 378              	.LBE65:
 379              	.LBE67:
 585:Model/face_landmark.c **** 
 380              		.loc 1 585 3 is_stmt 1 view .LVU72
 381 0010 0021     		movs	r1, #0
 382 0012 0846     		mov	r0, r1
 383 0014 FFF7FEFF 		bl	LL_Switch_Init
 384              	.LVL25:
 589:Model/face_landmark.c ****   static const uint32_t SpaceToDepth_inserted_id1075_tensor_info_in_108__mem_shape_L_1_32_3_3[] = {
 385              		.loc 1 589 3 view .LVU73
 590:Model/face_landmark.c ****   static const float SpaceToDepth_inserted_id1075_tensor_info_in_108_Conv2D_236_zero_off_out_420_co
 386              		.loc 1 590 3 view .LVU74
 591:Model/face_landmark.c ****   static const int16_t SpaceToDepth_inserted_id1075_tensor_info_in_108_Conv2D_236_zero_off_out_420_
 387              		.loc 1 591 3 view .LVU75
 592:Model/face_landmark.c ****   static const LL_Buffer_InfoTypeDef SpaceToDepth_inserted_id1075_tensor_info_in_108[] = {
 388              		.loc 1 592 3 view .LVU76
 593:Model/face_landmark.c ****     {
 389              		.loc 1 593 3 view .LVU77
 623:Model/face_landmark.c ****   static const uint32_t SpaceToDepth_inserted_id1075_tensor_info_out_108__mem_shape_F_1_288_1_1[] =
 390              		.loc 1 623 3 view .LVU78
 624:Model/face_landmark.c ****   static const float SpaceToDepth_inserted_id1075_tensor_info_out_108_Conv2D_236_zero_off_out_420_i
 391              		.loc 1 624 3 view .LVU79
 625:Model/face_landmark.c ****   static const int16_t SpaceToDepth_inserted_id1075_tensor_info_out_108_Conv2D_236_zero_off_out_420
 392              		.loc 1 625 3 view .LVU80
 626:Model/face_landmark.c ****   static const LL_Buffer_InfoTypeDef SpaceToDepth_inserted_id1075_tensor_info_out_108[] = {
ARM GAS  /tmp/cc1nC4Xu.s 			page 22


 393              		.loc 1 626 3 view .LVU81
 627:Model/face_landmark.c ****     {
 394              		.loc 1 627 3 view .LVU82
 657:Model/face_landmark.c **** 
 395              		.loc 1 657 3 view .LVU83
 396 0018 0121     		movs	r1, #1
 397 001a 0023     		movs	r3, #0
 398 001c CDE90131 		strd	r3, r1, [sp, #4]
 399 0020 0323     		movs	r3, #3
 400 0022 084A     		ldr	r2, .L23+8
 401 0024 0093     		str	r3, [sp]
 402 0026 0848     		ldr	r0, .L23+12
 403 0028 FFF7FEFF 		bl	LL_ATON_LIB_DMA_SpaceToDepth
 404              	.LVL26:
 663:Model/face_landmark.c **** 
 405              		.loc 1 663 3 view .LVU84
 406              	.LBB68:
 407              	.LBI68:
  51:Lib/AI_Runtime/Npu/ll_aton/ll_aton_caches_interface.h ****   {
 408              		.loc 2 51 22 view .LVU85
 409              	.LBB69:
  53:Lib/AI_Runtime/Npu/ll_aton/ll_aton_caches_interface.h ****     mcu_cache_clean_range(virtual_addr, virtual_addr + size);
 410              		.loc 2 53 34 view .LVU86
  54:Lib/AI_Runtime/Npu/ll_aton/ll_aton_caches_interface.h ****     LL_ATON_OSAL_UNLOCK_MCU_CACHE();
 411              		.loc 2 54 5 view .LVU87
 412 002c 2946     		mov	r1, r5
 413 002e 2046     		mov	r0, r4
 414              	.LBE69:
 415              	.LBE68:
 665:Model/face_landmark.c **** 
 416              		.loc 1 665 1 is_stmt 0 view .LVU88
 417 0030 05B0     		add	sp, sp, #20
 418              		.cfi_def_cfa_offset 12
 419              		@ sp needed
 420 0032 BDE83040 		pop	{r4, r5, lr}
 421              		.cfi_restore 14
 422              		.cfi_restore 5
 423              		.cfi_restore 4
 424              		.cfi_def_cfa_offset 0
 425              	.LBB71:
 426              	.LBB70:
  54:Lib/AI_Runtime/Npu/ll_aton/ll_aton_caches_interface.h ****     LL_ATON_OSAL_UNLOCK_MCU_CACHE();
 427              		.loc 2 54 5 view .LVU89
 428 0036 FFF7FEBF 		b	mcu_cache_clean_range
 429              	.LVL27:
 430              	.L24:
 431 003a 00BF     		.align	2
 432              	.L23:
 433 003c C0072034 		.word	874514368
 434 0040 80052034 		.word	874513792
 435 0044 00000000 		.word	SpaceToDepth_inserted_id1075_tensor_info_out_108.432
 436 0048 00000000 		.word	SpaceToDepth_inserted_id1075_tensor_info_in_108.433
 437              	.LBE70:
 438              	.LBE71:
 439              		.cfi_endproc
 440              	.LFE4854:
 442              		.section	.text.LL_ATON_End_EpochBlock_92,"ax",%progbits
ARM GAS  /tmp/cc1nC4Xu.s 			page 23


 443              		.align	1
 444              		.syntax unified
 445              		.thumb
 446              		.thumb_func
 448              	LL_ATON_End_EpochBlock_92:
 449              	.LVL28:
 450              	.LFB4852:
 458:Model/face_landmark.c ****   LL_ATON_LIB_UNUSED(epoch_block);
 451              		.loc 1 458 1 is_stmt 1 view -0
 452              		.cfi_startproc
 453              		@ args = 0, pretend = 0, frame = 0
 454              		@ frame_needed = 0, uses_anonymous_args = 0
 459:Model/face_landmark.c **** 
 455              		.loc 1 459 3 view .LVU91
 465:Model/face_landmark.c **** 
 456              		.loc 1 465 3 view .LVU92
 457              	.LBB72:
 458              	.LBI72:
  70:Lib/AI_Runtime/Npu/ll_aton/ll_aton_caches_interface.h ****   {
 459              		.loc 2 70 22 view .LVU93
 460              	.LBB73:
  72:Lib/AI_Runtime/Npu/ll_aton/ll_aton_caches_interface.h ****     mcu_cache_invalidate_range(virtual_addr, virtual_addr + size);
 461              		.loc 2 72 34 view .LVU94
  73:Lib/AI_Runtime/Npu/ll_aton/ll_aton_caches_interface.h ****     LL_ATON_OSAL_UNLOCK_MCU_CACHE();
 462              		.loc 2 73 5 view .LVU95
 463              	.LBE73:
 464              	.LBE72:
 458:Model/face_landmark.c ****   LL_ATON_LIB_UNUSED(epoch_block);
 465              		.loc 1 458 1 is_stmt 0 view .LVU96
 466 0000 30B5     		push	{r4, r5, lr}
 467              		.cfi_def_cfa_offset 12
 468              		.cfi_offset 4, -12
 469              		.cfi_offset 5, -8
 470              		.cfi_offset 14, -4
 471              	.LBB76:
 472              	.LBB74:
  73:Lib/AI_Runtime/Npu/ll_aton/ll_aton_caches_interface.h ****     LL_ATON_OSAL_UNLOCK_MCU_CACHE();
 473              		.loc 2 73 5 view .LVU97
 474 0002 0E4D     		ldr	r5, .L26
 475 0004 0E4C     		ldr	r4, .L26+4
 476              	.LBE74:
 477              	.LBE76:
 458:Model/face_landmark.c ****   LL_ATON_LIB_UNUSED(epoch_block);
 478              		.loc 1 458 1 view .LVU98
 479 0006 85B0     		sub	sp, sp, #20
 480              		.cfi_def_cfa_offset 32
 481              	.LBB77:
 482              	.LBB75:
  73:Lib/AI_Runtime/Npu/ll_aton/ll_aton_caches_interface.h ****     LL_ATON_OSAL_UNLOCK_MCU_CACHE();
 483              		.loc 2 73 5 view .LVU99
 484 0008 2946     		mov	r1, r5
 485 000a 2046     		mov	r0, r4
 486              	.LVL29:
  73:Lib/AI_Runtime/Npu/ll_aton/ll_aton_caches_interface.h ****     LL_ATON_OSAL_UNLOCK_MCU_CACHE();
 487              		.loc 2 73 5 view .LVU100
 488 000c FFF7FEFF 		bl	mcu_cache_invalidate_range
 489              	.LVL30:
ARM GAS  /tmp/cc1nC4Xu.s 			page 24


 490              		.loc 2 74 36 is_stmt 1 view .LVU101
 491              		.loc 2 74 36 is_stmt 0 view .LVU102
 492              	.LBE75:
 493              	.LBE77:
 468:Model/face_landmark.c **** 
 494              		.loc 1 468 3 is_stmt 1 view .LVU103
 495 0010 0021     		movs	r1, #0
 496 0012 0846     		mov	r0, r1
 497 0014 FFF7FEFF 		bl	LL_Switch_Init
 498              	.LVL31:
 472:Model/face_landmark.c ****   static const uint32_t SpaceToDepth_inserted_id1067_tensor_info_in_92__mem_shape_L_1_32_3_3[] = { 
 499              		.loc 1 472 3 view .LVU104
 473:Model/face_landmark.c ****   static const float SpaceToDepth_inserted_id1067_tensor_info_in_92_Conv2D_189_zero_off_out_330_cop
 500              		.loc 1 473 3 view .LVU105
 474:Model/face_landmark.c ****   static const int16_t SpaceToDepth_inserted_id1067_tensor_info_in_92_Conv2D_189_zero_off_out_330_c
 501              		.loc 1 474 3 view .LVU106
 475:Model/face_landmark.c ****   static const LL_Buffer_InfoTypeDef SpaceToDepth_inserted_id1067_tensor_info_in_92[] = {
 502              		.loc 1 475 3 view .LVU107
 476:Model/face_landmark.c ****     {
 503              		.loc 1 476 3 view .LVU108
 506:Model/face_landmark.c ****   static const uint32_t SpaceToDepth_inserted_id1067_tensor_info_out_92__mem_shape_F_1_288_1_1[] = 
 504              		.loc 1 506 3 view .LVU109
 507:Model/face_landmark.c ****   static const float SpaceToDepth_inserted_id1067_tensor_info_out_92_Conv2D_189_zero_off_out_330_in
 505              		.loc 1 507 3 view .LVU110
 508:Model/face_landmark.c ****   static const int16_t SpaceToDepth_inserted_id1067_tensor_info_out_92_Conv2D_189_zero_off_out_330_
 506              		.loc 1 508 3 view .LVU111
 509:Model/face_landmark.c ****   static const LL_Buffer_InfoTypeDef SpaceToDepth_inserted_id1067_tensor_info_out_92[] = {
 507              		.loc 1 509 3 view .LVU112
 510:Model/face_landmark.c ****     {
 508              		.loc 1 510 3 view .LVU113
 540:Model/face_landmark.c **** 
 509              		.loc 1 540 3 view .LVU114
 510 0018 0323     		movs	r3, #3
 511 001a 0222     		movs	r2, #2
 512 001c 0121     		movs	r1, #1
 513 001e CDE90123 		strd	r2, r3, [sp, #4]
 514 0022 0093     		str	r3, [sp]
 515 0024 074A     		ldr	r2, .L26+8
 516 0026 0848     		ldr	r0, .L26+12
 517 0028 FFF7FEFF 		bl	LL_ATON_LIB_DMA_SpaceToDepth
 518              	.LVL32:
 546:Model/face_landmark.c **** 
 519              		.loc 1 546 3 view .LVU115
 520              	.LBB78:
 521              	.LBI78:
  51:Lib/AI_Runtime/Npu/ll_aton/ll_aton_caches_interface.h ****   {
 522              		.loc 2 51 22 view .LVU116
 523              	.LBB79:
  53:Lib/AI_Runtime/Npu/ll_aton/ll_aton_caches_interface.h ****     mcu_cache_clean_range(virtual_addr, virtual_addr + size);
 524              		.loc 2 53 34 view .LVU117
  54:Lib/AI_Runtime/Npu/ll_aton/ll_aton_caches_interface.h ****     LL_ATON_OSAL_UNLOCK_MCU_CACHE();
 525              		.loc 2 54 5 view .LVU118
 526 002c 2946     		mov	r1, r5
 527 002e 2046     		mov	r0, r4
 528              	.LBE79:
 529              	.LBE78:
 548:Model/face_landmark.c **** 
ARM GAS  /tmp/cc1nC4Xu.s 			page 25


 530              		.loc 1 548 1 is_stmt 0 view .LVU119
 531 0030 05B0     		add	sp, sp, #20
 532              		.cfi_def_cfa_offset 12
 533              		@ sp needed
 534 0032 BDE83040 		pop	{r4, r5, lr}
 535              		.cfi_restore 14
 536              		.cfi_restore 5
 537              		.cfi_restore 4
 538              		.cfi_def_cfa_offset 0
 539              	.LBB81:
 540              	.LBB80:
  54:Lib/AI_Runtime/Npu/ll_aton/ll_aton_caches_interface.h ****     LL_ATON_OSAL_UNLOCK_MCU_CACHE();
 541              		.loc 2 54 5 view .LVU120
 542 0036 FFF7FEBF 		b	mcu_cache_clean_range
 543              	.LVL33:
 544              	.L27:
 545 003a 00BF     		.align	2
 546              	.L26:
 547 003c 40142034 		.word	874517568
 548 0040 00122034 		.word	874516992
 549 0044 00000000 		.word	SpaceToDepth_inserted_id1067_tensor_info_out_92.422
 550 0048 00000000 		.word	SpaceToDepth_inserted_id1067_tensor_info_in_92.423
 551              	.LBE80:
 552              	.LBE81:
 553              		.cfi_endproc
 554              	.LFE4852:
 556              		.section	.text.LL_ATON_End_EpochBlock_45,"ax",%progbits
 557              		.align	1
 558              		.syntax unified
 559              		.thumb
 560              		.thumb_func
 562              	LL_ATON_End_EpochBlock_45:
 563              	.LVL34:
 564              	.LFB4850:
 375:Model/face_landmark.c ****   LL_ATON_LIB_UNUSED(epoch_block);
 565              		.loc 1 375 1 is_stmt 1 view -0
 566              		.cfi_startproc
 567              		@ args = 0, pretend = 0, frame = 0
 568              		@ frame_needed = 0, uses_anonymous_args = 0
 376:Model/face_landmark.c **** 
 569              		.loc 1 376 3 view .LVU122
 382:Model/face_landmark.c **** 
 570              		.loc 1 382 3 view .LVU123
 571              	.LBB82:
 572              	.LBI82:
  70:Lib/AI_Runtime/Npu/ll_aton/ll_aton_caches_interface.h ****   {
 573              		.loc 2 70 22 view .LVU124
 574              	.LBB83:
  72:Lib/AI_Runtime/Npu/ll_aton/ll_aton_caches_interface.h ****     mcu_cache_invalidate_range(virtual_addr, virtual_addr + size);
 575              		.loc 2 72 34 view .LVU125
  73:Lib/AI_Runtime/Npu/ll_aton/ll_aton_caches_interface.h ****     LL_ATON_OSAL_UNLOCK_MCU_CACHE();
 576              		.loc 2 73 5 view .LVU126
 577              	.LBE83:
 578              	.LBE82:
 375:Model/face_landmark.c ****   LL_ATON_LIB_UNUSED(epoch_block);
 579              		.loc 1 375 1 is_stmt 0 view .LVU127
 580 0000 30B5     		push	{r4, r5, lr}
ARM GAS  /tmp/cc1nC4Xu.s 			page 26


 581              		.cfi_def_cfa_offset 12
 582              		.cfi_offset 4, -12
 583              		.cfi_offset 5, -8
 584              		.cfi_offset 14, -4
 585              	.LBB86:
 586              	.LBB84:
  73:Lib/AI_Runtime/Npu/ll_aton/ll_aton_caches_interface.h ****     LL_ATON_OSAL_UNLOCK_MCU_CACHE();
 587              		.loc 2 73 5 view .LVU128
 588 0002 104D     		ldr	r5, .L29
 589 0004 104C     		ldr	r4, .L29+4
 590              	.LBE84:
 591              	.LBE86:
 375:Model/face_landmark.c ****   LL_ATON_LIB_UNUSED(epoch_block);
 592              		.loc 1 375 1 view .LVU129
 593 0006 85B0     		sub	sp, sp, #20
 594              		.cfi_def_cfa_offset 32
 595              	.LBB87:
 596              	.LBB85:
  73:Lib/AI_Runtime/Npu/ll_aton/ll_aton_caches_interface.h ****     LL_ATON_OSAL_UNLOCK_MCU_CACHE();
 597              		.loc 2 73 5 view .LVU130
 598 0008 2946     		mov	r1, r5
 599 000a 2046     		mov	r0, r4
 600              	.LVL35:
  73:Lib/AI_Runtime/Npu/ll_aton/ll_aton_caches_interface.h ****     LL_ATON_OSAL_UNLOCK_MCU_CACHE();
 601              		.loc 2 73 5 view .LVU131
 602 000c FFF7FEFF 		bl	mcu_cache_invalidate_range
 603              	.LVL36:
 604              		.loc 2 74 36 is_stmt 1 view .LVU132
 605              		.loc 2 74 36 is_stmt 0 view .LVU133
 606              	.LBE85:
 607              	.LBE87:
 385:Model/face_landmark.c **** 
 608              		.loc 1 385 3 is_stmt 1 view .LVU134
 609 0010 0021     		movs	r1, #0
 610 0012 0846     		mov	r0, r1
 611 0014 FFF7FEFF 		bl	LL_Switch_Init
 612              	.LVL37:
 389:Model/face_landmark.c ****   static const LL_LIB_TensorShape_TypeDef Transpose_102_tensor_shape_in_45[] = {
 613              		.loc 1 389 3 view .LVU135
 390:Model/face_landmark.c ****     {
 614              		.loc 1 390 3 view .LVU136
 403:Model/face_landmark.c ****   static const uint32_t* Transpose_102_tensor_axes_offsets_in_45[] = {
 615              		.loc 1 403 3 view .LVU137
 404:Model/face_landmark.c ****     Transpose_102_tensor_axes_offsets_in_45_0
 616              		.loc 1 404 3 view .LVU138
 408:Model/face_landmark.c ****   static const LL_LIB_TensorShape_TypeDef Transpose_102_tensor_shape_out_45[] = {
 617              		.loc 1 408 3 view .LVU139
 409:Model/face_landmark.c ****     {
 618              		.loc 1 409 3 view .LVU140
 422:Model/face_landmark.c ****   static const uint32_t* Transpose_102_tensor_axes_offsets_out_45[] = {
 619              		.loc 1 422 3 view .LVU141
 423:Model/face_landmark.c ****     Transpose_102_tensor_axes_offsets_out_45_0
 620              		.loc 1 423 3 view .LVU142
 427:Model/face_landmark.c ****   static const uint8_t Transpose_102_target_pos_array_in_45[] = { 0, 2, 1, 3 };
 621              		.loc 1 427 3 view .LVU143
 428:Model/face_landmark.c ****   LL_ATON_LIB_DMA_Transpose(&Transpose_102_tensor_shape_in_45[0], Transpose_102_tensor_axes_offsets
 622              		.loc 1 428 3 view .LVU144
ARM GAS  /tmp/cc1nC4Xu.s 			page 27


 429:Model/face_landmark.c **** 
 623              		.loc 1 429 3 view .LVU145
 624 0018 0923     		movs	r3, #9
 625 001a 0022     		movs	r2, #0
 626 001c CDE90232 		strd	r3, r2, [sp, #8]
 627 0020 0A4B     		ldr	r3, .L29+8
 628 0022 0B4A     		ldr	r2, .L29+12
 629 0024 0193     		str	r3, [sp, #4]
 630 0026 0B4B     		ldr	r3, .L29+16
 631 0028 0B49     		ldr	r1, .L29+20
 632 002a 0093     		str	r3, [sp]
 633 002c 0B48     		ldr	r0, .L29+24
 634 002e 0C4B     		ldr	r3, .L29+28
 635 0030 FFF7FEFF 		bl	LL_ATON_LIB_DMA_Transpose
 636              	.LVL38:
 435:Model/face_landmark.c **** 
 637              		.loc 1 435 3 view .LVU146
 638              	.LBB88:
 639              	.LBI88:
  51:Lib/AI_Runtime/Npu/ll_aton/ll_aton_caches_interface.h ****   {
 640              		.loc 2 51 22 view .LVU147
 641              	.LBB89:
  53:Lib/AI_Runtime/Npu/ll_aton/ll_aton_caches_interface.h ****     mcu_cache_clean_range(virtual_addr, virtual_addr + size);
 642              		.loc 2 53 34 view .LVU148
  54:Lib/AI_Runtime/Npu/ll_aton/ll_aton_caches_interface.h ****     LL_ATON_OSAL_UNLOCK_MCU_CACHE();
 643              		.loc 2 54 5 view .LVU149
 644 0034 2946     		mov	r1, r5
 645 0036 2046     		mov	r0, r4
 646              	.LBE89:
 647              	.LBE88:
 437:Model/face_landmark.c **** 
 648              		.loc 1 437 1 is_stmt 0 view .LVU150
 649 0038 05B0     		add	sp, sp, #20
 650              		.cfi_def_cfa_offset 12
 651              		@ sp needed
 652 003a BDE83040 		pop	{r4, r5, lr}
 653              		.cfi_restore 14
 654              		.cfi_restore 5
 655              		.cfi_restore 4
 656              		.cfi_def_cfa_offset 0
 657              	.LBB91:
 658              	.LBB90:
  54:Lib/AI_Runtime/Npu/ll_aton/ll_aton_caches_interface.h ****     LL_ATON_OSAL_UNLOCK_MCU_CACHE();
 659              		.loc 2 54 5 view .LVU151
 660 003e FFF7FEBF 		b	mcu_cache_clean_range
 661              	.LVL39:
 662              	.L30:
 663 0042 00BF     		.align	2
 664              	.L29:
 665 0044 00482034 		.word	874530816
 666 0048 00002034 		.word	874512384
 667 004c 00000000 		.word	Transpose_102_perm_to_use_array_in_45.408
 668 0050 00000000 		.word	Transpose_102_tensor_shape_out_45.410
 669 0054 00000000 		.word	Transpose_102_target_pos_array_in_45.409
 670 0058 00000000 		.word	Transpose_102_tensor_axes_offsets_in_45_0.405
 671 005c 00000000 		.word	Transpose_102_tensor_shape_in_45.411
 672 0060 00000000 		.word	Transpose_102_tensor_axes_offsets_out_45_0.407
ARM GAS  /tmp/cc1nC4Xu.s 			page 28


 673              	.LBE90:
 674              	.LBE91:
 675              		.cfi_endproc
 676              	.LFE4850:
 678              		.section	.text.LL_ATON_End_EpochBlock_29,"ax",%progbits
 679              		.align	1
 680              		.syntax unified
 681              		.thumb
 682              		.thumb_func
 684              	LL_ATON_End_EpochBlock_29:
 685              	.LVL40:
 686              	.LFB4848:
 292:Model/face_landmark.c ****   LL_ATON_LIB_UNUSED(epoch_block);
 687              		.loc 1 292 1 is_stmt 1 view -0
 688              		.cfi_startproc
 689              		@ args = 0, pretend = 0, frame = 0
 690              		@ frame_needed = 0, uses_anonymous_args = 0
 293:Model/face_landmark.c **** 
 691              		.loc 1 293 3 view .LVU153
 299:Model/face_landmark.c **** 
 692              		.loc 1 299 3 view .LVU154
 693              	.LBB92:
 694              	.LBI92:
  70:Lib/AI_Runtime/Npu/ll_aton/ll_aton_caches_interface.h ****   {
 695              		.loc 2 70 22 view .LVU155
 696              	.LBB93:
  72:Lib/AI_Runtime/Npu/ll_aton/ll_aton_caches_interface.h ****     mcu_cache_invalidate_range(virtual_addr, virtual_addr + size);
 697              		.loc 2 72 34 view .LVU156
  73:Lib/AI_Runtime/Npu/ll_aton/ll_aton_caches_interface.h ****     LL_ATON_OSAL_UNLOCK_MCU_CACHE();
 698              		.loc 2 73 5 view .LVU157
 699              	.LBE93:
 700              	.LBE92:
 292:Model/face_landmark.c ****   LL_ATON_LIB_UNUSED(epoch_block);
 701              		.loc 1 292 1 is_stmt 0 view .LVU158
 702 0000 30B5     		push	{r4, r5, lr}
 703              		.cfi_def_cfa_offset 12
 704              		.cfi_offset 4, -12
 705              		.cfi_offset 5, -8
 706              		.cfi_offset 14, -4
 707              	.LBB96:
 708              	.LBB94:
  73:Lib/AI_Runtime/Npu/ll_aton/ll_aton_caches_interface.h ****     LL_ATON_OSAL_UNLOCK_MCU_CACHE();
 709              		.loc 2 73 5 view .LVU159
 710 0002 104D     		ldr	r5, .L32
 711 0004 104C     		ldr	r4, .L32+4
 712              	.LBE94:
 713              	.LBE96:
 292:Model/face_landmark.c ****   LL_ATON_LIB_UNUSED(epoch_block);
 714              		.loc 1 292 1 view .LVU160
 715 0006 85B0     		sub	sp, sp, #20
 716              		.cfi_def_cfa_offset 32
 717              	.LBB97:
 718              	.LBB95:
  73:Lib/AI_Runtime/Npu/ll_aton/ll_aton_caches_interface.h ****     LL_ATON_OSAL_UNLOCK_MCU_CACHE();
 719              		.loc 2 73 5 view .LVU161
 720 0008 2946     		mov	r1, r5
 721 000a 2046     		mov	r0, r4
ARM GAS  /tmp/cc1nC4Xu.s 			page 29


 722              	.LVL41:
  73:Lib/AI_Runtime/Npu/ll_aton/ll_aton_caches_interface.h ****     LL_ATON_OSAL_UNLOCK_MCU_CACHE();
 723              		.loc 2 73 5 view .LVU162
 724 000c FFF7FEFF 		bl	mcu_cache_invalidate_range
 725              	.LVL42:
 726              		.loc 2 74 36 is_stmt 1 view .LVU163
 727              		.loc 2 74 36 is_stmt 0 view .LVU164
 728              	.LBE95:
 729              	.LBE97:
 302:Model/face_landmark.c **** 
 730              		.loc 1 302 3 is_stmt 1 view .LVU165
 731 0010 0021     		movs	r1, #0
 732 0012 0846     		mov	r0, r1
 733 0014 FFF7FEFF 		bl	LL_Switch_Init
 734              	.LVL43:
 306:Model/face_landmark.c ****   static const LL_LIB_TensorShape_TypeDef Transpose_68_tensor_shape_in_29[] = {
 735              		.loc 1 306 3 view .LVU166
 307:Model/face_landmark.c ****     {
 736              		.loc 1 307 3 view .LVU167
 320:Model/face_landmark.c ****   static const uint32_t* Transpose_68_tensor_axes_offsets_in_29[] = {
 737              		.loc 1 320 3 view .LVU168
 321:Model/face_landmark.c ****     Transpose_68_tensor_axes_offsets_in_29_0
 738              		.loc 1 321 3 view .LVU169
 325:Model/face_landmark.c ****   static const LL_LIB_TensorShape_TypeDef Transpose_68_tensor_shape_out_29[] = {
 739              		.loc 1 325 3 view .LVU170
 326:Model/face_landmark.c ****     {
 740              		.loc 1 326 3 view .LVU171
 339:Model/face_landmark.c ****   static const uint32_t* Transpose_68_tensor_axes_offsets_out_29[] = {
 741              		.loc 1 339 3 view .LVU172
 340:Model/face_landmark.c ****     Transpose_68_tensor_axes_offsets_out_29_0
 742              		.loc 1 340 3 view .LVU173
 344:Model/face_landmark.c ****   static const uint8_t Transpose_68_target_pos_array_in_29[] = { 0, 2, 1, 3 };
 743              		.loc 1 344 3 view .LVU174
 345:Model/face_landmark.c ****   LL_ATON_LIB_DMA_Transpose(&Transpose_68_tensor_shape_in_29[0], Transpose_68_tensor_axes_offsets_i
 744              		.loc 1 345 3 view .LVU175
 346:Model/face_landmark.c **** 
 745              		.loc 1 346 3 view .LVU176
 746 0018 0623     		movs	r3, #6
 747 001a 0122     		movs	r2, #1
 748 001c CDE90232 		strd	r3, r2, [sp, #8]
 749 0020 0A4B     		ldr	r3, .L32+8
 750 0022 0B4A     		ldr	r2, .L32+12
 751 0024 0193     		str	r3, [sp, #4]
 752 0026 0B4B     		ldr	r3, .L32+16
 753 0028 0B49     		ldr	r1, .L32+20
 754 002a 0093     		str	r3, [sp]
 755 002c 0B48     		ldr	r0, .L32+24
 756 002e 0C4B     		ldr	r3, .L32+28
 757 0030 FFF7FEFF 		bl	LL_ATON_LIB_DMA_Transpose
 758              	.LVL44:
 352:Model/face_landmark.c **** 
 759              		.loc 1 352 3 view .LVU177
 760              	.LBB98:
 761              	.LBI98:
  51:Lib/AI_Runtime/Npu/ll_aton/ll_aton_caches_interface.h ****   {
 762              		.loc 2 51 22 view .LVU178
 763              	.LBB99:
ARM GAS  /tmp/cc1nC4Xu.s 			page 30


  53:Lib/AI_Runtime/Npu/ll_aton/ll_aton_caches_interface.h ****     mcu_cache_clean_range(virtual_addr, virtual_addr + size);
 764              		.loc 2 53 34 view .LVU179
  54:Lib/AI_Runtime/Npu/ll_aton/ll_aton_caches_interface.h ****     LL_ATON_OSAL_UNLOCK_MCU_CACHE();
 765              		.loc 2 54 5 view .LVU180
 766 0034 2946     		mov	r1, r5
 767 0036 2046     		mov	r0, r4
 768              	.LBE99:
 769              	.LBE98:
 354:Model/face_landmark.c **** 
 770              		.loc 1 354 1 is_stmt 0 view .LVU181
 771 0038 05B0     		add	sp, sp, #20
 772              		.cfi_def_cfa_offset 12
 773              		@ sp needed
 774 003a BDE83040 		pop	{r4, r5, lr}
 775              		.cfi_restore 14
 776              		.cfi_restore 5
 777              		.cfi_restore 4
 778              		.cfi_def_cfa_offset 0
 779              	.LBB101:
 780              	.LBB100:
  54:Lib/AI_Runtime/Npu/ll_aton/ll_aton_caches_interface.h ****     LL_ATON_OSAL_UNLOCK_MCU_CACHE();
 781              		.loc 2 54 5 view .LVU182
 782 003e FFF7FEBF 		b	mcu_cache_clean_range
 783              	.LVL45:
 784              	.L33:
 785 0042 00BF     		.align	2
 786              	.L32:
 787 0044 00902034 		.word	874549248
 788 0048 00002034 		.word	874512384
 789 004c 00000000 		.word	Transpose_68_perm_to_use_array_in_29.398
 790 0050 00000000 		.word	Transpose_68_tensor_shape_out_29.400
 791 0054 00000000 		.word	Transpose_68_target_pos_array_in_29.399
 792 0058 00000000 		.word	Transpose_68_tensor_axes_offsets_in_29_0.395
 793 005c 00000000 		.word	Transpose_68_tensor_shape_in_29.401
 794 0060 00000000 		.word	Transpose_68_tensor_axes_offsets_out_29_0.397
 795              	.LBE100:
 796              	.LBE101:
 797              		.cfi_endproc
 798              	.LFE4848:
 800              		.section	.text.LL_ATON_End_EpochBlock_15,"ax",%progbits
 801              		.align	1
 802              		.syntax unified
 803              		.thumb
 804              		.thumb_func
 806              	LL_ATON_End_EpochBlock_15:
 807              	.LVL46:
 808              	.LFB4846:
 209:Model/face_landmark.c ****   LL_ATON_LIB_UNUSED(epoch_block);
 809              		.loc 1 209 1 is_stmt 1 view -0
 810              		.cfi_startproc
 811              		@ args = 0, pretend = 0, frame = 0
 812              		@ frame_needed = 0, uses_anonymous_args = 0
 210:Model/face_landmark.c **** 
 813              		.loc 1 210 3 view .LVU184
 216:Model/face_landmark.c **** 
 814              		.loc 1 216 3 view .LVU185
 815              	.LBB102:
ARM GAS  /tmp/cc1nC4Xu.s 			page 31


 816              	.LBI102:
  70:Lib/AI_Runtime/Npu/ll_aton/ll_aton_caches_interface.h ****   {
 817              		.loc 2 70 22 view .LVU186
 818              	.LBB103:
  72:Lib/AI_Runtime/Npu/ll_aton/ll_aton_caches_interface.h ****     mcu_cache_invalidate_range(virtual_addr, virtual_addr + size);
 819              		.loc 2 72 34 view .LVU187
  73:Lib/AI_Runtime/Npu/ll_aton/ll_aton_caches_interface.h ****     LL_ATON_OSAL_UNLOCK_MCU_CACHE();
 820              		.loc 2 73 5 view .LVU188
 821              	.LBE103:
 822              	.LBE102:
 209:Model/face_landmark.c ****   LL_ATON_LIB_UNUSED(epoch_block);
 823              		.loc 1 209 1 is_stmt 0 view .LVU189
 824 0000 30B5     		push	{r4, r5, lr}
 825              		.cfi_def_cfa_offset 12
 826              		.cfi_offset 4, -12
 827              		.cfi_offset 5, -8
 828              		.cfi_offset 14, -4
 829              	.LBB106:
 830              	.LBB104:
  73:Lib/AI_Runtime/Npu/ll_aton/ll_aton_caches_interface.h ****     LL_ATON_OSAL_UNLOCK_MCU_CACHE();
 831              		.loc 2 73 5 view .LVU190
 832 0002 104D     		ldr	r5, .L35
 833 0004 104C     		ldr	r4, .L35+4
 834              	.LBE104:
 835              	.LBE106:
 209:Model/face_landmark.c ****   LL_ATON_LIB_UNUSED(epoch_block);
 836              		.loc 1 209 1 view .LVU191
 837 0006 85B0     		sub	sp, sp, #20
 838              		.cfi_def_cfa_offset 32
 839              	.LBB107:
 840              	.LBB105:
  73:Lib/AI_Runtime/Npu/ll_aton/ll_aton_caches_interface.h ****     LL_ATON_OSAL_UNLOCK_MCU_CACHE();
 841              		.loc 2 73 5 view .LVU192
 842 0008 2946     		mov	r1, r5
 843 000a 2046     		mov	r0, r4
 844              	.LVL47:
  73:Lib/AI_Runtime/Npu/ll_aton/ll_aton_caches_interface.h ****     LL_ATON_OSAL_UNLOCK_MCU_CACHE();
 845              		.loc 2 73 5 view .LVU193
 846 000c FFF7FEFF 		bl	mcu_cache_invalidate_range
 847              	.LVL48:
 848              		.loc 2 74 36 is_stmt 1 view .LVU194
 849              		.loc 2 74 36 is_stmt 0 view .LVU195
 850              	.LBE105:
 851              	.LBE107:
 219:Model/face_landmark.c **** 
 852              		.loc 1 219 3 is_stmt 1 view .LVU196
 853 0010 0021     		movs	r1, #0
 854 0012 0846     		mov	r0, r1
 855 0014 FFF7FEFF 		bl	LL_Switch_Init
 856              	.LVL49:
 223:Model/face_landmark.c ****   static const LL_LIB_TensorShape_TypeDef Transpose_34_tensor_shape_in_15[] = {
 857              		.loc 1 223 3 view .LVU197
 224:Model/face_landmark.c ****     {
 858              		.loc 1 224 3 view .LVU198
 237:Model/face_landmark.c ****   static const uint32_t* Transpose_34_tensor_axes_offsets_in_15[] = {
 859              		.loc 1 237 3 view .LVU199
 238:Model/face_landmark.c ****     Transpose_34_tensor_axes_offsets_in_15_0
ARM GAS  /tmp/cc1nC4Xu.s 			page 32


 860              		.loc 1 238 3 view .LVU200
 242:Model/face_landmark.c ****   static const LL_LIB_TensorShape_TypeDef Transpose_34_tensor_shape_out_15[] = {
 861              		.loc 1 242 3 view .LVU201
 243:Model/face_landmark.c ****     {
 862              		.loc 1 243 3 view .LVU202
 256:Model/face_landmark.c ****   static const uint32_t* Transpose_34_tensor_axes_offsets_out_15[] = {
 863              		.loc 1 256 3 view .LVU203
 257:Model/face_landmark.c ****     Transpose_34_tensor_axes_offsets_out_15_0
 864              		.loc 1 257 3 view .LVU204
 261:Model/face_landmark.c ****   static const uint8_t Transpose_34_target_pos_array_in_15[] = { 0, 2, 1, 3 };
 865              		.loc 1 261 3 view .LVU205
 262:Model/face_landmark.c ****   LL_ATON_LIB_DMA_Transpose(&Transpose_34_tensor_shape_in_15[0], Transpose_34_tensor_axes_offsets_i
 866              		.loc 1 262 3 view .LVU206
 263:Model/face_landmark.c **** 
 867              		.loc 1 263 3 view .LVU207
 868 0018 0423     		movs	r3, #4
 869 001a 0522     		movs	r2, #5
 870 001c CDE90232 		strd	r3, r2, [sp, #8]
 871 0020 0A4B     		ldr	r3, .L35+8
 872 0022 0B4A     		ldr	r2, .L35+12
 873 0024 0193     		str	r3, [sp, #4]
 874 0026 0B4B     		ldr	r3, .L35+16
 875 0028 0B49     		ldr	r1, .L35+20
 876 002a 0093     		str	r3, [sp]
 877 002c 0B48     		ldr	r0, .L35+24
 878 002e 0C4B     		ldr	r3, .L35+28
 879 0030 FFF7FEFF 		bl	LL_ATON_LIB_DMA_Transpose
 880              	.LVL50:
 269:Model/face_landmark.c **** 
 881              		.loc 1 269 3 view .LVU208
 882              	.LBB108:
 883              	.LBI108:
  51:Lib/AI_Runtime/Npu/ll_aton/ll_aton_caches_interface.h ****   {
 884              		.loc 2 51 22 view .LVU209
 885              	.LBB109:
  53:Lib/AI_Runtime/Npu/ll_aton/ll_aton_caches_interface.h ****     mcu_cache_clean_range(virtual_addr, virtual_addr + size);
 886              		.loc 2 53 34 view .LVU210
  54:Lib/AI_Runtime/Npu/ll_aton/ll_aton_caches_interface.h ****     LL_ATON_OSAL_UNLOCK_MCU_CACHE();
 887              		.loc 2 54 5 view .LVU211
 888 0034 2946     		mov	r1, r5
 889 0036 2046     		mov	r0, r4
 890              	.LBE109:
 891              	.LBE108:
 271:Model/face_landmark.c **** 
 892              		.loc 1 271 1 is_stmt 0 view .LVU212
 893 0038 05B0     		add	sp, sp, #20
 894              		.cfi_def_cfa_offset 12
 895              		@ sp needed
 896 003a BDE83040 		pop	{r4, r5, lr}
 897              		.cfi_restore 14
 898              		.cfi_restore 5
 899              		.cfi_restore 4
 900              		.cfi_def_cfa_offset 0
 901              	.LBB111:
 902              	.LBB110:
  54:Lib/AI_Runtime/Npu/ll_aton/ll_aton_caches_interface.h ****     LL_ATON_OSAL_UNLOCK_MCU_CACHE();
 903              		.loc 2 54 5 view .LVU213
ARM GAS  /tmp/cc1nC4Xu.s 			page 33


 904 003e FFF7FEBF 		b	mcu_cache_clean_range
 905              	.LVL51:
 906              	.L36:
 907 0042 00BF     		.align	2
 908              	.L35:
 909 0044 00602334 		.word	874733568
 910 0048 00402234 		.word	874659840
 911 004c 00000000 		.word	Transpose_34_perm_to_use_array_in_15.388
 912 0050 00000000 		.word	Transpose_34_tensor_shape_out_15.390
 913 0054 00000000 		.word	Transpose_34_target_pos_array_in_15.389
 914 0058 00000000 		.word	Transpose_34_tensor_axes_offsets_in_15_0.385
 915 005c 00000000 		.word	Transpose_34_tensor_shape_in_15.391
 916 0060 00000000 		.word	Transpose_34_tensor_axes_offsets_out_15_0.387
 917              	.LBE110:
 918              	.LBE111:
 919              		.cfi_endproc
 920              	.LFE4846:
 922              		.section	.text.LL_ATON_End_EpochBlock_12,"ax",%progbits
 923              		.align	1
 924              		.syntax unified
 925              		.thumb
 926              		.thumb_func
 928              	LL_ATON_End_EpochBlock_12:
 929              	.LVL52:
 930              	.LFB4844:
 126:Model/face_landmark.c ****   LL_ATON_LIB_UNUSED(epoch_block);
 931              		.loc 1 126 1 is_stmt 1 view -0
 932              		.cfi_startproc
 933              		@ args = 0, pretend = 0, frame = 0
 934              		@ frame_needed = 0, uses_anonymous_args = 0
 127:Model/face_landmark.c **** 
 935              		.loc 1 127 3 view .LVU215
 133:Model/face_landmark.c **** 
 936              		.loc 1 133 3 view .LVU216
 937              	.LBB112:
 938              	.LBI112:
  70:Lib/AI_Runtime/Npu/ll_aton/ll_aton_caches_interface.h ****   {
 939              		.loc 2 70 22 view .LVU217
 940              	.LBB113:
  72:Lib/AI_Runtime/Npu/ll_aton/ll_aton_caches_interface.h ****     mcu_cache_invalidate_range(virtual_addr, virtual_addr + size);
 941              		.loc 2 72 34 view .LVU218
  73:Lib/AI_Runtime/Npu/ll_aton/ll_aton_caches_interface.h ****     LL_ATON_OSAL_UNLOCK_MCU_CACHE();
 942              		.loc 2 73 5 view .LVU219
 943              	.LBE113:
 944              	.LBE112:
 126:Model/face_landmark.c ****   LL_ATON_LIB_UNUSED(epoch_block);
 945              		.loc 1 126 1 is_stmt 0 view .LVU220
 946 0000 30B5     		push	{r4, r5, lr}
 947              		.cfi_def_cfa_offset 12
 948              		.cfi_offset 4, -12
 949              		.cfi_offset 5, -8
 950              		.cfi_offset 14, -4
 951              	.LBB116:
 952              	.LBB114:
  73:Lib/AI_Runtime/Npu/ll_aton/ll_aton_caches_interface.h ****     LL_ATON_OSAL_UNLOCK_MCU_CACHE();
 953              		.loc 2 73 5 view .LVU221
 954 0002 104D     		ldr	r5, .L38
ARM GAS  /tmp/cc1nC4Xu.s 			page 34


 955 0004 104C     		ldr	r4, .L38+4
 956              	.LBE114:
 957              	.LBE116:
 126:Model/face_landmark.c ****   LL_ATON_LIB_UNUSED(epoch_block);
 958              		.loc 1 126 1 view .LVU222
 959 0006 85B0     		sub	sp, sp, #20
 960              		.cfi_def_cfa_offset 32
 961              	.LBB117:
 962              	.LBB115:
  73:Lib/AI_Runtime/Npu/ll_aton/ll_aton_caches_interface.h ****     LL_ATON_OSAL_UNLOCK_MCU_CACHE();
 963              		.loc 2 73 5 view .LVU223
 964 0008 2946     		mov	r1, r5
 965 000a 2046     		mov	r0, r4
 966              	.LVL53:
  73:Lib/AI_Runtime/Npu/ll_aton/ll_aton_caches_interface.h ****     LL_ATON_OSAL_UNLOCK_MCU_CACHE();
 967              		.loc 2 73 5 view .LVU224
 968 000c FFF7FEFF 		bl	mcu_cache_invalidate_range
 969              	.LVL54:
 970              		.loc 2 74 36 is_stmt 1 view .LVU225
 971              		.loc 2 74 36 is_stmt 0 view .LVU226
 972              	.LBE115:
 973              	.LBE117:
 136:Model/face_landmark.c **** 
 974              		.loc 1 136 3 is_stmt 1 view .LVU227
 975 0010 0021     		movs	r1, #0
 976 0012 0846     		mov	r0, r1
 977 0014 FFF7FEFF 		bl	LL_Switch_Init
 978              	.LVL55:
 140:Model/face_landmark.c ****   static const LL_LIB_TensorShape_TypeDef Transpose_32_tensor_shape_in_12[] = {
 979              		.loc 1 140 3 view .LVU228
 141:Model/face_landmark.c ****     {
 980              		.loc 1 141 3 view .LVU229
 154:Model/face_landmark.c ****   static const uint32_t* Transpose_32_tensor_axes_offsets_in_12[] = {
 981              		.loc 1 154 3 view .LVU230
 155:Model/face_landmark.c ****     Transpose_32_tensor_axes_offsets_in_12_0
 982              		.loc 1 155 3 view .LVU231
 159:Model/face_landmark.c ****   static const LL_LIB_TensorShape_TypeDef Transpose_32_tensor_shape_out_12[] = {
 983              		.loc 1 159 3 view .LVU232
 160:Model/face_landmark.c ****     {
 984              		.loc 1 160 3 view .LVU233
 173:Model/face_landmark.c ****   static const uint32_t* Transpose_32_tensor_axes_offsets_out_12[] = {
 985              		.loc 1 173 3 view .LVU234
 174:Model/face_landmark.c ****     Transpose_32_tensor_axes_offsets_out_12_0
 986              		.loc 1 174 3 view .LVU235
 178:Model/face_landmark.c ****   static const uint8_t Transpose_32_target_pos_array_in_12[] = { 0, 3, 2, 1 };
 987              		.loc 1 178 3 view .LVU236
 179:Model/face_landmark.c ****   LL_ATON_LIB_DMA_Transpose(&Transpose_32_tensor_shape_in_12[0], Transpose_32_tensor_axes_offsets_i
 988              		.loc 1 179 3 view .LVU237
 180:Model/face_landmark.c **** 
 989              		.loc 1 180 3 view .LVU238
 990 0018 0023     		movs	r3, #0
 991 001a 0322     		movs	r2, #3
 992 001c CDE90232 		strd	r3, r2, [sp, #8]
 993 0020 0A4B     		ldr	r3, .L38+8
 994 0022 0B4A     		ldr	r2, .L38+12
 995 0024 0193     		str	r3, [sp, #4]
 996 0026 0B4B     		ldr	r3, .L38+16
ARM GAS  /tmp/cc1nC4Xu.s 			page 35


 997 0028 0B49     		ldr	r1, .L38+20
 998 002a 0093     		str	r3, [sp]
 999 002c 0B48     		ldr	r0, .L38+24
 1000 002e 0C4B     		ldr	r3, .L38+28
 1001 0030 FFF7FEFF 		bl	LL_ATON_LIB_DMA_Transpose
 1002              	.LVL56:
 186:Model/face_landmark.c **** 
 1003              		.loc 1 186 3 view .LVU239
 1004              	.LBB118:
 1005              	.LBI118:
  51:Lib/AI_Runtime/Npu/ll_aton/ll_aton_caches_interface.h ****   {
 1006              		.loc 2 51 22 view .LVU240
 1007              	.LBB119:
  53:Lib/AI_Runtime/Npu/ll_aton/ll_aton_caches_interface.h ****     mcu_cache_clean_range(virtual_addr, virtual_addr + size);
 1008              		.loc 2 53 34 view .LVU241
  54:Lib/AI_Runtime/Npu/ll_aton/ll_aton_caches_interface.h ****     LL_ATON_OSAL_UNLOCK_MCU_CACHE();
 1009              		.loc 2 54 5 view .LVU242
 1010 0034 2946     		mov	r1, r5
 1011 0036 2046     		mov	r0, r4
 1012              	.LBE119:
 1013              	.LBE118:
 188:Model/face_landmark.c **** 
 1014              		.loc 1 188 1 is_stmt 0 view .LVU243
 1015 0038 05B0     		add	sp, sp, #20
 1016              		.cfi_def_cfa_offset 12
 1017              		@ sp needed
 1018 003a BDE83040 		pop	{r4, r5, lr}
 1019              		.cfi_restore 14
 1020              		.cfi_restore 5
 1021              		.cfi_restore 4
 1022              		.cfi_def_cfa_offset 0
 1023              	.LBB121:
 1024              	.LBB120:
  54:Lib/AI_Runtime/Npu/ll_aton/ll_aton_caches_interface.h ****     LL_ATON_OSAL_UNLOCK_MCU_CACHE();
 1025              		.loc 2 54 5 view .LVU244
 1026 003e FFF7FEBF 		b	mcu_cache_clean_range
 1027              	.LVL57:
 1028              	.L39:
 1029 0042 00BF     		.align	2
 1030              	.L38:
 1031 0044 00402234 		.word	874659840
 1032 0048 00B02134 		.word	874622976
 1033 004c 00000000 		.word	Transpose_32_perm_to_use_array_in_12.378
 1034 0050 00000000 		.word	Transpose_32_tensor_shape_out_12.380
 1035 0054 00000000 		.word	Transpose_32_target_pos_array_in_12.379
 1036 0058 00000000 		.word	Transpose_32_tensor_axes_offsets_in_12_0.375
 1037 005c 00000000 		.word	Transpose_32_tensor_shape_in_12.381
 1038 0060 00000000 		.word	Transpose_32_tensor_axes_offsets_out_12_0.377
 1039              	.LBE120:
 1040              	.LBE121:
 1041              		.cfi_endproc
 1042              	.LFE4844:
 1044              		.section	.text.LL_ATON_Set_User_Input_Buffer_face_landmark,"ax",%progbits
 1045              		.align	1
 1046              		.global	LL_ATON_Set_User_Input_Buffer_face_landmark
 1047              		.syntax unified
 1048              		.thumb
ARM GAS  /tmp/cc1nC4Xu.s 			page 36


 1049              		.thumb_func
 1051              	LL_ATON_Set_User_Input_Buffer_face_landmark:
 1052              	.LVL58:
 1053              	.LFB4837:
  77:Model/face_landmark.c ****   { 
 1054              		.loc 1 77 1 is_stmt 1 view -0
 1055              		.cfi_startproc
 1056              		@ args = 0, pretend = 0, frame = 0
 1057              		@ frame_needed = 0, uses_anonymous_args = 0
 1058              		@ link register save eliminated.
  79:Model/face_landmark.c ****   }
 1059              		.loc 1 79 5 view .LVU246
  81:Model/face_landmark.c **** 
 1060              		.loc 1 81 1 is_stmt 0 view .LVU247
 1061 0000 0320     		movs	r0, #3
 1062              	.LVL59:
  81:Model/face_landmark.c **** 
 1063              		.loc 1 81 1 view .LVU248
 1064 0002 7047     		bx	lr
 1065              		.cfi_endproc
 1066              	.LFE4837:
 1068              		.section	.text.LL_ATON_Get_User_Input_Buffer_face_landmark,"ax",%progbits
 1069              		.align	1
 1070              		.global	LL_ATON_Get_User_Input_Buffer_face_landmark
 1071              		.syntax unified
 1072              		.thumb
 1073              		.thumb_func
 1075              	LL_ATON_Get_User_Input_Buffer_face_landmark:
 1076              	.LVL60:
 1077              	.LFB4838:
  84:Model/face_landmark.c ****   { 
 1078              		.loc 1 84 1 is_stmt 1 view -0
 1079              		.cfi_startproc
 1080              		@ args = 0, pretend = 0, frame = 0
 1081              		@ frame_needed = 0, uses_anonymous_args = 0
 1082              		@ link register save eliminated.
  86:Model/face_landmark.c ****   }
 1083              		.loc 1 86 5 view .LVU250
  88:Model/face_landmark.c **** 
 1084              		.loc 1 88 1 is_stmt 0 view .LVU251
 1085 0000 0020     		movs	r0, #0
 1086              	.LVL61:
  88:Model/face_landmark.c **** 
 1087              		.loc 1 88 1 view .LVU252
 1088 0002 7047     		bx	lr
 1089              		.cfi_endproc
 1090              	.LFE4838:
 1092              		.section	.text.LL_ATON_Set_User_Output_Buffer_face_landmark,"ax",%progbits
 1093              		.align	1
 1094              		.global	LL_ATON_Set_User_Output_Buffer_face_landmark
 1095              		.syntax unified
 1096              		.thumb
 1097              		.thumb_func
 1099              	LL_ATON_Set_User_Output_Buffer_face_landmark:
 1100              	.LFB4861:
 1101              		.cfi_startproc
  90:Model/face_landmark.c **** {
ARM GAS  /tmp/cc1nC4Xu.s 			page 37


 1102              		.loc 1 90 26 is_stmt 1 view -0
 1103              		@ args = 0, pretend = 0, frame = 0
 1104              		@ frame_needed = 0, uses_anonymous_args = 0
 1105              		@ link register save eliminated.
 1106 0000 0320     		movs	r0, #3
 1107 0002 7047     		bx	lr
 1108              		.cfi_endproc
 1109              	.LFE4861:
 1111              		.section	.text.LL_ATON_Get_User_Output_Buffer_face_landmark,"ax",%progbits
 1112              		.align	1
 1113              		.global	LL_ATON_Get_User_Output_Buffer_face_landmark
 1114              		.syntax unified
 1115              		.thumb
 1116              		.thumb_func
 1118              	LL_ATON_Get_User_Output_Buffer_face_landmark:
 1119              	.LFB4863:
 1120              		.cfi_startproc
  97:Model/face_landmark.c **** {
 1121              		.loc 1 97 7 view -0
 1122              		@ args = 0, pretend = 0, frame = 0
 1123              		@ frame_needed = 0, uses_anonymous_args = 0
 1124              		@ link register save eliminated.
 1125 0000 0020     		movs	r0, #0
 1126 0002 7047     		bx	lr
 1127              		.cfi_endproc
 1128              	.LFE4863:
 1130              		.section	.text.LL_ATON_EC_Network_Init_face_landmark,"ax",%progbits
 1131              		.align	1
 1132              		.global	LL_ATON_EC_Network_Init_face_landmark
 1133              		.syntax unified
 1134              		.thumb
 1135              		.thumb_func
 1137              	LL_ATON_EC_Network_Init_face_landmark:
 1138              	.LFB4841:
 1139              		.file 3 "Model/face_landmark_ecblobs.h"
   1:Model/face_landmark_ecblobs.h **** /**
   2:Model/face_landmark_ecblobs.h ****   ******************************************************************************
   3:Model/face_landmark_ecblobs.h ****   * @file    face_landmark_ecblobs.h
   4:Model/face_landmark_ecblobs.h ****   * @brief   NN Code autogenerated DO NOT MODIFY IT
   5:Model/face_landmark_ecblobs.h ****   ******************************************************************************
   6:Model/face_landmark_ecblobs.h ****   * @attention
   7:Model/face_landmark_ecblobs.h ****   *
   8:Model/face_landmark_ecblobs.h ****   * Copyright (c) 2024 STMicroelectronics.
   9:Model/face_landmark_ecblobs.h ****   * All rights reserved.
  10:Model/face_landmark_ecblobs.h ****   *
  11:Model/face_landmark_ecblobs.h ****   * This software is licensed under terms that can be found in the LICENSE file
  12:Model/face_landmark_ecblobs.h ****   * in the root directory of this software component.
  13:Model/face_landmark_ecblobs.h ****   * If no LICENSE file comes with this software, it is provided AS-IS.
  14:Model/face_landmark_ecblobs.h ****   *
  15:Model/face_landmark_ecblobs.h ****   ******************************************************************************
  16:Model/face_landmark_ecblobs.h ****   */
  17:Model/face_landmark_ecblobs.h **** 
  18:Model/face_landmark_ecblobs.h **** 
  19:Model/face_landmark_ecblobs.h **** #ifdef __cplusplus
  20:Model/face_landmark_ecblobs.h **** extern "C" {
  21:Model/face_landmark_ecblobs.h **** #endif
  22:Model/face_landmark_ecblobs.h **** 
ARM GAS  /tmp/cc1nC4Xu.s 			page 38


  23:Model/face_landmark_ecblobs.h **** #include "ll_aton_caches_interface.h"
  24:Model/face_landmark_ecblobs.h **** 
  25:Model/face_landmark_ecblobs.h **** #include <string.h>
  26:Model/face_landmark_ecblobs.h **** 
  27:Model/face_landmark_ecblobs.h **** #if !defined(ECBLOB_CONST_SECTION)
  28:Model/face_landmark_ecblobs.h **** #define ECBLOB_CONST_SECTION /* Empty */
  29:Model/face_landmark_ecblobs.h **** #endif
  30:Model/face_landmark_ecblobs.h **** #if !defined(ECBLOB_RUNTIME_SECTION)
  31:Model/face_landmark_ecblobs.h **** #define ECBLOB_RUNTIME_SECTION /* Empty */
  32:Model/face_landmark_ecblobs.h **** #endif
  33:Model/face_landmark_ecblobs.h **** 
  34:Model/face_landmark_ecblobs.h **** #define EC_DECRYPT__ec_blob_face_landmark_1 false    // Epoch Controller must NOT be programmed for
  35:Model/face_landmark_ecblobs.h **** 
  36:Model/face_landmark_ecblobs.h **** ECBLOB_CONST_SECTION
  37:Model/face_landmark_ecblobs.h **** static const uint64_t _ec_blob_face_landmark_1[] =
  38:Model/face_landmark_ecblobs.h **** {
  39:Model/face_landmark_ecblobs.h ****   0x00000d3cca057a7aUL, 0x0000005d0000003dUL, 0x5c00004200802241UL, 0x1500006008000000UL,
  40:Model/face_landmark_ecblobs.h ****   0x000700005c027c00UL, 0x000040005c070043UL, 0x5c0c00430000ffe0UL, 0x1041204200000000UL,
  41:Model/face_landmark_ecblobs.h ****   0x20007c0000802061UL, 0x2002004300080104UL, 0x0001b00034200000UL, 0x00000000200500c3UL,
  42:Model/face_landmark_ecblobs.h ****   0x000000000001b000UL, 0x0000002400000000UL, 0x200c004200100000UL, 0x0000000700000006UL,
  43:Model/face_landmark_ecblobs.h ****   0x00000001200d0043UL, 0x201100433421b03fUL, 0x0000000000000000UL, 0x38007c0000802121UL,
  44:Model/face_landmark_ecblobs.h ****   0x380200430008010cUL, 0x0001b0003426c000UL, 0x00000000380500c3UL, 0x000000000001b000UL,
  45:Model/face_landmark_ecblobs.h ****   0x0000002400000000UL, 0x380c004200100000UL, 0x0000000700000006UL, 0x00000001380d0043UL,
  46:Model/face_landmark_ecblobs.h ****   0x381100433428703fUL, 0x0000000000000000UL, 0x0000000210007c00UL, 0x0000006410000424UL,
  47:Model/face_landmark_ecblobs.h ****   0x10007c0000000000UL, 0x10007bc440000000UL, 0x0000000000000064UL, 0x0000000110007c00UL,
  48:Model/face_landmark_ecblobs.h ****   0x00000025100b7c00UL, 0x00000007101e7c00UL, 0x5c00200138002001UL, 0x38007fe420002001UL,
  49:Model/face_landmark_ecblobs.h ****   0x0000000000000064UL, 0x00000000100b7c00UL, 0x00000000101e7c00UL, 0x0000000238007c00UL,
  50:Model/face_landmark_ecblobs.h ****   0x0000006438000424UL, 0x38007c0000000000UL, 0x38007bc440000000UL, 0x0000000000000064UL,
  51:Model/face_landmark_ecblobs.h ****   0x5c007c0000800121UL, 0x5c00042408000002UL, 0x0000000000000064UL, 0x480000005c007c00UL,
  52:Model/face_landmark_ecblobs.h ****   0x000000645c007bc4UL, 0x0080024100000000UL, 0x0000000220007c00UL, 0x0000006420000424UL,
  53:Model/face_landmark_ecblobs.h ****   0x20007c0000000000UL, 0x20007bc440000000UL, 0x0000000000000064UL, 0x0000007d00800061UL,
  54:Model/face_landmark_ecblobs.h ****   0x3c007c0000802141UL, 0x3c0200c300000054UL, 0x0000224404030303UL, 0x00c0024010a34202UL,
  55:Model/face_landmark_ecblobs.h ****   0x00bf0000023f0000UL, 0x000000003c0a7c00UL, 0x00ffffff3c0c0043UL, 0x0080226100000000UL,
  56:Model/face_landmark_ecblobs.h ****   0x0800000060000042UL, 0x60027c0009000060UL, 0x6007004300088000UL, 0x0000000000004faeUL,
  57:Model/face_landmark_ecblobs.h ****   0x00000000600c0043UL, 0x0080228120422042UL, 0x0800000064000042UL, 0x64020123156000fcUL,
  58:Model/face_landmark_ecblobs.h ****   0x00000000000a0000UL, 0x00008fff00000003UL, 0x0000643500023fffUL, 0x07c403fd00000000UL,
  59:Model/face_landmark_ecblobs.h ****   0x640c004300000001UL, 0x2042204200000000UL, 0x00000001640b7c00UL, 0x0108643565000403UL,
  60:Model/face_landmark_ecblobs.h ****   0xfefa643500008f63UL, 0x00b464350000dc14UL, 0x00b164350000cbe8UL, 0x018364350000a8c0UL,
  61:Model/face_landmark_ecblobs.h ****   0x013d64350000480bUL, 0xfe7d643500003597UL, 0xfff76435000065a2UL, 0xfec264350000911fUL,
  62:Model/face_landmark_ecblobs.h ****   0xfeff643500001931UL, 0x0044643500005e20UL, 0x0085643500008da2UL, 0xfff964350000eb5aUL,
  63:Model/face_landmark_ecblobs.h ****   0x0018643500001ae7UL, 0x011664350000b4f1UL, 0x004a64350000a9b2UL, 0x008022a10000eb57UL,
  64:Model/face_landmark_ecblobs.h ****   0x0800000068000042UL, 0x68027c0005006e60UL, 0x6807004300000000UL, 0x00000000fffdff80UL,
  65:Model/face_landmark_ecblobs.h ****   0x00000000680c0043UL, 0x0080224110411041UL, 0x080000005c000042UL, 0x5c020123096000fcUL,
  66:Model/face_landmark_ecblobs.h ****   0x0000000000000000UL, 0x00008fff00000003UL, 0x0000000100023fffUL, 0x07c403fd00000000UL,
  67:Model/face_landmark_ecblobs.h ****   0x5c0c004300000001UL, 0x1041104100000000UL, 0x000000015c0b7c00UL, 0x0000004f5d000403UL,
  68:Model/face_landmark_ecblobs.h ****   0x0000004000000000UL, 0x0000002d00000000UL, 0x0000fffd00000000UL, 0x0000004600000000UL,
  69:Model/face_landmark_ecblobs.h ****   0x0000004100000000UL, 0x0000006700000000UL, 0x0000ffe700000000UL, 0x0000007c00000000UL,
  70:Model/face_landmark_ecblobs.h ****   0x0000007f00000000UL, 0x0000004400000000UL, 0x0000002c00000000UL, 0x0000fff600000000UL,
  71:Model/face_landmark_ecblobs.h ****   0x0000002000000000UL, 0x0000004d00000000UL, 0x0000fff200000000UL, 0x0080200100000000UL,
  72:Model/face_landmark_ecblobs.h ****   0x0008c10014007c00UL, 0x3426c00014020043UL, 0x140500c30001b000UL, 0x0001b00000000000UL,
  73:Model/face_landmark_ecblobs.h ****   0x0000000000000001UL, 0x0010000000000024UL, 0x00000006140c0042UL, 0x140d004300000007UL,
  74:Model/face_landmark_ecblobs.h ****   0x3428703f00000004UL, 0x0000000014110043UL, 0x008020c100000000UL, 0x0008c1842c007c00UL,
  75:Model/face_landmark_ecblobs.h ****   0x7141cac02c020043UL, 0x2c0500c3000001b0UL, 0x0000000000000000UL, 0x0000000000000000UL,
  76:Model/face_landmark_ecblobs.h ****   0x0010000000000024UL, 0x000000062c0c0042UL, 0x2c0d004300000007UL, 0x7141ccaf00000001UL,
  77:Model/face_landmark_ecblobs.h ****   0x000000002c110043UL, 0x008020e100000008UL, 0x0008010830007c00UL, 0x3424800030020043UL,
  78:Model/face_landmark_ecblobs.h ****   0x300500c300009000UL, 0x0000900000000000UL, 0x0000000000000000UL, 0x0010000000000024UL,
  79:Model/face_landmark_ecblobs.h ****   0x00000006300c0042UL, 0x300d004300000007UL, 0x3426c03f00000004UL, 0x0000000030110043UL,
ARM GAS  /tmp/cc1nC4Xu.s 			page 39


  80:Model/face_landmark_ecblobs.h ****   0x0080212100000000UL, 0x0088010838007c00UL, 0x3420000038020043UL, 0x380500c300009000UL,
  81:Model/face_landmark_ecblobs.h ****   0x0001200000000000UL, 0x0000000000000000UL, 0x0010000000000024UL, 0x00000006380c0042UL,
  82:Model/face_landmark_ecblobs.h ****   0x380d004300000007UL, 0x3424803f00000004UL, 0x0000000038110043UL, 0x10007c0000000000UL,
  83:Model/face_landmark_ecblobs.h ****   0x1000042400000002UL, 0x0000000000000064UL, 0x4000000010007c00UL, 0x0000006410007bc4UL,
  84:Model/face_landmark_ecblobs.h ****   0x10007c0000000000UL, 0x10097c0000000001UL, 0x100b006300000029UL, 0x0000000100000025UL,
  85:Model/face_landmark_ecblobs.h ****   0x101e7c000000000dUL, 0x10207c000000002bUL, 0x10227c0000000015UL, 0x10247c0000000027UL,
  86:Model/face_landmark_ecblobs.h ****   0x3000200100000029UL, 0x3c007c0038002001UL, 0x5c00200100000055UL, 0x6400200160002001UL,
  87:Model/face_landmark_ecblobs.h ****   0x1400200168002001UL, 0x30007fe42c002001UL, 0x0000000000000064UL, 0x0000006438007fe4UL,
  88:Model/face_landmark_ecblobs.h ****   0x10097c0000000000UL, 0x100b006300000000UL, 0x0000000000000000UL, 0x101e7c0000000000UL,
  89:Model/face_landmark_ecblobs.h ****   0x10207c0000000000UL, 0x10227c0000000000UL, 0x10247c0000000000UL, 0x30007c0000000000UL,
  90:Model/face_landmark_ecblobs.h ****   0x3000042400000002UL, 0x0000000000000064UL, 0x4000000030007c00UL, 0x0000006430007bc4UL,
  91:Model/face_landmark_ecblobs.h ****   0x008000e100000000UL, 0x0000000238007c00UL, 0x0000006438000424UL, 0x38007c0000000000UL,
  92:Model/face_landmark_ecblobs.h ****   0x38007bc440000000UL, 0x0000000000000064UL, 0x3c007c0000800121UL, 0x3c00042400000002UL,
  93:Model/face_landmark_ecblobs.h ****   0x0000000000000064UL, 0x400000003c007c00UL, 0x000000643c007bc4UL, 0x0080014100000000UL,
  94:Model/face_landmark_ecblobs.h ****   0x080000025c007c00UL, 0x000000645c000424UL, 0x5c007c0000000000UL, 0x5c007bc448000000UL,
  95:Model/face_landmark_ecblobs.h ****   0x0000000000000064UL, 0x60007c0000800241UL, 0x6000042408000002UL, 0x0000000000000064UL,
  96:Model/face_landmark_ecblobs.h ****   0x4800000060007c00UL, 0x0000006460007bc4UL, 0x0080026100000000UL, 0x0800000264007c00UL,
  97:Model/face_landmark_ecblobs.h ****   0x0000006464000424UL, 0x64007c0000000000UL, 0x64007bc448000000UL, 0x0000000000000064UL,
  98:Model/face_landmark_ecblobs.h ****   0x68007c0000800281UL, 0x6800042408000002UL, 0x0000000000000064UL, 0x4800000068007c00UL,
  99:Model/face_landmark_ecblobs.h ****   0x0000006468007bc4UL, 0x008002a100000000UL, 0x0000000214007c00UL, 0x0000006414000424UL,
 100:Model/face_landmark_ecblobs.h ****   0x14007c0000000000UL, 0x14007bc440000000UL, 0x0000000000000064UL, 0x2c007c0000800001UL,
 101:Model/face_landmark_ecblobs.h ****   0x2c00042400000002UL, 0x0000000000000064UL, 0x400000002c007c00UL, 0x000000642c007bc4UL,
 102:Model/face_landmark_ecblobs.h ****   0x008000c100000000UL, 0x008022410000009dUL, 0x080000005c000042UL, 0x5c020123156000fcUL,
 103:Model/face_landmark_ecblobs.h ****   0x00000000000a8000UL, 0x00008fff00000003UL, 0x00004f9000023fffUL, 0x07c403fd00000000UL,
 104:Model/face_landmark_ecblobs.h ****   0x5c0c004300000001UL, 0x1041204200000000UL, 0x000000015c0b7c00UL, 0x00094f905d000403UL,
 105:Model/face_landmark_ecblobs.h ****   0xfffb4f900000a8acUL, 0xffe94f900000ac4bUL, 0xffbd4f900000f524UL, 0x00014f90000033ecUL,
 106:Model/face_landmark_ecblobs.h ****   0xfffc4f9000004472UL, 0x00204f9000009afcUL, 0xffa84f9000000948UL, 0x00334f900000b0b2UL,
 107:Model/face_landmark_ecblobs.h ****   0x00364f9000009dd1UL, 0xffff4f90000069e5UL, 0xffe94f900000670fUL, 0xffb64f9000000673UL,
 108:Model/face_landmark_ecblobs.h ****   0xffdd4f900000ad14UL, 0x00074f900000d625UL, 0xffb24f900000cb4aUL, 0x008022010000f24fUL,
 109:Model/face_landmark_ecblobs.h ****   0x0174104c54007c00UL, 0x00087f8054020043UL, 0x55000403029001cfUL, 0x0000000000000000UL,
 110:Model/face_landmark_ecblobs.h ****   0x0000000000000000UL, 0x0000000000000000UL, 0x0000000000000000UL, 0x0000000000000000UL,
 111:Model/face_landmark_ecblobs.h ****   0x0000000000000000UL, 0x0000000000000000UL, 0x000000c100000000UL, 0x0000000900000009UL,
 112:Model/face_landmark_ecblobs.h ****   0x0000000900000009UL, 0x0000000900000009UL, 0x0000000900000009UL, 0x0000000900000009UL,
 113:Model/face_landmark_ecblobs.h ****   0x0000000900000009UL, 0x0000000900000009UL, 0x000000ca00000009UL, 0x0000000056000483UL,
 114:Model/face_landmark_ecblobs.h ****   0x000000000000fe00UL, 0x000000000000fe00UL, 0x000000000000fe00UL, 0x000000000000fe00UL,
 115:Model/face_landmark_ecblobs.h ****   0x000000000000fe00UL, 0x000000000000fe00UL, 0x000000000000fe00UL, 0x000000000000ff00UL,
 116:Model/face_landmark_ecblobs.h ****   0x7f01000000000000UL, 0x00000000000000faUL, 0x0000000000007800UL, 0x0000000000007900UL,
 117:Model/face_landmark_ecblobs.h ****   0x0000000000007a00UL, 0x0000000000007b00UL, 0x0000000000007c00UL, 0x0000000000007d00UL,
 118:Model/face_landmark_ecblobs.h ****   0x0000000000007e00UL, 0x0080226100007f00UL, 0x0800000060000042UL, 0x60027c0005000160UL,
 119:Model/face_landmark_ecblobs.h ****   0x6007004300070400UL, 0x0000400040004000UL, 0x00000000600c0043UL, 0x0080216110411041UL,
 120:Model/face_landmark_ecblobs.h ****   0x0000005440007c00UL, 0x04040303400200c3UL, 0x10a3410100001155UL, 0x017f000000600180UL,
 121:Model/face_landmark_ecblobs.h ****   0x400a7c00005f0000UL, 0x400c004300000000UL, 0x0000000000fffffeUL, 0x6400004200802281UL,
 122:Model/face_landmark_ecblobs.h ****   0x0900006008000000UL, 0x0007800064027c00UL, 0x000072d464070043UL, 0x640c004300000000UL,
 123:Model/face_landmark_ecblobs.h ****   0x2042204200000000UL, 0x68000042008022a1UL, 0x1500006008000000UL, 0x000a000068027c00UL,
 124:Model/face_landmark_ecblobs.h ****   0x0000423768070043UL, 0x680c0043000000b0UL, 0x2042204200000000UL, 0x34007c0000802101UL,
 125:Model/face_landmark_ecblobs.h ****   0x3402004300880100UL, 0x0000900034200000UL, 0x00000000340500c3UL, 0x0000000000012000UL,
 126:Model/face_landmark_ecblobs.h ****   0x0000002400000000UL, 0x340c004200100000UL, 0x0000000700000006UL, 0x00000004340d0043UL,
 127:Model/face_landmark_ecblobs.h ****   0x341100433424803fUL, 0x0000000000000000UL, 0x18007c0000802021UL, 0x1802004300080100UL,
 128:Model/face_landmark_ecblobs.h ****   0x0000900034248000UL, 0x00000000180500c3UL, 0x0000000000009000UL, 0x0000002400000000UL,
 129:Model/face_landmark_ecblobs.h ****   0x180c004200100000UL, 0x0000000700000006UL, 0x00000004180d0043UL, 0x181100433426c03fUL,
 130:Model/face_landmark_ecblobs.h ****   0x0000000000000000UL, 0x14007c0000802001UL, 0x140200430008c184UL, 0x000002407141c200UL,
 131:Model/face_landmark_ecblobs.h ****   0x00000000140500c3UL, 0x0000000000000000UL, 0x0000002400000000UL, 0x140c004200100000UL,
 132:Model/face_landmark_ecblobs.h ****   0x0000000700000006UL, 0x00000001140d0043UL, 0x141100437141c47fUL, 0x0000000800000000UL,
 133:Model/face_landmark_ecblobs.h ****   0x28007c00008020a1UL, 0x2802004300080108UL, 0x0000900034290000UL, 0x00000000280500c3UL,
 134:Model/face_landmark_ecblobs.h ****   0x0000000000009000UL, 0x0000002400000000UL, 0x280c004200100000UL, 0x0000000700000006UL,
 135:Model/face_landmark_ecblobs.h ****   0x00000004280d0043UL, 0x28110043342b403fUL, 0x0000000000000000UL, 0x24007c0000802081UL,
 136:Model/face_landmark_ecblobs.h ****   0x2402012300080008UL, 0x006000603426c000UL, 0x0000060000100004UL, 0x0000000400000004UL,
ARM GAS  /tmp/cc1nC4Xu.s 			page 40


 137:Model/face_landmark_ecblobs.h ****   0x0000002400024000UL, 0x240c004200100000UL, 0x0000000700000006UL, 0x00000004240d0043UL,
 138:Model/face_landmark_ecblobs.h ****   0x241100433429003fUL, 0x0000000000000000UL, 0x0000000210007c00UL, 0x0000006410000424UL,
 139:Model/face_landmark_ecblobs.h ****   0x10007c0000000000UL, 0x10007bc440000000UL, 0x0000000000000064UL, 0x0000000110007c00UL,
 140:Model/face_landmark_ecblobs.h ****   0x0000002b10060043UL, 0x100f004300000027UL, 0x00000001ff260427UL, 0x00000003101c7c00UL,
 141:Model/face_landmark_ecblobs.h ****   0x00000011101e7c00UL, 0x0000002110200063UL, 0x0000001700000025UL, 0x0000002910247c00UL,
 142:Model/face_landmark_ecblobs.h ****   0x2800200124002001UL, 0x0000005540007c00UL, 0x5c00200154002001UL, 0x6400200160002001UL,
 143:Model/face_landmark_ecblobs.h ****   0x1400200168002001UL, 0x3400200118002001UL, 0x0000006424007fe4UL, 0x28007fe400000000UL,
 144:Model/face_landmark_ecblobs.h ****   0x0000000000000064UL, 0x0000000010060043UL, 0x100f004300000000UL, 0x0000000000000000UL,
 145:Model/face_landmark_ecblobs.h ****   0x00000000101c7c00UL, 0x00000000101e7c00UL, 0x0000000010200063UL, 0x0000000000000000UL,
 146:Model/face_landmark_ecblobs.h ****   0x0000000010247c00UL, 0x0000000224007c00UL, 0x0000006424000424UL, 0x24007c0000000000UL,
 147:Model/face_landmark_ecblobs.h ****   0x24007bc440000000UL, 0x0000000000000064UL, 0x28007c0000800081UL, 0x2800042400000002UL,
 148:Model/face_landmark_ecblobs.h ****   0x0000000000000064UL, 0x4000000028007c00UL, 0x0000006428007bc4UL, 0x008000a100000000UL,
 149:Model/face_landmark_ecblobs.h ****   0x0000000240007c00UL, 0x0000006440000424UL, 0x40007c0000000000UL, 0x40007bc440000000UL,
 150:Model/face_landmark_ecblobs.h ****   0x0000000000000064UL, 0x54007c0000800161UL, 0x5400042400881082UL, 0x0000000000000064UL,
 151:Model/face_landmark_ecblobs.h ****   0x4088108054007c00UL, 0x0000006454007bc4UL, 0x0080020100000000UL, 0x080000025c007c00UL,
 152:Model/face_landmark_ecblobs.h ****   0x000000645c000424UL, 0x5c007c0000000000UL, 0x5c007bc448000000UL, 0x0000000000000064UL,
 153:Model/face_landmark_ecblobs.h ****   0x60007c0000800241UL, 0x6000042408000002UL, 0x0000000000000064UL, 0x4800000060007c00UL,
 154:Model/face_landmark_ecblobs.h ****   0x0000006460007bc4UL, 0x0080026100000000UL, 0x0800000264007c00UL, 0x0000006464000424UL,
 155:Model/face_landmark_ecblobs.h ****   0x64007c0000000000UL, 0x64007bc448000000UL, 0x0000000000000064UL, 0x68007c0000800281UL,
 156:Model/face_landmark_ecblobs.h ****   0x6800042408000002UL, 0x0000000000000064UL, 0x4800000068007c00UL, 0x0000006468007bc4UL,
 157:Model/face_landmark_ecblobs.h ****   0x008002a100000000UL, 0x0000000214007c00UL, 0x0000006414000424UL, 0x14007c0000000000UL,
 158:Model/face_landmark_ecblobs.h ****   0x14007bc440000000UL, 0x0000000000000064UL, 0x18007c0000800001UL, 0x1800042400000002UL,
 159:Model/face_landmark_ecblobs.h ****   0x0000000000000064UL, 0x4000000018007c00UL, 0x0000006418007bc4UL, 0x0080002100000000UL,
 160:Model/face_landmark_ecblobs.h ****   0x0000000234007c00UL, 0x0000006434000424UL, 0x34007c0000000000UL, 0x34007bc440000000UL,
 161:Model/face_landmark_ecblobs.h ****   0x0000000000000064UL, 0x000000bd00800101UL, 0x44007c0000802181UL, 0x440200c300000054UL,
 162:Model/face_landmark_ecblobs.h ****   0x0000110010100101UL, 0x0060060010a34202UL, 0x005f000005ff0000UL, 0x00000000440a7c00UL,
 163:Model/face_landmark_ecblobs.h ****   0x0000000b440c0043UL, 0x0080224100000000UL, 0x080000005c000042UL, 0x5c027c0009000060UL,
 164:Model/face_landmark_ecblobs.h ****   0x5c07004300078000UL, 0x0000000000006ccdUL, 0x000000005c0c0043UL, 0x0080226120422042UL,
 165:Model/face_landmark_ecblobs.h ****   0x0800000060000042UL, 0x60020123156000fcUL, 0x00000000000a0000UL, 0x00023fff0000000fUL,
 166:Model/face_landmark_ecblobs.h ****   0x0000592800023fffUL, 0x07c403f100000000UL, 0x600c004300000001UL, 0x2042204200000000UL,
 167:Model/face_landmark_ecblobs.h ****   0x00000001600b7c00UL, 0xffe4592861000403UL, 0x000859280000342aUL, 0x0012592800008a7cUL,
 168:Model/face_landmark_ecblobs.h ****   0xffcf59280000ae0bUL, 0xff9e592800008e53UL, 0x001a592800003191UL, 0xffdb59280000278eUL,
 169:Model/face_landmark_ecblobs.h ****   0xffe759280000b16aUL, 0xfff6592800003cf0UL, 0x001b5928000042e8UL, 0xffae5928000056b0UL,
 170:Model/face_landmark_ecblobs.h ****   0x0006592800001ae2UL, 0xffa259280000fca1UL, 0xffb559280000c832UL, 0xffcc59280000f320UL,
 171:Model/face_landmark_ecblobs.h ****   0xffe05928000026d3UL, 0x008020c10000a6c6UL, 0x0008c1042c007c00UL, 0x3426c0002c020043UL,
 172:Model/face_landmark_ecblobs.h ****   0x2c0500c300024000UL, 0x0002400000000000UL, 0x0000000000000001UL, 0x0010000000000024UL,
 173:Model/face_landmark_ecblobs.h ****   0x000000062c0c0042UL, 0x2c0d004300000007UL, 0x3429003f00000001UL, 0x000000002c110043UL,
 174:Model/face_landmark_ecblobs.h ****   0x008020a100000000UL, 0x0008c18428007c00UL, 0x7141cd9028020043UL, 0x280500c300000100UL,
 175:Model/face_landmark_ecblobs.h ****   0x0000000000000000UL, 0x0000000000000000UL, 0x0010000000000024UL, 0x00000006280c0042UL,
 176:Model/face_landmark_ecblobs.h ****   0x280d004300000007UL, 0x7141cecf00000001UL, 0x0000000028110043UL, 0x0080200100000008UL,
 177:Model/face_landmark_ecblobs.h ****   0x0008010c14007c00UL, 0x3420000014020043UL, 0x140500c300024000UL, 0x0002400000000000UL,
 178:Model/face_landmark_ecblobs.h ****   0x0000000000000000UL, 0x0010000000000024UL, 0x00000006140c0042UL, 0x140d004300000007UL,
 179:Model/face_landmark_ecblobs.h ****   0x3422403f00000001UL, 0x0000000014110043UL, 0x10007c0000000000UL, 0x1000042400000002UL,
 180:Model/face_landmark_ecblobs.h ****   0x0000000000000064UL, 0x4000000010007c00UL, 0x0000006410007bc4UL, 0x10007c0000000000UL,
 181:Model/face_landmark_ecblobs.h ****   0x10027c0000000001UL, 0x1012004300000027UL, 0x0000000b0000000dUL, 0x00000019101e7c00UL,
 182:Model/face_landmark_ecblobs.h ****   0x0000002510207c00UL, 0x44007c0014002001UL, 0x5c00200100000055UL, 0x2800200160002001UL,
 183:Model/face_landmark_ecblobs.h ****   0x14007fe42c002001UL, 0x0000000000000064UL, 0x0000000010027c00UL, 0x0000000010120043UL,
 184:Model/face_landmark_ecblobs.h ****   0x101e7c0000000000UL, 0x10207c0000000000UL, 0x14007c0000000000UL, 0x1400042400000002UL,
 185:Model/face_landmark_ecblobs.h ****   0x0000000000000064UL, 0x4000000014007c00UL, 0x0000006414007bc4UL, 0x0080000100000000UL,
 186:Model/face_landmark_ecblobs.h ****   0x0000000244007c00UL, 0x0000006444000424UL, 0x44007c0000000000UL, 0x44007bc440000000UL,
 187:Model/face_landmark_ecblobs.h ****   0x0000000000000064UL, 0x5c007c0000800181UL, 0x5c00042408000002UL, 0x0000000000000064UL,
 188:Model/face_landmark_ecblobs.h ****   0x480000005c007c00UL, 0x000000645c007bc4UL, 0x0080024100000000UL, 0x0800000260007c00UL,
 189:Model/face_landmark_ecblobs.h ****   0x0000006460000424UL, 0x60007c0000000000UL, 0x60007bc448000000UL, 0x0000000000000064UL,
 190:Model/face_landmark_ecblobs.h ****   0x28007c0000800261UL, 0x2800042400000002UL, 0x0000000000000064UL, 0x4000000028007c00UL,
 191:Model/face_landmark_ecblobs.h ****   0x0000006428007bc4UL, 0x008000a100000000UL, 0x000000022c007c00UL, 0x000000642c000424UL,
 192:Model/face_landmark_ecblobs.h ****   0x2c007c0000000000UL, 0x2c007bc440000000UL, 0x0000000000000064UL, 0x000000dd008000c1UL,
 193:Model/face_landmark_ecblobs.h ****   0x6400004200802281UL, 0x0500016008000000UL, 0x00078c0164027c00UL, 0x8b766d7764070043UL,
ARM GAS  /tmp/cc1nC4Xu.s 			page 41


 194:Model/face_landmark_ecblobs.h ****   0x640c004300007a13UL, 0x1041104100000000UL, 0x68000042008022a1UL, 0x05006e6008000000UL,
 195:Model/face_landmark_ecblobs.h ****   0x0000000068027c00UL, 0xfff5ff8068070043UL, 0x680c004300000000UL, 0x1041104100000000UL,
 196:Model/face_landmark_ecblobs.h ****   0x5c00004200802241UL, 0x096000fc08000000UL, 0x000000005c020123UL, 0x0000000300000000UL,
 197:Model/face_landmark_ecblobs.h ****   0x00023fff00008fffUL, 0x0000000000000001UL, 0x0000000107c403fdUL, 0x000000005c0c0043UL,
 198:Model/face_landmark_ecblobs.h ****   0x5c0b7c0010411041UL, 0x5d00040300000001UL, 0x000000000000ffcbUL, 0x0000000000000024UL,
 199:Model/face_landmark_ecblobs.h ****   0x000000000000ff81UL, 0x000000000000ffbdUL, 0x000000000000ffddUL, 0x000000000000ffc6UL,
 200:Model/face_landmark_ecblobs.h ****   0x000000000000fff0UL, 0x000000000000ffb3UL, 0x000000000000ffbcUL, 0x0000000000000055UL,
 201:Model/face_landmark_ecblobs.h ****   0x000000000000ffecUL, 0x0000000000000009UL, 0x000000000000001fUL, 0x000000000000ffd3UL,
 202:Model/face_landmark_ecblobs.h ****   0x000000000000ffd0UL, 0x000000000000ffe0UL, 0x6000004200802261UL, 0x156000fc08000000UL,
 203:Model/face_landmark_ecblobs.h ****   0x000a800060020123UL, 0x0000000300000000UL, 0x00023fff00008fffUL, 0x000000000000497cUL,
 204:Model/face_landmark_ecblobs.h ****   0x0000000107c403fdUL, 0x00000000600c0043UL, 0x600b7c0010412042UL, 0x6100040300000001UL,
 205:Model/face_landmark_ecblobs.h ****   0x0000a63cf438497cUL, 0x0000ac11f551497cUL, 0x0000fd6ef34e497cUL, 0x0000718bf40c497cUL,
 206:Model/face_landmark_ecblobs.h ****   0x00007c44f471497cUL, 0x0000dc8ff428497cUL, 0x00007aa3f4ad497cUL, 0x0000de31f3ec497cUL,
 207:Model/face_landmark_ecblobs.h ****   0x00004935f409497cUL, 0x0000647df5ec497cUL, 0x0000d94bf4a0497cUL, 0x00006b04f4fc497cUL,
 208:Model/face_landmark_ecblobs.h ****   0x0000e264f541497cUL, 0x0000e8eaf451497cUL, 0x00006fe9f448497cUL, 0x0000f546f47a497cUL,
 209:Model/face_landmark_ecblobs.h ****   0x20007c0000802061UL, 0x2002004300080100UL, 0x0000900034290000UL, 0x00000000200500c3UL,
 210:Model/face_landmark_ecblobs.h ****   0x0000000000009000UL, 0x0000002400000000UL, 0x200c004200100000UL, 0x0000000700000006UL,
 211:Model/face_landmark_ecblobs.h ****   0x00000004200d0043UL, 0x20110043342b403fUL, 0x0000000000000000UL, 0x2c007c00008020c1UL,
 212:Model/face_landmark_ecblobs.h ****   0x2c02012300080000UL, 0x0060006034200000UL, 0x0000060000100004UL, 0x0000000400000004UL,
 213:Model/face_landmark_ecblobs.h ****   0x0000002400024000UL, 0x2c0c004200100000UL, 0x0000000700000006UL, 0x000000042c0d0043UL,
 214:Model/face_landmark_ecblobs.h ****   0x2c1100433422403fUL, 0x0000000000000000UL, 0x18007c0000802021UL, 0x1802004300080108UL,
 215:Model/face_landmark_ecblobs.h ****   0x0000900034224000UL, 0x00000000180500c3UL, 0x0000000000009000UL, 0x0000002400000000UL,
 216:Model/face_landmark_ecblobs.h ****   0x180c004200100000UL, 0x0000000700000006UL, 0x00000004180d0043UL, 0x181100433424803fUL,
 217:Model/face_landmark_ecblobs.h ****   0x0000000000000000UL, 0x34007c0000802101UL, 0x3402004300080108UL, 0x0000900034248000UL,
 218:Model/face_landmark_ecblobs.h ****   0x00000000340500c3UL, 0x0000000000009000UL, 0x0000002400000000UL, 0x340c004200100000UL,
 219:Model/face_landmark_ecblobs.h ****   0x0000000700000006UL, 0x00000004340d0043UL, 0x341100433426c03fUL, 0x0000000000000000UL,
 220:Model/face_landmark_ecblobs.h ****   0x0000000210007c00UL, 0x0000006410000424UL, 0x10007c0000000000UL, 0x10007bc440000000UL,
 221:Model/face_landmark_ecblobs.h ****   0x0000000000000064UL, 0x0000000110007c00UL, 0x0000002910037c00UL, 0x00000027100a7c00UL,
 222:Model/face_landmark_ecblobs.h ****   0x0000002b101e7c00UL, 0x0000002510207c00UL, 0x0000000710220063UL, 0x000000290000000dUL,
 223:Model/face_landmark_ecblobs.h ****   0x3400200118002001UL, 0x600020015c002001UL, 0x6800200164002001UL, 0x2c00200120002001UL,
 224:Model/face_landmark_ecblobs.h ****   0x0000006418007fe4UL, 0x34007fe400000000UL, 0x0000000000000064UL, 0x0000000010037c00UL,
 225:Model/face_landmark_ecblobs.h ****   0x00000000100a7c00UL, 0x00000000101e7c00UL, 0x0000000010207c00UL, 0x0000000010220063UL,
 226:Model/face_landmark_ecblobs.h ****   0x0000000000000000UL, 0x0000000218007c00UL, 0x0000006418000424UL, 0x18007c0000000000UL,
 227:Model/face_landmark_ecblobs.h ****   0x18007bc440000000UL, 0x0000000000000064UL, 0x34007c0000800021UL, 0x3400042400000002UL,
 228:Model/face_landmark_ecblobs.h ****   0x0000000000000064UL, 0x4000000034007c00UL, 0x0000006434007bc4UL, 0x0080010100000000UL,
 229:Model/face_landmark_ecblobs.h ****   0x080000025c007c00UL, 0x000000645c000424UL, 0x5c007c0000000000UL, 0x5c007bc448000000UL,
 230:Model/face_landmark_ecblobs.h ****   0x0000000000000064UL, 0x60007c0000800241UL, 0x6000042408000002UL, 0x0000000000000064UL,
 231:Model/face_landmark_ecblobs.h ****   0x4800000060007c00UL, 0x0000006460007bc4UL, 0x0080026100000000UL, 0x0800000264007c00UL,
 232:Model/face_landmark_ecblobs.h ****   0x0000006464000424UL, 0x64007c0000000000UL, 0x64007bc448000000UL, 0x0000000000000064UL,
 233:Model/face_landmark_ecblobs.h ****   0x68007c0000800281UL, 0x6800042408000002UL, 0x0000000000000064UL, 0x4800000068007c00UL,
 234:Model/face_landmark_ecblobs.h ****   0x0000006468007bc4UL, 0x008002a100000000UL, 0x0000000220007c00UL, 0x0000006420000424UL,
 235:Model/face_landmark_ecblobs.h ****   0x20007c0000000000UL, 0x20007bc440000000UL, 0x0000000000000064UL, 0x2c007c0000800061UL,
 236:Model/face_landmark_ecblobs.h ****   0x2c00042400000002UL, 0x0000000000000064UL, 0x400000002c007c00UL, 0x000000642c007bc4UL,
 237:Model/face_landmark_ecblobs.h ****   0x008000c100000000UL, 0x00802221000000fdUL, 0x0174104c58007c00UL, 0x00087f8058020043UL,
 238:Model/face_landmark_ecblobs.h ****   0x59000403029011cfUL, 0x0000000000000000UL, 0x0000000000000000UL, 0x0000000000000000UL,
 239:Model/face_landmark_ecblobs.h ****   0x0000000000000000UL, 0x0000000000000000UL, 0x0000000000000000UL, 0x0000000000000000UL,
 240:Model/face_landmark_ecblobs.h ****   0x00000009000000c1UL, 0x0000000900000009UL, 0x0000000900000009UL, 0x0000000900000009UL,
 241:Model/face_landmark_ecblobs.h ****   0x0000000900000009UL, 0x0000000900000009UL, 0x0000000900000009UL, 0x0000000900000009UL,
 242:Model/face_landmark_ecblobs.h ****   0x000000ca00000009UL, 0x000000005a000483UL, 0x000000000000a700UL, 0x000000000000a700UL,
 243:Model/face_landmark_ecblobs.h ****   0x000000000000a700UL, 0x000000000000a700UL, 0x000000000000a700UL, 0x000000000000a700UL,
 244:Model/face_landmark_ecblobs.h ****   0x000000000000a700UL, 0x000000000000a900UL, 0x640400000000aa00UL, 0x000000000000b831UL,
 245:Model/face_landmark_ecblobs.h ****   0x0000000000007400UL, 0x0000000000007500UL, 0x0000000000007700UL, 0x0000000000007800UL,
 246:Model/face_landmark_ecblobs.h ****   0x0000000000007a00UL, 0x0000000000007c00UL, 0x0000000000007d00UL, 0x0080224100007f00UL,
 247:Model/face_landmark_ecblobs.h ****   0x080000005c000042UL, 0x5c027c0005000160UL, 0x5c07004300071800UL, 0x0000400059004000UL,
 248:Model/face_landmark_ecblobs.h ****   0x000000005c0c0043UL, 0x008021a110411041UL, 0x0000005448007c00UL, 0x04040303480200c3UL,
 249:Model/face_landmark_ecblobs.h ****   0x10a3420200001155UL, 0x017f000000600180UL, 0x480a7c00005f0000UL, 0x480c004300000000UL,
 250:Model/face_landmark_ecblobs.h ****   0x0000000000ffffa7UL, 0x6000004200802261UL, 0x0900006008000000UL, 0x0007800060027c00UL,
ARM GAS  /tmp/cc1nC4Xu.s 			page 42


 251:Model/face_landmark_ecblobs.h ****   0x00004bab60070043UL, 0x600c004300000000UL, 0x2042204200000000UL, 0x6400004200802281UL,
 252:Model/face_landmark_ecblobs.h ****   0x1500006008000000UL, 0x000a000064027c00UL, 0x000060c564070043UL, 0x640c00430000ff90UL,
 253:Model/face_landmark_ecblobs.h ****   0x2042204200000000UL, 0x14007c0000802001UL, 0x1402004300080100UL, 0x0000900034224000UL,
 254:Model/face_landmark_ecblobs.h ****   0x00000000140500c3UL, 0x0000000000009000UL, 0x0000002400000000UL, 0x140c004200100000UL,
 255:Model/face_landmark_ecblobs.h ****   0x0000000700000006UL, 0x00000004140d0043UL, 0x141100433424803fUL, 0x0000000000000000UL,
 256:Model/face_landmark_ecblobs.h ****   0x28007c00008020a1UL, 0x2802004300080100UL, 0x0000900034248000UL, 0x00000000280500c3UL,
 257:Model/face_landmark_ecblobs.h ****   0x0000000000009000UL, 0x0000002400000000UL, 0x280c004200100000UL, 0x0000000700000006UL,
 258:Model/face_landmark_ecblobs.h ****   0x00000004280d0043UL, 0x281100433426c03fUL, 0x0000000000000000UL, 0x18007c0000802021UL,
 259:Model/face_landmark_ecblobs.h ****   0x180200430008c184UL, 0x000002407141c440UL, 0x00000000180500c3UL, 0x0000000000000000UL,
 260:Model/face_landmark_ecblobs.h ****   0x0000002400000000UL, 0x180c004200100000UL, 0x0000000700000006UL, 0x00000001180d0043UL,
 261:Model/face_landmark_ecblobs.h ****   0x181100437141c6bfUL, 0x0000000800000000UL, 0x1c007c0000802041UL, 0x1c02004300080108UL,
 262:Model/face_landmark_ecblobs.h ****   0x000090003426c000UL, 0x000000001c0500c3UL, 0x0000000000009000UL, 0x0000002400000000UL,
 263:Model/face_landmark_ecblobs.h ****   0x1c0c004200100000UL, 0x0000000700000006UL, 0x000000041c0d0043UL, 0x1c1100433429003fUL,
 264:Model/face_landmark_ecblobs.h ****   0x0000000000000000UL, 0x2c007c00008020c1UL, 0x2c02012300080008UL, 0x0060006034200000UL,
 265:Model/face_landmark_ecblobs.h ****   0x0000060000100004UL, 0x0000000400000004UL, 0x0000002400024000UL, 0x2c0c004200100000UL,
 266:Model/face_landmark_ecblobs.h ****   0x0000000700000006UL, 0x000000042c0d0043UL, 0x2c1100433422403fUL, 0x0000000000000000UL,
 267:Model/face_landmark_ecblobs.h ****   0x0000000210007c00UL, 0x0000006410000424UL, 0x10007c0000000000UL, 0x10007bc440000000UL,
 268:Model/face_landmark_ecblobs.h ****   0x0000000000000064UL, 0x0000000110007c00UL, 0x0000002510047c00UL, 0x0000002910087c00UL,
 269:Model/face_landmark_ecblobs.h ****   0xff24042510150043UL, 0x101d008300000003UL, 0x0000002300000001UL, 0x0000001b0000000bUL,
 270:Model/face_landmark_ecblobs.h ****   0x0000002710227c00UL, 0x2c0020011c002001UL, 0x0000005548007c00UL, 0x5c00200158002001UL,
 271:Model/face_landmark_ecblobs.h ****   0x6400200160002001UL, 0x1800200114002001UL, 0x1c007fe428002001UL, 0x0000000000000064UL,
 272:Model/face_landmark_ecblobs.h ****   0x000000642c007fe4UL, 0x10047c0000000000UL, 0x10087c0000000000UL, 0x1015004300000000UL,
 273:Model/face_landmark_ecblobs.h ****   0x0000000000000000UL, 0x00000000101d0083UL, 0x0000000000000000UL, 0x10227c0000000000UL,
 274:Model/face_landmark_ecblobs.h ****   0x1c007c0000000000UL, 0x1c00042400000002UL, 0x0000000000000064UL, 0x400000001c007c00UL,
 275:Model/face_landmark_ecblobs.h ****   0x000000641c007bc4UL, 0x0080004100000000UL, 0x000000022c007c00UL, 0x000000642c000424UL,
 276:Model/face_landmark_ecblobs.h ****   0x2c007c0000000000UL, 0x2c007bc440000000UL, 0x0000000000000064UL, 0x48007c00008000c1UL,
 277:Model/face_landmark_ecblobs.h ****   0x4800042400000002UL, 0x0000000000000064UL, 0x4000000048007c00UL, 0x0000006448007bc4UL,
 278:Model/face_landmark_ecblobs.h ****   0x008001a100000000UL, 0x0088108258007c00UL, 0x0000006458000424UL, 0x58007c0000000000UL,
 279:Model/face_landmark_ecblobs.h ****   0x58007bc440881080UL, 0x0000000000000064UL, 0x5c007c0000800221UL, 0x5c00042408000002UL,
 280:Model/face_landmark_ecblobs.h ****   0x0000000000000064UL, 0x480000005c007c00UL, 0x000000645c007bc4UL, 0x0080024100000000UL,
 281:Model/face_landmark_ecblobs.h ****   0x0800000260007c00UL, 0x0000006460000424UL, 0x60007c0000000000UL, 0x60007bc448000000UL,
 282:Model/face_landmark_ecblobs.h ****   0x0000000000000064UL, 0x64007c0000800261UL, 0x6400042408000002UL, 0x0000000000000064UL,
 283:Model/face_landmark_ecblobs.h ****   0x4800000064007c00UL, 0x0000006464007bc4UL, 0x0080028100000000UL, 0x0000000214007c00UL,
 284:Model/face_landmark_ecblobs.h ****   0x0000006414000424UL, 0x14007c0000000000UL, 0x14007bc440000000UL, 0x0000000000000064UL,
 285:Model/face_landmark_ecblobs.h ****   0x18007c0000800001UL, 0x1800042400000002UL, 0x0000000000000064UL, 0x4000000018007c00UL,
 286:Model/face_landmark_ecblobs.h ****   0x0000006418007bc4UL, 0x0080002100000000UL, 0x0000000228007c00UL, 0x0000006428000424UL,
 287:Model/face_landmark_ecblobs.h ****   0x28007c0000000000UL, 0x28007bc440000000UL, 0x0000000000000064UL, 0x0000011d008000a1UL,
 288:Model/face_landmark_ecblobs.h ****   0x3c007c0000802141UL, 0x3c0200c300000054UL, 0x0000110010100101UL, 0x0060060010a34101UL,
 289:Model/face_landmark_ecblobs.h ****   0x005f000005ff0000UL, 0x000000003c0a7c00UL, 0x00fffff93c0c0043UL, 0x008022a100000000UL,
 290:Model/face_landmark_ecblobs.h ****   0x0800000068000042UL, 0x68027c0009000060UL, 0x6807004300078000UL, 0x0000000000004c9dUL,
 291:Model/face_landmark_ecblobs.h ****   0x00000000680c0043UL, 0x0080224120422042UL, 0x080000005c000042UL, 0x5c020123156000fcUL,
 292:Model/face_landmark_ecblobs.h ****   0x00000000000a0000UL, 0x00023fff0000000fUL, 0x00006c6100023fffUL, 0x07c403f100000000UL,
 293:Model/face_landmark_ecblobs.h ****   0x5c0c004300000001UL, 0x2042204200000000UL, 0x000000015c0b7c00UL, 0x03d66c615d000403UL,
 294:Model/face_landmark_ecblobs.h ****   0x03b86c610000fce0UL, 0x03ca6c610000538fUL, 0x035a6c61000071cbUL, 0x03996c6100003033UL,
 295:Model/face_landmark_ecblobs.h ****   0x03a56c610000aa3dUL, 0x03d66c610000f474UL, 0x03b76c610000fce0UL, 0x03cc6c6100002fa4UL,
 296:Model/face_landmark_ecblobs.h ****   0x03a96c610000fa7fUL, 0x03d46c6100006034UL, 0x03a66c610000742cUL, 0x03cc6c610000d780UL,
 297:Model/face_landmark_ecblobs.h ****   0x03c56c610000b9a0UL, 0x03ba6c610000a141UL, 0x03a36c6100003a16UL, 0x0080202100004b50UL,
 298:Model/face_landmark_ecblobs.h ****   0x0008c10418007c00UL, 0x3420000018020043UL, 0x180500c300024000UL, 0x0002400000000000UL,
 299:Model/face_landmark_ecblobs.h ****   0x0000000000000001UL, 0x0010000000000024UL, 0x00000006180c0042UL, 0x180d004300000007UL,
 300:Model/face_landmark_ecblobs.h ****   0x3422403f00000001UL, 0x0000000018110043UL, 0x0080210100000000UL, 0x0008c18434007c00UL,
 301:Model/face_landmark_ecblobs.h ****   0x7141ce9034020043UL, 0x340500c300000100UL, 0x0000000000000000UL, 0x0000000000000000UL,
 302:Model/face_landmark_ecblobs.h ****   0x0010000000000024UL, 0x00000006340c0042UL, 0x340d004300000007UL, 0x7141cfcf00000001UL,
 303:Model/face_landmark_ecblobs.h ****   0x0000000034110043UL, 0x008020a100000008UL, 0x0008010c28007c00UL, 0x3429000028020043UL,
 304:Model/face_landmark_ecblobs.h ****   0x280500c300024000UL, 0x0002400000000000UL, 0x0000000000000000UL, 0x0010000000000024UL,
 305:Model/face_landmark_ecblobs.h ****   0x00000006280c0042UL, 0x280d004300000007UL, 0x342b403f00000001UL, 0x0000000028110043UL,
 306:Model/face_landmark_ecblobs.h ****   0x10007c0000000000UL, 0x1000042400000002UL, 0x0000000000000064UL, 0x4000000010007c00UL,
 307:Model/face_landmark_ecblobs.h ****   0x0000006410007bc4UL, 0x10007c0000000000UL, 0x10077c0000000001UL, 0x100c004300000025UL,
ARM GAS  /tmp/cc1nC4Xu.s 			page 43


 308:Model/face_landmark_ecblobs.h ****   0x0000001100000003UL, 0x0000002b101e7c00UL, 0x0000001510247c00UL, 0x3c007c0028002001UL,
 309:Model/face_landmark_ecblobs.h ****   0x5c00200100000055UL, 0x1800200168002001UL, 0x28007fe434002001UL, 0x0000000000000064UL,
 310:Model/face_landmark_ecblobs.h ****   0x0000000010077c00UL, 0x00000000100c0043UL, 0x101e7c0000000000UL, 0x10247c0000000000UL,
 311:Model/face_landmark_ecblobs.h ****   0x28007c0000000000UL, 0x2800042400000002UL, 0x0000000000000064UL, 0x4000000028007c00UL,
 312:Model/face_landmark_ecblobs.h ****   0x0000006428007bc4UL, 0x008000a100000000UL, 0x000000023c007c00UL, 0x000000643c000424UL,
 313:Model/face_landmark_ecblobs.h ****   0x3c007c0000000000UL, 0x3c007bc440000000UL, 0x0000000000000064UL, 0x5c007c0000800141UL,
 314:Model/face_landmark_ecblobs.h ****   0x5c00042408000002UL, 0x0000000000000064UL, 0x480000005c007c00UL, 0x000000645c007bc4UL,
 315:Model/face_landmark_ecblobs.h ****   0x0080024100000000UL, 0x0800000268007c00UL, 0x0000006468000424UL, 0x68007c0000000000UL,
 316:Model/face_landmark_ecblobs.h ****   0x68007bc448000000UL, 0x0000000000000064UL, 0x18007c00008002a1UL, 0x1800042400000002UL,
 317:Model/face_landmark_ecblobs.h ****   0x0000000000000064UL, 0x4000000018007c00UL, 0x0000006418007bc4UL, 0x0080002100000000UL,
 318:Model/face_landmark_ecblobs.h ****   0x0000000234007c00UL, 0x0000006434000424UL, 0x34007c0000000000UL, 0x34007bc440000000UL,
 319:Model/face_landmark_ecblobs.h ****   0x0000000000000064UL, 0x0000013d00800101UL, 0x6000004200802261UL, 0x0500016008000000UL,
 320:Model/face_landmark_ecblobs.h ****   0x0007100260027c00UL, 0x7d17688260070043UL, 0x600c004300004011UL, 0x1041104100000000UL,
 321:Model/face_landmark_ecblobs.h ****   0x6400004200802281UL, 0x05006e6008000000UL, 0x0000000064027c00UL, 0x0035ff8064070043UL,
 322:Model/face_landmark_ecblobs.h ****   0x640c004300000000UL, 0x1041104100000000UL, 0x5c00004200802241UL, 0x096000fc08000000UL,
 323:Model/face_landmark_ecblobs.h ****   0x000000005c020123UL, 0x0000000300000000UL, 0x00023fff00008fffUL, 0x0000000000000001UL,
 324:Model/face_landmark_ecblobs.h ****   0x0000000107c403fdUL, 0x000000005c0c0043UL, 0x5c0b7c0010411041UL, 0x5d00040300000001UL,
 325:Model/face_landmark_ecblobs.h ****   0x0000000000000010UL, 0x0000000000000029UL, 0x0000000000000013UL, 0x000000000000ffcfUL,
 326:Model/face_landmark_ecblobs.h ****   0x000000000000ffceUL, 0x000000000000ff81UL, 0x000000000000fff0UL, 0x0000000000000002UL,
 327:Model/face_landmark_ecblobs.h ****   0x0000000000000026UL, 0x0000000000000011UL, 0x000000000000fffbUL, 0x000000000000007eUL,
 328:Model/face_landmark_ecblobs.h ****   0x0000000000000045UL, 0x000000000000ffceUL, 0x000000000000001aUL, 0x000000000000002bUL,
 329:Model/face_landmark_ecblobs.h ****   0x68000042008022a1UL, 0x156000fc08000000UL, 0x000a000068020123UL, 0x0000000300000000UL,
 330:Model/face_landmark_ecblobs.h ****   0x00023fff00008fffUL, 0x00000000000040b1UL, 0x0000000107c403fdUL, 0x00000000680c0043UL,
 331:Model/face_landmark_ecblobs.h ****   0x680b7c0010412042UL, 0x6900040300000001UL, 0x0000b6dffc2940b1UL, 0x0000e49cfada40b1UL,
 332:Model/face_landmark_ecblobs.h ****   0x00008929fc0140b1UL, 0x00003ff3ff9040b1UL, 0x0000a485ff9d40b1UL, 0x0000e47203a440b1UL,
 333:Model/face_landmark_ecblobs.h ****   0x00004920fdd640b1UL, 0x000036dbfce540b1UL, 0x00001252fb0340b1UL, 0x0000524dfc1c40b1UL,
 334:Model/face_landmark_ecblobs.h ****   0x0000f6dafd4240b1UL, 0x0000801ff66840b1UL, 0x0000e4a3f96340b1UL, 0x0000a485ff9d40b1UL,
 335:Model/face_landmark_ecblobs.h ****   0x0000c92bfba340b1UL, 0x00001b78fac040b1UL, 0x14007c0000802001UL, 0x1402004300080100UL,
 336:Model/face_landmark_ecblobs.h ****   0x000090003426c000UL, 0x00000000140500c3UL, 0x0000000000009000UL, 0x0000002400000000UL,
 337:Model/face_landmark_ecblobs.h ****   0x140c004200100000UL, 0x0000000700000006UL, 0x00000004140d0043UL, 0x141100433429003fUL,
 338:Model/face_landmark_ecblobs.h ****   0x0000000000000000UL, 0x1c007c0000802041UL, 0x1c02012300080000UL, 0x0060006034290000UL,
 339:Model/face_landmark_ecblobs.h ****   0x0000060000100004UL, 0x0000000400000004UL, 0x0000002400024000UL, 0x1c0c004200100000UL,
 340:Model/face_landmark_ecblobs.h ****   0x0000000700000006UL, 0x000000041c0d0043UL, 0x1c110043342b403fUL, 0x0000000000000000UL,
 341:Model/face_landmark_ecblobs.h ****   0x2c007c00008020c1UL, 0x2c02004300080108UL, 0x0000900034200000UL, 0x000000002c0500c3UL,
 342:Model/face_landmark_ecblobs.h ****   0x0000000000009000UL, 0x0000002400000000UL, 0x2c0c004200100000UL, 0x0000000700000006UL,
 343:Model/face_landmark_ecblobs.h ****   0x000000042c0d0043UL, 0x2c1100433422403fUL, 0x0000000000000000UL, 0x30007c00008020e1UL,
 344:Model/face_landmark_ecblobs.h ****   0x3002004300080108UL, 0x0000900034224000UL, 0x00000000300500c3UL, 0x0000000000009000UL,
 345:Model/face_landmark_ecblobs.h ****   0x0000002400000000UL, 0x300c004200100000UL, 0x0000000700000006UL, 0x00000004300d0043UL,
 346:Model/face_landmark_ecblobs.h ****   0x301100433424803fUL, 0x0000000000000000UL, 0x0000000210007c00UL, 0x0000006410000424UL,
 347:Model/face_landmark_ecblobs.h ****   0x10007c0000000000UL, 0x10007bc440000000UL, 0x0000000000000064UL, 0x0000000110007c00UL,
 348:Model/face_landmark_ecblobs.h ****   0x0000002710080043UL, 0x101e7c000000002bUL, 0x1020006300000029UL, 0x0000000500000001UL,
 349:Model/face_landmark_ecblobs.h ****   0x10247c0000000027UL, 0x2c00200100000025UL, 0x5c00200130002001UL, 0x6400200160002001UL,
 350:Model/face_landmark_ecblobs.h ****   0x1400200168002001UL, 0x2c007fe41c002001UL, 0x0000000000000064UL, 0x0000006430007fe4UL,
 351:Model/face_landmark_ecblobs.h ****   0x1008004300000000UL, 0x0000000000000000UL, 0x00000000101e7c00UL, 0x0000000010200063UL,
 352:Model/face_landmark_ecblobs.h ****   0x0000000000000000UL, 0x0000000010247c00UL, 0x000000022c007c00UL, 0x000000642c000424UL,
 353:Model/face_landmark_ecblobs.h ****   0x2c007c0000000000UL, 0x2c007bc440000000UL, 0x0000000000000064UL, 0x30007c00008000c1UL,
 354:Model/face_landmark_ecblobs.h ****   0x3000042400000002UL, 0x0000000000000064UL, 0x4000000030007c00UL, 0x0000006430007bc4UL,
 355:Model/face_landmark_ecblobs.h ****   0x008000e100000000UL, 0x080000025c007c00UL, 0x000000645c000424UL, 0x5c007c0000000000UL,
 356:Model/face_landmark_ecblobs.h ****   0x5c007bc448000000UL, 0x0000000000000064UL, 0x60007c0000800241UL, 0x6000042408000002UL,
 357:Model/face_landmark_ecblobs.h ****   0x0000000000000064UL, 0x4800000060007c00UL, 0x0000006460007bc4UL, 0x0080026100000000UL,
 358:Model/face_landmark_ecblobs.h ****   0x0800000264007c00UL, 0x0000006464000424UL, 0x64007c0000000000UL, 0x64007bc448000000UL,
 359:Model/face_landmark_ecblobs.h ****   0x0000000000000064UL, 0x68007c0000800281UL, 0x6800042408000002UL, 0x0000000000000064UL,
 360:Model/face_landmark_ecblobs.h ****   0x4800000068007c00UL, 0x0000006468007bc4UL, 0x008002a100000000UL, 0x0000000214007c00UL,
 361:Model/face_landmark_ecblobs.h ****   0x0000006414000424UL, 0x14007c0000000000UL, 0x14007bc440000000UL, 0x0000000000000064UL,
 362:Model/face_landmark_ecblobs.h ****   0x1c007c0000800001UL, 0x1c00042400000002UL, 0x0000000000000064UL, 0x400000001c007c00UL,
 363:Model/face_landmark_ecblobs.h ****   0x000000641c007bc4UL, 0x0080004100000000UL, 0x008022010000015dUL, 0x0174104c54007c00UL,
 364:Model/face_landmark_ecblobs.h ****   0x00087f8054020043UL, 0x550004030290220fUL, 0x0000000000000000UL, 0x0000000000000000UL,
ARM GAS  /tmp/cc1nC4Xu.s 			page 44


 365:Model/face_landmark_ecblobs.h ****   0x0000000000000000UL, 0x0000000000000000UL, 0x0000000000000000UL, 0x0000000000000000UL,
 366:Model/face_landmark_ecblobs.h ****   0x0000000000000000UL, 0x0000000000000000UL, 0x0000000000000000UL, 0x0000000000000000UL,
 367:Model/face_landmark_ecblobs.h ****   0x0000000000000000UL, 0x00000009000000c1UL, 0x0000000900000009UL, 0x0000000900000009UL,
 368:Model/face_landmark_ecblobs.h ****   0x0000000900000009UL, 0x000000ca00000009UL, 0x0000000056000483UL, 0x000000000000e800UL,
 369:Model/face_landmark_ecblobs.h ****   0x000000000000e800UL, 0x000000000000e800UL, 0x000000000000e800UL, 0x000000000000e800UL,
 370:Model/face_landmark_ecblobs.h ****   0x000000000000e800UL, 0x000000000000e800UL, 0x000000000000e900UL, 0x4be500000000ea80UL,
 371:Model/face_landmark_ecblobs.h ****   0x000000000000a926UL, 0x0000000000003780UL, 0x0000000000003880UL, 0x0000000000003a00UL,
 372:Model/face_landmark_ecblobs.h ****   0x0000000000003b00UL, 0x0000000000003c00UL, 0x0000000000003d80UL, 0x0000000000003e80UL,
 373:Model/face_landmark_ecblobs.h ****   0x0080224100003f80UL, 0x080000005c000042UL, 0x5c027c0005000160UL, 0x5c07004300071400UL,
 374:Model/face_landmark_ecblobs.h ****   0x0000400060004000UL, 0x000000005c0c0043UL, 0x0080216110411041UL, 0x0000005440007c00UL,
 375:Model/face_landmark_ecblobs.h ****   0x04040303400200c3UL, 0x10a3420200002244UL, 0x017f000000600180UL, 0x400a7c00005f0000UL,
 376:Model/face_landmark_ecblobs.h ****   0x400c004300000000UL, 0x0000000000ffffd0UL, 0x6000004200802261UL, 0x0900006008000000UL,
 377:Model/face_landmark_ecblobs.h ****   0x0007800060027c00UL, 0x00004b9560070043UL, 0x600c004300000000UL, 0x2042204200000000UL,
 378:Model/face_landmark_ecblobs.h ****   0x6400004200802281UL, 0x1500006008000000UL, 0x000a000064027c00UL, 0x00006c0764070043UL,
 379:Model/face_landmark_ecblobs.h ****   0x640c00430000ffc0UL, 0x2042204200000000UL, 0x24007c0000802081UL, 0x2402004300080100UL,
 380:Model/face_landmark_ecblobs.h ****   0x0000900034200000UL, 0x00000000240500c3UL, 0x0000000000009000UL, 0x0000002400000000UL,
 381:Model/face_landmark_ecblobs.h ****   0x240c004200100000UL, 0x0000000700000006UL, 0x00000004240d0043UL, 0x241100433422403fUL,
 382:Model/face_landmark_ecblobs.h ****   0x0000000000000000UL, 0x2c007c00008020c1UL, 0x2c02004300080100UL, 0x0000900034224000UL,
 383:Model/face_landmark_ecblobs.h ****   0x000000002c0500c3UL, 0x0000000000009000UL, 0x0000002400000000UL, 0x2c0c004200100000UL,
 384:Model/face_landmark_ecblobs.h ****   0x0000000700000006UL, 0x000000042c0d0043UL, 0x2c1100433424803fUL, 0x0000000000000000UL,
 385:Model/face_landmark_ecblobs.h ****   0x20007c0000802061UL, 0x200200430008c184UL, 0x000002407141c680UL, 0x00000000200500c3UL,
 386:Model/face_landmark_ecblobs.h ****   0x0000000000000000UL, 0x0000002400000000UL, 0x200c004200100000UL, 0x0000000700000006UL,
 387:Model/face_landmark_ecblobs.h ****   0x00000001200d0043UL, 0x201100437141c8ffUL, 0x0000000800000000UL, 0x38007c0000802121UL,
 388:Model/face_landmark_ecblobs.h ****   0x3802004300080108UL, 0x0000900034248000UL, 0x00000000380500c3UL, 0x0000000000009000UL,
 389:Model/face_landmark_ecblobs.h ****   0x0000002400000000UL, 0x380c004200100000UL, 0x0000000700000006UL, 0x00000004380d0043UL,
 390:Model/face_landmark_ecblobs.h ****   0x381100433426c03fUL, 0x0000000000000000UL, 0x18007c0000802021UL, 0x1802012300080008UL,
 391:Model/face_landmark_ecblobs.h ****   0x003000303426c000UL, 0x0000030000100004UL, 0x0000000400000004UL, 0x0000002400009000UL,
 392:Model/face_landmark_ecblobs.h ****   0x180c004200100000UL, 0x0000000700000006UL, 0x00000004180d0043UL, 0x181100433427503fUL,
 393:Model/face_landmark_ecblobs.h ****   0x0000000000000000UL, 0x0000000210007c00UL, 0x0000006410000424UL, 0x10007c0000000000UL,
 394:Model/face_landmark_ecblobs.h ****   0x10007bc440000000UL, 0x0000000000000064UL, 0x0000000110007c00UL, 0x0000002910037c00UL,
 395:Model/face_landmark_ecblobs.h ****   0x00000025100b7c00UL, 0xff240425100f0043UL, 0x101c7c0000000007UL, 0x101e006300000009UL,
 396:Model/face_landmark_ecblobs.h ****   0x0000000d00000021UL, 0x10227c0000000017UL, 0x1800200100000027UL, 0x40007c0038002001UL,
 397:Model/face_landmark_ecblobs.h ****   0x5400200100000055UL, 0x600020015c002001UL, 0x2000200164002001UL, 0x2c00200124002001UL,
 398:Model/face_landmark_ecblobs.h ****   0x0000006418007fe4UL, 0x38007fe400000000UL, 0x0000000000000064UL, 0x0000000010037c00UL,
 399:Model/face_landmark_ecblobs.h ****   0x00000000100b7c00UL, 0x00000000100f0043UL, 0x101c7c0000000000UL, 0x101e006300000000UL,
 400:Model/face_landmark_ecblobs.h ****   0x0000000000000000UL, 0x10227c0000000000UL, 0x18007c0000000000UL, 0x1800042400000002UL,
 401:Model/face_landmark_ecblobs.h ****   0x0000000000000064UL, 0x4000000018007c00UL, 0x0000006418007bc4UL, 0x0080002100000000UL,
 402:Model/face_landmark_ecblobs.h ****   0x0000000238007c00UL, 0x0000006438000424UL, 0x38007c0000000000UL, 0x38007bc440000000UL,
 403:Model/face_landmark_ecblobs.h ****   0x0000000000000064UL, 0x40007c0000800121UL, 0x4000042400000002UL, 0x0000000000000064UL,
 404:Model/face_landmark_ecblobs.h ****   0x4000000040007c00UL, 0x0000006440007bc4UL, 0x0080016100000000UL, 0x0088108254007c00UL,
 405:Model/face_landmark_ecblobs.h ****   0x0000006454000424UL, 0x54007c0000000000UL, 0x54007bc440881080UL, 0x0000000000000064UL,
 406:Model/face_landmark_ecblobs.h ****   0x5c007c0000800201UL, 0x5c00042408000002UL, 0x0000000000000064UL, 0x480000005c007c00UL,
 407:Model/face_landmark_ecblobs.h ****   0x000000645c007bc4UL, 0x0080024100000000UL, 0x0800000260007c00UL, 0x0000006460000424UL,
 408:Model/face_landmark_ecblobs.h ****   0x60007c0000000000UL, 0x60007bc448000000UL, 0x0000000000000064UL, 0x64007c0000800261UL,
 409:Model/face_landmark_ecblobs.h ****   0x6400042408000002UL, 0x0000000000000064UL, 0x4800000064007c00UL, 0x0000006464007bc4UL,
 410:Model/face_landmark_ecblobs.h ****   0x0080028100000000UL, 0x0000000220007c00UL, 0x0000006420000424UL, 0x20007c0000000000UL,
 411:Model/face_landmark_ecblobs.h ****   0x20007bc440000000UL, 0x0000000000000064UL, 0x24007c0000800061UL, 0x2400042400000002UL,
 412:Model/face_landmark_ecblobs.h ****   0x0000000000000064UL, 0x4000000024007c00UL, 0x0000006424007bc4UL, 0x0080008100000000UL,
 413:Model/face_landmark_ecblobs.h ****   0x000000022c007c00UL, 0x000000642c000424UL, 0x2c007c0000000000UL, 0x2c007bc440000000UL,
 414:Model/face_landmark_ecblobs.h ****   0x0000000000000064UL, 0x0000017d008000c1UL, 0x44007c0000802181UL, 0x440200c300000054UL,
 415:Model/face_landmark_ecblobs.h ****   0x0000110010100101UL, 0x0030030010a34101UL, 0x002f000002ff0000UL, 0x00000000440a7c00UL,
 416:Model/face_landmark_ecblobs.h ****   0x00fffffc440c0043UL, 0x008022a100000000UL, 0x0800000068000042UL, 0x68027c0009000060UL,
 417:Model/face_landmark_ecblobs.h ****   0x6807004300078000UL, 0x0000000000005a9dUL, 0x00000000680c0043UL, 0x0080224120422042UL,
 418:Model/face_landmark_ecblobs.h ****   0x080000005c000042UL, 0x5c020123156000fcUL, 0x00000000000a0000UL, 0x00008fff0000000fUL,
 419:Model/face_landmark_ecblobs.h ****   0x0000797800011fffUL, 0x078403f100000000UL, 0x5c0c004300000001UL, 0x2042204200000000UL,
 420:Model/face_landmark_ecblobs.h ****   0x000000015c0b7c00UL, 0x013979785d000803UL, 0x00ea79780000e5abUL, 0x011479780000f628UL,
 421:Model/face_landmark_ecblobs.h ****   0x008f79780000c7d7UL, 0x011979780000ef07UL, 0x00f8797800007bb1UL, 0x00fd7978000090baUL,
ARM GAS  /tmp/cc1nC4Xu.s 			page 45


 422:Model/face_landmark_ecblobs.h ****   0x00f1797800004494UL, 0x00d279780000adf2UL, 0x010c79780000f1eaUL, 0x012c79780000b818UL,
 423:Model/face_landmark_ecblobs.h ****   0x012f79780000f713UL, 0x015b797800002602UL, 0x012979780000a79aUL, 0x00df79780000c62dUL,
 424:Model/face_landmark_ecblobs.h ****   0x0129797800008a84UL, 0x00f579780000c62dUL, 0x00c97978000009d7UL, 0x00f879780000e033UL,
 425:Model/face_landmark_ecblobs.h ****   0x015179780000e6b8UL, 0x00cf79780000beebUL, 0x00de797800001509UL, 0x016279780000b38bUL,
 426:Model/face_landmark_ecblobs.h ****   0x0121797800000967UL, 0x011279780000b66eUL, 0x01377978000017ecUL, 0x01187978000035c1UL,
 427:Model/face_landmark_ecblobs.h ****   0x00fc79780000cfb6UL, 0x010679780000429dUL, 0x013479780000004eUL, 0x00df7978000004daUL,
 428:Model/face_landmark_ecblobs.h ****   0x00e979780000b583UL, 0x008022c10000f430UL, 0x0041c0c06c007c00UL, 0x100008926c0200e3UL,
 429:Model/face_landmark_ecblobs.h ****   0x0030003000600180UL, 0x017f000000000000UL, 0x00050001005f0000UL, 0x1c007c0000802041UL,
 430:Model/face_landmark_ecblobs.h ****   0x1c0200430008c100UL, 0x000090003426c000UL, 0x000000001c0500c3UL, 0x0000000100009000UL,
 431:Model/face_landmark_ecblobs.h ****   0x0000002400000000UL, 0x1c0c004200100000UL, 0x0000000700000006UL, 0x000000021c0d0043UL,
 432:Model/face_landmark_ecblobs.h ****   0x1c1100433427503fUL, 0x0000000000000000UL, 0x34007c0000802101UL, 0x340200430008c184UL,
 433:Model/face_landmark_ecblobs.h ****   0x000002007141c8c0UL, 0x00000000340500c3UL, 0x0000000000000000UL, 0x0000002400000000UL,
 434:Model/face_landmark_ecblobs.h ****   0x340c004200100000UL, 0x0000000700000006UL, 0x00000001340d0043UL, 0x341100437141caffUL,
 435:Model/face_landmark_ecblobs.h ****   0x0000000800000000UL, 0x2c007c00008020c1UL, 0x2c02004300080100UL, 0x0000900034248000UL,
 436:Model/face_landmark_ecblobs.h ****   0x000000002c0500c3UL, 0x0000000000009000UL, 0x0000002400000000UL, 0x2c0c004200100000UL,
 437:Model/face_landmark_ecblobs.h ****   0x0000000700000006UL, 0x000000042c0d0043UL, 0x2c1100433426c03fUL, 0x0000000000000000UL,
 438:Model/face_landmark_ecblobs.h ****   0x14007c0000802001UL, 0x1402012300080008UL, 0x0030003034200000UL, 0x0000060000200010UL,
 439:Model/face_landmark_ecblobs.h ****   0x0000000200000010UL, 0x0000002400012000UL, 0x140c004200100000UL, 0x0000000700000006UL,
 440:Model/face_landmark_ecblobs.h ****   0x00000002140d0043UL, 0x141100433421203fUL, 0x0000000000000000UL, 0x20007c0000802061UL,
 441:Model/face_landmark_ecblobs.h ****   0x2002012300080008UL, 0x0030003034212000UL, 0x0000030000100004UL, 0x0000000400000004UL,
 442:Model/face_landmark_ecblobs.h ****   0x0000002400009000UL, 0x200c004200100000UL, 0x0000000700000006UL, 0x00000004200d0043UL,
 443:Model/face_landmark_ecblobs.h ****   0x201100433421b03fUL, 0x0000000000000000UL, 0x0000000210007c00UL, 0x0000006410000424UL,
 444:Model/face_landmark_ecblobs.h ****   0x10007c0000000000UL, 0x10007bc440000000UL, 0x0000000000000064UL, 0x0000000110007c00UL,
 445:Model/face_landmark_ecblobs.h ****   0x0000002510027c00UL, 0x0000002d10057c00UL, 0x0000000510120043UL, 0x101e7c0000000011UL,
 446:Model/face_landmark_ecblobs.h ****   0x10247c000000002bUL, 0x10267c0000000019UL, 0x140020010000000dUL, 0x44007c0020002001UL,
 447:Model/face_landmark_ecblobs.h ****   0x5c00200100000055UL, 0x6c00200168002001UL, 0x2c0020011c002001UL, 0x14007fe434002001UL,
 448:Model/face_landmark_ecblobs.h ****   0x0000000000000064UL, 0x0000006420007fe4UL, 0x10027c0000000000UL, 0x10057c0000000000UL,
 449:Model/face_landmark_ecblobs.h ****   0x1012004300000000UL, 0x0000000000000000UL, 0x00000000101e7c00UL, 0x0000000010247c00UL,
 450:Model/face_landmark_ecblobs.h ****   0x0000000010267c00UL, 0x0000000214007c00UL, 0x0000006414000424UL, 0x14007c0000000000UL,
 451:Model/face_landmark_ecblobs.h ****   0x14007bc440000000UL, 0x0000000000000064UL, 0x20007c0000800001UL, 0x2000042400000002UL,
 452:Model/face_landmark_ecblobs.h ****   0x0000000000000064UL, 0x4000000020007c00UL, 0x0000006420007bc4UL, 0x0080006100000000UL,
 453:Model/face_landmark_ecblobs.h ****   0x0000000244007c00UL, 0x0000006444000424UL, 0x44007c0000000000UL, 0x44007bc440000000UL,
 454:Model/face_landmark_ecblobs.h ****   0x0000000000000064UL, 0x5c007c0000800181UL, 0x5c00042408000002UL, 0x0000000000000064UL,
 455:Model/face_landmark_ecblobs.h ****   0x480000005c007c00UL, 0x000000645c007bc4UL, 0x0080024100000000UL, 0x0800000268007c00UL,
 456:Model/face_landmark_ecblobs.h ****   0x0000006468000424UL, 0x68007c0000000000UL, 0x68007bc448000000UL, 0x0000000000000064UL,
 457:Model/face_landmark_ecblobs.h ****   0x6c007c00008002a1UL, 0x6c00042400420002UL, 0x0000000000000064UL, 0x404200006c007c00UL,
 458:Model/face_landmark_ecblobs.h ****   0x000000646c007bc4UL, 0x008002c100000000UL, 0x000000021c007c00UL, 0x000000641c000424UL,
 459:Model/face_landmark_ecblobs.h ****   0x1c007c0000000000UL, 0x1c007bc440000000UL, 0x0000000000000064UL, 0x2c007c0000800041UL,
 460:Model/face_landmark_ecblobs.h ****   0x2c00042400000002UL, 0x0000000000000064UL, 0x400000002c007c00UL, 0x000000642c007bc4UL,
 461:Model/face_landmark_ecblobs.h ****   0x008000c100000000UL, 0x0000000234007c00UL, 0x0000006434000424UL, 0x34007c0000000000UL,
 462:Model/face_landmark_ecblobs.h ****   0x34007bc440000000UL, 0x0000000000000064UL, 0x0000000c00800101UL
 463:Model/face_landmark_ecblobs.h **** };
 464:Model/face_landmark_ecblobs.h **** 
 465:Model/face_landmark_ecblobs.h **** 
 466:Model/face_landmark_ecblobs.h **** #define EC_DECRYPT__ec_blob_face_landmark_13 false    // Epoch Controller must NOT be programmed fo
 467:Model/face_landmark_ecblobs.h **** 
 468:Model/face_landmark_ecblobs.h **** ECBLOB_CONST_SECTION
 469:Model/face_landmark_ecblobs.h **** static const uint64_t _ec_blob_face_landmark_13[] =
 470:Model/face_landmark_ecblobs.h **** {
 471:Model/face_landmark_ecblobs.h ****   0x000000f4ca057a7aUL, 0x008020e1000001bdUL, 0x0008000030007c00UL, 0x3421b00030020123UL,
 472:Model/face_landmark_ecblobs.h ****   0x0030000100100030UL, 0x0000000100000900UL, 0x0000900000000030UL, 0x0010000000000024UL,
 473:Model/face_landmark_ecblobs.h ****   0x00000006300c0042UL, 0x300d004300000007UL, 0x3422403f00000030UL, 0x0000000030110043UL,
 474:Model/face_landmark_ecblobs.h ****   0x0080206100000000UL, 0x0008010820007c00UL, 0x3422400020020043UL, 0x200500c300000300UL,
 475:Model/face_landmark_ecblobs.h ****   0x0000030000000000UL, 0x0000000000000000UL, 0x0010000000000024UL, 0x00000006200c0042UL,
 476:Model/face_landmark_ecblobs.h ****   0x200d004300000007UL, 0x3422d03f00000030UL, 0x0000000020110043UL, 0x10007c0000000000UL,
 477:Model/face_landmark_ecblobs.h ****   0x1000042400000002UL, 0x0000000000000064UL, 0x4000000010007c00UL, 0x0000006410007bc4UL,
 478:Model/face_landmark_ecblobs.h ****   0x10007c0000000000UL, 0x10057c0000000001UL, 0x200020010000000fUL, 0x20007fe430002001UL,
ARM GAS  /tmp/cc1nC4Xu.s 			page 46


 479:Model/face_landmark_ecblobs.h ****   0x0000000000000064UL, 0x0000000010057c00UL, 0x0000000220007c00UL, 0x0000006420000424UL,
 480:Model/face_landmark_ecblobs.h ****   0x20007c0000000000UL, 0x20007bc440000000UL, 0x0000000000000064UL, 0x30007c0000800061UL,
 481:Model/face_landmark_ecblobs.h ****   0x3000042400000002UL, 0x0000000000000064UL, 0x4000000030007c00UL, 0x0000006430007bc4UL,
 482:Model/face_landmark_ecblobs.h ****   0x008000e100000000UL, 0x008021a1000001ddUL, 0x0000003448007c00UL, 0x01010101480200c3UL,
 483:Model/face_landmark_ecblobs.h ****   0x1053400000001100UL, 0x002f000000100030UL, 0x480a7c00000f0000UL, 0x480d7c0010000000UL,
 484:Model/face_landmark_ecblobs.h ****   0x008020e10000ffd0UL, 0x0008010030007c00UL, 0x3422400030020043UL, 0x300500c300000300UL,
 485:Model/face_landmark_ecblobs.h ****   0x0000000000000000UL, 0x0000030000000001UL, 0x0010000000000024UL, 0x00000006300c0042UL,
 486:Model/face_landmark_ecblobs.h ****   0x300d004300000007UL, 0x3422d03f00000030UL, 0x0000000030110043UL, 0x008020a100000000UL,
 487:Model/face_landmark_ecblobs.h ****   0x0008018428007c00UL, 0x7141cf9028020043UL, 0x280500c300000030UL, 0x0000000000000000UL,
 488:Model/face_landmark_ecblobs.h ****   0x0000000000000000UL, 0x0010000000000024UL, 0x00000006280c0042UL, 0x280d004300000007UL,
 489:Model/face_landmark_ecblobs.h ****   0x7141cfff00000001UL, 0x0000000028110043UL, 0x0080208100000008UL, 0x0008010824007c00UL,
 490:Model/face_landmark_ecblobs.h ****   0x3421200024020043UL, 0x240500c300000600UL, 0x0000060000000000UL, 0x0000000000000000UL,
 491:Model/face_landmark_ecblobs.h ****   0x0010000000000024UL, 0x00000006240c0042UL, 0x240d004300000007UL, 0x3422403f00000030UL,
 492:Model/face_landmark_ecblobs.h ****   0x0000000024110043UL, 0x10007c0000000000UL, 0x1000042400000002UL, 0x0000000000000064UL,
 493:Model/face_landmark_ecblobs.h ****   0x4000000010007c00UL, 0x0000006410007bc4UL, 0x10007c0000000000UL, 0x10067c0000000001UL,
 494:Model/face_landmark_ecblobs.h ****   0x101500430000001bUL, 0x0000000b0000000fUL, 0x48007c0024002001UL, 0x2800200100000035UL,
 495:Model/face_landmark_ecblobs.h ****   0x24007fe430002001UL, 0x0000000000000064UL, 0x0000000010067c00UL, 0x0000000010150043UL,
 496:Model/face_landmark_ecblobs.h ****   0x24007c0000000000UL, 0x2400042400000002UL, 0x0000000000000064UL, 0x4000000024007c00UL,
 497:Model/face_landmark_ecblobs.h ****   0x0000006424007bc4UL, 0x0080008100000000UL, 0x0000000248007c00UL, 0x0000006448000424UL,
 498:Model/face_landmark_ecblobs.h ****   0x48007c0000000000UL, 0x48007bc440000000UL, 0x0000000000000064UL, 0x28007c00008001a1UL,
 499:Model/face_landmark_ecblobs.h ****   0x2800042400000002UL, 0x0000000000000064UL, 0x4000000028007c00UL, 0x0000006428007bc4UL,
 500:Model/face_landmark_ecblobs.h ****   0x008000a100000000UL, 0x0000000230007c00UL, 0x0000006430000424UL, 0x30007c0000000000UL,
 501:Model/face_landmark_ecblobs.h ****   0x30007bc440000000UL, 0x0000000000000064UL, 0x0000000c008000e1UL
 502:Model/face_landmark_ecblobs.h **** };
 503:Model/face_landmark_ecblobs.h **** 
 504:Model/face_landmark_ecblobs.h **** 
 505:Model/face_landmark_ecblobs.h **** #define EC_DECRYPT__ec_blob_face_landmark_16 false    // Epoch Controller must NOT be programmed fo
 506:Model/face_landmark_ecblobs.h **** 
 507:Model/face_landmark_ecblobs.h **** ECBLOB_CONST_SECTION
 508:Model/face_landmark_ecblobs.h **** static const uint64_t _ec_blob_face_landmark_16[] =
 509:Model/face_landmark_ecblobs.h **** {
 510:Model/face_landmark_ecblobs.h ****   0x00000e0aca057a7aUL, 0x008022610000021dUL, 0x0800000060000042UL, 0x60027c0005000160UL,
 511:Model/face_landmark_ecblobs.h ****   0x6007004300079400UL, 0x000069d5404563ebUL, 0x00000000600c0043UL, 0x0080228110411041UL,
 512:Model/face_landmark_ecblobs.h ****   0x0800000064000042UL, 0x64027c0005006e60UL, 0x6407004300000000UL, 0x00000000fff7ff80UL,
 513:Model/face_landmark_ecblobs.h ****   0x00000000640c0043UL, 0x0080224110411041UL, 0x080000005c000042UL, 0x5c020123096000fcUL,
 514:Model/face_landmark_ecblobs.h ****   0x0000000000000000UL, 0x000008ff00000000UL, 0x0000000100011fffUL, 0x0784020000000000UL,
 515:Model/face_landmark_ecblobs.h ****   0x5c0c004300000001UL, 0x1041104100000000UL, 0x000000015c0b7c00UL, 0x0000ffd85d000803UL,
 516:Model/face_landmark_ecblobs.h ****   0x0000001800000000UL, 0x0000003a00000000UL, 0x0000000e00000000UL, 0x0000ffde00000000UL,
 517:Model/face_landmark_ecblobs.h ****   0x0000ffe000000000UL, 0x0000000f00000000UL, 0x0000fffa00000000UL, 0x0000ffd400000000UL,
 518:Model/face_landmark_ecblobs.h ****   0x0000005300000000UL, 0x0000000700000000UL, 0x0000002900000000UL, 0x0000002a00000000UL,
 519:Model/face_landmark_ecblobs.h ****   0x0000000600000000UL, 0x0000000b00000000UL, 0x0000007f00000000UL, 0x0000001800000000UL,
 520:Model/face_landmark_ecblobs.h ****   0x0000002c00000000UL, 0x0000ffff00000000UL, 0x0000fff800000000UL, 0x0000006a00000000UL,
 521:Model/face_landmark_ecblobs.h ****   0x0000000800000000UL, 0x0000ffeb00000000UL, 0x0000001b00000000UL, 0x0000003100000000UL,
 522:Model/face_landmark_ecblobs.h ****   0x0000001800000000UL, 0x0000000b00000000UL, 0x0000ffc200000000UL, 0x0000001f00000000UL,
 523:Model/face_landmark_ecblobs.h ****   0x0000000100000000UL, 0x0000ffd800000000UL, 0x0000ffc400000000UL, 0x008022a100000000UL,
 524:Model/face_landmark_ecblobs.h ****   0x0800000068000042UL, 0x68020123156000fcUL, 0x00000000000a8000UL, 0x000008ff00000000UL,
 525:Model/face_landmark_ecblobs.h ****   0x0000578700011fffUL, 0x0784020000000000UL, 0x680c004300000001UL, 0x1041204200000000UL,
 526:Model/face_landmark_ecblobs.h ****   0x00000001680b7c00UL, 0xfa04578769000803UL, 0xfac957870000eaa8UL, 0xfb3257870000d99bUL,
 527:Model/face_landmark_ecblobs.h ****   0xfaab57870000788cUL, 0xfa17578700001445UL, 0xfa1d57870000610fUL, 0xfaae578700008886UL,
 528:Model/face_landmark_ecblobs.h ****   0xfa6d578700002800UL, 0xf9f8578700008999UL, 0xfb7f578700009bb9UL, 0xfa955787000065e3UL,
 529:Model/face_landmark_ecblobs.h ****   0xfafe578700008a22UL, 0xfb01578700002913UL, 0xfa92578700003ccfUL, 0xfaa1578700007666UL,
 530:Model/face_landmark_ecblobs.h ****   0xfc0657870000d911UL, 0xfac957870000ca29UL, 0xfb0757870000d99bUL, 0xfa7c578700006447UL,
 531:Model/face_landmark_ecblobs.h ****   0xfa6757870000ec44UL, 0xfbc6578700006221UL, 0xfa98578700002bc2UL, 0xfa3f578700009ddeUL,
 532:Model/face_landmark_ecblobs.h ****   0xfad3578700006198UL, 0xfb165787000014ceUL, 0xfac957870000c6f1UL, 0xfaa157870000d99bUL,
 533:Model/face_landmark_ecblobs.h ****   0xf9c157870000d911UL, 0xfadf578700003884UL, 0xfa835787000063bdUL, 0xfa045787000013bbUL,
 534:Model/face_landmark_ecblobs.h ****   0xf9c757870000eaa8UL, 0x008020c100005ffcUL, 0x000801002c007c00UL, 0x342240002c020043UL,
 535:Model/face_landmark_ecblobs.h ****   0x2c0500c300000900UL, 0x0000090000000000UL, 0x0000000000000000UL, 0x0010000000000024UL,
ARM GAS  /tmp/cc1nC4Xu.s 			page 47


 536:Model/face_landmark_ecblobs.h ****   0x000000062c0c0042UL, 0x2c0d004300000007UL, 0x3423603f00000020UL, 0x000000002c110043UL,
 537:Model/face_landmark_ecblobs.h ****   0x0080208100000000UL, 0x0008000024007c00UL, 0x3420000024020123UL, 0x0020000100300030UL,
 538:Model/face_landmark_ecblobs.h ****   0x0000000100000600UL, 0x0001200000000020UL, 0x0010000000000024UL, 0x00000006240c0042UL,
 539:Model/face_landmark_ecblobs.h ****   0x240d004300000007UL, 0x3421203f00000020UL, 0x0000000024110043UL, 0x0080210100000000UL,
 540:Model/face_landmark_ecblobs.h ****   0x0008010834007c00UL, 0x3423600034020043UL, 0x340500c300000900UL, 0x0000090000000000UL,
 541:Model/face_landmark_ecblobs.h ****   0x0000000000000000UL, 0x0010000000000024UL, 0x00000006340c0042UL, 0x340d004300000007UL,
 542:Model/face_landmark_ecblobs.h ****   0x3424803f00000020UL, 0x0000000034110043UL, 0x0080200100000000UL, 0x0008010814007c00UL,
 543:Model/face_landmark_ecblobs.h ****   0x3424800014020043UL, 0x140500c300000900UL, 0x0000090000000000UL, 0x0000000000000000UL,
 544:Model/face_landmark_ecblobs.h ****   0x0010000000000024UL, 0x00000006140c0042UL, 0x140d004300000007UL, 0x3425a03f00000020UL,
 545:Model/face_landmark_ecblobs.h ****   0x0000000014110043UL, 0x10007c0000000000UL, 0x1000042400000002UL, 0x0000000000000064UL,
 546:Model/face_landmark_ecblobs.h ****   0x4000000010007c00UL, 0x0000006410007bc4UL, 0x10007c0000000000UL, 0x10027c0000000001UL,
 547:Model/face_landmark_ecblobs.h ****   0x100a7c000000002bUL, 0x101e7c0000000027UL, 0x1020006300000029UL, 0x000000090000000dUL,
 548:Model/face_landmark_ecblobs.h ****   0x10247c0000000027UL, 0x1400200100000025UL, 0x5c00200134002001UL, 0x6400200160002001UL,
 549:Model/face_landmark_ecblobs.h ****   0x2400200168002001UL, 0x14007fe42c002001UL, 0x0000000000000064UL, 0x0000006434007fe4UL,
 550:Model/face_landmark_ecblobs.h ****   0x10027c0000000000UL, 0x100a7c0000000000UL, 0x101e7c0000000000UL, 0x1020006300000000UL,
 551:Model/face_landmark_ecblobs.h ****   0x0000000000000000UL, 0x10247c0000000000UL, 0x14007c0000000000UL, 0x1400042400000002UL,
 552:Model/face_landmark_ecblobs.h ****   0x0000000000000064UL, 0x4000000014007c00UL, 0x0000006414007bc4UL, 0x0080000100000000UL,
 553:Model/face_landmark_ecblobs.h ****   0x0000000234007c00UL, 0x0000006434000424UL, 0x34007c0000000000UL, 0x34007bc440000000UL,
 554:Model/face_landmark_ecblobs.h ****   0x0000000000000064UL, 0x5c007c0000800101UL, 0x5c00042408000002UL, 0x0000000000000064UL,
 555:Model/face_landmark_ecblobs.h ****   0x480000005c007c00UL, 0x000000645c007bc4UL, 0x0080024100000000UL, 0x0800000260007c00UL,
 556:Model/face_landmark_ecblobs.h ****   0x0000006460000424UL, 0x60007c0000000000UL, 0x60007bc448000000UL, 0x0000000000000064UL,
 557:Model/face_landmark_ecblobs.h ****   0x64007c0000800261UL, 0x6400042408000002UL, 0x0000000000000064UL, 0x4800000064007c00UL,
 558:Model/face_landmark_ecblobs.h ****   0x0000006464007bc4UL, 0x0080028100000000UL, 0x0800000268007c00UL, 0x0000006468000424UL,
 559:Model/face_landmark_ecblobs.h ****   0x68007c0000000000UL, 0x68007bc448000000UL, 0x0000000000000064UL, 0x24007c00008002a1UL,
 560:Model/face_landmark_ecblobs.h ****   0x2400042400000002UL, 0x0000000000000064UL, 0x4000000024007c00UL, 0x0000006424007bc4UL,
 561:Model/face_landmark_ecblobs.h ****   0x0080008100000000UL, 0x000000022c007c00UL, 0x000000642c000424UL, 0x2c007c0000000000UL,
 562:Model/face_landmark_ecblobs.h ****   0x2c007bc440000000UL, 0x0000000000000064UL, 0x0000023d008000c1UL, 0x58007c0000802221UL,
 563:Model/face_landmark_ecblobs.h ****   0x580200430174104cUL, 0x029011cf00087f80UL, 0x0000000059000403UL, 0x0000000000000000UL,
 564:Model/face_landmark_ecblobs.h ****   0x0000000000000000UL, 0x0000000000000000UL, 0x0000000000000000UL, 0x0000000000000000UL,
 565:Model/face_landmark_ecblobs.h ****   0x0000000000000000UL, 0x000000c100000000UL, 0x0000000900000009UL, 0x0000000900000009UL,
 566:Model/face_landmark_ecblobs.h ****   0x0000000900000009UL, 0x0000000900000009UL, 0x0000000900000009UL, 0x0000000900000009UL,
 567:Model/face_landmark_ecblobs.h ****   0x0000000900000009UL, 0x0000000900000009UL, 0x5a000483000000caUL, 0x0000d40000000000UL,
 568:Model/face_landmark_ecblobs.h ****   0x0000d40000000000UL, 0x0000d40000000000UL, 0x0000d40000000000UL, 0x0000d40000000000UL,
 569:Model/face_landmark_ecblobs.h ****   0x0000d40000000000UL, 0x0000d40000000000UL, 0x0000d40000000000UL, 0x0000d40000000000UL,
 570:Model/face_landmark_ecblobs.h ****   0x0000df3f4ff80000UL, 0x0000750000000000UL, 0x0000760000000000UL, 0x0000780000000000UL,
 571:Model/face_landmark_ecblobs.h ****   0x0000790000000000UL, 0x00007a0000000000UL, 0x00007b0000000000UL, 0x00007d0000000000UL,
 572:Model/face_landmark_ecblobs.h ****   0x00007e0000000000UL, 0x5c00004200802241UL, 0x0500016008000000UL, 0x000714005c027c00UL,
 573:Model/face_landmark_ecblobs.h ****   0x580040005c070043UL, 0x5c0c004300004000UL, 0x1041104100000000UL, 0x2c007c00008020c1UL,
 574:Model/face_landmark_ecblobs.h ****   0x2c02004300080100UL, 0x0000090034236000UL, 0x000000002c0500c3UL, 0x0000000000000900UL,
 575:Model/face_landmark_ecblobs.h ****   0x0000002400000000UL, 0x2c0c004200100000UL, 0x0000000700000006UL, 0x000000202c0d0043UL,
 576:Model/face_landmark_ecblobs.h ****   0x2c1100433424803fUL, 0x0000000000000000UL, 0x20007c0000802061UL, 0x2002004300080100UL,
 577:Model/face_landmark_ecblobs.h ****   0x0000090034248000UL, 0x00000000200500c3UL, 0x0000000000000900UL, 0x0000002400000000UL,
 578:Model/face_landmark_ecblobs.h ****   0x200c004200100000UL, 0x0000000700000006UL, 0x00000020200d0043UL, 0x201100433425a03fUL,
 579:Model/face_landmark_ecblobs.h ****   0x0000000000000000UL, 0x14007c0000802001UL, 0x1402012300080008UL, 0x0030003034200000UL,
 580:Model/face_landmark_ecblobs.h ****   0x0000060000200001UL, 0x0000002000000001UL, 0x0000002400012000UL, 0x140c004200100000UL,
 581:Model/face_landmark_ecblobs.h ****   0x0000000700000006UL, 0x00000020140d0043UL, 0x141100433421203fUL, 0x0000000000000000UL,
 582:Model/face_landmark_ecblobs.h ****   0x0000000210007c00UL, 0x0000006410000424UL, 0x10007c0000000000UL, 0x10007bc440000000UL,
 583:Model/face_landmark_ecblobs.h ****   0x0000000000000064UL, 0x0000000110007c00UL, 0x0000002510027c00UL, 0x0000000d101d0063UL,
 584:Model/face_landmark_ecblobs.h ****   0x0000000700000023UL, 0x5800200114002001UL, 0x200020015c002001UL, 0x14007fe42c002001UL,
 585:Model/face_landmark_ecblobs.h ****   0x0000000000000064UL, 0x0000000010027c00UL, 0x00000000101d0063UL, 0x0000000000000000UL,
 586:Model/face_landmark_ecblobs.h ****   0x0000000214007c00UL, 0x0000006414000424UL, 0x14007c0000000000UL, 0x14007bc440000000UL,
 587:Model/face_landmark_ecblobs.h ****   0x0000000000000064UL, 0x58007c0000800001UL, 0x5800042400881082UL, 0x0000000000000064UL,
 588:Model/face_landmark_ecblobs.h ****   0x4088108058007c00UL, 0x0000006458007bc4UL, 0x0080022100000000UL, 0x080000025c007c00UL,
 589:Model/face_landmark_ecblobs.h ****   0x000000645c000424UL, 0x5c007c0000000000UL, 0x5c007bc448000000UL, 0x0000000000000064UL,
 590:Model/face_landmark_ecblobs.h ****   0x20007c0000800241UL, 0x2000042400000002UL, 0x0000000000000064UL, 0x4000000020007c00UL,
 591:Model/face_landmark_ecblobs.h ****   0x0000006420007bc4UL, 0x0080006100000000UL, 0x000000022c007c00UL, 0x000000642c000424UL,
 592:Model/face_landmark_ecblobs.h ****   0x2c007c0000000000UL, 0x2c007bc440000000UL, 0x0000000000000064UL, 0x0000025d008000c1UL,
ARM GAS  /tmp/cc1nC4Xu.s 			page 48


 593:Model/face_landmark_ecblobs.h ****   0x38007c0000802121UL, 0x380201230088c000UL, 0x0030003034200000UL, 0x0000060000200002UL,
 594:Model/face_landmark_ecblobs.h ****   0x0000000800000004UL, 0x0000002400012000UL, 0x380c004200100000UL, 0x0000000700000006UL,
 595:Model/face_landmark_ecblobs.h ****   0x00000008380d0043UL, 0x381100433421203fUL, 0x0000000000000000UL, 0x14007c0000802001UL,
 596:Model/face_landmark_ecblobs.h ****   0x1402004300880108UL, 0x0000120034224000UL, 0x00000000140500c3UL, 0x0000000000002400UL,
 597:Model/face_landmark_ecblobs.h ****   0x0000002400000000UL, 0x140c004200100000UL, 0x0000000700000006UL, 0x00000008140d0043UL,
 598:Model/face_landmark_ecblobs.h ****   0x141100433423603fUL, 0x0000000000000000UL, 0x0000000210007c00UL, 0x0000006410000424UL,
 599:Model/face_landmark_ecblobs.h ****   0x10007c0000000000UL, 0x10007bc440000000UL, 0x0000000000000064UL, 0x0000000110007c00UL,
 600:Model/face_landmark_ecblobs.h ****   0x0000001310027c00UL, 0x3800200114002001UL, 0x0000006414007fe4UL, 0x10027c0000000000UL,
 601:Model/face_landmark_ecblobs.h ****   0x14007c0000000000UL, 0x1400042400000002UL, 0x0000000000000064UL, 0x4000000014007c00UL,
 602:Model/face_landmark_ecblobs.h ****   0x0000006414007bc4UL, 0x0080000100000000UL, 0x0000000238007c00UL, 0x0000006438000424UL,
 603:Model/face_landmark_ecblobs.h ****   0x38007c0000000000UL, 0x38007bc440000000UL, 0x0000000000000064UL, 0x0000027d00800121UL,
 604:Model/face_landmark_ecblobs.h ****   0x3c007c0000802141UL, 0x3c0200c300000054UL, 0x0000115504040303UL, 0x003000c010a34202UL,
 605:Model/face_landmark_ecblobs.h ****   0x002f000000bf0000UL, 0x000000003c0a7c00UL, 0x00ffffd43c0c0043UL, 0x0080226100000000UL,
 606:Model/face_landmark_ecblobs.h ****   0x0800000060000042UL, 0x60027c0009000060UL, 0x6007004300078000UL, 0x0000000000004e73UL,
 607:Model/face_landmark_ecblobs.h ****   0x00000000600c0043UL, 0x0080228120422042UL, 0x0800000064000042UL, 0x64027c0015000060UL,
 608:Model/face_landmark_ecblobs.h ****   0x64070043000a0000UL, 0x0000ff7000006fa8UL, 0x00000000640c0043UL, 0x008020a120422042UL,
 609:Model/face_landmark_ecblobs.h ****   0x0008c10028007c00UL, 0x3422400028020043UL, 0x280500c300002400UL, 0x0000000000000000UL,
 610:Model/face_landmark_ecblobs.h ****   0x0000240000000001UL, 0x0010000000000024UL, 0x00000006280c0042UL, 0x280d004300000007UL,
 611:Model/face_landmark_ecblobs.h ****   0x3423603f00000008UL, 0x0000000028110043UL, 0x008020c100000000UL, 0x0008c1842c007c00UL,
 612:Model/face_landmark_ecblobs.h ****   0x71419b802c020043UL, 0x2c0500c300000480UL, 0x0000000000000000UL, 0x0000000000000000UL,
 613:Model/face_landmark_ecblobs.h ****   0x0010000000000024UL, 0x000000062c0c0042UL, 0x2c0d004300000007UL, 0x7141a03f00000001UL,
 614:Model/face_landmark_ecblobs.h ****   0x000000002c110043UL, 0x0080200100000008UL, 0x0008000814007c00UL, 0x3423600014020123UL,
 615:Model/face_landmark_ecblobs.h ****   0x0020000400300030UL, 0x0000000400000600UL, 0x0001200000000008UL, 0x0010000000000024UL,
 616:Model/face_landmark_ecblobs.h ****   0x00000006140c0042UL, 0x140d004300000007UL, 0x3424803f00000008UL, 0x0000000014110043UL,
 617:Model/face_landmark_ecblobs.h ****   0x10007c0000000000UL, 0x1000042400000002UL, 0x0000000000000064UL, 0x4000000010007c00UL,
 618:Model/face_landmark_ecblobs.h ****   0x0000006410007bc4UL, 0x10007c0000000000UL, 0x10027c0000000001UL, 0x100c004300000029UL,
 619:Model/face_landmark_ecblobs.h ****   0x0000000d0000000bUL, 0x0000001510207c00UL, 0x0000002710227c00UL, 0x3c007c0014002001UL,
 620:Model/face_landmark_ecblobs.h ****   0x6000200100000055UL, 0x2800200164002001UL, 0x14007fe42c002001UL, 0x0000000000000064UL,
 621:Model/face_landmark_ecblobs.h ****   0x0000000010027c00UL, 0x00000000100c0043UL, 0x10207c0000000000UL, 0x10227c0000000000UL,
 622:Model/face_landmark_ecblobs.h ****   0x14007c0000000000UL, 0x1400042400000002UL, 0x0000000000000064UL, 0x4000000014007c00UL,
 623:Model/face_landmark_ecblobs.h ****   0x0000006414007bc4UL, 0x0080000100000000UL, 0x000000023c007c00UL, 0x000000643c000424UL,
 624:Model/face_landmark_ecblobs.h ****   0x3c007c0000000000UL, 0x3c007bc440000000UL, 0x0000000000000064UL, 0x60007c0000800141UL,
 625:Model/face_landmark_ecblobs.h ****   0x6000042408000002UL, 0x0000000000000064UL, 0x4800000060007c00UL, 0x0000006460007bc4UL,
 626:Model/face_landmark_ecblobs.h ****   0x0080026100000000UL, 0x0800000264007c00UL, 0x0000006464000424UL, 0x64007c0000000000UL,
 627:Model/face_landmark_ecblobs.h ****   0x64007bc448000000UL, 0x0000000000000064UL, 0x28007c0000800281UL, 0x2800042400000002UL,
 628:Model/face_landmark_ecblobs.h ****   0x0000000000000064UL, 0x4000000028007c00UL, 0x0000006428007bc4UL, 0x008000a100000000UL,
 629:Model/face_landmark_ecblobs.h ****   0x000000022c007c00UL, 0x000000642c000424UL, 0x2c007c0000000000UL, 0x2c007bc440000000UL,
 630:Model/face_landmark_ecblobs.h ****   0x0000000000000064UL, 0x0000029d008000c1UL, 0x40007c0000802161UL, 0x400200e300000054UL,
 631:Model/face_landmark_ecblobs.h ****   0x0000110010100101UL, 0x0030030010b74002UL, 0x002f000002ff0000UL, 0x400a7c00000f0020UL,
 632:Model/face_landmark_ecblobs.h ****   0x400c004300000000UL, 0x0000000000fffff7UL, 0x44007c0000802181UL, 0x440200e300000040UL,
 633:Model/face_landmark_ecblobs.h ****   0x0000110010100101UL, 0x0030030010a34200UL, 0x002f000002ff0000UL, 0x440a7c00001f1020UL,
 634:Model/face_landmark_ecblobs.h ****   0x440c004300000000UL, 0x0000000000fffff7UL, 0x68000042008022a1UL, 0x0900006008000000UL,
 635:Model/face_landmark_ecblobs.h ****   0x0007000068027c00UL, 0x000077cd68070043UL, 0x680c004300000000UL, 0x2042204200000000UL,
 636:Model/face_landmark_ecblobs.h ****   0x5c00004200802241UL, 0x156000fc08000000UL, 0x000a00005c020123UL, 0x0000000f00000000UL,
 637:Model/face_landmark_ecblobs.h ****   0x00011fff00008fffUL, 0x0000000000006459UL, 0x00000001078403f1UL, 0x000000005c0c0043UL,
 638:Model/face_landmark_ecblobs.h ****   0x5c0b7c0020422042UL, 0x5d00080300000001UL, 0x00009c8802a06459UL, 0x000061d602346459UL,
 639:Model/face_landmark_ecblobs.h ****   0x0000afc602756459UL, 0x00002a1002df6459UL, 0x000096fc02d16459UL, 0x0000af7302566459UL,
 640:Model/face_landmark_ecblobs.h ****   0x00004fe6024b6459UL, 0x000060da02f76459UL, 0x0000e92a02f56459UL, 0x0000b55102d46459UL,
 641:Model/face_landmark_ecblobs.h ****   0x00007950027c6459UL, 0x00001a6902af6459UL, 0x00005cf002a36459UL, 0x00007419023c6459UL,
 642:Model/face_landmark_ecblobs.h ****   0x0000bdcc029a6459UL, 0x0000ea7a02516459UL, 0x00003a5f02bd6459UL, 0x000016d3027a6459UL,
 643:Model/face_landmark_ecblobs.h ****   0x0000eb20028f6459UL, 0x0000dad202b16459UL, 0x0000177a02b86459UL, 0x0000ebc702cd6459UL,
 644:Model/face_landmark_ecblobs.h ****   0x00006d9202a06459UL, 0x00009945028a6459UL, 0x000012e902b66459UL, 0x0000c25c029c6459UL,
 645:Model/face_landmark_ecblobs.h ****   0x00004523023c6459UL, 0x00006f8702ca6459UL, 0x00008f2902b96459UL, 0x0000dbcd027e6459UL,
 646:Model/face_landmark_ecblobs.h ****   0x0000ffab02e06459UL, 0x0000f82b02e76459UL, 0x30007c00008020e1UL, 0x300201230008c000UL,
 647:Model/face_landmark_ecblobs.h ****   0x0030003034236000UL, 0x0000060000200010UL, 0x0000000100000020UL, 0x0000002400000000UL,
 648:Model/face_landmark_ecblobs.h ****   0x300c004200100000UL, 0x0000000700000006UL, 0x00000002300d0043UL, 0x301100433424803fUL,
 649:Model/face_landmark_ecblobs.h ****   0x0000000000000000UL, 0x2c007c00008020c1UL, 0x2c0200430008c184UL, 0x000004007141b200UL,
ARM GAS  /tmp/cc1nC4Xu.s 			page 49


 650:Model/face_landmark_ecblobs.h ****   0x000000002c0500c3UL, 0x0000000000000000UL, 0x0000002400000000UL, 0x2c0c004200100000UL,
 651:Model/face_landmark_ecblobs.h ****   0x0000000700000006UL, 0x000000012c0d0043UL, 0x2c1100437141b63fUL, 0x0000000800000000UL,
 652:Model/face_landmark_ecblobs.h ****   0x20007c0000802061UL, 0x200201230008c000UL, 0x0030003034236010UL, 0x0000060000200010UL,
 653:Model/face_landmark_ecblobs.h ****   0x0000000100000020UL, 0x0000002400000000UL, 0x200c004200100000UL, 0x0000000700000006UL,
 654:Model/face_landmark_ecblobs.h ****   0x00000002200d0043UL, 0x201100433424803fUL, 0x0000000000000000UL, 0x1c007c0000802041UL,
 655:Model/face_landmark_ecblobs.h ****   0x1c02012300080008UL, 0x0030003034212000UL, 0x0000060000200010UL, 0x0000000200000010UL,
 656:Model/face_landmark_ecblobs.h ****   0x0000002400012000UL, 0x1c0c004200100000UL, 0x0000000700000006UL, 0x000000021c0d0043UL,
 657:Model/face_landmark_ecblobs.h ****   0x1c1100433422403fUL, 0x0000000000000000UL, 0x0000000210007c00UL, 0x0000006410000424UL,
 658:Model/face_landmark_ecblobs.h ****   0x10007c0000000000UL, 0x10007bc440000000UL, 0x0000000000000064UL, 0x0000000110007c00UL,
 659:Model/face_landmark_ecblobs.h ****   0x0000002510047c00UL, 0x0000000f100f0043UL, 0x101200630000000dUL, 0x0000000d00000007UL,
 660:Model/face_landmark_ecblobs.h ****   0x101e7c0000000017UL, 0x10247c000000002bUL, 0x1c00200100000019UL, 0x0000005540007c00UL,
 661:Model/face_landmark_ecblobs.h ****   0x0000004144007c00UL, 0x680020015c002001UL, 0x2c00200120002001UL, 0x1c007fe430002001UL,
 662:Model/face_landmark_ecblobs.h ****   0x0000000000000064UL, 0x0000000010047c00UL, 0x00000000100f0043UL, 0x1012006300000000UL,
 663:Model/face_landmark_ecblobs.h ****   0x0000000000000000UL, 0x101e7c0000000000UL, 0x10247c0000000000UL, 0x1c007c0000000000UL,
 664:Model/face_landmark_ecblobs.h ****   0x1c00042400000002UL, 0x0000000000000064UL, 0x400000001c007c00UL, 0x000000641c007bc4UL,
 665:Model/face_landmark_ecblobs.h ****   0x0080004100000000UL, 0x0000000240007c00UL, 0x0000006440000424UL, 0x40007c0000000000UL,
 666:Model/face_landmark_ecblobs.h ****   0x40007bc440000000UL, 0x0000000000000064UL, 0x44007c0000800161UL, 0x4400042400000002UL,
 667:Model/face_landmark_ecblobs.h ****   0x0000000000000064UL, 0x4000000044007c00UL, 0x0000006444007bc4UL, 0x0080018100000000UL,
 668:Model/face_landmark_ecblobs.h ****   0x080000025c007c00UL, 0x000000645c000424UL, 0x5c007c0000000000UL, 0x5c007bc448000000UL,
 669:Model/face_landmark_ecblobs.h ****   0x0000000000000064UL, 0x68007c0000800241UL, 0x6800042408000002UL, 0x0000000000000064UL,
 670:Model/face_landmark_ecblobs.h ****   0x4800000068007c00UL, 0x0000006468007bc4UL, 0x008002a100000000UL, 0x0000000220007c00UL,
 671:Model/face_landmark_ecblobs.h ****   0x0000006420000424UL, 0x20007c0000000000UL, 0x20007bc440000000UL, 0x0000000000000064UL,
 672:Model/face_landmark_ecblobs.h ****   0x2c007c0000800061UL, 0x2c00042400000002UL, 0x0000000000000064UL, 0x400000002c007c00UL,
 673:Model/face_landmark_ecblobs.h ****   0x000000642c007bc4UL, 0x008000c100000000UL, 0x0000000230007c00UL, 0x0000006430000424UL,
 674:Model/face_landmark_ecblobs.h ****   0x30007c0000000000UL, 0x30007bc440000000UL, 0x0000000000000064UL, 0x000002bd008000e1UL,
 675:Model/face_landmark_ecblobs.h ****   0x6000004200802261UL, 0x0500016008000000UL, 0x0007940060027c00UL, 0x464c5bdf60070043UL,
 676:Model/face_landmark_ecblobs.h ****   0x600c0043000072e4UL, 0x1041104100000000UL, 0x6400004200802281UL, 0x05006e6008000000UL,
 677:Model/face_landmark_ecblobs.h ****   0x0000000064027c00UL, 0x0015ff8064070043UL, 0x640c004300000000UL, 0x1041104100000000UL,
 678:Model/face_landmark_ecblobs.h ****   0x5c00004200802241UL, 0x096000fc08000000UL, 0x000000005c020123UL, 0x0000000000000000UL,
 679:Model/face_landmark_ecblobs.h ****   0x00011fff000008ffUL, 0x0000000000000001UL, 0x0000000107840200UL, 0x000000005c0c0043UL,
 680:Model/face_landmark_ecblobs.h ****   0x5c0b7c0010411041UL, 0x5d00080300000001UL, 0x0000000000000003UL, 0x0000000000000001UL,
 681:Model/face_landmark_ecblobs.h ****   0x0000000000000052UL, 0x0000000000000043UL, 0x000000000000001dUL, 0x000000000000001dUL,
 682:Model/face_landmark_ecblobs.h ****   0x0000000000000027UL, 0x0000000000000031UL, 0x000000000000ffd8UL, 0x0000000000000008UL,
 683:Model/face_landmark_ecblobs.h ****   0x000000000000001cUL, 0x000000000000ffa8UL, 0x0000000000000049UL, 0x0000000000000020UL,
 684:Model/face_landmark_ecblobs.h ****   0x0000000000000012UL, 0x000000000000001eUL, 0x000000000000ffe2UL, 0x0000000000000050UL,
 685:Model/face_landmark_ecblobs.h ****   0x000000000000007fUL, 0x0000000000000004UL, 0x000000000000002cUL, 0x000000000000ffbdUL,
 686:Model/face_landmark_ecblobs.h ****   0x0000000000000000UL, 0x000000000000ffb0UL, 0x000000000000fffcUL, 0x0000000000000058UL,
 687:Model/face_landmark_ecblobs.h ****   0x000000000000ffc0UL, 0x0000000000000011UL, 0x000000000000fffeUL, 0x0000000000000008UL,
 688:Model/face_landmark_ecblobs.h ****   0x000000000000004bUL, 0x000000000000ff9aUL, 0x68000042008022a1UL, 0x156000fc08000000UL,
 689:Model/face_landmark_ecblobs.h ****   0x000a800068020123UL, 0x0000000000000000UL, 0x00011fff000008ffUL, 0x000000000000438aUL,
 690:Model/face_landmark_ecblobs.h ****   0x0000000107840200UL, 0x00000000680c0043UL, 0x680b7c0010412042UL, 0x6900080300000001UL,
 691:Model/face_landmark_ecblobs.h ****   0x0000611ef62f438aUL, 0x000075b4f63a438aUL, 0x0000b3ecf479438aUL, 0x0000ce54f4cc438aUL,
 692:Model/face_landmark_ecblobs.h ****   0x0000557cf59f438aUL, 0x0000557cf59f438aUL, 0x0000ee8cf567438aUL, 0x0000879df530438aUL,
 693:Model/face_landmark_ecblobs.h ****   0x00009bbef71d438aUL, 0x0000ada6f613438aUL, 0x0000dfc7f5a4438aUL, 0x000089d6f827438aUL,
 694:Model/face_landmark_ecblobs.h ****   0x00009091f4ab438aUL, 0x0000b69af58e438aUL, 0x000046b7f5dc438aUL, 0x0000cb31f599438aUL,
 695:Model/face_landmark_ecblobs.h ****   0x000034cef6e6438aUL, 0x0000c883f484438aUL, 0x000064b6f380438aUL, 0x0000d6d3f629438aUL,
 696:Model/face_landmark_ecblobs.h ****   0x00003b14f54c438aUL, 0x000031abf7b3438aUL, 0x00000000f640438aUL, 0x0000377df7fb438aUL,
 697:Model/face_landmark_ecblobs.h ****   0x0000292cf656438aUL, 0x00007629f458438aUL, 0x000092caf7a2438aUL, 0x0000d102f5e1438aUL,
 698:Model/face_landmark_ecblobs.h ****   0x00001496f64b438aUL, 0x0000ada6f613438aUL, 0x00007bfaf4a0438aUL, 0x000019f2f875438aUL,
 699:Model/face_landmark_ecblobs.h ****   0x2c007c00008020c1UL, 0x2c02012300080000UL, 0x0030003034200000UL, 0x0000060000200001UL,
 700:Model/face_landmark_ecblobs.h ****   0x0000002000000001UL, 0x0000002400012000UL, 0x2c0c004200100000UL, 0x0000000700000006UL,
 701:Model/face_landmark_ecblobs.h ****   0x000000202c0d0043UL, 0x2c1100433421203fUL, 0x0000000000000000UL, 0x18007c0000802021UL,
 702:Model/face_landmark_ecblobs.h ****   0x1802012300080000UL, 0x0030003034212000UL, 0x0000060000200001UL, 0x0000002000000001UL,
 703:Model/face_landmark_ecblobs.h ****   0x0000002400012000UL, 0x180c004200100000UL, 0x0000000700000006UL, 0x00000020180d0043UL,
 704:Model/face_landmark_ecblobs.h ****   0x181100433422403fUL, 0x0000000000000000UL, 0x34007c0000802101UL, 0x3402004300080108UL,
 705:Model/face_landmark_ecblobs.h ****   0x0000090034224000UL, 0x00000000340500c3UL, 0x0000000000000900UL, 0x0000002400000000UL,
 706:Model/face_landmark_ecblobs.h ****   0x340c004200100000UL, 0x0000000700000006UL, 0x00000020340d0043UL, 0x341100433423603fUL,
ARM GAS  /tmp/cc1nC4Xu.s 			page 50


 707:Model/face_landmark_ecblobs.h ****   0x0000000000000000UL, 0x20007c0000802061UL, 0x2002004300080108UL, 0x0000090034236000UL,
 708:Model/face_landmark_ecblobs.h ****   0x00000000200500c3UL, 0x0000000000000900UL, 0x0000002400000000UL, 0x200c004200100000UL,
 709:Model/face_landmark_ecblobs.h ****   0x0000000700000006UL, 0x00000020200d0043UL, 0x201100433424803fUL, 0x0000000000000000UL,
 710:Model/face_landmark_ecblobs.h ****   0x0000000210007c00UL, 0x0000006410000424UL, 0x10007c0000000000UL, 0x10007bc440000000UL,
 711:Model/face_landmark_ecblobs.h ****   0x0000000000000064UL, 0x0000000110007c00UL, 0x0000002b10057c00UL, 0x00000027100a7c00UL,
 712:Model/face_landmark_ecblobs.h ****   0x00000029101e7c00UL, 0x0000000d10200063UL, 0x0000002700000003UL, 0x0000002510247c00UL,
 713:Model/face_landmark_ecblobs.h ****   0x3400200120002001UL, 0x600020015c002001UL, 0x6800200164002001UL, 0x2c00200118002001UL,
 714:Model/face_landmark_ecblobs.h ****   0x0000006420007fe4UL, 0x34007fe400000000UL, 0x0000000000000064UL, 0x0000000010057c00UL,
 715:Model/face_landmark_ecblobs.h ****   0x00000000100a7c00UL, 0x00000000101e7c00UL, 0x0000000010200063UL, 0x0000000000000000UL,
 716:Model/face_landmark_ecblobs.h ****   0x0000000010247c00UL, 0x0000000220007c00UL, 0x0000006420000424UL, 0x20007c0000000000UL,
 717:Model/face_landmark_ecblobs.h ****   0x20007bc440000000UL, 0x0000000000000064UL, 0x34007c0000800061UL, 0x3400042400000002UL,
 718:Model/face_landmark_ecblobs.h ****   0x0000000000000064UL, 0x4000000034007c00UL, 0x0000006434007bc4UL, 0x0080010100000000UL,
 719:Model/face_landmark_ecblobs.h ****   0x080000025c007c00UL, 0x000000645c000424UL, 0x5c007c0000000000UL, 0x5c007bc448000000UL,
 720:Model/face_landmark_ecblobs.h ****   0x0000000000000064UL, 0x60007c0000800241UL, 0x6000042408000002UL, 0x0000000000000064UL,
 721:Model/face_landmark_ecblobs.h ****   0x4800000060007c00UL, 0x0000006460007bc4UL, 0x0080026100000000UL, 0x0800000264007c00UL,
 722:Model/face_landmark_ecblobs.h ****   0x0000006464000424UL, 0x64007c0000000000UL, 0x64007bc448000000UL, 0x0000000000000064UL,
 723:Model/face_landmark_ecblobs.h ****   0x68007c0000800281UL, 0x6800042408000002UL, 0x0000000000000064UL, 0x4800000068007c00UL,
 724:Model/face_landmark_ecblobs.h ****   0x0000006468007bc4UL, 0x008002a100000000UL, 0x0000000218007c00UL, 0x0000006418000424UL,
 725:Model/face_landmark_ecblobs.h ****   0x18007c0000000000UL, 0x18007bc440000000UL, 0x0000000000000064UL, 0x2c007c0000800021UL,
 726:Model/face_landmark_ecblobs.h ****   0x2c00042400000002UL, 0x0000000000000064UL, 0x400000002c007c00UL, 0x000000642c007bc4UL,
 727:Model/face_landmark_ecblobs.h ****   0x008000c100000000UL, 0x00802201000002ddUL, 0x0174104c54007c00UL, 0x00087f8054020043UL,
 728:Model/face_landmark_ecblobs.h ****   0x55000403029011cfUL, 0x0000000000000000UL, 0x0000000000000000UL, 0x0000000000000000UL,
 729:Model/face_landmark_ecblobs.h ****   0x0000000000000000UL, 0x0000000000000000UL, 0x0000000000000000UL, 0x0000000000000000UL,
 730:Model/face_landmark_ecblobs.h ****   0x0000000000000000UL, 0x0000000000000000UL, 0x00000009000000c1UL, 0x0000000900000009UL,
 731:Model/face_landmark_ecblobs.h ****   0x0000000900000009UL, 0x0000000900000009UL, 0x0000000900000009UL, 0x0000000900000009UL,
 732:Model/face_landmark_ecblobs.h ****   0x000000ca00000009UL, 0x0000000056000483UL, 0x000000000000b200UL, 0x000000000000b200UL,
 733:Model/face_landmark_ecblobs.h ****   0x000000000000b200UL, 0x000000000000b200UL, 0x000000000000b200UL, 0x000000000000b200UL,
 734:Model/face_landmark_ecblobs.h ****   0x000000000000b200UL, 0x000000000000b400UL, 0x7bf900000000b600UL, 0x0000000000008952UL,
 735:Model/face_landmark_ecblobs.h ****   0x0000000000007200UL, 0x0000000000007400UL, 0x0000000000007600UL, 0x0000000000007800UL,
 736:Model/face_landmark_ecblobs.h ****   0x0000000000007a00UL, 0x0000000000007b00UL, 0x0000000000007d00UL, 0x0080224100007f00UL,
 737:Model/face_landmark_ecblobs.h ****   0x080000005c000042UL, 0x5c027c0005000160UL, 0x5c07004300071800UL, 0x000040004e004000UL,
 738:Model/face_landmark_ecblobs.h ****   0x000000005c0c0043UL, 0x008020a110411041UL, 0x0008010028007c00UL, 0x3422400028020043UL,
 739:Model/face_landmark_ecblobs.h ****   0x280500c300000900UL, 0x0000090000000000UL, 0x0000000000000000UL, 0x0010000000000024UL,
 740:Model/face_landmark_ecblobs.h ****   0x00000006280c0042UL, 0x280d004300000007UL, 0x3423603f00000020UL, 0x0000000028110043UL,
 741:Model/face_landmark_ecblobs.h ****   0x008020e100000000UL, 0x0008010030007c00UL, 0x3423600030020043UL, 0x300500c300000900UL,
 742:Model/face_landmark_ecblobs.h ****   0x0000090000000000UL, 0x0000000000000000UL, 0x0010000000000024UL, 0x00000006300c0042UL,
 743:Model/face_landmark_ecblobs.h ****   0x300d004300000007UL, 0x3424803f00000020UL, 0x0000000030110043UL, 0x0080204100000000UL,
 744:Model/face_landmark_ecblobs.h ****   0x000800081c007c00UL, 0x342000001c020123UL, 0x0020000100300030UL, 0x0000000100000600UL,
 745:Model/face_landmark_ecblobs.h ****   0x0001200000000020UL, 0x0010000000000024UL, 0x000000061c0c0042UL, 0x1c0d004300000007UL,
 746:Model/face_landmark_ecblobs.h ****   0x3421203f00000020UL, 0x000000001c110043UL, 0x10007c0000000000UL, 0x1000042400000002UL,
 747:Model/face_landmark_ecblobs.h ****   0x0000000000000064UL, 0x4000000010007c00UL, 0x0000006410007bc4UL, 0x10007c0000000000UL,
 748:Model/face_landmark_ecblobs.h ****   0x10047c0000000001UL, 0x101c7c0000000025UL, 0x101e00430000000bUL, 0x0000000f00000021UL,
 749:Model/face_landmark_ecblobs.h ****   0x540020011c002001UL, 0x280020015c002001UL, 0x1c007fe430002001UL, 0x0000000000000064UL,
 750:Model/face_landmark_ecblobs.h ****   0x0000000010047c00UL, 0x00000000101c7c00UL, 0x00000000101e0043UL, 0x1c007c0000000000UL,
 751:Model/face_landmark_ecblobs.h ****   0x1c00042400000002UL, 0x0000000000000064UL, 0x400000001c007c00UL, 0x000000641c007bc4UL,
 752:Model/face_landmark_ecblobs.h ****   0x0080004100000000UL, 0x0088108254007c00UL, 0x0000006454000424UL, 0x54007c0000000000UL,
 753:Model/face_landmark_ecblobs.h ****   0x54007bc440881080UL, 0x0000000000000064UL, 0x5c007c0000800201UL, 0x5c00042408000002UL,
 754:Model/face_landmark_ecblobs.h ****   0x0000000000000064UL, 0x480000005c007c00UL, 0x000000645c007bc4UL, 0x0080024100000000UL,
 755:Model/face_landmark_ecblobs.h ****   0x0000000228007c00UL, 0x0000006428000424UL, 0x28007c0000000000UL, 0x28007bc440000000UL,
 756:Model/face_landmark_ecblobs.h ****   0x0000000000000064UL, 0x30007c00008000a1UL, 0x3000042400000002UL, 0x0000000000000064UL,
 757:Model/face_landmark_ecblobs.h ****   0x4000000030007c00UL, 0x0000006430007bc4UL, 0x008000e100000000UL, 0x00802061000002fdUL,
 758:Model/face_landmark_ecblobs.h ****   0x0088c00020007c00UL, 0x3420000020020123UL, 0x0020000200300030UL, 0x0000000400000600UL,
 759:Model/face_landmark_ecblobs.h ****   0x0001200000000008UL, 0x0010000000000024UL, 0x00000006200c0042UL, 0x200d004300000007UL,
 760:Model/face_landmark_ecblobs.h ****   0x3421203f00000008UL, 0x0000000020110043UL, 0x008020e100000000UL, 0x0088010830007c00UL,
 761:Model/face_landmark_ecblobs.h ****   0x3422400030020043UL, 0x300500c300001200UL, 0x0000240000000000UL, 0x0000000000000000UL,
 762:Model/face_landmark_ecblobs.h ****   0x0010000000000024UL, 0x00000006300c0042UL, 0x300d004300000007UL, 0x3423603f00000008UL,
 763:Model/face_landmark_ecblobs.h ****   0x0000000030110043UL, 0x10007c0000000000UL, 0x1000042400000002UL, 0x0000000000000064UL,
ARM GAS  /tmp/cc1nC4Xu.s 			page 51


 764:Model/face_landmark_ecblobs.h ****   0x4000000010007c00UL, 0x0000006410007bc4UL, 0x10007c0000000000UL, 0x10097c0000000001UL,
 765:Model/face_landmark_ecblobs.h ****   0x3000200100000007UL, 0x30007fe420002001UL, 0x0000000000000064UL, 0x0000000010097c00UL,
 766:Model/face_landmark_ecblobs.h ****   0x0000000230007c00UL, 0x0000006430000424UL, 0x30007c0000000000UL, 0x30007bc440000000UL,
 767:Model/face_landmark_ecblobs.h ****   0x0000000000000064UL, 0x20007c00008000e1UL, 0x2000042400000002UL, 0x0000000000000064UL,
 768:Model/face_landmark_ecblobs.h ****   0x4000000020007c00UL, 0x0000006420007bc4UL, 0x0080006100000000UL, 0x008021a10000031dUL,
 769:Model/face_landmark_ecblobs.h ****   0x0000005448007c00UL, 0x04040303480200c3UL, 0x10a3410100001155UL, 0x00bf0000003000c0UL,
 770:Model/face_landmark_ecblobs.h ****   0x480a7c00002f0000UL, 0x480c004300000000UL, 0x0000000000ffffb2UL, 0x6000004200802261UL,
 771:Model/face_landmark_ecblobs.h ****   0x0900006008000000UL, 0x0008000060027c00UL, 0x0000763760070043UL, 0x600c004300000000UL,
 772:Model/face_landmark_ecblobs.h ****   0x2042204200000000UL, 0x6400004200802281UL, 0x1500006008000000UL, 0x000a000064027c00UL,
 773:Model/face_landmark_ecblobs.h ****   0x0000683364070043UL, 0x640c00430000ffb0UL, 0x2042204200000000UL, 0x1c007c0000802041UL,
 774:Model/face_landmark_ecblobs.h ****   0x1c0200430008c100UL, 0x0000240034224000UL, 0x000000001c0500c3UL, 0x0000000100000000UL,
 775:Model/face_landmark_ecblobs.h ****   0x0000002400002400UL, 0x1c0c004200100000UL, 0x0000000700000006UL, 0x000000081c0d0043UL,
 776:Model/face_landmark_ecblobs.h ****   0x1c1100433423603fUL, 0x0000000000000000UL, 0x24007c0000802081UL, 0x240200430008c184UL,
 777:Model/face_landmark_ecblobs.h ****   0x000004807141a000UL, 0x00000000240500c3UL, 0x0000000000000000UL, 0x0000002400000000UL,
 778:Model/face_landmark_ecblobs.h ****   0x240c004200100000UL, 0x0000000700000006UL, 0x00000001240d0043UL, 0x241100437141a4bfUL,
 779:Model/face_landmark_ecblobs.h ****   0x0000000800000000UL, 0x30007c00008020e1UL, 0x3002012300080008UL, 0x0030003034236000UL,
 780:Model/face_landmark_ecblobs.h ****   0x0000060000200004UL, 0x0000000800000004UL, 0x0000002400012000UL, 0x300c004200100000UL,
 781:Model/face_landmark_ecblobs.h ****   0x0000000700000006UL, 0x00000008300d0043UL, 0x301100433424803fUL, 0x0000000000000000UL,
 782:Model/face_landmark_ecblobs.h ****   0x0000000210007c00UL, 0x0000006410000424UL, 0x10007c0000000000UL, 0x10007bc440000000UL,
 783:Model/face_landmark_ecblobs.h ****   0x0000000000000064UL, 0x0000000110007c00UL, 0x0000002910097c00UL, 0x0000000510150043UL,
 784:Model/face_landmark_ecblobs.h ****   0x10207c0000000009UL, 0x10227c000000001bUL, 0x3000200100000027UL, 0x0000005548007c00UL,
 785:Model/face_landmark_ecblobs.h ****   0x6400200160002001UL, 0x240020011c002001UL, 0x0000006430007fe4UL, 0x10097c0000000000UL,
 786:Model/face_landmark_ecblobs.h ****   0x1015004300000000UL, 0x0000000000000000UL, 0x0000000010207c00UL, 0x0000000010227c00UL,
 787:Model/face_landmark_ecblobs.h ****   0x0000000230007c00UL, 0x0000006430000424UL, 0x30007c0000000000UL, 0x30007bc440000000UL,
 788:Model/face_landmark_ecblobs.h ****   0x0000000000000064UL, 0x48007c00008000e1UL, 0x4800042400000002UL, 0x0000000000000064UL,
 789:Model/face_landmark_ecblobs.h ****   0x4000000048007c00UL, 0x0000006448007bc4UL, 0x008001a100000000UL, 0x0800000260007c00UL,
 790:Model/face_landmark_ecblobs.h ****   0x0000006460000424UL, 0x60007c0000000000UL, 0x60007bc448000000UL, 0x0000000000000064UL,
 791:Model/face_landmark_ecblobs.h ****   0x64007c0000800261UL, 0x6400042408000002UL, 0x0000000000000064UL, 0x4800000064007c00UL,
 792:Model/face_landmark_ecblobs.h ****   0x0000006464007bc4UL, 0x0080028100000000UL, 0x000000021c007c00UL, 0x000000641c000424UL,
 793:Model/face_landmark_ecblobs.h ****   0x1c007c0000000000UL, 0x1c007bc440000000UL, 0x0000000000000064UL, 0x24007c0000800041UL,
 794:Model/face_landmark_ecblobs.h ****   0x2400042400000002UL, 0x0000000000000064UL, 0x4000000024007c00UL, 0x0000006424007bc4UL,
 795:Model/face_landmark_ecblobs.h ****   0x0080008100000000UL, 0x008021410000033dUL, 0x000000543c007c00UL, 0x101001013c0200e3UL,
 796:Model/face_landmark_ecblobs.h ****   0x10b7400100001100UL, 0x02ff000000300300UL, 0x000f0020002f0000UL, 0x000000003c0a7c00UL,
 797:Model/face_landmark_ecblobs.h ****   0x00fffffb3c0c0043UL, 0x0080216100000000UL, 0x0000004040007c00UL, 0x10100101400200e3UL,
 798:Model/face_landmark_ecblobs.h ****   0x10a3410000001100UL, 0x02ff000000300300UL, 0x001f1020002f0000UL, 0x00000000400a7c00UL,
 799:Model/face_landmark_ecblobs.h ****   0x00fffffb400c0043UL, 0x008022a100000000UL, 0x0800000068000042UL, 0x68027c0009000060UL,
 800:Model/face_landmark_ecblobs.h ****   0x6807004300070000UL, 0x0000000000007047UL, 0x00000000680c0043UL, 0x0080224120422042UL,
 801:Model/face_landmark_ecblobs.h ****   0x080000005c000042UL, 0x5c020123156000fcUL, 0x00000000000a0000UL, 0x00008fff0000000fUL,
 802:Model/face_landmark_ecblobs.h ****   0x000051a100011fffUL, 0x078403f100000000UL, 0x5c0c004300000001UL, 0x2042204200000000UL,
 803:Model/face_landmark_ecblobs.h ****   0x000000015c0b7c00UL, 0x012251a15d000803UL, 0x018c51a10000da9dUL, 0x00f551a1000094e7UL,
 804:Model/face_landmark_ecblobs.h ****   0x01a251a100008ac6UL, 0x015451a100001e68UL, 0x017551a1000014e8UL, 0x013f51a100005dc7UL,
 805:Model/face_landmark_ecblobs.h ****   0x00ed51a100006237UL, 0x015a51a1000026a8UL, 0x00f151a1000083ccUL, 0x011451a10000111cUL,
 806:Model/face_landmark_ecblobs.h ****   0x024851a100004f35UL, 0x013c51a100004327UL, 0x00fb51a100004e92UL, 0x01cb51a10000f9aaUL,
 807:Model/face_landmark_ecblobs.h ****   0x013a51a1000083caUL, 0x012751a100005958UL, 0x011a51a100005447UL, 0x011051a100002ee4UL,
 808:Model/face_landmark_ecblobs.h ****   0x012b51a1000064c1UL, 0x015051a10000cdf0UL, 0x014351a100002a74UL, 0x016e51a100004cacUL,
 809:Model/face_landmark_ecblobs.h ****   0x011851a10000a748UL, 0x012d51a1000039aaUL, 0x00c751a10000c32bUL, 0x00fe51a10000641fUL,
 810:Model/face_landmark_ecblobs.h ****   0x014851a10000c5b4UL, 0x012551a10000558aUL, 0x015e51a100005f0cUL, 0x012c51a10000b5dbUL,
 811:Model/face_landmark_ecblobs.h ****   0x013a51a10000a4c0UL, 0x008020a10000e88dUL, 0x0008c00028007c00UL, 0x3423600028020123UL,
 812:Model/face_landmark_ecblobs.h ****   0x0020001000300030UL, 0x0000002000000600UL, 0x0000000000000001UL, 0x0010000000000024UL,
 813:Model/face_landmark_ecblobs.h ****   0x00000006280c0042UL, 0x280d004300000007UL, 0x3424803f00000002UL, 0x0000000028110043UL,
 814:Model/face_landmark_ecblobs.h ****   0x0080206100000000UL, 0x0008c18420007c00UL, 0x7141b60020020043UL, 0x200500c300000400UL,
 815:Model/face_landmark_ecblobs.h ****   0x0000000000000000UL, 0x0000000000000000UL, 0x0010000000000024UL, 0x00000006200c0042UL,
 816:Model/face_landmark_ecblobs.h ****   0x200d004300000007UL, 0x7141ba3f00000001UL, 0x0000000020110043UL, 0x0080212100000008UL,
 817:Model/face_landmark_ecblobs.h ****   0x0008c00038007c00UL, 0x3423601038020123UL, 0x0020001000300030UL, 0x0000002000000600UL,
 818:Model/face_landmark_ecblobs.h ****   0x0000000000000001UL, 0x0010000000000024UL, 0x00000006380c0042UL, 0x380d004300000007UL,
 819:Model/face_landmark_ecblobs.h ****   0x3424803f00000002UL, 0x0000000038110043UL, 0x0080202100000000UL, 0x0008000818007c00UL,
 820:Model/face_landmark_ecblobs.h ****   0x3421200018020123UL, 0x0020001000300030UL, 0x0000001000000600UL, 0x0001200000000002UL,
ARM GAS  /tmp/cc1nC4Xu.s 			page 52


 821:Model/face_landmark_ecblobs.h ****   0x0010000000000024UL, 0x00000006180c0042UL, 0x180d004300000007UL, 0x3422403f00000002UL,
 822:Model/face_landmark_ecblobs.h ****   0x0000000018110043UL, 0x10007c0000000000UL, 0x1000042400000002UL, 0x0000000000000064UL,
 823:Model/face_landmark_ecblobs.h ****   0x4000000010007c00UL, 0x0000006410007bc4UL, 0x10007c0000000000UL, 0x10037c0000000001UL,
 824:Model/face_landmark_ecblobs.h ****   0x100c004300000025UL, 0x000000070000000bUL, 0x00000013100f0063UL, 0x0000001500000007UL,
 825:Model/face_landmark_ecblobs.h ****   0x0000002b101e7c00UL, 0x0000001710247c00UL, 0x3c007c0018002001UL, 0x40007c0000000055UL,
 826:Model/face_landmark_ecblobs.h ****   0x5c00200100000041UL, 0x2000200168002001UL, 0x3800200128002001UL, 0x0000006418007fe4UL,
 827:Model/face_landmark_ecblobs.h ****   0x10037c0000000000UL, 0x100c004300000000UL, 0x0000000000000000UL, 0x00000000100f0063UL,
 828:Model/face_landmark_ecblobs.h ****   0x0000000000000000UL, 0x00000000101e7c00UL, 0x0000000010247c00UL, 0x0000000218007c00UL,
 829:Model/face_landmark_ecblobs.h ****   0x0000006418000424UL, 0x18007c0000000000UL, 0x18007bc440000000UL, 0x0000000000000064UL,
 830:Model/face_landmark_ecblobs.h ****   0x3c007c0000800021UL, 0x3c00042400000002UL, 0x0000000000000064UL, 0x400000003c007c00UL,
 831:Model/face_landmark_ecblobs.h ****   0x000000643c007bc4UL, 0x0080014100000000UL, 0x0000000240007c00UL, 0x0000006440000424UL,
 832:Model/face_landmark_ecblobs.h ****   0x40007c0000000000UL, 0x40007bc440000000UL, 0x0000000000000064UL, 0x5c007c0000800161UL,
 833:Model/face_landmark_ecblobs.h ****   0x5c00042408000002UL, 0x0000000000000064UL, 0x480000005c007c00UL, 0x000000645c007bc4UL,
 834:Model/face_landmark_ecblobs.h ****   0x0080024100000000UL, 0x0800000268007c00UL, 0x0000006468000424UL, 0x68007c0000000000UL,
 835:Model/face_landmark_ecblobs.h ****   0x68007bc448000000UL, 0x0000000000000064UL, 0x20007c00008002a1UL, 0x2000042400000002UL,
 836:Model/face_landmark_ecblobs.h ****   0x0000000000000064UL, 0x4000000020007c00UL, 0x0000006420007bc4UL, 0x0080006100000000UL,
 837:Model/face_landmark_ecblobs.h ****   0x0000000228007c00UL, 0x0000006428000424UL, 0x28007c0000000000UL, 0x28007bc440000000UL,
 838:Model/face_landmark_ecblobs.h ****   0x0000000000000064UL, 0x38007c00008000a1UL, 0x3800042400000002UL, 0x0000000000000064UL,
 839:Model/face_landmark_ecblobs.h ****   0x4000000038007c00UL, 0x0000006438007bc4UL, 0x0080012100000000UL, 0x008022610000035dUL,
 840:Model/face_landmark_ecblobs.h ****   0x0800000060000042UL, 0x60027c0005000160UL, 0x6007004300079000UL, 0x000051fe54a84cb9UL,
 841:Model/face_landmark_ecblobs.h ****   0x00000000600c0043UL, 0x0080228110411041UL, 0x0800000064000042UL, 0x64027c0005006e60UL,
 842:Model/face_landmark_ecblobs.h ****   0x6407004300000000UL, 0x00000000ffe8ff80UL, 0x00000000640c0043UL, 0x0080224110411041UL,
 843:Model/face_landmark_ecblobs.h ****   0x080000005c000042UL, 0x5c020123096000fcUL, 0x0000000000000000UL, 0x000008ff00000000UL,
 844:Model/face_landmark_ecblobs.h ****   0x0000000100011fffUL, 0x0784020000000000UL, 0x5c0c004300000001UL, 0x1041104100000000UL,
 845:Model/face_landmark_ecblobs.h ****   0x000000015c0b7c00UL, 0x0000fffc5d000803UL, 0x0000ffbe00000000UL, 0x0000ffbd00000000UL,
 846:Model/face_landmark_ecblobs.h ****   0x0000fff300000000UL, 0x0000ffcc00000000UL, 0x0000001b00000000UL, 0x0000005e00000000UL,
 847:Model/face_landmark_ecblobs.h ****   0x0000ffa500000000UL, 0x0000001e00000000UL, 0x0000003d00000000UL, 0x0000ff8700000000UL,
 848:Model/face_landmark_ecblobs.h ****   0x0000ffe900000000UL, 0x0000ffd900000000UL, 0x0000fffb00000000UL, 0x0000ffe300000000UL,
 849:Model/face_landmark_ecblobs.h ****   0x0000fffe00000000UL, 0x0000ffcc00000000UL, 0x0000ffea00000000UL, 0x0000ffc500000000UL,
 850:Model/face_landmark_ecblobs.h ****   0x0000ffc000000000UL, 0x0000ffca00000000UL, 0x0000ffd900000000UL, 0x0000ffc900000000UL,
 851:Model/face_landmark_ecblobs.h ****   0x0000ff8100000000UL, 0x0000004300000000UL, 0x0000ff9200000000UL, 0x0000ffec00000000UL,
 852:Model/face_landmark_ecblobs.h ****   0x0000ffda00000000UL, 0x0000fff100000000UL, 0x0000ffd100000000UL, 0x0000ffe200000000UL,
 853:Model/face_landmark_ecblobs.h ****   0x0000ffe700000000UL, 0x008022a100000000UL, 0x0800000068000042UL, 0x68020123156000fcUL,
 854:Model/face_landmark_ecblobs.h ****   0x00000000000a8000UL, 0x000008ff00000000UL, 0x0000549d00011fffUL, 0x0784020000000000UL,
 855:Model/face_landmark_ecblobs.h ****   0x680c004300000001UL, 0x1041204200000000UL, 0x00000001680b7c00UL, 0xf400549d69000803UL,
 856:Model/face_landmark_ecblobs.h ****   0xf214549d00004546UL, 0xf20c549d0000770bUL, 0xf3b8549d0000885cUL, 0xf283549d0000e125UL,
 857:Model/face_landmark_ecblobs.h ****   0xf4f6549d00008494UL, 0xf709549d00002c64UL, 0xf14e549d0000a407UL, 0xf50d549d00002803UL,
 858:Model/face_landmark_ecblobs.h ****   0xf603549d0000f86fUL, 0xf060549d0000df8cUL, 0xf369549d00002f94UL, 0xf2ea549d00008e55UL,
 859:Model/face_landmark_ecblobs.h ****   0xf3f8549d0000a36fUL, 0xf339549d00005698UL, 0xf410549d0000f63fUL, 0xf283549d000022a3UL,
 860:Model/face_landmark_ecblobs.h ****   0xf371549d00008494UL, 0xf24b549d00007d03UL, 0xf224549d0000fdcfUL, 0xf273549d00005468UL,
 861:Model/face_landmark_ecblobs.h ****   0xf2ea549d0000a737UL, 0xf26b549d0000a36fUL, 0xf030549d0000b889UL, 0xf633549d0000977eUL,
 862:Model/face_landmark_ecblobs.h ****   0xf0b7549d000077a3UL, 0xf381549d00007112UL, 0xf2f2549d00005a60UL, 0xf3a9549d0000921dUL,
 863:Model/face_landmark_ecblobs.h ****   0xf2ab549d000003c8UL, 0xf332549d00002dfcUL, 0xf359549d00000790UL, 0x008020210000b0f8UL,
 864:Model/face_landmark_ecblobs.h ****   0x0008000018007c00UL, 0x3420000018020123UL, 0x0020000100300030UL, 0x0000000100000600UL,
 865:Model/face_landmark_ecblobs.h ****   0x0001200000000020UL, 0x0010000000000024UL, 0x00000006180c0042UL, 0x180d004300000007UL,
 866:Model/face_landmark_ecblobs.h ****   0x3421203f00000020UL, 0x0000000018110043UL, 0x0080212100000000UL, 0x0008000038007c00UL,
 867:Model/face_landmark_ecblobs.h ****   0x3421200038020123UL, 0x0020000100300030UL, 0x0000000100000600UL, 0x0001200000000020UL,
 868:Model/face_landmark_ecblobs.h ****   0x0010000000000024UL, 0x00000006380c0042UL, 0x380d004300000007UL, 0x3422403f00000020UL,
 869:Model/face_landmark_ecblobs.h ****   0x0000000038110043UL, 0x008020c100000000UL, 0x000801082c007c00UL, 0x342240002c020043UL,
 870:Model/face_landmark_ecblobs.h ****   0x2c0500c300000900UL, 0x0000090000000000UL, 0x0000000000000000UL, 0x0010000000000024UL,
 871:Model/face_landmark_ecblobs.h ****   0x000000062c0c0042UL, 0x2c0d004300000007UL, 0x3423603f00000020UL, 0x000000002c110043UL,
 872:Model/face_landmark_ecblobs.h ****   0x0080206100000000UL, 0x0008010820007c00UL, 0x3423600020020043UL, 0x200500c300000900UL,
 873:Model/face_landmark_ecblobs.h ****   0x0000090000000000UL, 0x0000000000000000UL, 0x0010000000000024UL, 0x00000006200c0042UL,
 874:Model/face_landmark_ecblobs.h ****   0x200d004300000007UL, 0x3424803f00000020UL, 0x0000000020110043UL, 0x10007c0000000000UL,
 875:Model/face_landmark_ecblobs.h ****   0x1000042400000002UL, 0x0000000000000064UL, 0x4000000010007c00UL, 0x0000006410007bc4UL,
 876:Model/face_landmark_ecblobs.h ****   0x10007c0000000000UL, 0x10057c0000000001UL, 0x10087c000000002bUL, 0x101e7c0000000027UL,
 877:Model/face_landmark_ecblobs.h ****   0x1020006300000029UL, 0x0000001300000003UL, 0x10247c0000000027UL, 0x2000200100000025UL,
ARM GAS  /tmp/cc1nC4Xu.s 			page 53


 878:Model/face_landmark_ecblobs.h ****   0x5c0020012c002001UL, 0x6400200160002001UL, 0x1800200168002001UL, 0x20007fe438002001UL,
 879:Model/face_landmark_ecblobs.h ****   0x0000000000000064UL, 0x000000642c007fe4UL, 0x10057c0000000000UL, 0x10087c0000000000UL,
 880:Model/face_landmark_ecblobs.h ****   0x101e7c0000000000UL, 0x1020006300000000UL, 0x0000000000000000UL, 0x10247c0000000000UL,
 881:Model/face_landmark_ecblobs.h ****   0x20007c0000000000UL, 0x2000042400000002UL, 0x0000000000000064UL, 0x4000000020007c00UL,
 882:Model/face_landmark_ecblobs.h ****   0x0000006420007bc4UL, 0x0080006100000000UL, 0x000000022c007c00UL, 0x000000642c000424UL,
 883:Model/face_landmark_ecblobs.h ****   0x2c007c0000000000UL, 0x2c007bc440000000UL, 0x0000000000000064UL, 0x5c007c00008000c1UL,
 884:Model/face_landmark_ecblobs.h ****   0x5c00042408000002UL, 0x0000000000000064UL, 0x480000005c007c00UL, 0x000000645c007bc4UL,
 885:Model/face_landmark_ecblobs.h ****   0x0080024100000000UL, 0x0800000260007c00UL, 0x0000006460000424UL, 0x60007c0000000000UL,
 886:Model/face_landmark_ecblobs.h ****   0x60007bc448000000UL, 0x0000000000000064UL, 0x64007c0000800261UL, 0x6400042408000002UL,
 887:Model/face_landmark_ecblobs.h ****   0x0000000000000064UL, 0x4800000064007c00UL, 0x0000006464007bc4UL, 0x0080028100000000UL,
 888:Model/face_landmark_ecblobs.h ****   0x0800000268007c00UL, 0x0000006468000424UL, 0x68007c0000000000UL, 0x68007bc448000000UL,
 889:Model/face_landmark_ecblobs.h ****   0x0000000000000064UL, 0x18007c00008002a1UL, 0x1800042400000002UL, 0x0000000000000064UL,
 890:Model/face_landmark_ecblobs.h ****   0x4000000018007c00UL, 0x0000006418007bc4UL, 0x0080002100000000UL, 0x0000000238007c00UL,
 891:Model/face_landmark_ecblobs.h ****   0x0000006438000424UL, 0x38007c0000000000UL, 0x38007bc440000000UL, 0x0000000000000064UL,
 892:Model/face_landmark_ecblobs.h ****   0x0000037d00800121UL, 0x58007c0000802221UL, 0x580200430174104cUL, 0x029011cf00087f80UL,
 893:Model/face_landmark_ecblobs.h ****   0x0000000059000403UL, 0x0000000000000000UL, 0x0000000000000000UL, 0x0000000000000000UL,
 894:Model/face_landmark_ecblobs.h ****   0x0000000000000000UL, 0x0000000000000000UL, 0x0000000000000000UL, 0x00000009000000c1UL,
 895:Model/face_landmark_ecblobs.h ****   0x0000000900000009UL, 0x0000000900000009UL, 0x0000000900000009UL, 0x0000000900000009UL,
 896:Model/face_landmark_ecblobs.h ****   0x0000000900000009UL, 0x0000000900000009UL, 0x0000000900000009UL, 0x0000000900000009UL,
 897:Model/face_landmark_ecblobs.h ****   0x5a000483000000caUL, 0x0000a10000000000UL, 0x0000a10000000000UL, 0x0000a20000000000UL,
 898:Model/face_landmark_ecblobs.h ****   0x0000a40000000000UL, 0x0000a50000000000UL, 0x0000a70000000000UL, 0x0000a80000000000UL,
 899:Model/face_landmark_ecblobs.h ****   0x0000aa0000000000UL, 0x0000ab0000000000UL, 0x0000c44a5e1b0000UL, 0x0000750000000000UL,
 900:Model/face_landmark_ecblobs.h ****   0x0000760000000000UL, 0x0000780000000000UL, 0x0000790000000000UL, 0x00007b0000000000UL,
 901:Model/face_landmark_ecblobs.h ****   0x00007c0000000000UL, 0x00007e0000000000UL, 0x00007f0000000000UL, 0x5c00004200802241UL,
 902:Model/face_landmark_ecblobs.h ****   0x0500016008000000UL, 0x000718005c027c00UL, 0x5f0040005c070043UL, 0x5c0c004300004000UL,
 903:Model/face_landmark_ecblobs.h ****   0x1041104100000000UL, 0x70007c00008022e1UL, 0x700200e30041c0c0UL, 0x0030003004000892UL,
 904:Model/face_landmark_ecblobs.h ****   0x0000000000180018UL, 0x002f0000002f0000UL, 0x008020e100050001UL, 0x0008010030007c00UL,
 905:Model/face_landmark_ecblobs.h ****   0x3422400030020043UL, 0x300500c300000900UL, 0x0000090000000000UL, 0x0000000000000000UL,
 906:Model/face_landmark_ecblobs.h ****   0x0010000000000024UL, 0x00000006300c0042UL, 0x300d004300000007UL, 0x3423603f00000020UL,
 907:Model/face_landmark_ecblobs.h ****   0x0000000030110043UL, 0x0080204100000000UL, 0x000801001c007c00UL, 0x342360001c020043UL,
 908:Model/face_landmark_ecblobs.h ****   0x1c0500c300000900UL, 0x0000090000000000UL, 0x0000000000000000UL, 0x0010000000000024UL,
 909:Model/face_landmark_ecblobs.h ****   0x000000061c0c0042UL, 0x1c0d004300000007UL, 0x3424803f00000020UL, 0x000000001c110043UL,
 910:Model/face_landmark_ecblobs.h ****   0x0080210100000000UL, 0x0008000834007c00UL, 0x3420000034020123UL, 0x0020000100300030UL,
 911:Model/face_landmark_ecblobs.h ****   0x0000000100000600UL, 0x0001200000000020UL, 0x0010000000000024UL, 0x00000006340c0042UL,
 912:Model/face_landmark_ecblobs.h ****   0x340d004300000007UL, 0x3421203f00000020UL, 0x0000000034110043UL, 0x0080202100000000UL,
 913:Model/face_landmark_ecblobs.h ****   0x0008000818007c00UL, 0x3424800018020123UL, 0x0001000100180018UL, 0x0000001800000300UL,
 914:Model/face_landmark_ecblobs.h ****   0x0000480000000020UL, 0x0010000000000024UL, 0x00000006180c0042UL, 0x180d004300000007UL,
 915:Model/face_landmark_ecblobs.h ****   0x3424c83f00000020UL, 0x0000000018110043UL, 0x10007c0000000000UL, 0x1000042400000002UL,
 916:Model/face_landmark_ecblobs.h ****   0x0000000000000064UL, 0x4000000010007c00UL, 0x0000006410007bc4UL, 0x10007c0000000000UL,
 917:Model/face_landmark_ecblobs.h ****   0x10037c0000000001UL, 0x100a7c000000002fUL, 0x101d006300000025UL, 0x000000230000000fUL,
 918:Model/face_landmark_ecblobs.h ****   0x10277c0000000005UL, 0x1800200100000025UL, 0x5800200134002001UL, 0x700020015c002001UL,
 919:Model/face_landmark_ecblobs.h ****   0x300020011c002001UL, 0x0000006418007fe4UL, 0x34007fe400000000UL, 0x0000000000000064UL,
 920:Model/face_landmark_ecblobs.h ****   0x0000000010037c00UL, 0x00000000100a7c00UL, 0x00000000101d0063UL, 0x0000000000000000UL,
 921:Model/face_landmark_ecblobs.h ****   0x0000000010277c00UL, 0x0000000218007c00UL, 0x0000006418000424UL, 0x18007c0000000000UL,
 922:Model/face_landmark_ecblobs.h ****   0x18007bc440000000UL, 0x0000000000000064UL, 0x34007c0000800021UL, 0x3400042400000002UL,
 923:Model/face_landmark_ecblobs.h ****   0x0000000000000064UL, 0x4000000034007c00UL, 0x0000006434007bc4UL, 0x0080010100000000UL,
 924:Model/face_landmark_ecblobs.h ****   0x0088108258007c00UL, 0x0000006458000424UL, 0x58007c0000000000UL, 0x58007bc440881080UL,
 925:Model/face_landmark_ecblobs.h ****   0x0000000000000064UL, 0x5c007c0000800221UL, 0x5c00042408000002UL, 0x0000000000000064UL,
 926:Model/face_landmark_ecblobs.h ****   0x480000005c007c00UL, 0x000000645c007bc4UL, 0x0080024100000000UL, 0x0042000270007c00UL,
 927:Model/face_landmark_ecblobs.h ****   0x0000006470000424UL, 0x70007c0000000000UL, 0x70007bc440420000UL, 0x0000000000000064UL,
 928:Model/face_landmark_ecblobs.h ****   0x1c007c00008002e1UL, 0x1c00042400000002UL, 0x0000000000000064UL, 0x400000001c007c00UL,
 929:Model/face_landmark_ecblobs.h ****   0x000000641c007bc4UL, 0x0080004100000000UL, 0x0000000230007c00UL, 0x0000006430000424UL,
 930:Model/face_landmark_ecblobs.h ****   0x30007c0000000000UL, 0x30007bc440000000UL, 0x0000000000000064UL, 0x0000039d008000e1UL,
 931:Model/face_landmark_ecblobs.h ****   0x44007c0000802181UL, 0x440200c300000034UL, 0x0000110001010101UL, 0x0020001810534000UL,
 932:Model/face_landmark_ecblobs.h ****   0x001f000000170000UL, 0x20000000440a7c00UL, 0x0000ffa1440d7c00UL, 0x14007c0000802001UL,
 933:Model/face_landmark_ecblobs.h ****   0x1402004300080100UL, 0x0000030034248000UL, 0x00000000140500c3UL, 0x0000000100000000UL,
 934:Model/face_landmark_ecblobs.h ****   0x0000002400000300UL, 0x140c004200100000UL, 0x0000000700000006UL, 0x00000018140d0043UL,
ARM GAS  /tmp/cc1nC4Xu.s 			page 54


 935:Model/face_landmark_ecblobs.h ****   0x141100433424c83fUL, 0x0000000000000000UL, 0x1c007c0000802041UL, 0x1c02004300080184UL,
 936:Model/face_landmark_ecblobs.h ****   0x000000187141cfc0UL, 0x000000001c0500c3UL, 0x0000000000000000UL, 0x0000002400000000UL,
 937:Model/face_landmark_ecblobs.h ****   0x1c0c004200100000UL, 0x0000000700000006UL, 0x000000011c0d0043UL, 0x1c1100437141d017UL,
 938:Model/face_landmark_ecblobs.h ****   0x0000000800000000UL, 0x24007c0000802081UL, 0x240201230088c000UL, 0x0030003034200000UL,
 939:Model/face_landmark_ecblobs.h ****   0x0000060000200002UL, 0x0000000800000004UL, 0x0000002400012000UL, 0x240c004200100000UL,
 940:Model/face_landmark_ecblobs.h ****   0x0000000700000006UL, 0x00000008240d0043UL, 0x241100433421203fUL, 0x0000000000000000UL,
 941:Model/face_landmark_ecblobs.h ****   0x2c007c00008020c1UL, 0x2c02004300080108UL, 0x0000060034224000UL, 0x000000002c0500c3UL,
 942:Model/face_landmark_ecblobs.h ****   0x0000000000000600UL, 0x0000002400000000UL, 0x2c0c004200100000UL, 0x0000000700000006UL,
 943:Model/face_landmark_ecblobs.h ****   0x000000182c0d0043UL, 0x2c1100433422d03fUL, 0x0000000000000000UL, 0x28007c00008020a1UL,
 944:Model/face_landmark_ecblobs.h ****   0x2802004300880108UL, 0x0000120034212000UL, 0x00000000280500c3UL, 0x0000000000002400UL,
 945:Model/face_landmark_ecblobs.h ****   0x0000002400000000UL, 0x280c004200100000UL, 0x0000000700000006UL, 0x00000008280d0043UL,
 946:Model/face_landmark_ecblobs.h ****   0x281100433422403fUL, 0x0000000000000000UL, 0x0000000210007c00UL, 0x0000006410000424UL,
 947:Model/face_landmark_ecblobs.h ****   0x10007c0000000000UL, 0x10007bc440000000UL, 0x0000000000000064UL, 0x0000000110007c00UL,
 948:Model/face_landmark_ecblobs.h ****   0x0000000910070043UL, 0x1012004300000019UL, 0x0000000500000001UL, 0x2c00200128002001UL,
 949:Model/face_landmark_ecblobs.h ****   0x0000003544007c00UL, 0x1c00200114002001UL, 0x28007fe424002001UL, 0x0000000000000064UL,
 950:Model/face_landmark_ecblobs.h ****   0x000000642c007fe4UL, 0x1007004300000000UL, 0x0000000000000000UL, 0x0000000010120043UL,
 951:Model/face_landmark_ecblobs.h ****   0x28007c0000000000UL, 0x2800042400000002UL, 0x0000000000000064UL, 0x4000000028007c00UL,
 952:Model/face_landmark_ecblobs.h ****   0x0000006428007bc4UL, 0x008000a100000000UL, 0x000000022c007c00UL, 0x000000642c000424UL,
 953:Model/face_landmark_ecblobs.h ****   0x2c007c0000000000UL, 0x2c007bc440000000UL, 0x0000000000000064UL, 0x44007c00008000c1UL,
 954:Model/face_landmark_ecblobs.h ****   0x4400042400000002UL, 0x0000000000000064UL, 0x4000000044007c00UL, 0x0000006444007bc4UL,
 955:Model/face_landmark_ecblobs.h ****   0x0080018100000000UL, 0x0000000214007c00UL, 0x0000006414000424UL, 0x14007c0000000000UL,
 956:Model/face_landmark_ecblobs.h ****   0x14007bc440000000UL, 0x0000000000000064UL, 0x1c007c0000800001UL, 0x1c00042400000002UL,
 957:Model/face_landmark_ecblobs.h ****   0x0000000000000064UL, 0x400000001c007c00UL, 0x000000641c007bc4UL, 0x0080004100000000UL,
 958:Model/face_landmark_ecblobs.h ****   0x0000000224007c00UL, 0x0000006424000424UL, 0x24007c0000000000UL, 0x24007bc440000000UL,
 959:Model/face_landmark_ecblobs.h ****   0x0000000000000064UL, 0x0000000c00800081UL
 960:Model/face_landmark_ecblobs.h **** };
 961:Model/face_landmark_ecblobs.h **** 
 962:Model/face_landmark_ecblobs.h **** 
 963:Model/face_landmark_ecblobs.h **** #define EC_DECRYPT__ec_blob_face_landmark_30 false    // Epoch Controller must NOT be programmed fo
 964:Model/face_landmark_ecblobs.h **** 
 965:Model/face_landmark_ecblobs.h **** ECBLOB_CONST_SECTION
 966:Model/face_landmark_ecblobs.h **** static const uint64_t _ec_blob_face_landmark_30[] =
 967:Model/face_landmark_ecblobs.h **** {
 968:Model/face_landmark_ecblobs.h ****   0x00001396ca057a7aUL, 0x008021a1000003ddUL, 0x0000005448007c00UL, 0x04040303480200c3UL,
 969:Model/face_landmark_ecblobs.h ****   0x10a3430300002244UL, 0x00bf0000003000c0UL, 0x480a7c00002f0000UL, 0x480c004300000000UL,
 970:Model/face_landmark_ecblobs.h ****   0x0000000000ffffa1UL, 0x6000004200802261UL, 0x0900006008000000UL, 0x0007000060027c00UL,
 971:Model/face_landmark_ecblobs.h ****   0x00005b7260070043UL, 0x600c004300000000UL, 0x2042204200000000UL, 0x6400004200802281UL,
 972:Model/face_landmark_ecblobs.h ****   0x1500006008000000UL, 0x000a000064027c00UL, 0x00004a9264070043UL, 0x640c00430000ff00UL,
 973:Model/face_landmark_ecblobs.h ****   0x2042204200000000UL, 0x2c007c00008020c1UL, 0x2c0200430008c100UL, 0x0000240034212000UL,
 974:Model/face_landmark_ecblobs.h ****   0x000000002c0500c3UL, 0x0000000100000000UL, 0x0000002400002400UL, 0x2c0c004200100000UL,
 975:Model/face_landmark_ecblobs.h ****   0x0000000700000006UL, 0x000000082c0d0043UL, 0x2c1100433422403fUL, 0x0000000000000000UL,
 976:Model/face_landmark_ecblobs.h ****   0x1c007c0000802041UL, 0x1c0200430008c184UL, 0x000004807141a480UL, 0x000000001c0500c3UL,
 977:Model/face_landmark_ecblobs.h ****   0x0000000000000000UL, 0x0000002400000000UL, 0x1c0c004200100000UL, 0x0000000700000006UL,
 978:Model/face_landmark_ecblobs.h ****   0x000000011c0d0043UL, 0x1c1100437141a93fUL, 0x0000000800000000UL, 0x18007c0000802021UL,
 979:Model/face_landmark_ecblobs.h ****   0x1802012300080008UL, 0x0018001834224000UL, 0x0000030000200004UL, 0x0000000800000004UL,
 980:Model/face_landmark_ecblobs.h ****   0x0000002400004800UL, 0x180c004200100000UL, 0x0000000700000006UL, 0x00000008180d0043UL,
 981:Model/face_landmark_ecblobs.h ****   0x181100433422883fUL, 0x0000000000000000UL, 0x0000000210007c00UL, 0x0000006410000424UL,
 982:Model/face_landmark_ecblobs.h ****   0x10007c0000000000UL, 0x10007bc440000000UL, 0x0000000000000064UL, 0x0000000110007c00UL,
 983:Model/face_landmark_ecblobs.h ****   0x0000002910037c00UL, 0x0000000d10150043UL, 0x10207c0000000005UL, 0x10227c000000001bUL,
 984:Model/face_landmark_ecblobs.h ****   0x1800200100000027UL, 0x0000005548007c00UL, 0x6400200160002001UL, 0x2c0020011c002001UL,
 985:Model/face_landmark_ecblobs.h ****   0x0000006418007fe4UL, 0x10037c0000000000UL, 0x1015004300000000UL, 0x0000000000000000UL,
 986:Model/face_landmark_ecblobs.h ****   0x0000000010207c00UL, 0x0000000010227c00UL, 0x0000000218007c00UL, 0x0000006418000424UL,
 987:Model/face_landmark_ecblobs.h ****   0x18007c0000000000UL, 0x18007bc440000000UL, 0x0000000000000064UL, 0x48007c0000800021UL,
 988:Model/face_landmark_ecblobs.h ****   0x4800042400000002UL, 0x0000000000000064UL, 0x4000000048007c00UL, 0x0000006448007bc4UL,
 989:Model/face_landmark_ecblobs.h ****   0x008001a100000000UL, 0x0800000260007c00UL, 0x0000006460000424UL, 0x60007c0000000000UL,
 990:Model/face_landmark_ecblobs.h ****   0x60007bc448000000UL, 0x0000000000000064UL, 0x64007c0000800261UL, 0x6400042408000002UL,
 991:Model/face_landmark_ecblobs.h ****   0x0000000000000064UL, 0x4800000064007c00UL, 0x0000006464007bc4UL, 0x0080028100000000UL,
ARM GAS  /tmp/cc1nC4Xu.s 			page 55


 992:Model/face_landmark_ecblobs.h ****   0x000000021c007c00UL, 0x000000641c000424UL, 0x1c007c0000000000UL, 0x1c007bc440000000UL,
 993:Model/face_landmark_ecblobs.h ****   0x0000000000000064UL, 0x2c007c0000800041UL, 0x2c00042400000002UL, 0x0000000000000064UL,
 994:Model/face_landmark_ecblobs.h ****   0x400000002c007c00UL, 0x000000642c007bc4UL, 0x008000c100000000UL, 0x00802141000003fdUL,
 995:Model/face_landmark_ecblobs.h ****   0x000000543c007c00UL, 0x101001013c0200e3UL, 0x10b7400200001100UL, 0x017f000000180180UL,
 996:Model/face_landmark_ecblobs.h ****   0x000f002000170000UL, 0x000000003c0a7c00UL, 0x00fffff03c0c0043UL, 0x0080216100000000UL,
 997:Model/face_landmark_ecblobs.h ****   0x0000004040007c00UL, 0x10100101400200e3UL, 0x10a3420000001100UL, 0x017f000000180180UL,
 998:Model/face_landmark_ecblobs.h ****   0x001f102000170000UL, 0x00000000400a7c00UL, 0x00fffff0400c0043UL, 0x008022a100000000UL,
 999:Model/face_landmark_ecblobs.h ****   0x0800000068000042UL, 0x68027c0009000060UL, 0x6807004300070000UL, 0x0000000000005534UL,
1000:Model/face_landmark_ecblobs.h ****   0x00000000680c0043UL, 0x0080224120422042UL, 0x080000005c000042UL, 0x5c020123156000fcUL,
1001:Model/face_landmark_ecblobs.h ****   0x00000000000a0000UL, 0x000023ff0000000fUL, 0x0000581600008fffUL, 0x070403f100000000UL,
1002:Model/face_landmark_ecblobs.h ****   0x5c0c004300000001UL, 0x2042204200000000UL, 0x000000015c0b7c00UL, 0x01bb58165d001003UL,
1003:Model/face_landmark_ecblobs.h ****   0x0253581600009d7cUL, 0x021358160000b320UL, 0x0246581600009153UL, 0x00fc58160000fce1UL,
1004:Model/face_landmark_ecblobs.h ****   0x026858160000b536UL, 0x024f5816000032f4UL, 0x028258160000b103UL, 0x029e58160000c49eUL,
1005:Model/face_landmark_ecblobs.h ****   0x01ec5816000040d1UL, 0x031458160000496cUL, 0x029158160000707aUL, 0x0202581600008a92UL,
1006:Model/face_landmark_ecblobs.h ****   0x01ab581600000bbfUL, 0x01d1581600009508UL, 0x023b5816000007dbUL, 0x022958160000e115UL,
1007:Model/face_landmark_ecblobs.h ****   0x025858160000ab9aUL, 0x01f1581600002a81UL, 0x02a158160000e5faUL, 0x026958160000eaf9UL,
1008:Model/face_landmark_ecblobs.h ****   0x026758160000002eUL, 0x031358160000486bUL, 0x027c58160000fb35UL, 0x02b1581600005ad6UL,
1009:Model/face_landmark_ecblobs.h ****   0x02fa581600009b7aUL, 0x02af581600007168UL, 0x0208581600006e71UL, 0x01b258160000b029UL,
1010:Model/face_landmark_ecblobs.h ****   0x02ac581600009166UL, 0x021758160000e974UL, 0x03055816000000d9UL, 0x022458160000aa86UL,
1011:Model/face_landmark_ecblobs.h ****   0x01ea581600000f0bUL, 0x01e958160000e99cUL, 0x02665816000031d9UL, 0x028b581600009883UL,
1012:Model/face_landmark_ecblobs.h ****   0x01e4581600009610UL, 0x02565816000027e1UL, 0x01f75816000072beUL, 0x01f7581600009fdaUL,
1013:Model/face_landmark_ecblobs.h ****   0x0108581600008289UL, 0x0236581600006399UL, 0x025b58160000b9ccUL, 0x0272581600004214UL,
1014:Model/face_landmark_ecblobs.h ****   0x01a858160000d97cUL, 0x021b581600000831UL, 0x021958160000d02fUL, 0x0198581600004b33UL,
1015:Model/face_landmark_ecblobs.h ****   0x01f9581600001d0fUL, 0x027558160000579eUL, 0x0235581600004127UL, 0x0226581600000209UL,
1016:Model/face_landmark_ecblobs.h ****   0x01e458160000ebfbUL, 0x01f3581600000a90UL, 0x01d7581600009dbeUL, 0x020658160000c997UL,
1017:Model/face_landmark_ecblobs.h ****   0x027158160000f866UL, 0x020f58160000eef2UL, 0x020858160000e72aUL, 0x0284581600005835UL,
1018:Model/face_landmark_ecblobs.h ****   0x0204581600007c61UL, 0x024758160000e8afUL, 0x01de581600008f78UL, 0x008020a10000160dUL,
1019:Model/face_landmark_ecblobs.h ****   0x0008c00028007c00UL, 0x3422400028020123UL, 0x0020001000180018UL, 0x0000002000000300UL,
1020:Model/face_landmark_ecblobs.h ****   0x0000000000000001UL, 0x0010000000000024UL, 0x00000006280c0042UL, 0x280d004300000007UL,
1021:Model/face_landmark_ecblobs.h ****   0x3422883f00000004UL, 0x0000000028110043UL, 0x0080204100000000UL, 0x0008c1841c007c00UL,
1022:Model/face_landmark_ecblobs.h ****   0x714193801c020043UL, 0x1c0500c300000800UL, 0x0000000000000000UL, 0x0000000000000000UL,
1023:Model/face_landmark_ecblobs.h ****   0x0010000000000024UL, 0x000000061c0c0042UL, 0x1c0d004300000007UL, 0x71419bbf00000001UL,
