ARM GAS  /tmp/ccAJFP7B.s 			page 1


   1              		.arch armv8.1-m.main
   2              		.fpu fpv5-d16
   3              		.arch_extension dsp
   4              		.arch_extension fp
   5              		.arch_extension fp.dp
   6              		.arch_extension mve
   7              		.arch_extension mve.fp
   8              		.eabi_attribute 5, "cortex-m55"
   9              		.eabi_attribute 28, 1
  10              		.eabi_attribute 20, 1
  11              		.eabi_attribute 21, 1
  12              		.eabi_attribute 23, 3
  13              		.eabi_attribute 24, 1
  14              		.eabi_attribute 25, 1
  15              		.eabi_attribute 26, 1
  16              		.eabi_attribute 30, 4
  17              		.eabi_attribute 34, 1
  18              		.eabi_attribute 38, 1
  19              		.eabi_attribute 18, 4
  20              		.file	"hand_landmark.c"
  21              		.text
  22              	.Ltext0:
  23              		.cfi_sections	.debug_frame
  24              		.file 1 "Model/hand_landmark.c"
  25              		.section	.text._ec_blob_cache_start_func_68,"ax",%progbits
  26              		.align	1
  27              		.syntax unified
  28              		.thumb
  29              		.thumb_func
  31              	_ec_blob_cache_start_func_68:
  32              	.LVL0:
  33              	.LFB4847:
   1:Model/hand_landmark.c **** /* AUTOGENERATED DO NOT MODIFY */
   2:Model/hand_landmark.c **** 
   3:Model/hand_landmark.c **** /**
   4:Model/hand_landmark.c ****   ******************************************************************************
   5:Model/hand_landmark.c ****   * @file    hand_landmark.c
   6:Model/hand_landmark.c ****   * @brief   NN Code autogenerated DO NOT MODIFY IT
   7:Model/hand_landmark.c ****   ******************************************************************************
   8:Model/hand_landmark.c ****   * @attention
   9:Model/hand_landmark.c ****   *
  10:Model/hand_landmark.c ****   * Copyright (c) 2023 STMicroelectronics.
  11:Model/hand_landmark.c ****   * All rights reserved.
  12:Model/hand_landmark.c ****   *
  13:Model/hand_landmark.c ****   * This software is licensed under terms that can be found in the LICENSE file
  14:Model/hand_landmark.c ****   * in the root directory of this software component.
  15:Model/hand_landmark.c ****   * If no LICENSE file comes with this software, it is provided AS-IS.
  16:Model/hand_landmark.c ****   *
  17:Model/hand_landmark.c ****   ******************************************************************************
  18:Model/hand_landmark.c ****   */
  19:Model/hand_landmark.c **** 
  20:Model/hand_landmark.c **** /*
  21:Model/hand_landmark.c ****  * GIT_SHA         "27f5d5bcb9ca9522b73a54d7aec841664ee448cd"
  22:Model/hand_landmark.c ****  * GIT_BRANCH      "STAI-2.1"
  23:Model/hand_landmark.c ****  * GIT_DESCRIPTION "atonn-v1.1.0-31-g27f5d5bc"
  24:Model/hand_landmark.c ****  *
  25:Model/hand_landmark.c ****  * Command Line options:
ARM GAS  /tmp/ccAJFP7B.s 			page 2


  26:Model/hand_landmark.c ****  * --onnx-input = "Model/st_ai_output/033_hand_landmark_full_quant_pc_uf_handl_OE_3_2_0.onnx"
  27:Model/hand_landmark.c ****  * --out-dir-prefix = "Model/st_ai_ws/neural_art__hand_landmark/"
  28:Model/hand_landmark.c ****  * --network-name = "hand_landmark"
  29:Model/hand_landmark.c ****  * --all-buffers-info = true
  30:Model/hand_landmark.c ****  * --mvei = true
  31:Model/hand_landmark.c ****  * --load-mdesc-file = "STEdgeAI_2.1.0/2.1/Utilities/configs/stm32n6"
  32:Model/hand_landmark.c ****  * --load-mpool-file = "Model/my_mpools/hand_landmark"
  33:Model/hand_landmark.c ****  * --cache-maintenance = true
  34:Model/hand_landmark.c ****  * --enable-virtual-mem-pools = true
  35:Model/hand_landmark.c ****  * --native-float = true
  36:Model/hand_landmark.c ****  * --json-quant-file = "Model/st_ai_output/033_hand_landmark_full_quant_pc_uf_handl_OE_3_2_0_Q.json
  37:Model/hand_landmark.c ****  * --optimization = 3
  38:Model/hand_landmark.c ****  * --Os = true
  39:Model/hand_landmark.c ****  * --Omax-ca-pipe = 4
  40:Model/hand_landmark.c ****  * --Ocache-opt = true
  41:Model/hand_landmark.c ****  * --enable-epoch-controller = true
  42:Model/hand_landmark.c ****  * --output-info-file = "c_info"
  43:Model/hand_landmark.c ****  * --Oalt-sched = true
  44:Model/hand_landmark.c ****  */
  45:Model/hand_landmark.c **** 
  46:Model/hand_landmark.c **** #include "ll_aton_NN_interface.h"
  47:Model/hand_landmark.c **** #include "ll_aton.h"
  48:Model/hand_landmark.c **** #include "ll_aton_lib.h"
  49:Model/hand_landmark.c **** #include "ll_aton_version.h"
  50:Model/hand_landmark.c **** #include "ll_sw.h"
  51:Model/hand_landmark.c **** #include "ecloader.h"
  52:Model/hand_landmark.c **** 
  53:Model/hand_landmark.c **** #if LL_ATON_VERSION_MAJOR != 1 || LL_ATON_VERSION_MINOR != 1 || LL_ATON_VERSION_MICRO != 0 || LL_AT
  54:Model/hand_landmark.c **** #  warning "Possible mismatch in ll_aton library used"
  55:Model/hand_landmark.c **** #endif
  56:Model/hand_landmark.c **** 
  57:Model/hand_landmark.c **** #if !defined(LL_ATON_DBG_BUFFER_INFO_EXCLUDED)
  58:Model/hand_landmark.c **** #  define LL_ATON_DBG_BUFFER_INFO_EXCLUDED 0
  59:Model/hand_landmark.c **** #endif
  60:Model/hand_landmark.c **** 
  61:Model/hand_landmark.c **** /* global pool 4 is ? */
  62:Model/hand_landmark.c **** /* index=4 file postfix=xSPI1 name=hyperRAM offset=0x90000000  absolute_mode size=16777208 READ_WRI
  63:Model/hand_landmark.c **** /* global pool 5 is 3.17 MB */
  64:Model/hand_landmark.c **** /* index=5 file postfix=xSPI2 name=octoFlash offset=0x70580000  absolute_mode size=4194296 READ_ONL
  65:Model/hand_landmark.c **** /* global pool 8 is 1.05 MB */
  66:Model/hand_landmark.c **** /* index=8 file postfix=AXISRAM3_AXISRAM4_AXISRAM5_AXISRAM6 name=npuRAM3_npuRAM4_npuRAM5_npuRAM6 of
  67:Model/hand_landmark.c **** /* global pool 1 is 182.00 KB */
  68:Model/hand_landmark.c **** /* index=1 file postfix=AXISRAM5 name=npuRAM5 offset=0x342e0000  absolute_mode size=458752 READ_WRI
  69:Model/hand_landmark.c **** /* global pool 2 is 448.00 KB */
  70:Model/hand_landmark.c **** /* index=2 file postfix=AXISRAM4 name=npuRAM4 offset=0x34270000  absolute_mode size=458752 READ_WRI
  71:Model/hand_landmark.c **** /* global pool 3 is 448.00 KB */
  72:Model/hand_landmark.c **** /* index=3 file postfix=AXISRAM3 name=npuRAM3 offset=0x34200000  absolute_mode size=458752 READ_WRI
  73:Model/hand_landmark.c **** /* global pool 0 is ? */
  74:Model/hand_landmark.c **** /* index=0 file postfix=AXISRAM6 name=npuRAM6 offset=0x34350000  absolute_mode size=458744 READ_WRI
  75:Model/hand_landmark.c **** 
  76:Model/hand_landmark.c **** LL_ATON_User_IO_Result_t LL_ATON_Set_User_Input_Buffer_hand_landmark(uint32_t num, void* buffer, ui
  77:Model/hand_landmark.c **** {
  78:Model/hand_landmark.c ****   { 
  79:Model/hand_landmark.c ****     return LL_ATON_User_IO_WRONG_INDEX;
  80:Model/hand_landmark.c ****   }
  81:Model/hand_landmark.c **** }
  82:Model/hand_landmark.c **** 
ARM GAS  /tmp/ccAJFP7B.s 			page 3


  83:Model/hand_landmark.c **** void *LL_ATON_Get_User_Input_Buffer_hand_landmark(uint32_t num)
  84:Model/hand_landmark.c **** {
  85:Model/hand_landmark.c ****   { 
  86:Model/hand_landmark.c ****     return NULL;
  87:Model/hand_landmark.c ****   }
  88:Model/hand_landmark.c **** }
  89:Model/hand_landmark.c **** 
  90:Model/hand_landmark.c **** LL_ATON_User_IO_Result_t LL_ATON_Set_User_Output_Buffer_hand_landmark(uint32_t num, void* buffer, u
  91:Model/hand_landmark.c **** {
  92:Model/hand_landmark.c ****   { 
  93:Model/hand_landmark.c ****     return LL_ATON_User_IO_WRONG_INDEX;
  94:Model/hand_landmark.c ****   }
  95:Model/hand_landmark.c **** }
  96:Model/hand_landmark.c **** 
  97:Model/hand_landmark.c **** void *LL_ATON_Get_User_Output_Buffer_hand_landmark(uint32_t num)
  98:Model/hand_landmark.c **** {
  99:Model/hand_landmark.c ****   { 
 100:Model/hand_landmark.c ****     return NULL;
 101:Model/hand_landmark.c ****   }
 102:Model/hand_landmark.c **** }
 103:Model/hand_landmark.c **** 
 104:Model/hand_landmark.c **** #include "hand_landmark_ecblobs.h"
 105:Model/hand_landmark.c **** 
 106:Model/hand_landmark.c **** /* scheduling epoch=0    nodes=213 ----------------------------------------------------------------
 107:Model/hand_landmark.c **** 
 108:Model/hand_landmark.c **** // Epoch Controller Blob (name='_ec_blob_1') micro instructions needed
 109:Model/hand_landmark.c **** 
 110:Model/hand_landmark.c **** // Epoch Controller Blob (name='_ec_blob_1') start function
 111:Model/hand_landmark.c **** static void _ec_blob_cache_start_func_1(const void *epoch_block) {
 112:Model/hand_landmark.c ****   LL_ATON_LIB_UNUSED(epoch_block);
 113:Model/hand_landmark.c **** 
 114:Model/hand_landmark.c ****   /* *** MCU cache invalidate (only) operation (HW, whole range) *** */
 115:Model/hand_landmark.c ****   /*     memory pool: 8 */
 116:Model/hand_landmark.c ****   /*     start: ((uintptr_t)(ATON_LIB_PHYSICAL_TO_VIRTUAL_ADDR(0x34200000UL + 4736))) */
 117:Model/hand_landmark.c ****   /*     end:   ((uintptr_t)(ATON_LIB_PHYSICAL_TO_VIRTUAL_ADDR(0x34200000UL + 4832))) */
 118:Model/hand_landmark.c ****   LL_ATON_Cache_MCU_Invalidate_Range(((uintptr_t)(ATON_LIB_PHYSICAL_TO_VIRTUAL_ADDR(0x34200000UL + 
 119:Model/hand_landmark.c **** 
 120:Model/hand_landmark.c **** };
 121:Model/hand_landmark.c **** 
 122:Model/hand_landmark.c **** 
 123:Model/hand_landmark.c **** /* scheduling epoch=64   nodes=1   ----------------------------------------------------------------
 124:Model/hand_landmark.c **** 
 125:Model/hand_landmark.c **** static void LL_ATON_End_EpochBlock_64(const void *epoch_block)
 126:Model/hand_landmark.c **** {
 127:Model/hand_landmark.c ****   /* *** MCU cache invalidate (only) operation for unaligned buffer start or end address (only line
 128:Model/hand_landmark.c ****   /*     memory pool: 8 */
 129:Model/hand_landmark.c ****   /*     start: ((uintptr_t)(ATON_LIB_PHYSICAL_TO_VIRTUAL_ADDR(0x34200000UL + 576))) */
 130:Model/hand_landmark.c ****   /*     end:   ((uintptr_t)(ATON_LIB_PHYSICAL_TO_VIRTUAL_ADDR(0x34200000UL + 608))) */
 131:Model/hand_landmark.c ****   LL_ATON_Cache_MCU_Invalidate_Range(((uintptr_t)(ATON_LIB_PHYSICAL_TO_VIRTUAL_ADDR(0x34200000UL + 
 132:Model/hand_landmark.c **** 
 133:Model/hand_landmark.c ****   LL_ATON_LIB_UNUSED(epoch_block);
 134:Model/hand_landmark.c **** 
 135:Model/hand_landmark.c **** 
 136:Model/hand_landmark.c **** /* Unit= 27 [PROCESSOR 0] */
 137:Model/hand_landmark.c **** /* kind=DequantizeLinear node=Dequantize_223 */
 138:Model/hand_landmark.c ****   Dequantizelinear_sw_info dequantizelinear1_sw_info = {
 139:Model/hand_landmark.c ****     /* "general.input" tensor-related info: */
ARM GAS  /tmp/ccAJFP7B.s 			page 4


 140:Model/hand_landmark.c ****     .general.input.dim.tensor_b = 1,
 141:Model/hand_landmark.c ****     .general.input.dim.tensor_h = 1,
 142:Model/hand_landmark.c ****     .general.input.dim.tensor_w = 1,
 143:Model/hand_landmark.c ****     .general.input.dim.tensor_c = 1,
 144:Model/hand_landmark.c ****     .general.input.dim.num_elem = 1,
 145:Model/hand_landmark.c ****     .general.input.stride.b = 1,
 146:Model/hand_landmark.c ****     .general.input.stride.h = 1,
 147:Model/hand_landmark.c ****     .general.input.stride.w = 1,
 148:Model/hand_landmark.c ****     .general.input.stride.c = 1,
 149:Model/hand_landmark.c ****     .general.input.mem.start_offset = ((unsigned char *)(ATON_LIB_PHYSICAL_TO_VIRTUAL_ADDR(0x342000
 150:Model/hand_landmark.c ****     .general.input.format.is_signed = 1,
 151:Model/hand_landmark.c ****     /* "is" tensor-related info: */
 152:Model/hand_landmark.c ****     .is.mem.start_offset = ((unsigned char *)(ATON_LIB_PHYSICAL_TO_VIRTUAL_ADDR(0x70580000UL + 3324
 153:Model/hand_landmark.c ****     .is.format.is_signed = 1,
 154:Model/hand_landmark.c ****     .is.dim.num_elem = 1,
 155:Model/hand_landmark.c ****     /* "izp" tensor-related info: */
 156:Model/hand_landmark.c ****     .izp.mem.start_offset = ((unsigned char *)(ATON_LIB_PHYSICAL_TO_VIRTUAL_ADDR(0x70580000UL + 332
 157:Model/hand_landmark.c ****     .izp.format.is_signed = 1,
 158:Model/hand_landmark.c ****     .izp.dim.num_elem = 1,
 159:Model/hand_landmark.c ****     /* "general.output" tensor-related info: */
 160:Model/hand_landmark.c ****     .general.output.dim.tensor_b = 1,
 161:Model/hand_landmark.c ****     .general.output.dim.tensor_h = 1,
 162:Model/hand_landmark.c ****     .general.output.dim.tensor_w = 1,
 163:Model/hand_landmark.c ****     .general.output.dim.tensor_c = 1,
 164:Model/hand_landmark.c ****     .general.output.dim.num_elem = 1,
 165:Model/hand_landmark.c ****     .general.output.stride.b = 4,
 166:Model/hand_landmark.c ****     .general.output.stride.h = 4,
 167:Model/hand_landmark.c ****     .general.output.stride.w = 4,
 168:Model/hand_landmark.c ****     .general.output.stride.c = 4,
 169:Model/hand_landmark.c ****     .general.output.mem.start_offset = ((unsigned char *)(ATON_LIB_PHYSICAL_TO_VIRTUAL_ADDR(0x34200
 170:Model/hand_landmark.c ****     .general.output.format.is_signed = 1,
 171:Model/hand_landmark.c ****     .general.type = LL_SW_DEQUANTIZELINEAR,
 172:Model/hand_landmark.c ****   };
 173:Model/hand_landmark.c **** 
 174:Model/hand_landmark.c ****   /* Low Level SW Layer function invocation. This will exploit EmbedNets libs) */
 175:Model/hand_landmark.c ****   /* Node Dequantize_223 mapped on EmbedNets (INTEGER) as DequantizeLinear | Category: Format-Conve
 176:Model/hand_landmark.c ****   ll_sw_forward_dequantizelinear(&dequantizelinear1_sw_info);
 177:Model/hand_landmark.c ****   /* *** MCU cache clean (only) operation (SW, whole range) *** */
 178:Model/hand_landmark.c ****   /*     memory pool: 8 */
 179:Model/hand_landmark.c ****   /*     start: ((uintptr_t)(ATON_LIB_PHYSICAL_TO_VIRTUAL_ADDR(0x34200000UL + 576))) */
 180:Model/hand_landmark.c ****   /*     end:   ((uintptr_t)(ATON_LIB_PHYSICAL_TO_VIRTUAL_ADDR(0x34200000UL + 608))) */
 181:Model/hand_landmark.c ****   LL_ATON_Cache_MCU_Clean_Range(((uintptr_t)(ATON_LIB_PHYSICAL_TO_VIRTUAL_ADDR(0x34200000UL + 576))
 182:Model/hand_landmark.c **** 
 183:Model/hand_landmark.c **** }
 184:Model/hand_landmark.c **** 
 185:Model/hand_landmark.c **** 
 186:Model/hand_landmark.c **** /* scheduling epoch=65   nodes=1   ----------------------------------------------------------------
 187:Model/hand_landmark.c **** 
 188:Model/hand_landmark.c **** static void LL_ATON_End_EpochBlock_65(const void *epoch_block)
 189:Model/hand_landmark.c **** {
 190:Model/hand_landmark.c ****   /* *** MCU cache invalidate (only) operation for unaligned buffer end address (last line) *** */
 191:Model/hand_landmark.c ****   /*     memory pool: 8 */
 192:Model/hand_landmark.c ****   /*     start: ((uintptr_t)(ATON_LIB_PHYSICAL_TO_VIRTUAL_ADDR(0x34200000UL + 224))) */
 193:Model/hand_landmark.c ****   /*     end:   ((uintptr_t)(ATON_LIB_PHYSICAL_TO_VIRTUAL_ADDR(0x34200000UL + 256))) */
 194:Model/hand_landmark.c ****   LL_ATON_Cache_MCU_Invalidate_Range(((uintptr_t)(ATON_LIB_PHYSICAL_TO_VIRTUAL_ADDR(0x34200000UL + 
 195:Model/hand_landmark.c **** 
 196:Model/hand_landmark.c ****   LL_ATON_LIB_UNUSED(epoch_block);
ARM GAS  /tmp/ccAJFP7B.s 			page 5


 197:Model/hand_landmark.c **** 
 198:Model/hand_landmark.c **** 
 199:Model/hand_landmark.c **** /* Unit= 27 [PROCESSOR 0] */
 200:Model/hand_landmark.c **** /* kind=DequantizeLinear node=Dequantize_229 */
 201:Model/hand_landmark.c ****   Dequantizelinear_sw_info dequantizelinear2_sw_info = {
 202:Model/hand_landmark.c ****     /* "general.input" tensor-related info: */
 203:Model/hand_landmark.c ****     .general.input.dim.tensor_b = 1,
 204:Model/hand_landmark.c ****     .general.input.dim.tensor_h = 1,
 205:Model/hand_landmark.c ****     .general.input.dim.tensor_w = 1,
 206:Model/hand_landmark.c ****     .general.input.dim.tensor_c = 63,
 207:Model/hand_landmark.c ****     .general.input.dim.num_elem = 63,
 208:Model/hand_landmark.c ****     .general.input.stride.b = 63,
 209:Model/hand_landmark.c ****     .general.input.stride.h = 63,
 210:Model/hand_landmark.c ****     .general.input.stride.w = 1,
 211:Model/hand_landmark.c ****     .general.input.stride.c = 1,
 212:Model/hand_landmark.c ****     .general.input.mem.start_offset = ((unsigned char *)(ATON_LIB_PHYSICAL_TO_VIRTUAL_ADDR(0x342000
 213:Model/hand_landmark.c ****     .general.input.format.is_signed = 1,
 214:Model/hand_landmark.c ****     /* "is" tensor-related info: */
 215:Model/hand_landmark.c ****     .is.mem.start_offset = ((unsigned char *)(ATON_LIB_PHYSICAL_TO_VIRTUAL_ADDR(0x70580000UL + 3324
 216:Model/hand_landmark.c ****     .is.format.is_signed = 1,
 217:Model/hand_landmark.c ****     .is.dim.num_elem = 1,
 218:Model/hand_landmark.c ****     /* "izp" tensor-related info: */
 219:Model/hand_landmark.c ****     .izp.mem.start_offset = ((unsigned char *)(ATON_LIB_PHYSICAL_TO_VIRTUAL_ADDR(0x70580000UL + 332
 220:Model/hand_landmark.c ****     .izp.format.is_signed = 1,
 221:Model/hand_landmark.c ****     .izp.dim.num_elem = 1,
 222:Model/hand_landmark.c ****     /* "general.output" tensor-related info: */
 223:Model/hand_landmark.c ****     .general.output.dim.tensor_b = 1,
 224:Model/hand_landmark.c ****     .general.output.dim.tensor_h = 1,
 225:Model/hand_landmark.c ****     .general.output.dim.tensor_w = 1,
 226:Model/hand_landmark.c ****     .general.output.dim.tensor_c = 63,
 227:Model/hand_landmark.c ****     .general.output.dim.num_elem = 63,
 228:Model/hand_landmark.c ****     .general.output.stride.b = 252,
 229:Model/hand_landmark.c ****     .general.output.stride.h = 252,
 230:Model/hand_landmark.c ****     .general.output.stride.w = 4,
 231:Model/hand_landmark.c ****     .general.output.stride.c = 4,
 232:Model/hand_landmark.c ****     .general.output.mem.start_offset = ((unsigned char *)(ATON_LIB_PHYSICAL_TO_VIRTUAL_ADDR(0x34200
 233:Model/hand_landmark.c ****     .general.output.format.is_signed = 1,
 234:Model/hand_landmark.c ****     .general.type = LL_SW_DEQUANTIZELINEAR,
 235:Model/hand_landmark.c ****   };
 236:Model/hand_landmark.c **** 
 237:Model/hand_landmark.c ****   /* Low Level SW Layer function invocation. This will exploit EmbedNets libs) */
 238:Model/hand_landmark.c ****   /* Node Dequantize_229 mapped on EmbedNets (INTEGER) as DequantizeLinear | Category: Format-Conve
 239:Model/hand_landmark.c ****   ll_sw_forward_dequantizelinear(&dequantizelinear2_sw_info);
 240:Model/hand_landmark.c ****   /* *** MCU cache clean (only) operation (SW, whole range) *** */
 241:Model/hand_landmark.c ****   /*     memory pool: 8 */
 242:Model/hand_landmark.c ****   /*     start: ((uintptr_t)(ATON_LIB_PHYSICAL_TO_VIRTUAL_ADDR(0x34200000UL + 0))) */
 243:Model/hand_landmark.c ****   /*     end:   ((uintptr_t)(ATON_LIB_PHYSICAL_TO_VIRTUAL_ADDR(0x34200000UL + 256))) */
 244:Model/hand_landmark.c ****   LL_ATON_Cache_MCU_Clean_Range(((uintptr_t)(ATON_LIB_PHYSICAL_TO_VIRTUAL_ADDR(0x34200000UL + 0))) 
 245:Model/hand_landmark.c **** 
 246:Model/hand_landmark.c **** }
 247:Model/hand_landmark.c **** 
 248:Model/hand_landmark.c **** 
 249:Model/hand_landmark.c **** // Epoch Controller Blob (name='_ec_blob_66') micro instructions needed
 250:Model/hand_landmark.c **** 
 251:Model/hand_landmark.c **** // Epoch Controller Blob (name='_ec_blob_66') start function
 252:Model/hand_landmark.c **** static void _ec_blob_cache_start_func_66(const void *epoch_block) {
 253:Model/hand_landmark.c ****   LL_ATON_LIB_UNUSED(epoch_block);
ARM GAS  /tmp/ccAJFP7B.s 			page 6


 254:Model/hand_landmark.c **** 
 255:Model/hand_landmark.c ****   /* *** MCU cache invalidate (only) operation (HW, whole range) *** */
 256:Model/hand_landmark.c ****   /*     memory pool: 8 */
 257:Model/hand_landmark.c ****   /*     start: ((uintptr_t)(ATON_LIB_PHYSICAL_TO_VIRTUAL_ADDR(0x34200000UL + 512))) */
 258:Model/hand_landmark.c ****   /*     end:   ((uintptr_t)(ATON_LIB_PHYSICAL_TO_VIRTUAL_ADDR(0x34200000UL + 576))) */
 259:Model/hand_landmark.c ****   LL_ATON_Cache_MCU_Invalidate_Range(((uintptr_t)(ATON_LIB_PHYSICAL_TO_VIRTUAL_ADDR(0x34200000UL + 
 260:Model/hand_landmark.c **** 
 261:Model/hand_landmark.c **** };
 262:Model/hand_landmark.c **** 
 263:Model/hand_landmark.c **** 
 264:Model/hand_landmark.c **** /* scheduling epoch=67   nodes=1   ----------------------------------------------------------------
 265:Model/hand_landmark.c **** 
 266:Model/hand_landmark.c **** static void LL_ATON_End_EpochBlock_67(const void *epoch_block)
 267:Model/hand_landmark.c **** {
 268:Model/hand_landmark.c ****   /* *** MCU cache invalidate (only) operation for unaligned buffer end address (last line) *** */
 269:Model/hand_landmark.c ****   /*     memory pool: 8 */
 270:Model/hand_landmark.c ****   /*     start: ((uintptr_t)(ATON_LIB_PHYSICAL_TO_VIRTUAL_ADDR(0x34200000UL + 480))) */
 271:Model/hand_landmark.c ****   /*     end:   ((uintptr_t)(ATON_LIB_PHYSICAL_TO_VIRTUAL_ADDR(0x34200000UL + 512))) */
 272:Model/hand_landmark.c ****   LL_ATON_Cache_MCU_Invalidate_Range(((uintptr_t)(ATON_LIB_PHYSICAL_TO_VIRTUAL_ADDR(0x34200000UL + 
 273:Model/hand_landmark.c **** 
 274:Model/hand_landmark.c ****   LL_ATON_LIB_UNUSED(epoch_block);
 275:Model/hand_landmark.c **** 
 276:Model/hand_landmark.c **** 
 277:Model/hand_landmark.c **** /* Unit= 27 [PROCESSOR 0] */
 278:Model/hand_landmark.c **** /* kind=DequantizeLinear node=Dequantize_226 */
 279:Model/hand_landmark.c ****   Dequantizelinear_sw_info dequantizelinear3_sw_info = {
 280:Model/hand_landmark.c ****     /* "general.input" tensor-related info: */
 281:Model/hand_landmark.c ****     .general.input.dim.tensor_b = 1,
 282:Model/hand_landmark.c ****     .general.input.dim.tensor_h = 1,
 283:Model/hand_landmark.c ****     .general.input.dim.tensor_w = 1,
 284:Model/hand_landmark.c ****     .general.input.dim.tensor_c = 63,
 285:Model/hand_landmark.c ****     .general.input.dim.num_elem = 63,
 286:Model/hand_landmark.c ****     .general.input.stride.b = 63,
 287:Model/hand_landmark.c ****     .general.input.stride.h = 63,
 288:Model/hand_landmark.c ****     .general.input.stride.w = 1,
 289:Model/hand_landmark.c ****     .general.input.stride.c = 1,
 290:Model/hand_landmark.c ****     .general.input.mem.start_offset = ((unsigned char *)(ATON_LIB_PHYSICAL_TO_VIRTUAL_ADDR(0x342000
 291:Model/hand_landmark.c ****     .general.input.format.is_signed = 1,
 292:Model/hand_landmark.c ****     /* "is" tensor-related info: */
 293:Model/hand_landmark.c ****     .is.mem.start_offset = ((unsigned char *)(ATON_LIB_PHYSICAL_TO_VIRTUAL_ADDR(0x70580000UL + 3324
 294:Model/hand_landmark.c ****     .is.format.is_signed = 1,
 295:Model/hand_landmark.c ****     .is.dim.num_elem = 1,
 296:Model/hand_landmark.c ****     /* "izp" tensor-related info: */
 297:Model/hand_landmark.c ****     .izp.mem.start_offset = ((unsigned char *)(ATON_LIB_PHYSICAL_TO_VIRTUAL_ADDR(0x70580000UL + 332
 298:Model/hand_landmark.c ****     .izp.format.is_signed = 1,
 299:Model/hand_landmark.c ****     .izp.dim.num_elem = 1,
 300:Model/hand_landmark.c ****     /* "general.output" tensor-related info: */
 301:Model/hand_landmark.c ****     .general.output.dim.tensor_b = 1,
 302:Model/hand_landmark.c ****     .general.output.dim.tensor_h = 1,
 303:Model/hand_landmark.c ****     .general.output.dim.tensor_w = 1,
 304:Model/hand_landmark.c ****     .general.output.dim.tensor_c = 63,
 305:Model/hand_landmark.c ****     .general.output.dim.num_elem = 63,
 306:Model/hand_landmark.c ****     .general.output.stride.b = 252,
 307:Model/hand_landmark.c ****     .general.output.stride.h = 252,
 308:Model/hand_landmark.c ****     .general.output.stride.w = 4,
 309:Model/hand_landmark.c ****     .general.output.stride.c = 4,
 310:Model/hand_landmark.c ****     .general.output.mem.start_offset = ((unsigned char *)(ATON_LIB_PHYSICAL_TO_VIRTUAL_ADDR(0x34200
ARM GAS  /tmp/ccAJFP7B.s 			page 7


 311:Model/hand_landmark.c ****     .general.output.format.is_signed = 1,
 312:Model/hand_landmark.c ****     .general.type = LL_SW_DEQUANTIZELINEAR,
 313:Model/hand_landmark.c ****   };
 314:Model/hand_landmark.c **** 
 315:Model/hand_landmark.c ****   /* Low Level SW Layer function invocation. This will exploit EmbedNets libs) */
 316:Model/hand_landmark.c ****   /* Node Dequantize_226 mapped on EmbedNets (INTEGER) as DequantizeLinear | Category: Format-Conve
 317:Model/hand_landmark.c ****   ll_sw_forward_dequantizelinear(&dequantizelinear3_sw_info);
 318:Model/hand_landmark.c ****   /* *** MCU cache clean (only) operation (SW, whole range) *** */
 319:Model/hand_landmark.c ****   /*     memory pool: 8 */
 320:Model/hand_landmark.c ****   /*     start: ((uintptr_t)(ATON_LIB_PHYSICAL_TO_VIRTUAL_ADDR(0x34200000UL + 256))) */
 321:Model/hand_landmark.c ****   /*     end:   ((uintptr_t)(ATON_LIB_PHYSICAL_TO_VIRTUAL_ADDR(0x34200000UL + 512))) */
 322:Model/hand_landmark.c ****   LL_ATON_Cache_MCU_Clean_Range(((uintptr_t)(ATON_LIB_PHYSICAL_TO_VIRTUAL_ADDR(0x34200000UL + 256))
 323:Model/hand_landmark.c **** 
 324:Model/hand_landmark.c **** }
 325:Model/hand_landmark.c **** 
 326:Model/hand_landmark.c **** 
 327:Model/hand_landmark.c **** // Epoch Controller Blob (name='_ec_blob_68') micro instructions needed
 328:Model/hand_landmark.c **** 
 329:Model/hand_landmark.c **** // Epoch Controller Blob (name='_ec_blob_68') start function
 330:Model/hand_landmark.c **** static void _ec_blob_cache_start_func_68(const void *epoch_block) {
  34              		.loc 1 330 67 view -0
  35              		.cfi_startproc
  36              		@ args = 0, pretend = 0, frame = 0
  37              		@ frame_needed = 0, uses_anonymous_args = 0
  38              		@ link register save eliminated.
 331:Model/hand_landmark.c ****   LL_ATON_LIB_UNUSED(epoch_block);
  39              		.loc 1 331 3 view .LVU1
 332:Model/hand_landmark.c **** 
 333:Model/hand_landmark.c ****   /* *** MCU cache invalidate (only) operation (HW, whole range) *** */
 334:Model/hand_landmark.c ****   /*     memory pool: 8 */
 335:Model/hand_landmark.c ****   /*     start: ((uintptr_t)(ATON_LIB_PHYSICAL_TO_VIRTUAL_ADDR(0x34200000UL + 512))) */
 336:Model/hand_landmark.c ****   /*     end:   ((uintptr_t)(ATON_LIB_PHYSICAL_TO_VIRTUAL_ADDR(0x34200000UL + 544))) */
 337:Model/hand_landmark.c ****   LL_ATON_Cache_MCU_Invalidate_Range(((uintptr_t)(ATON_LIB_PHYSICAL_TO_VIRTUAL_ADDR(0x34200000UL + 
  40              		.loc 1 337 3 view .LVU2
  41              	.LBB24:
  42              	.LBI24:
  43              		.file 2 "Lib/AI_Runtime/Npu/ll_aton/ll_aton_caches_interface.h"
   1:Lib/AI_Runtime/Npu/ll_aton/ll_aton_caches_interface.h **** /**
   2:Lib/AI_Runtime/Npu/ll_aton/ll_aton_caches_interface.h ****  ******************************************************************************
   3:Lib/AI_Runtime/Npu/ll_aton/ll_aton_caches_interface.h ****  * @file    ll_aton_caches_interface.h
   4:Lib/AI_Runtime/Npu/ll_aton/ll_aton_caches_interface.h ****  * @author  SRA Artificial Intelligence & Embedded Architectures
   5:Lib/AI_Runtime/Npu/ll_aton/ll_aton_caches_interface.h ****  * @brief   Header file for defining an implementing generic cache handling
   6:Lib/AI_Runtime/Npu/ll_aton/ll_aton_caches_interface.h ****  *          functions for the application writer
   7:Lib/AI_Runtime/Npu/ll_aton/ll_aton_caches_interface.h ****  ******************************************************************************
   8:Lib/AI_Runtime/Npu/ll_aton/ll_aton_caches_interface.h ****  * @attention
   9:Lib/AI_Runtime/Npu/ll_aton/ll_aton_caches_interface.h ****  *
  10:Lib/AI_Runtime/Npu/ll_aton/ll_aton_caches_interface.h ****  * Copyright (c) 2024 STMicroelectronics.
  11:Lib/AI_Runtime/Npu/ll_aton/ll_aton_caches_interface.h ****  * All rights reserved.
  12:Lib/AI_Runtime/Npu/ll_aton/ll_aton_caches_interface.h ****  *
  13:Lib/AI_Runtime/Npu/ll_aton/ll_aton_caches_interface.h ****  * This software is licensed under terms that can be found in the LICENSE file
  14:Lib/AI_Runtime/Npu/ll_aton/ll_aton_caches_interface.h ****  * in the root directory of this software component.
  15:Lib/AI_Runtime/Npu/ll_aton/ll_aton_caches_interface.h ****  * If no LICENSE file comes with this software, it is provided AS-IS.
  16:Lib/AI_Runtime/Npu/ll_aton/ll_aton_caches_interface.h ****  *
  17:Lib/AI_Runtime/Npu/ll_aton/ll_aton_caches_interface.h ****  ******************************************************************************
  18:Lib/AI_Runtime/Npu/ll_aton/ll_aton_caches_interface.h ****  */
  19:Lib/AI_Runtime/Npu/ll_aton/ll_aton_caches_interface.h **** 
  20:Lib/AI_Runtime/Npu/ll_aton/ll_aton_caches_interface.h **** #ifndef __LL_ATON_CACHES_H
ARM GAS  /tmp/ccAJFP7B.s 			page 8


  21:Lib/AI_Runtime/Npu/ll_aton/ll_aton_caches_interface.h **** #define __LL_ATON_CACHES_H
  22:Lib/AI_Runtime/Npu/ll_aton/ll_aton_caches_interface.h **** 
  23:Lib/AI_Runtime/Npu/ll_aton/ll_aton_caches_interface.h **** #include <stdint.h>
  24:Lib/AI_Runtime/Npu/ll_aton/ll_aton_caches_interface.h **** 
  25:Lib/AI_Runtime/Npu/ll_aton/ll_aton_caches_interface.h **** #include "ll_aton_osal.h"
  26:Lib/AI_Runtime/Npu/ll_aton/ll_aton_caches_interface.h **** #include "ll_aton_platform.h"
  27:Lib/AI_Runtime/Npu/ll_aton/ll_aton_caches_interface.h **** 
  28:Lib/AI_Runtime/Npu/ll_aton/ll_aton_caches_interface.h **** #ifdef __cplusplus
  29:Lib/AI_Runtime/Npu/ll_aton/ll_aton_caches_interface.h **** extern "C"
  30:Lib/AI_Runtime/Npu/ll_aton/ll_aton_caches_interface.h **** {
  31:Lib/AI_Runtime/Npu/ll_aton/ll_aton_caches_interface.h **** #endif
  32:Lib/AI_Runtime/Npu/ll_aton/ll_aton_caches_interface.h **** 
  33:Lib/AI_Runtime/Npu/ll_aton/ll_aton_caches_interface.h **** #if (LL_ATON_PLATFORM == LL_ATON_PLAT_STM32N6)
  34:Lib/AI_Runtime/Npu/ll_aton/ll_aton_caches_interface.h **** 
  35:Lib/AI_Runtime/Npu/ll_aton/ll_aton_caches_interface.h ****   /*
  36:Lib/AI_Runtime/Npu/ll_aton/ll_aton_caches_interface.h ****    * Note: For relocatable mode, the fcts are implemented in the ll_aton_reloc_callbacks.c.
  37:Lib/AI_Runtime/Npu/ll_aton/ll_aton_caches_interface.h ****    *       Only the declaration is requested here, to avoid to inline them the relocatable binary m
  38:Lib/AI_Runtime/Npu/ll_aton/ll_aton_caches_interface.h ****    */
  39:Lib/AI_Runtime/Npu/ll_aton/ll_aton_caches_interface.h **** 
  40:Lib/AI_Runtime/Npu/ll_aton/ll_aton_caches_interface.h **** /*** MCU cache maintenance functions ***/
  41:Lib/AI_Runtime/Npu/ll_aton/ll_aton_caches_interface.h **** 
  42:Lib/AI_Runtime/Npu/ll_aton/ll_aton_caches_interface.h **** /**
  43:Lib/AI_Runtime/Npu/ll_aton/ll_aton_caches_interface.h ****  * @brief perform MCU cache clean maintenance operation on an address range
  44:Lib/AI_Runtime/Npu/ll_aton/ll_aton_caches_interface.h ****  * @details whenever the content of a buffer is changed by the application (which is especially the
  45:Lib/AI_Runtime/Npu/ll_aton/ll_aton_caches_interface.h ****  *          buffers) cache maintenance MUST be taken into account before being able to run the netw
  46:Lib/AI_Runtime/Npu/ll_aton/ll_aton_caches_interface.h ****  * @param[in] virtual_addr start address (host-side/virtual) of address range
  47:Lib/AI_Runtime/Npu/ll_aton/ll_aton_caches_interface.h ****  * @param[in] size size of address range
  48:Lib/AI_Runtime/Npu/ll_aton/ll_aton_caches_interface.h ****  *
  49:Lib/AI_Runtime/Npu/ll_aton/ll_aton_caches_interface.h ****  * @note the address range should fulfill alignment constraints with respect to the MCU cache line 
  50:Lib/AI_Runtime/Npu/ll_aton/ll_aton_caches_interface.h ****  *       for both its `address` & `size` (to better correspond to what this operation will actually
  51:Lib/AI_Runtime/Npu/ll_aton/ll_aton_caches_interface.h ****  * @note this function is intended to handle the case where a buffer has been filled by the MCU/pro
  52:Lib/AI_Runtime/Npu/ll_aton/ll_aton_caches_interface.h ****  *       passing thru the MCU cache) and should be called AFTER that the buffer has been filled
  53:Lib/AI_Runtime/Npu/ll_aton/ll_aton_caches_interface.h ****  */
  54:Lib/AI_Runtime/Npu/ll_aton/ll_aton_caches_interface.h **** #if defined(LL_ATON_RT_RELOC) && defined(BUILD_AI_NETWORK_RELOC)
  55:Lib/AI_Runtime/Npu/ll_aton/ll_aton_caches_interface.h ****   void LL_ATON_Cache_MCU_Clean_Range(uintptr_t virtual_addr, uint32_t size);
  56:Lib/AI_Runtime/Npu/ll_aton/ll_aton_caches_interface.h **** #else
  57:Lib/AI_Runtime/Npu/ll_aton/ll_aton_caches_interface.h ****   static inline void LL_ATON_Cache_MCU_Clean_Range(uintptr_t virtual_addr, uint32_t size)
  58:Lib/AI_Runtime/Npu/ll_aton/ll_aton_caches_interface.h ****   {
  59:Lib/AI_Runtime/Npu/ll_aton/ll_aton_caches_interface.h ****     LL_ATON_OSAL_LOCK_MCU_CACHE();
  60:Lib/AI_Runtime/Npu/ll_aton/ll_aton_caches_interface.h ****     mcu_cache_clean_range(virtual_addr, virtual_addr + size);
  61:Lib/AI_Runtime/Npu/ll_aton/ll_aton_caches_interface.h ****     LL_ATON_OSAL_UNLOCK_MCU_CACHE();
  62:Lib/AI_Runtime/Npu/ll_aton/ll_aton_caches_interface.h ****   }
  63:Lib/AI_Runtime/Npu/ll_aton/ll_aton_caches_interface.h **** #endif
  64:Lib/AI_Runtime/Npu/ll_aton/ll_aton_caches_interface.h **** 
  65:Lib/AI_Runtime/Npu/ll_aton/ll_aton_caches_interface.h **** /**
  66:Lib/AI_Runtime/Npu/ll_aton/ll_aton_caches_interface.h ****  * @brief perform MCU cache invalidate maintenance operation on an address range
  67:Lib/AI_Runtime/Npu/ll_aton/ll_aton_caches_interface.h ****  * @details whenever the content of a buffer is changed by the application (which is especially the
  68:Lib/AI_Runtime/Npu/ll_aton/ll_aton_caches_interface.h ****  *          buffers) cache maintenance MUST be taken into account before being able to run the netw
  69:Lib/AI_Runtime/Npu/ll_aton/ll_aton_caches_interface.h ****  * @param[in] virtual_addr start address (host-side/virtual) of address range
  70:Lib/AI_Runtime/Npu/ll_aton/ll_aton_caches_interface.h ****  * @param[in] size size of address range
  71:Lib/AI_Runtime/Npu/ll_aton/ll_aton_caches_interface.h ****  *
  72:Lib/AI_Runtime/Npu/ll_aton/ll_aton_caches_interface.h ****  * @note the address range should fulfill alignment constraints with respect to the MCU cache line 
  73:Lib/AI_Runtime/Npu/ll_aton/ll_aton_caches_interface.h ****  *       for both its `address` & `size` (to better correspond to what this operation will actually
  74:Lib/AI_Runtime/Npu/ll_aton/ll_aton_caches_interface.h ****  * @note this function is intended to handle the case where a buffer has been filled by-passing the
  75:Lib/AI_Runtime/Npu/ll_aton/ll_aton_caches_interface.h ****  *       cache (e.g. using a DMA) and should be called BEFORE the buffer gets filled
  76:Lib/AI_Runtime/Npu/ll_aton/ll_aton_caches_interface.h ****  */
  77:Lib/AI_Runtime/Npu/ll_aton/ll_aton_caches_interface.h **** #if defined(LL_ATON_RT_RELOC) && defined(BUILD_AI_NETWORK_RELOC)
ARM GAS  /tmp/ccAJFP7B.s 			page 9


  78:Lib/AI_Runtime/Npu/ll_aton/ll_aton_caches_interface.h ****   void LL_ATON_Cache_MCU_Invalidate_Range(uintptr_t virtual_addr, uint32_t size);
  79:Lib/AI_Runtime/Npu/ll_aton/ll_aton_caches_interface.h **** #else
  80:Lib/AI_Runtime/Npu/ll_aton/ll_aton_caches_interface.h ****   static inline void LL_ATON_Cache_MCU_Invalidate_Range(uintptr_t virtual_addr, uint32_t size)
  44              		.loc 2 80 22 view .LVU3
  45              	.LBB25:
  81:Lib/AI_Runtime/Npu/ll_aton/ll_aton_caches_interface.h ****   {
  82:Lib/AI_Runtime/Npu/ll_aton/ll_aton_caches_interface.h ****     LL_ATON_OSAL_LOCK_MCU_CACHE();
  46              		.loc 2 82 34 view .LVU4
  83:Lib/AI_Runtime/Npu/ll_aton/ll_aton_caches_interface.h ****     mcu_cache_invalidate_range(virtual_addr, virtual_addr + size);
  47              		.loc 2 83 5 view .LVU5
  48 0000 0149     		ldr	r1, .L2
  49 0002 0248     		ldr	r0, .L2+4
  50              	.LVL1:
  51              		.loc 2 83 5 is_stmt 0 view .LVU6
  52 0004 FFF7FEBF 		b	mcu_cache_invalidate_range
  53              	.LVL2:
  54              	.L3:
  55              		.align	2
  56              	.L2:
  57 0008 20022034 		.word	874512928
  58 000c 00022034 		.word	874512896
  59              	.LBE25:
  60              	.LBE24:
  61              		.cfi_endproc
  62              	.LFE4847:
  64              		.section	.text._ec_blob_cache_start_func_66,"ax",%progbits
  65              		.align	1
  66              		.syntax unified
  67              		.thumb
  68              		.thumb_func
  70              	_ec_blob_cache_start_func_66:
  71              	.LVL3:
  72              	.LFB4845:
 252:Model/hand_landmark.c ****   LL_ATON_LIB_UNUSED(epoch_block);
  73              		.loc 1 252 67 is_stmt 1 view -0
  74              		.cfi_startproc
  75              		@ args = 0, pretend = 0, frame = 0
  76              		@ frame_needed = 0, uses_anonymous_args = 0
  77              		@ link register save eliminated.
 253:Model/hand_landmark.c **** 
  78              		.loc 1 253 3 view .LVU8
 259:Model/hand_landmark.c **** 
  79              		.loc 1 259 3 view .LVU9
  80              	.LBB26:
  81              	.LBI26:
  80:Lib/AI_Runtime/Npu/ll_aton/ll_aton_caches_interface.h ****   {
  82              		.loc 2 80 22 view .LVU10
  83              	.LBB27:
  82:Lib/AI_Runtime/Npu/ll_aton/ll_aton_caches_interface.h ****     mcu_cache_invalidate_range(virtual_addr, virtual_addr + size);
  84              		.loc 2 82 34 view .LVU11
  85              		.loc 2 83 5 view .LVU12
  86 0000 0149     		ldr	r1, .L5
  87 0002 0248     		ldr	r0, .L5+4
  88              	.LVL4:
  89              		.loc 2 83 5 is_stmt 0 view .LVU13
  90 0004 FFF7FEBF 		b	mcu_cache_invalidate_range
  91              	.LVL5:
ARM GAS  /tmp/ccAJFP7B.s 			page 10


  92              	.L6:
  93              		.align	2
  94              	.L5:
  95 0008 40022034 		.word	874512960
  96 000c 00022034 		.word	874512896
  97              	.LBE27:
  98              	.LBE26:
  99              		.cfi_endproc
 100              	.LFE4845:
 102              		.section	.text._ec_blob_cache_start_func_1,"ax",%progbits
 103              		.align	1
 104              		.syntax unified
 105              		.thumb
 106              		.thumb_func
 108              	_ec_blob_cache_start_func_1:
 109              	.LVL6:
 110              	.LFB4842:
 111:Model/hand_landmark.c ****   LL_ATON_LIB_UNUSED(epoch_block);
 111              		.loc 1 111 66 is_stmt 1 view -0
 112              		.cfi_startproc
 113              		@ args = 0, pretend = 0, frame = 0
 114              		@ frame_needed = 0, uses_anonymous_args = 0
 115              		@ link register save eliminated.
 112:Model/hand_landmark.c **** 
 116              		.loc 1 112 3 view .LVU15
 118:Model/hand_landmark.c **** 
 117              		.loc 1 118 3 view .LVU16
 118              	.LBB28:
 119              	.LBI28:
  80:Lib/AI_Runtime/Npu/ll_aton/ll_aton_caches_interface.h ****   {
 120              		.loc 2 80 22 view .LVU17
 121              	.LBB29:
  82:Lib/AI_Runtime/Npu/ll_aton/ll_aton_caches_interface.h ****     mcu_cache_invalidate_range(virtual_addr, virtual_addr + size);
 122              		.loc 2 82 34 view .LVU18
 123              		.loc 2 83 5 view .LVU19
 124 0000 0149     		ldr	r1, .L8
 125 0002 0248     		ldr	r0, .L8+4
 126              	.LVL7:
 127              		.loc 2 83 5 is_stmt 0 view .LVU20
 128 0004 FFF7FEBF 		b	mcu_cache_invalidate_range
 129              	.LVL8:
 130              	.L9:
 131              		.align	2
 132              	.L8:
 133 0008 E0122034 		.word	874517216
 134 000c 80122034 		.word	874517120
 135              	.LBE29:
 136              	.LBE28:
 137              		.cfi_endproc
 138              	.LFE4842:
 140              		.section	.text.LL_ATON_End_EpochBlock_69,"ax",%progbits
 141              		.align	1
 142              		.syntax unified
 143              		.thumb
 144              		.thumb_func
 146              	LL_ATON_End_EpochBlock_69:
 147              	.LVL9:
ARM GAS  /tmp/ccAJFP7B.s 			page 11


 148              	.LFB4848:
 338:Model/hand_landmark.c **** 
 339:Model/hand_landmark.c **** };
 340:Model/hand_landmark.c **** 
 341:Model/hand_landmark.c **** 
 342:Model/hand_landmark.c **** /* scheduling epoch=69   nodes=1   ----------------------------------------------------------------
 343:Model/hand_landmark.c **** 
 344:Model/hand_landmark.c **** static void LL_ATON_End_EpochBlock_69(const void *epoch_block)
 345:Model/hand_landmark.c **** {
 149              		.loc 1 345 1 is_stmt 1 view -0
 150              		.cfi_startproc
 151              		@ args = 0, pretend = 0, frame = 184
 152              		@ frame_needed = 0, uses_anonymous_args = 0
 346:Model/hand_landmark.c ****   /* *** MCU cache invalidate (only) operation for unaligned buffer start or end address (only line
 347:Model/hand_landmark.c ****   /*     memory pool: 8 */
 348:Model/hand_landmark.c ****   /*     start: ((uintptr_t)(ATON_LIB_PHYSICAL_TO_VIRTUAL_ADDR(0x34200000UL + 512))) */
 349:Model/hand_landmark.c ****   /*     end:   ((uintptr_t)(ATON_LIB_PHYSICAL_TO_VIRTUAL_ADDR(0x34200000UL + 544))) */
 350:Model/hand_landmark.c ****   LL_ATON_Cache_MCU_Invalidate_Range(((uintptr_t)(ATON_LIB_PHYSICAL_TO_VIRTUAL_ADDR(0x34200000UL + 
 153              		.loc 1 350 3 view .LVU22
 154              	.LBB30:
 155              	.LBI30:
  80:Lib/AI_Runtime/Npu/ll_aton/ll_aton_caches_interface.h ****   {
 156              		.loc 2 80 22 view .LVU23
 157              	.LBB31:
  82:Lib/AI_Runtime/Npu/ll_aton/ll_aton_caches_interface.h ****     mcu_cache_invalidate_range(virtual_addr, virtual_addr + size);
 158              		.loc 2 82 34 view .LVU24
 159              		.loc 2 83 5 view .LVU25
 160              	.LBE31:
 161              	.LBE30:
 345:Model/hand_landmark.c ****   /* *** MCU cache invalidate (only) operation for unaligned buffer start or end address (only line
 162              		.loc 1 345 1 is_stmt 0 view .LVU26
 163 0000 30B5     		push	{r4, r5, lr}
 164              		.cfi_def_cfa_offset 12
 165              		.cfi_offset 4, -12
 166              		.cfi_offset 5, -8
 167              		.cfi_offset 14, -4
 168              	.LBB34:
 169              	.LBB32:
 170              		.loc 2 83 5 view .LVU27
 171 0002 1E4C     		ldr	r4, .L11
 172 0004 1E4D     		ldr	r5, .L11+4
 173              	.LBE32:
 174              	.LBE34:
 345:Model/hand_landmark.c ****   /* *** MCU cache invalidate (only) operation for unaligned buffer start or end address (only line
 175              		.loc 1 345 1 view .LVU28
 176 0006 AFB0     		sub	sp, sp, #188
 177              		.cfi_def_cfa_offset 200
 178              	.LBB35:
 179              	.LBB33:
 180              		.loc 2 83 5 view .LVU29
 181 0008 2946     		mov	r1, r5
 182 000a 2046     		mov	r0, r4
 183              	.LVL10:
 184              		.loc 2 83 5 view .LVU30
 185 000c FFF7FEFF 		bl	mcu_cache_invalidate_range
 186              	.LVL11:
  84:Lib/AI_Runtime/Npu/ll_aton/ll_aton_caches_interface.h ****     LL_ATON_OSAL_UNLOCK_MCU_CACHE();
ARM GAS  /tmp/ccAJFP7B.s 			page 12


 187              		.loc 2 84 36 is_stmt 1 view .LVU31
 188              		.loc 2 84 36 is_stmt 0 view .LVU32
 189              	.LBE33:
 190              	.LBE35:
 351:Model/hand_landmark.c **** 
 352:Model/hand_landmark.c ****   LL_ATON_LIB_UNUSED(epoch_block);
 191              		.loc 1 352 3 is_stmt 1 view .LVU33
 353:Model/hand_landmark.c **** 
 354:Model/hand_landmark.c **** 
 355:Model/hand_landmark.c **** /* Unit= 27 [PROCESSOR 0] */
 356:Model/hand_landmark.c **** /* kind=DequantizeLinear node=Dequantize_219 */
 357:Model/hand_landmark.c ****   Dequantizelinear_sw_info dequantizelinear4_sw_info = {
 192              		.loc 1 357 3 view .LVU34
 193              		.loc 1 357 28 is_stmt 0 view .LVU35
 194 0010 0021     		movs	r1, #0
 195 0012 B422     		movs	r2, #180
 196 0014 01A8     		add	r0, sp, #4
 197 0016 FFF7FEFF 		bl	memset
 198              	.LVL12:
 199 001a 2A23     		movs	r3, #42
 200 001c 194A     		ldr	r2, .L11+8
 201 001e 8DF80430 		strb	r3, [sp, #4]
 202 0022 0B92     		str	r2, [sp, #44]
 203 0024 0422     		movs	r2, #4
 204 0026 0123     		movs	r3, #1
 205 0028 CDE91222 		strd	r2, r2, [sp, #72]
 206 002c CDE91422 		strd	r2, r2, [sp, #80]
 207 0030 154A     		ldr	r2, .L11+12
 358:Model/hand_landmark.c ****     /* "general.input" tensor-related info: */
 359:Model/hand_landmark.c ****     .general.input.dim.tensor_b = 1,
 360:Model/hand_landmark.c ****     .general.input.dim.tensor_h = 1,
 361:Model/hand_landmark.c ****     .general.input.dim.tensor_w = 1,
 362:Model/hand_landmark.c ****     .general.input.dim.tensor_c = 1,
 363:Model/hand_landmark.c ****     .general.input.dim.num_elem = 1,
 364:Model/hand_landmark.c ****     .general.input.stride.b = 1,
 365:Model/hand_landmark.c ****     .general.input.stride.h = 1,
 366:Model/hand_landmark.c ****     .general.input.stride.w = 1,
 367:Model/hand_landmark.c ****     .general.input.stride.c = 1,
 368:Model/hand_landmark.c ****     .general.input.mem.start_offset = ((unsigned char *)(ATON_LIB_PHYSICAL_TO_VIRTUAL_ADDR(0x342000
 369:Model/hand_landmark.c ****     .general.input.format.is_signed = 1,
 370:Model/hand_landmark.c ****     /* "is" tensor-related info: */
 371:Model/hand_landmark.c ****     .is.mem.start_offset = ((unsigned char *)(ATON_LIB_PHYSICAL_TO_VIRTUAL_ADDR(0x70580000UL + 3324
 372:Model/hand_landmark.c ****     .is.format.is_signed = 1,
 373:Model/hand_landmark.c ****     .is.dim.num_elem = 1,
 374:Model/hand_landmark.c ****     /* "izp" tensor-related info: */
 375:Model/hand_landmark.c ****     .izp.mem.start_offset = ((unsigned char *)(ATON_LIB_PHYSICAL_TO_VIRTUAL_ADDR(0x70580000UL + 332
 376:Model/hand_landmark.c ****     .izp.format.is_signed = 1,
 377:Model/hand_landmark.c ****     .izp.dim.num_elem = 1,
 378:Model/hand_landmark.c ****     /* "general.output" tensor-related info: */
 379:Model/hand_landmark.c ****     .general.output.dim.tensor_b = 1,
 380:Model/hand_landmark.c ****     .general.output.dim.tensor_h = 1,
 381:Model/hand_landmark.c ****     .general.output.dim.tensor_w = 1,
 382:Model/hand_landmark.c ****     .general.output.dim.tensor_c = 1,
 383:Model/hand_landmark.c ****     .general.output.dim.num_elem = 1,
 384:Model/hand_landmark.c ****     .general.output.stride.b = 4,
 385:Model/hand_landmark.c ****     .general.output.stride.h = 4,
 386:Model/hand_landmark.c ****     .general.output.stride.w = 4,
ARM GAS  /tmp/ccAJFP7B.s 			page 13


 387:Model/hand_landmark.c ****     .general.output.stride.c = 4,
 388:Model/hand_landmark.c ****     .general.output.mem.start_offset = ((unsigned char *)(ATON_LIB_PHYSICAL_TO_VIRTUAL_ADDR(0x34200
 389:Model/hand_landmark.c ****     .general.output.format.is_signed = 1,
 390:Model/hand_landmark.c ****     .general.type = LL_SW_DEQUANTIZELINEAR,
 391:Model/hand_landmark.c ****   };
 392:Model/hand_landmark.c **** 
 393:Model/hand_landmark.c ****   /* Low Level SW Layer function invocation. This will exploit EmbedNets libs) */
 394:Model/hand_landmark.c ****   /* Node Dequantize_219 mapped on EmbedNets (INTEGER) as DequantizeLinear | Category: Format-Conve
 395:Model/hand_landmark.c ****   ll_sw_forward_dequantizelinear(&dequantizelinear4_sw_info);
 208              		.loc 1 395 3 view .LVU36
 209 0032 01A8     		add	r0, sp, #4
 357:Model/hand_landmark.c ****     /* "general.input" tensor-related info: */
 210              		.loc 1 357 28 view .LVU37
 211 0034 2192     		str	r2, [sp, #132]
 212 0036 4032     		adds	r2, r2, #64
 213 0038 CDE90233 		strd	r3, r3, [sp, #8]
 214 003c CDE90433 		strd	r3, r3, [sp, #16]
 215 0040 CDE90633 		strd	r3, r3, [sp, #24]
 216 0044 CDE90833 		strd	r3, r3, [sp, #32]
 217 0048 CDE90D33 		strd	r3, r3, [sp, #52]
 218 004c CDE90F33 		strd	r3, r3, [sp, #60]
 219 0050 0A93     		str	r3, [sp, #40]
 220 0052 8DF83030 		strb	r3, [sp, #48]
 221 0056 1193     		str	r3, [sp, #68]
 222 0058 8DF85C30 		strb	r3, [sp, #92]
 223 005c 1C93     		str	r3, [sp, #112]
 224 005e 8DF88830 		strb	r3, [sp, #136]
 225 0062 2793     		str	r3, [sp, #156]
 226 0064 2C92     		str	r2, [sp, #176]
 227 0066 8DF8B430 		strb	r3, [sp, #180]
 228              		.loc 1 395 3 is_stmt 1 view .LVU38
 357:Model/hand_landmark.c ****     /* "general.input" tensor-related info: */
 229              		.loc 1 357 28 is_stmt 0 view .LVU39
 230 006a 1694     		str	r4, [sp, #88]
 231              		.loc 1 395 3 view .LVU40
 232 006c FFF7FEFF 		bl	ll_sw_forward_dequantizelinear
 233              	.LVL13:
 396:Model/hand_landmark.c ****   /* *** MCU cache clean (only) operation (SW, whole range) *** */
 397:Model/hand_landmark.c ****   /*     memory pool: 8 */
 398:Model/hand_landmark.c ****   /*     start: ((uintptr_t)(ATON_LIB_PHYSICAL_TO_VIRTUAL_ADDR(0x34200000UL + 512))) */
 399:Model/hand_landmark.c ****   /*     end:   ((uintptr_t)(ATON_LIB_PHYSICAL_TO_VIRTUAL_ADDR(0x34200000UL + 544))) */
 400:Model/hand_landmark.c ****   LL_ATON_Cache_MCU_Clean_Range(((uintptr_t)(ATON_LIB_PHYSICAL_TO_VIRTUAL_ADDR(0x34200000UL + 512))
 234              		.loc 1 400 3 is_stmt 1 view .LVU41
 235              	.LBB36:
 236              	.LBI36:
  57:Lib/AI_Runtime/Npu/ll_aton/ll_aton_caches_interface.h ****   {
 237              		.loc 2 57 22 view .LVU42
 238              	.LBB37:
  59:Lib/AI_Runtime/Npu/ll_aton/ll_aton_caches_interface.h ****     mcu_cache_clean_range(virtual_addr, virtual_addr + size);
 239              		.loc 2 59 34 view .LVU43
  60:Lib/AI_Runtime/Npu/ll_aton/ll_aton_caches_interface.h ****     LL_ATON_OSAL_UNLOCK_MCU_CACHE();
 240              		.loc 2 60 5 view .LVU44
 241 0070 2946     		mov	r1, r5
 242 0072 2046     		mov	r0, r4
 243 0074 FFF7FEFF 		bl	mcu_cache_clean_range
 244              	.LVL14:
  61:Lib/AI_Runtime/Npu/ll_aton/ll_aton_caches_interface.h ****   }
ARM GAS  /tmp/ccAJFP7B.s 			page 14


 245              		.loc 2 61 36 view .LVU45
  61:Lib/AI_Runtime/Npu/ll_aton/ll_aton_caches_interface.h ****   }
 246              		.loc 2 61 36 is_stmt 0 view .LVU46
 247              	.LBE37:
 248              	.LBE36:
 401:Model/hand_landmark.c **** 
 402:Model/hand_landmark.c **** }
 249              		.loc 1 402 1 view .LVU47
 250 0078 2FB0     		add	sp, sp, #188
 251              		.cfi_def_cfa_offset 12
 252              		@ sp needed
 253 007a 30BD     		pop	{r4, r5, pc}
 254              	.L12:
 255              		.align	2
 256              	.L11:
 257 007c 00022034 		.word	874512896
 258 0080 20022034 		.word	874512928
 259 0084 10022034 		.word	874512912
 260 0088 90B98A70 		.word	1888139664
 261              		.cfi_endproc
 262              	.LFE4848:
 264              		.section	.text.LL_ATON_End_EpochBlock_67,"ax",%progbits
 265              		.align	1
 266              		.syntax unified
 267              		.thumb
 268              		.thumb_func
 270              	LL_ATON_End_EpochBlock_67:
 271              	.LVL15:
 272              	.LFB4846:
 267:Model/hand_landmark.c ****   /* *** MCU cache invalidate (only) operation for unaligned buffer end address (last line) *** */
 273              		.loc 1 267 1 is_stmt 1 view -0
 274              		.cfi_startproc
 275              		@ args = 0, pretend = 0, frame = 184
 276              		@ frame_needed = 0, uses_anonymous_args = 0
 272:Model/hand_landmark.c **** 
 277              		.loc 1 272 3 view .LVU49
 278              	.LBB38:
 279              	.LBI38:
  80:Lib/AI_Runtime/Npu/ll_aton/ll_aton_caches_interface.h ****   {
 280              		.loc 2 80 22 view .LVU50
 281              	.LBB39:
  82:Lib/AI_Runtime/Npu/ll_aton/ll_aton_caches_interface.h ****     mcu_cache_invalidate_range(virtual_addr, virtual_addr + size);
 282              		.loc 2 82 34 view .LVU51
  83:Lib/AI_Runtime/Npu/ll_aton/ll_aton_caches_interface.h ****     LL_ATON_OSAL_UNLOCK_MCU_CACHE();
 283              		.loc 2 83 5 view .LVU52
 284              	.LBE39:
 285              	.LBE38:
 267:Model/hand_landmark.c ****   /* *** MCU cache invalidate (only) operation for unaligned buffer end address (last line) *** */
 286              		.loc 1 267 1 is_stmt 0 view .LVU53
 287 0000 30B5     		push	{r4, r5, lr}
 288              		.cfi_def_cfa_offset 12
 289              		.cfi_offset 4, -12
 290              		.cfi_offset 5, -8
 291              		.cfi_offset 14, -4
 292              	.LBB42:
 293              	.LBB40:
  83:Lib/AI_Runtime/Npu/ll_aton/ll_aton_caches_interface.h ****     LL_ATON_OSAL_UNLOCK_MCU_CACHE();
ARM GAS  /tmp/ccAJFP7B.s 			page 15


 294              		.loc 2 83 5 view .LVU54
 295 0002 1F4C     		ldr	r4, .L14
 296              	.LBE40:
 297              	.LBE42:
 267:Model/hand_landmark.c ****   /* *** MCU cache invalidate (only) operation for unaligned buffer end address (last line) *** */
 298              		.loc 1 267 1 view .LVU55
 299 0004 AFB0     		sub	sp, sp, #188
 300              		.cfi_def_cfa_offset 200
 301              	.LBB43:
 302              	.LBB41:
  83:Lib/AI_Runtime/Npu/ll_aton/ll_aton_caches_interface.h ****     LL_ATON_OSAL_UNLOCK_MCU_CACHE();
 303              		.loc 2 83 5 view .LVU56
 304 0006 2146     		mov	r1, r4
 305 0008 1E48     		ldr	r0, .L14+4
 306              	.LVL16:
  83:Lib/AI_Runtime/Npu/ll_aton/ll_aton_caches_interface.h ****     LL_ATON_OSAL_UNLOCK_MCU_CACHE();
 307              		.loc 2 83 5 view .LVU57
 308 000a FFF7FEFF 		bl	mcu_cache_invalidate_range
 309              	.LVL17:
 310              		.loc 2 84 36 is_stmt 1 view .LVU58
 311              		.loc 2 84 36 is_stmt 0 view .LVU59
 312              	.LBE41:
 313              	.LBE43:
 274:Model/hand_landmark.c **** 
 314              		.loc 1 274 3 is_stmt 1 view .LVU60
 279:Model/hand_landmark.c ****     /* "general.input" tensor-related info: */
 315              		.loc 1 279 3 view .LVU61
 279:Model/hand_landmark.c ****     /* "general.input" tensor-related info: */
 316              		.loc 1 279 28 is_stmt 0 view .LVU62
 317 000e B422     		movs	r2, #180
 318 0010 0021     		movs	r1, #0
 319 0012 01A8     		add	r0, sp, #4
 320 0014 FFF7FEFF 		bl	memset
 321              	.LVL18:
 322 0018 2A23     		movs	r3, #42
 323 001a 3F22     		movs	r2, #63
 324 001c 8DF80430 		strb	r3, [sp, #4]
 325 0020 0123     		movs	r3, #1
 326 0022 0421     		movs	r1, #4
 327 0024 CDE90423 		strd	r2, r3, [sp, #16]
 328 0028 CDE90F23 		strd	r2, r3, [sp, #60]
 329 002c CDE90622 		strd	r2, r2, [sp, #24]
 330 0030 CDE90A24 		strd	r2, r4, [sp, #40]
 331 0034 1192     		str	r2, [sp, #68]
 332 0036 FC22     		movs	r2, #252
 333 0038 CDE91221 		strd	r2, r1, [sp, #72]
 334 003c CDE91412 		strd	r1, r2, [sp, #80]
 335 0040 114A     		ldr	r2, .L14+8
 336 0042 124D     		ldr	r5, .L14+12
 317:Model/hand_landmark.c ****   /* *** MCU cache clean (only) operation (SW, whole range) *** */
 337              		.loc 1 317 3 view .LVU63
 338 0044 0DEB0100 		add	r0, sp, r1
 279:Model/hand_landmark.c ****     /* "general.input" tensor-related info: */
 339              		.loc 1 279 28 view .LVU64
 340 0048 2192     		str	r2, [sp, #132]
 341 004a 4032     		adds	r2, r2, #64
 342 004c CDE90233 		strd	r3, r3, [sp, #8]
ARM GAS  /tmp/ccAJFP7B.s 			page 16


 343 0050 CDE90833 		strd	r3, r3, [sp, #32]
 344 0054 CDE90D33 		strd	r3, r3, [sp, #52]
 345 0058 8DF83030 		strb	r3, [sp, #48]
 346 005c 8DF85C30 		strb	r3, [sp, #92]
 347 0060 1C93     		str	r3, [sp, #112]
 348 0062 8DF88830 		strb	r3, [sp, #136]
 349 0066 2793     		str	r3, [sp, #156]
 350 0068 2C92     		str	r2, [sp, #176]
 351 006a 8DF8B430 		strb	r3, [sp, #180]
 317:Model/hand_landmark.c ****   /* *** MCU cache clean (only) operation (SW, whole range) *** */
 352              		.loc 1 317 3 is_stmt 1 view .LVU65
 279:Model/hand_landmark.c ****     /* "general.input" tensor-related info: */
 353              		.loc 1 279 28 is_stmt 0 view .LVU66
 354 006e 1695     		str	r5, [sp, #88]
 317:Model/hand_landmark.c ****   /* *** MCU cache clean (only) operation (SW, whole range) *** */
 355              		.loc 1 317 3 view .LVU67
 356 0070 FFF7FEFF 		bl	ll_sw_forward_dequantizelinear
 357              	.LVL19:
 322:Model/hand_landmark.c **** 
 358              		.loc 1 322 3 is_stmt 1 view .LVU68
 359              	.LBB44:
 360              	.LBI44:
  57:Lib/AI_Runtime/Npu/ll_aton/ll_aton_caches_interface.h ****   {
 361              		.loc 2 57 22 view .LVU69
 362              	.LBB45:
  59:Lib/AI_Runtime/Npu/ll_aton/ll_aton_caches_interface.h ****     mcu_cache_clean_range(virtual_addr, virtual_addr + size);
 363              		.loc 2 59 34 view .LVU70
  60:Lib/AI_Runtime/Npu/ll_aton/ll_aton_caches_interface.h ****     LL_ATON_OSAL_UNLOCK_MCU_CACHE();
 364              		.loc 2 60 5 view .LVU71
 365 0074 2146     		mov	r1, r4
 366 0076 2846     		mov	r0, r5
 367 0078 FFF7FEFF 		bl	mcu_cache_clean_range
 368              	.LVL20:
  61:Lib/AI_Runtime/Npu/ll_aton/ll_aton_caches_interface.h ****   }
 369              		.loc 2 61 36 view .LVU72
  61:Lib/AI_Runtime/Npu/ll_aton/ll_aton_caches_interface.h ****   }
 370              		.loc 2 61 36 is_stmt 0 view .LVU73
 371              	.LBE45:
 372              	.LBE44:
 324:Model/hand_landmark.c **** 
 373              		.loc 1 324 1 view .LVU74
 374 007c 2FB0     		add	sp, sp, #188
 375              		.cfi_def_cfa_offset 12
 376              		@ sp needed
 377 007e 30BD     		pop	{r4, r5, pc}
 378              	.L15:
 379              		.align	2
 380              	.L14:
 381 0080 00022034 		.word	874512896
 382 0084 E0012034 		.word	874512864
 383 0088 70B98A70 		.word	1888139632
 384 008c 00012034 		.word	874512640
 385              		.cfi_endproc
 386              	.LFE4846:
 388              		.section	.text.LL_ATON_End_EpochBlock_65,"ax",%progbits
 389              		.align	1
 390              		.syntax unified
ARM GAS  /tmp/ccAJFP7B.s 			page 17


 391              		.thumb
 392              		.thumb_func
 394              	LL_ATON_End_EpochBlock_65:
 395              	.LVL21:
 396              	.LFB4844:
 189:Model/hand_landmark.c ****   /* *** MCU cache invalidate (only) operation for unaligned buffer end address (last line) *** */
 397              		.loc 1 189 1 is_stmt 1 view -0
 398              		.cfi_startproc
 399              		@ args = 0, pretend = 0, frame = 184
 400              		@ frame_needed = 0, uses_anonymous_args = 0
 194:Model/hand_landmark.c **** 
 401              		.loc 1 194 3 view .LVU76
 402              	.LBB46:
 403              	.LBI46:
  80:Lib/AI_Runtime/Npu/ll_aton/ll_aton_caches_interface.h ****   {
 404              		.loc 2 80 22 view .LVU77
 405              	.LBB47:
  82:Lib/AI_Runtime/Npu/ll_aton/ll_aton_caches_interface.h ****     mcu_cache_invalidate_range(virtual_addr, virtual_addr + size);
 406              		.loc 2 82 34 view .LVU78
  83:Lib/AI_Runtime/Npu/ll_aton/ll_aton_caches_interface.h ****     LL_ATON_OSAL_UNLOCK_MCU_CACHE();
 407              		.loc 2 83 5 view .LVU79
 408              	.LBE47:
 409              	.LBE46:
 189:Model/hand_landmark.c ****   /* *** MCU cache invalidate (only) operation for unaligned buffer end address (last line) *** */
 410              		.loc 1 189 1 is_stmt 0 view .LVU80
 411 0000 30B5     		push	{r4, r5, lr}
 412              		.cfi_def_cfa_offset 12
 413              		.cfi_offset 4, -12
 414              		.cfi_offset 5, -8
 415              		.cfi_offset 14, -4
 416              	.LBB50:
 417              	.LBB48:
  83:Lib/AI_Runtime/Npu/ll_aton/ll_aton_caches_interface.h ****     LL_ATON_OSAL_UNLOCK_MCU_CACHE();
 418              		.loc 2 83 5 view .LVU81
 419 0002 204D     		ldr	r5, .L17
 420              	.LBE48:
 421              	.LBE50:
 189:Model/hand_landmark.c ****   /* *** MCU cache invalidate (only) operation for unaligned buffer end address (last line) *** */
 422              		.loc 1 189 1 view .LVU82
 423 0004 AFB0     		sub	sp, sp, #188
 424              		.cfi_def_cfa_offset 200
 425              	.LBB51:
 426              	.LBB49:
  83:Lib/AI_Runtime/Npu/ll_aton/ll_aton_caches_interface.h ****     LL_ATON_OSAL_UNLOCK_MCU_CACHE();
 427              		.loc 2 83 5 view .LVU83
 428 0006 2946     		mov	r1, r5
 429 0008 1F48     		ldr	r0, .L17+4
 430              	.LVL22:
  83:Lib/AI_Runtime/Npu/ll_aton/ll_aton_caches_interface.h ****     LL_ATON_OSAL_UNLOCK_MCU_CACHE();
 431              		.loc 2 83 5 view .LVU84
 432 000a FFF7FEFF 		bl	mcu_cache_invalidate_range
 433              	.LVL23:
 434              		.loc 2 84 36 is_stmt 1 view .LVU85
 435              		.loc 2 84 36 is_stmt 0 view .LVU86
 436              	.LBE49:
 437              	.LBE51:
 196:Model/hand_landmark.c **** 
ARM GAS  /tmp/ccAJFP7B.s 			page 18


 438              		.loc 1 196 3 is_stmt 1 view .LVU87
 201:Model/hand_landmark.c ****     /* "general.input" tensor-related info: */
 439              		.loc 1 201 3 view .LVU88
 201:Model/hand_landmark.c ****     /* "general.input" tensor-related info: */
 440              		.loc 1 201 28 is_stmt 0 view .LVU89
 441 000e B422     		movs	r2, #180
 442 0010 0021     		movs	r1, #0
 443 0012 01A8     		add	r0, sp, #4
 444 0014 FFF7FEFF 		bl	memset
 445              	.LVL24:
 446 0018 2A23     		movs	r3, #42
 447 001a 3F22     		movs	r2, #63
 448 001c 8DF80430 		strb	r3, [sp, #4]
 449 0020 0123     		movs	r3, #1
 450 0022 1A49     		ldr	r1, .L17+8
 451 0024 CDE90423 		strd	r2, r3, [sp, #16]
 452 0028 CDE90F23 		strd	r2, r3, [sp, #60]
 453 002c CDE90622 		strd	r2, r2, [sp, #24]
 454 0030 0A92     		str	r2, [sp, #40]
 455 0032 0B91     		str	r1, [sp, #44]
 456 0034 1192     		str	r2, [sp, #68]
 457 0036 0421     		movs	r1, #4
 458 0038 FC22     		movs	r2, #252
 459 003a CDE91221 		strd	r2, r1, [sp, #72]
 460 003e CDE91412 		strd	r1, r2, [sp, #80]
 461 0042 134A     		ldr	r2, .L17+12
 462 0044 134C     		ldr	r4, .L17+16
 239:Model/hand_landmark.c ****   /* *** MCU cache clean (only) operation (SW, whole range) *** */
 463              		.loc 1 239 3 view .LVU90
 464 0046 0DEB0100 		add	r0, sp, r1
 201:Model/hand_landmark.c ****     /* "general.input" tensor-related info: */
 465              		.loc 1 201 28 view .LVU91
 466 004a 2192     		str	r2, [sp, #132]
 467 004c 4032     		adds	r2, r2, #64
 468 004e CDE90233 		strd	r3, r3, [sp, #8]
 469 0052 CDE90833 		strd	r3, r3, [sp, #32]
 470 0056 CDE90D33 		strd	r3, r3, [sp, #52]
 471 005a 8DF83030 		strb	r3, [sp, #48]
 472 005e 8DF85C30 		strb	r3, [sp, #92]
 473 0062 1C93     		str	r3, [sp, #112]
 474 0064 8DF88830 		strb	r3, [sp, #136]
 475 0068 2793     		str	r3, [sp, #156]
 476 006a 2C92     		str	r2, [sp, #176]
 477 006c 8DF8B430 		strb	r3, [sp, #180]
 239:Model/hand_landmark.c ****   /* *** MCU cache clean (only) operation (SW, whole range) *** */
 478              		.loc 1 239 3 is_stmt 1 view .LVU92
 201:Model/hand_landmark.c ****     /* "general.input" tensor-related info: */
 479              		.loc 1 201 28 is_stmt 0 view .LVU93
 480 0070 1694     		str	r4, [sp, #88]
 239:Model/hand_landmark.c ****   /* *** MCU cache clean (only) operation (SW, whole range) *** */
 481              		.loc 1 239 3 view .LVU94
 482 0072 FFF7FEFF 		bl	ll_sw_forward_dequantizelinear
 483              	.LVL25:
 244:Model/hand_landmark.c **** 
 484              		.loc 1 244 3 is_stmt 1 view .LVU95
 485              	.LBB52:
 486              	.LBI52:
ARM GAS  /tmp/ccAJFP7B.s 			page 19


  57:Lib/AI_Runtime/Npu/ll_aton/ll_aton_caches_interface.h ****   {
 487              		.loc 2 57 22 view .LVU96
 488              	.LBB53:
  59:Lib/AI_Runtime/Npu/ll_aton/ll_aton_caches_interface.h ****     mcu_cache_clean_range(virtual_addr, virtual_addr + size);
 489              		.loc 2 59 34 view .LVU97
  60:Lib/AI_Runtime/Npu/ll_aton/ll_aton_caches_interface.h ****     LL_ATON_OSAL_UNLOCK_MCU_CACHE();
 490              		.loc 2 60 5 view .LVU98
 491 0076 2946     		mov	r1, r5
 492 0078 2046     		mov	r0, r4
 493 007a FFF7FEFF 		bl	mcu_cache_clean_range
 494              	.LVL26:
  61:Lib/AI_Runtime/Npu/ll_aton/ll_aton_caches_interface.h ****   }
 495              		.loc 2 61 36 view .LVU99
  61:Lib/AI_Runtime/Npu/ll_aton/ll_aton_caches_interface.h ****   }
 496              		.loc 2 61 36 is_stmt 0 view .LVU100
 497              	.LBE53:
 498              	.LBE52:
 246:Model/hand_landmark.c **** 
 499              		.loc 1 246 1 view .LVU101
 500 007e 2FB0     		add	sp, sp, #188
 501              		.cfi_def_cfa_offset 12
 502              		@ sp needed
 503 0080 30BD     		pop	{r4, r5, pc}
 504              	.L18:
 505 0082 00BF     		.align	2
 506              	.L17:
 507 0084 00012034 		.word	874512640
 508 0088 E0002034 		.word	874512608
 509 008c 80122034 		.word	874517120
 510 0090 80B98A70 		.word	1888139648
 511 0094 00002034 		.word	874512384
 512              		.cfi_endproc
 513              	.LFE4844:
 515              		.section	.text.LL_ATON_End_EpochBlock_64,"ax",%progbits
 516              		.align	1
 517              		.syntax unified
 518              		.thumb
 519              		.thumb_func
 521              	LL_ATON_End_EpochBlock_64:
 522              	.LVL27:
 523              	.LFB4843:
 126:Model/hand_landmark.c ****   /* *** MCU cache invalidate (only) operation for unaligned buffer start or end address (only line
 524              		.loc 1 126 1 is_stmt 1 view -0
 525              		.cfi_startproc
 526              		@ args = 0, pretend = 0, frame = 184
 527              		@ frame_needed = 0, uses_anonymous_args = 0
 131:Model/hand_landmark.c **** 
 528              		.loc 1 131 3 view .LVU103
 529              	.LBB54:
 530              	.LBI54:
  80:Lib/AI_Runtime/Npu/ll_aton/ll_aton_caches_interface.h ****   {
 531              		.loc 2 80 22 view .LVU104
 532              	.LBB55:
  82:Lib/AI_Runtime/Npu/ll_aton/ll_aton_caches_interface.h ****     mcu_cache_invalidate_range(virtual_addr, virtual_addr + size);
 533              		.loc 2 82 34 view .LVU105
  83:Lib/AI_Runtime/Npu/ll_aton/ll_aton_caches_interface.h ****     LL_ATON_OSAL_UNLOCK_MCU_CACHE();
 534              		.loc 2 83 5 view .LVU106
ARM GAS  /tmp/ccAJFP7B.s 			page 20


 535              	.LBE55:
 536              	.LBE54:
 126:Model/hand_landmark.c ****   /* *** MCU cache invalidate (only) operation for unaligned buffer start or end address (only line
 537              		.loc 1 126 1 is_stmt 0 view .LVU107
 538 0000 30B5     		push	{r4, r5, lr}
 539              		.cfi_def_cfa_offset 12
 540              		.cfi_offset 4, -12
 541              		.cfi_offset 5, -8
 542              		.cfi_offset 14, -4
 543              	.LBB58:
 544              	.LBB56:
  83:Lib/AI_Runtime/Npu/ll_aton/ll_aton_caches_interface.h ****     LL_ATON_OSAL_UNLOCK_MCU_CACHE();
 545              		.loc 2 83 5 view .LVU108
 546 0002 1E4C     		ldr	r4, .L20
 547 0004 1E4D     		ldr	r5, .L20+4
 548              	.LBE56:
 549              	.LBE58:
 126:Model/hand_landmark.c ****   /* *** MCU cache invalidate (only) operation for unaligned buffer start or end address (only line
 550              		.loc 1 126 1 view .LVU109
 551 0006 AFB0     		sub	sp, sp, #188
 552              		.cfi_def_cfa_offset 200
 553              	.LBB59:
 554              	.LBB57:
  83:Lib/AI_Runtime/Npu/ll_aton/ll_aton_caches_interface.h ****     LL_ATON_OSAL_UNLOCK_MCU_CACHE();
 555              		.loc 2 83 5 view .LVU110
 556 0008 2946     		mov	r1, r5
 557 000a 2046     		mov	r0, r4
 558              	.LVL28:
  83:Lib/AI_Runtime/Npu/ll_aton/ll_aton_caches_interface.h ****     LL_ATON_OSAL_UNLOCK_MCU_CACHE();
 559              		.loc 2 83 5 view .LVU111
 560 000c FFF7FEFF 		bl	mcu_cache_invalidate_range
 561              	.LVL29:
 562              		.loc 2 84 36 is_stmt 1 view .LVU112
 563              		.loc 2 84 36 is_stmt 0 view .LVU113
 564              	.LBE57:
 565              	.LBE59:
 133:Model/hand_landmark.c **** 
 566              		.loc 1 133 3 is_stmt 1 view .LVU114
 138:Model/hand_landmark.c ****     /* "general.input" tensor-related info: */
 567              		.loc 1 138 3 view .LVU115
 138:Model/hand_landmark.c ****     /* "general.input" tensor-related info: */
 568              		.loc 1 138 28 is_stmt 0 view .LVU116
 569 0010 0021     		movs	r1, #0
 570 0012 B422     		movs	r2, #180
 571 0014 01A8     		add	r0, sp, #4
 572 0016 FFF7FEFF 		bl	memset
 573              	.LVL30:
 574 001a 2A23     		movs	r3, #42
 575 001c 194A     		ldr	r2, .L20+8
 576 001e 8DF80430 		strb	r3, [sp, #4]
 577 0022 0B92     		str	r2, [sp, #44]
 578 0024 0422     		movs	r2, #4
 579 0026 0123     		movs	r3, #1
 580 0028 CDE91222 		strd	r2, r2, [sp, #72]
 581 002c CDE91422 		strd	r2, r2, [sp, #80]
 582 0030 154A     		ldr	r2, .L20+12
 176:Model/hand_landmark.c ****   /* *** MCU cache clean (only) operation (SW, whole range) *** */
ARM GAS  /tmp/ccAJFP7B.s 			page 21


 583              		.loc 1 176 3 view .LVU117
 584 0032 01A8     		add	r0, sp, #4
 138:Model/hand_landmark.c ****     /* "general.input" tensor-related info: */
 585              		.loc 1 138 28 view .LVU118
 586 0034 2192     		str	r2, [sp, #132]
 587 0036 4032     		adds	r2, r2, #64
 588 0038 CDE90233 		strd	r3, r3, [sp, #8]
 589 003c CDE90433 		strd	r3, r3, [sp, #16]
 590 0040 CDE90633 		strd	r3, r3, [sp, #24]
 591 0044 CDE90833 		strd	r3, r3, [sp, #32]
 592 0048 CDE90D33 		strd	r3, r3, [sp, #52]
 593 004c CDE90F33 		strd	r3, r3, [sp, #60]
 594 0050 0A93     		str	r3, [sp, #40]
 595 0052 8DF83030 		strb	r3, [sp, #48]
 596 0056 1193     		str	r3, [sp, #68]
 597 0058 8DF85C30 		strb	r3, [sp, #92]
 598 005c 1C93     		str	r3, [sp, #112]
 599 005e 8DF88830 		strb	r3, [sp, #136]
 600 0062 2793     		str	r3, [sp, #156]
 601 0064 2C92     		str	r2, [sp, #176]
 602 0066 8DF8B430 		strb	r3, [sp, #180]
 176:Model/hand_landmark.c ****   /* *** MCU cache clean (only) operation (SW, whole range) *** */
 603              		.loc 1 176 3 is_stmt 1 view .LVU119
 138:Model/hand_landmark.c ****     /* "general.input" tensor-related info: */
 604              		.loc 1 138 28 is_stmt 0 view .LVU120
 605 006a 1694     		str	r4, [sp, #88]
 176:Model/hand_landmark.c ****   /* *** MCU cache clean (only) operation (SW, whole range) *** */
 606              		.loc 1 176 3 view .LVU121
 607 006c FFF7FEFF 		bl	ll_sw_forward_dequantizelinear
 608              	.LVL31:
 181:Model/hand_landmark.c **** 
 609              		.loc 1 181 3 is_stmt 1 view .LVU122
 610              	.LBB60:
 611              	.LBI60:
  57:Lib/AI_Runtime/Npu/ll_aton/ll_aton_caches_interface.h ****   {
 612              		.loc 2 57 22 view .LVU123
 613              	.LBB61:
  59:Lib/AI_Runtime/Npu/ll_aton/ll_aton_caches_interface.h ****     mcu_cache_clean_range(virtual_addr, virtual_addr + size);
 614              		.loc 2 59 34 view .LVU124
  60:Lib/AI_Runtime/Npu/ll_aton/ll_aton_caches_interface.h ****     LL_ATON_OSAL_UNLOCK_MCU_CACHE();
 615              		.loc 2 60 5 view .LVU125
 616 0070 2946     		mov	r1, r5
 617 0072 2046     		mov	r0, r4
 618 0074 FFF7FEFF 		bl	mcu_cache_clean_range
 619              	.LVL32:
  61:Lib/AI_Runtime/Npu/ll_aton/ll_aton_caches_interface.h ****   }
 620              		.loc 2 61 36 view .LVU126
  61:Lib/AI_Runtime/Npu/ll_aton/ll_aton_caches_interface.h ****   }
 621              		.loc 2 61 36 is_stmt 0 view .LVU127
 622              	.LBE61:
 623              	.LBE60:
 183:Model/hand_landmark.c **** 
 624              		.loc 1 183 1 view .LVU128
 625 0078 2FB0     		add	sp, sp, #188
 626              		.cfi_def_cfa_offset 12
 627              		@ sp needed
 628 007a 30BD     		pop	{r4, r5, pc}
ARM GAS  /tmp/ccAJFP7B.s 			page 22


 629              	.L21:
 630              		.align	2
 631              	.L20:
 632 007c 40022034 		.word	874512960
 633 0080 60022034 		.word	874512992
 634 0084 C0122034 		.word	874517184
 635 0088 A0B98A70 		.word	1888139680
 636              		.cfi_endproc
 637              	.LFE4843:
 639              		.section	.text.LL_ATON_Set_User_Input_Buffer_hand_landmark,"ax",%progbits
 640              		.align	1
 641              		.global	LL_ATON_Set_User_Input_Buffer_hand_landmark
 642              		.syntax unified
 643              		.thumb
 644              		.thumb_func
 646              	LL_ATON_Set_User_Input_Buffer_hand_landmark:
 647              	.LVL33:
 648              	.LFB4836:
  77:Model/hand_landmark.c ****   { 
 649              		.loc 1 77 1 is_stmt 1 view -0
 650              		.cfi_startproc
 651              		@ args = 0, pretend = 0, frame = 0
 652              		@ frame_needed = 0, uses_anonymous_args = 0
 653              		@ link register save eliminated.
  79:Model/hand_landmark.c ****   }
 654              		.loc 1 79 5 view .LVU130
  81:Model/hand_landmark.c **** 
 655              		.loc 1 81 1 is_stmt 0 view .LVU131
 656 0000 0320     		movs	r0, #3
 657              	.LVL34:
  81:Model/hand_landmark.c **** 
 658              		.loc 1 81 1 view .LVU132
 659 0002 7047     		bx	lr
 660              		.cfi_endproc
 661              	.LFE4836:
 663              		.section	.text.LL_ATON_Get_User_Input_Buffer_hand_landmark,"ax",%progbits
 664              		.align	1
 665              		.global	LL_ATON_Get_User_Input_Buffer_hand_landmark
 666              		.syntax unified
 667              		.thumb
 668              		.thumb_func
 670              	LL_ATON_Get_User_Input_Buffer_hand_landmark:
 671              	.LVL35:
 672              	.LFB4837:
  84:Model/hand_landmark.c ****   { 
 673              		.loc 1 84 1 is_stmt 1 view -0
 674              		.cfi_startproc
 675              		@ args = 0, pretend = 0, frame = 0
 676              		@ frame_needed = 0, uses_anonymous_args = 0
 677              		@ link register save eliminated.
  86:Model/hand_landmark.c ****   }
 678              		.loc 1 86 5 view .LVU134
  88:Model/hand_landmark.c **** 
 679              		.loc 1 88 1 is_stmt 0 view .LVU135
 680 0000 0020     		movs	r0, #0
 681              	.LVL36:
  88:Model/hand_landmark.c **** 
ARM GAS  /tmp/ccAJFP7B.s 			page 23


 682              		.loc 1 88 1 view .LVU136
 683 0002 7047     		bx	lr
 684              		.cfi_endproc
 685              	.LFE4837:
 687              		.section	.text.LL_ATON_Set_User_Output_Buffer_hand_landmark,"ax",%progbits
 688              		.align	1
 689              		.global	LL_ATON_Set_User_Output_Buffer_hand_landmark
 690              		.syntax unified
 691              		.thumb
 692              		.thumb_func
 694              	LL_ATON_Set_User_Output_Buffer_hand_landmark:
 695              	.LFB4854:
 696              		.cfi_startproc
  90:Model/hand_landmark.c **** {
 697              		.loc 1 90 26 is_stmt 1 view -0
 698              		@ args = 0, pretend = 0, frame = 0
 699              		@ frame_needed = 0, uses_anonymous_args = 0
 700              		@ link register save eliminated.
 701 0000 0320     		movs	r0, #3
 702 0002 7047     		bx	lr
 703              		.cfi_endproc
 704              	.LFE4854:
 706              		.section	.text.LL_ATON_Get_User_Output_Buffer_hand_landmark,"ax",%progbits
 707              		.align	1
 708              		.global	LL_ATON_Get_User_Output_Buffer_hand_landmark
 709              		.syntax unified
 710              		.thumb
 711              		.thumb_func
 713              	LL_ATON_Get_User_Output_Buffer_hand_landmark:
 714              	.LFB4856:
 715              		.cfi_startproc
  97:Model/hand_landmark.c **** {
 716              		.loc 1 97 7 view -0
 717              		@ args = 0, pretend = 0, frame = 0
 718              		@ frame_needed = 0, uses_anonymous_args = 0
 719              		@ link register save eliminated.
 720 0000 0020     		movs	r0, #0
 721 0002 7047     		bx	lr
 722              		.cfi_endproc
 723              	.LFE4856:
 725              		.section	.text.LL_ATON_EC_Network_Init_hand_landmark,"ax",%progbits
 726              		.align	1
 727              		.global	LL_ATON_EC_Network_Init_hand_landmark
 728              		.syntax unified
 729              		.thumb
 730              		.thumb_func
 732              	LL_ATON_EC_Network_Init_hand_landmark:
 733              	.LFB4840:
 734              		.file 3 "Model/hand_landmark_ecblobs.h"
   1:Model/hand_landmark_ecblobs.h **** /**
   2:Model/hand_landmark_ecblobs.h ****   ******************************************************************************
   3:Model/hand_landmark_ecblobs.h ****   * @file    hand_landmark_ecblobs.h
   4:Model/hand_landmark_ecblobs.h ****   * @brief   NN Code autogenerated DO NOT MODIFY IT
   5:Model/hand_landmark_ecblobs.h ****   ******************************************************************************
   6:Model/hand_landmark_ecblobs.h ****   * @attention
   7:Model/hand_landmark_ecblobs.h ****   *
   8:Model/hand_landmark_ecblobs.h ****   * Copyright (c) 2024 STMicroelectronics.
ARM GAS  /tmp/ccAJFP7B.s 			page 24


   9:Model/hand_landmark_ecblobs.h ****   * All rights reserved.
  10:Model/hand_landmark_ecblobs.h ****   *
  11:Model/hand_landmark_ecblobs.h ****   * This software is licensed under terms that can be found in the LICENSE file
  12:Model/hand_landmark_ecblobs.h ****   * in the root directory of this software component.
  13:Model/hand_landmark_ecblobs.h ****   * If no LICENSE file comes with this software, it is provided AS-IS.
  14:Model/hand_landmark_ecblobs.h ****   *
  15:Model/hand_landmark_ecblobs.h ****   ******************************************************************************
  16:Model/hand_landmark_ecblobs.h ****   */
  17:Model/hand_landmark_ecblobs.h **** 
  18:Model/hand_landmark_ecblobs.h **** 
  19:Model/hand_landmark_ecblobs.h **** #ifdef __cplusplus
  20:Model/hand_landmark_ecblobs.h **** extern "C" {
  21:Model/hand_landmark_ecblobs.h **** #endif
  22:Model/hand_landmark_ecblobs.h **** 
  23:Model/hand_landmark_ecblobs.h **** #include "ll_aton_caches_interface.h"
  24:Model/hand_landmark_ecblobs.h **** 
  25:Model/hand_landmark_ecblobs.h **** #include <string.h>
  26:Model/hand_landmark_ecblobs.h **** 
  27:Model/hand_landmark_ecblobs.h **** #if !defined(ECBLOB_CONST_SECTION)
  28:Model/hand_landmark_ecblobs.h **** #define ECBLOB_CONST_SECTION /* Empty */
  29:Model/hand_landmark_ecblobs.h **** #endif
  30:Model/hand_landmark_ecblobs.h **** #if !defined(ECBLOB_RUNTIME_SECTION)
  31:Model/hand_landmark_ecblobs.h **** #define ECBLOB_RUNTIME_SECTION /* Empty */
  32:Model/hand_landmark_ecblobs.h **** #endif
  33:Model/hand_landmark_ecblobs.h **** 
  34:Model/hand_landmark_ecblobs.h **** ECBLOB_CONST_SECTION
  35:Model/hand_landmark_ecblobs.h **** static const uint64_t _ec_blob_1 [] =
  36:Model/hand_landmark_ecblobs.h **** {
  37:Model/hand_landmark_ecblobs.h ****   0x0000b2a6ca057a7aUL, 0x0000005d0000003dUL, 0x5c00004200802241UL, 0x1500006008000000UL,
  38:Model/hand_landmark_ecblobs.h ****   0x000700005c027c00UL, 0x000040005c070043UL, 0x5c0c00430000ffe0UL, 0x1041204200000000UL,
  39:Model/hand_landmark_ecblobs.h ****   0x6000004200802261UL, 0x1500000008000000UL, 0x0007000060027c00UL, 0x0000400060070043UL,
  40:Model/hand_landmark_ecblobs.h ****   0x600c004300000020UL, 0x1041104100000000UL, 0x20007c0000802061UL, 0x2002004300080104UL,
  41:Model/hand_landmark_ecblobs.h ****   0x00024c0034200000UL, 0x00000000200500c3UL, 0x0000000000024c00UL, 0x0000002400000000UL,
  42:Model/hand_landmark_ecblobs.h ****   0x200c004200100000UL, 0x0000000700000006UL, 0x00000001200d0043UL, 0x2011004334224c3fUL,
  43:Model/hand_landmark_ecblobs.h ****   0x0000000000000000UL, 0x38007c0000802121UL, 0x380200430008010cUL, 0x00024c0034293000UL,
  44:Model/hand_landmark_ecblobs.h ****   0x00000000380500c3UL, 0x0000000000024c00UL, 0x0000002400000000UL, 0x380c004200100000UL,
  45:Model/hand_landmark_ecblobs.h ****   0x0000000700000006UL, 0x00000001380d0043UL, 0x38110043342b7c3fUL, 0x0000000000000000UL,
  46:Model/hand_landmark_ecblobs.h ****   0x0000000210007c00UL, 0x0000006410000424UL, 0x10007c0000000000UL, 0x10007bc440000000UL,
  47:Model/hand_landmark_ecblobs.h ****   0x0000000000000064UL, 0x0000000110007c00UL, 0x00000027100b7c00UL, 0x00000007101e7c00UL,
  48:Model/hand_landmark_ecblobs.h ****   0x0000002510207c00UL, 0x5c00200138002001UL, 0x2000200160002001UL, 0x0000006438007fe4UL,
  49:Model/hand_landmark_ecblobs.h ****   0x100b7c0000000000UL, 0x101e7c0000000000UL, 0x10207c0000000000UL, 0x38007c0000000000UL,
  50:Model/hand_landmark_ecblobs.h ****   0x3800042400000002UL, 0x0000000000000064UL, 0x4000000038007c00UL, 0x0000006438007bc4UL,
  51:Model/hand_landmark_ecblobs.h ****   0x0080012100000000UL, 0x080000025c007c00UL, 0x000000645c000424UL, 0x5c007c0000000000UL,
  52:Model/hand_landmark_ecblobs.h ****   0x5c007bc448000000UL, 0x0000000000000064UL, 0x60007c0000800241UL, 0x6000042408000002UL,
  53:Model/hand_landmark_ecblobs.h ****   0x0000000000000064UL, 0x4800000060007c00UL, 0x0000006460007bc4UL, 0x0080026100000000UL,
  54:Model/hand_landmark_ecblobs.h ****   0x0000000220007c00UL, 0x0000006420000424UL, 0x20007c0000000000UL, 0x20007bc440000000UL,
  55:Model/hand_landmark_ecblobs.h ****   0x0000000000000064UL, 0x0000007d00800061UL, 0x3c007c0000802141UL, 0x3c0200c300100034UL,
  56:Model/hand_landmark_ecblobs.h ****   0x0000224408030303UL, 0x00e002a010634404UL, 0x00df0000029f0000UL, 0x000000003c0a7c00UL,
  57:Model/hand_landmark_ecblobs.h ****   0x000000003c0d7c00UL, 0x6400004200802281UL, 0x096000fc08000000UL, 0x0005800064020123UL,
  58:Model/hand_landmark_ecblobs.h ****   0x0000000700000000UL, 0x000497ff000187ffUL, 0x0000000000000001UL, 0x0000000107a403f9UL,
  59:Model/hand_landmark_ecblobs.h ****   0x00000000640c0043UL, 0x640b7c0020422042UL, 0x6500060300000001UL, 0x000000000000499cUL,
  60:Model/hand_landmark_ecblobs.h ****   0x0000000000000047UL, 0x00000000000003f1UL, 0x00000000000063fbUL, 0x0000000000000944UL,
  61:Model/hand_landmark_ecblobs.h ****   0x00000000000001bcUL, 0x00000000000002daUL, 0x00000000000023f4UL, 0x0000000000000993UL,
  62:Model/hand_landmark_ecblobs.h ****   0x0000000000000835UL, 0x00000000000001e8UL, 0x000000000000438aUL, 0x00000000000002ecUL,
  63:Model/hand_landmark_ecblobs.h ****   0x0000000000000a04UL, 0x0000000000000152UL, 0x00000000000006cdUL, 0x00000000000049edUL,
  64:Model/hand_landmark_ecblobs.h ****   0x0000000000000e98UL, 0x0000000000000000UL, 0x000000000000034aUL, 0x000000000000039dUL,
  65:Model/hand_landmark_ecblobs.h ****   0x00000000000010aaUL, 0x0000000000000396UL, 0x000000000000047eUL, 0x68000042008022a1UL,
ARM GAS  /tmp/ccAJFP7B.s 			page 25


  66:Model/hand_landmark_ecblobs.h ****   0x156000fc08000000UL, 0x000a000068020123UL, 0x0000000700000000UL, 0x000497ff000187ffUL,
  67:Model/hand_landmark_ecblobs.h ****   0x0000000000005500UL, 0x0000000107a403f9UL, 0x00000000680c0043UL, 0x680b7c0020422042UL,
  68:Model/hand_landmark_ecblobs.h ****   0x6900060300000001UL, 0x0000cb98f9cb5500UL, 0x0000fce2f80a5500UL, 0x0000bb16f9ee5500UL,
  69:Model/hand_landmark_ecblobs.h ****   0x0000edddf8db5500UL, 0x00008302f9785500UL, 0x0000e7defc135500UL, 0x0000282ff8d75500UL,
  70:Model/hand_landmark_ecblobs.h ****   0x0000e80402af5500UL, 0x0000fd30f9585500UL, 0x0000d73efa245500UL, 0x00005b68ff9c5500UL,
  71:Model/hand_landmark_ecblobs.h ****   0x00008a17fbc95500UL, 0x0000b0a8fb4c5500UL, 0x0000b726f9f45500UL, 0x00007c02f9825500UL,
  72:Model/hand_landmark_ecblobs.h ****   0x0000c030fae55500UL, 0x0000da22fd165500UL, 0x0000fc7afbae5500UL, 0x0000d3fefd7b5500UL,
  73:Model/hand_landmark_ecblobs.h ****   0x000090cdf8ed5500UL, 0x000061d9fb455500UL, 0x0000b7fff99b5500UL, 0x0000a80ef9ac5500UL,
  74:Model/hand_landmark_ecblobs.h ****   0x0000cb49f9085500UL, 0x5c00004200802241UL, 0x1500000008000000UL, 0x000700005c027c00UL,
  75:Model/hand_landmark_ecblobs.h ****   0x000040005c070043UL, 0x5c0c004300000020UL, 0x1041104100000000UL, 0x40007c0000802161UL,
  76:Model/hand_landmark_ecblobs.h ****   0x400200c300100034UL, 0x0000115508080303UL, 0x0070038010634202UL, 0x006f0000037f0000UL,
  77:Model/hand_landmark_ecblobs.h ****   0x00000000400a7c00UL, 0x00000000400d7c00UL, 0x6000004200802261UL, 0x096000fc08000000UL,
  78:Model/hand_landmark_ecblobs.h ****   0x0004000060020123UL, 0x0000000700000000UL, 0x000497ff000187ffUL, 0x0000000000000001UL,
  79:Model/hand_landmark_ecblobs.h ****   0x0000000107a403f9UL, 0x00000000600c0043UL, 0x600b7c0020422042UL, 0x6100060300000001UL,
  80:Model/hand_landmark_ecblobs.h ****   0x0000000000000050UL, 0x000000000000750eUL, 0x0000000000000ba9UL, 0x0000000000000052UL,
  81:Model/hand_landmark_ecblobs.h ****   0x00000000000004a7UL, 0x0000000000000624UL, 0x00000000000009bcUL, 0x0000000000000028UL,
  82:Model/hand_landmark_ecblobs.h ****   0x0000000000000192UL, 0x00000000000004a1UL, 0x00000000000015adUL, 0x00000000000000d6UL,
  83:Model/hand_landmark_ecblobs.h ****   0x0000000000000b48UL, 0x000000000000007bUL, 0x0000000000000528UL, 0x000000000000017fUL,
  84:Model/hand_landmark_ecblobs.h ****   0x00000000000001b5UL, 0x000000000000058dUL, 0x0000000000000000UL, 0x00000000000004aeUL,
  85:Model/hand_landmark_ecblobs.h ****   0x0000000000001048UL, 0x00000000000001c0UL, 0x0000000000000117UL, 0x0000000000000b99UL,
  86:Model/hand_landmark_ecblobs.h ****   0x38007c0000802121UL, 0x3802004300080100UL, 0x00024c0034293000UL, 0x00000000380500c3UL,
  87:Model/hand_landmark_ecblobs.h ****   0x0000000100024c00UL, 0x0000002400000000UL, 0x380c004200100000UL, 0x0000000700000006UL,
  88:Model/hand_landmark_ecblobs.h ****   0x00000003380d0043UL, 0x38110043342b7c3fUL, 0x0000000000000000UL, 0x18007c0000802021UL,
  89:Model/hand_landmark_ecblobs.h ****   0x1802004300080184UL, 0x00000288708ab560UL, 0x00000000180500c3UL, 0x0000000000000000UL,
  90:Model/hand_landmark_ecblobs.h ****   0x0000002400000000UL, 0x180c004200100000UL, 0x0000000700000006UL, 0x00000001180d0043UL,
  91:Model/hand_landmark_ecblobs.h ****   0x18110043708ab827UL, 0x0000000800000000UL, 0x30007c00008020e1UL, 0x3002004300080184UL,
  92:Model/hand_landmark_ecblobs.h ****   0x000006c0708a95e0UL, 0x00000000300500c3UL, 0x0000000000000000UL, 0x0000002400000000UL,
  93:Model/hand_landmark_ecblobs.h ****   0x300c004200100000UL, 0x0000000700000006UL, 0x00000001300d0043UL, 0x30110043708a9cdfUL,
  94:Model/hand_landmark_ecblobs.h ****   0x0000000800000000UL, 0x14007c0000802001UL, 0x1402004300880108UL, 0x0001880034200000UL,
  95:Model/hand_landmark_ecblobs.h ****   0x00000000140500c3UL, 0x0000000000031000UL, 0x0000002400000000UL, 0x140c004200100000UL,
  96:Model/hand_landmark_ecblobs.h ****   0x0000000700000006UL, 0x00000003140d0043UL, 0x141100433429303fUL, 0x0000000000000000UL,
  97:Model/hand_landmark_ecblobs.h ****   0x0000000210007c00UL, 0x0000006410000424UL, 0x10007c0000000000UL, 0x10007bc440000000UL,
  98:Model/hand_landmark_ecblobs.h ****   0x0000000000000064UL, 0x0000000110007c00UL, 0x0000002710027c00UL, 0x00000013100c0043UL,
  99:Model/hand_landmark_ecblobs.h ****   0x100f004300000003UL, 0x0000000fff240325UL, 0x0000002b101e7c00UL, 0x0000001710207c00UL,
 100:Model/hand_landmark_ecblobs.h ****   0x0000001510227c00UL, 0x0000002910247c00UL, 0x3c007c0014002001UL, 0x40007c0000100035UL,
 101:Model/hand_landmark_ecblobs.h ****   0x5c00200100100035UL, 0x6400200160002001UL, 0x1800200168002001UL, 0x3800200130002001UL,
 102:Model/hand_landmark_ecblobs.h ****   0x0000006414007fe4UL, 0x10027c0000000000UL, 0x100c004300000000UL, 0x0000000000000000UL,
 103:Model/hand_landmark_ecblobs.h ****   0x00000000100f0043UL, 0x101e7c0000000000UL, 0x10207c0000000000UL, 0x10227c0000000000UL,
 104:Model/hand_landmark_ecblobs.h ****   0x10247c0000000000UL, 0x14007c0000000000UL, 0x1400042400000002UL, 0x0000000000000064UL,
 105:Model/hand_landmark_ecblobs.h ****   0x4000000014007c00UL, 0x0000006414007bc4UL, 0x0080000100000000UL, 0x000000023c007c00UL,
 106:Model/hand_landmark_ecblobs.h ****   0x000000643c000424UL, 0x3c007c0000000000UL, 0x3c007bc440000000UL, 0x0000000000000064UL,
 107:Model/hand_landmark_ecblobs.h ****   0x40007c0000800141UL, 0x4000042400000002UL, 0x0000000000000064UL, 0x4000000040007c00UL,
 108:Model/hand_landmark_ecblobs.h ****   0x0000006440007bc4UL, 0x0080016100000000UL, 0x080000025c007c00UL, 0x000000645c000424UL,
 109:Model/hand_landmark_ecblobs.h ****   0x5c007c0000000000UL, 0x5c007bc448000000UL, 0x0000000000000064UL, 0x60007c0000800241UL,
 110:Model/hand_landmark_ecblobs.h ****   0x6000042408000002UL, 0x0000000000000064UL, 0x4800000060007c00UL, 0x0000006460007bc4UL,
 111:Model/hand_landmark_ecblobs.h ****   0x0080026100000000UL, 0x0800000264007c00UL, 0x0000006464000424UL, 0x64007c0000000000UL,
 112:Model/hand_landmark_ecblobs.h ****   0x64007bc448000000UL, 0x0000000000000064UL, 0x68007c0000800281UL, 0x6800042408000002UL,
 113:Model/hand_landmark_ecblobs.h ****   0x0000000000000064UL, 0x4800000068007c00UL, 0x0000006468007bc4UL, 0x008002a100000000UL,
 114:Model/hand_landmark_ecblobs.h ****   0x0000000218007c00UL, 0x0000006418000424UL, 0x18007c0000000000UL, 0x18007bc440000000UL,
 115:Model/hand_landmark_ecblobs.h ****   0x0000000000000064UL, 0x30007c0000800021UL, 0x3000042400000002UL, 0x0000000000000064UL,
 116:Model/hand_landmark_ecblobs.h ****   0x4000000030007c00UL, 0x0000006430007bc4UL, 0x008000e100000000UL, 0x0000000238007c00UL,
 117:Model/hand_landmark_ecblobs.h ****   0x0000006438000424UL, 0x38007c0000000000UL, 0x38007bc440000000UL, 0x0000000000000064UL,
 118:Model/hand_landmark_ecblobs.h ****   0x0000009d00800121UL, 0x5c00004200802241UL, 0x156000fc08000000UL, 0x000a00005c020123UL,
 119:Model/hand_landmark_ecblobs.h ****   0x0000000700000000UL, 0x000497ff000187ffUL, 0x0000000000005500UL, 0x0000000107a403f9UL,
 120:Model/hand_landmark_ecblobs.h ****   0x000000005c0c0043UL, 0x5c0b7c0020422042UL, 0x5d00060300000001UL, 0x00002e2efd225500UL,
 121:Model/hand_landmark_ecblobs.h ****   0x0000972ffabb5500UL, 0x000032c6fc965500UL, 0x00005cf8f8015500UL, 0x0000da53faa95500UL,
 122:Model/hand_landmark_ecblobs.h ****   0x00001224f89f5500UL, 0x0000e850fbb75500UL, 0x00007c9cf8445500UL, 0x0000562cf8445500UL,
ARM GAS  /tmp/ccAJFP7B.s 			page 26


 123:Model/hand_landmark_ecblobs.h ****   0x0000bebdf9715500UL, 0x0000e0c0fadf5500UL, 0x00000450f8745500UL, 0x000024a9f82a5500UL,
 124:Model/hand_landmark_ecblobs.h ****   0x0000c4aafbe05500UL, 0x00008dd5eddf5500UL, 0x0000fbfcf7bd5500UL, 0x0000d21605c45500UL,
 125:Model/hand_landmark_ecblobs.h ****   0x00002a74f82d5500UL, 0x00001d03f5e55500UL, 0x00003edcf4945500UL, 0x0000752cfd025500UL,
 126:Model/hand_landmark_ecblobs.h ****   0x000077a5fb295500UL, 0x00008a14f7495500UL, 0x0000674ffb7a5500UL, 0x6000004200802261UL,
 127:Model/hand_landmark_ecblobs.h ****   0x1500000008000000UL, 0x0007000060027c00UL, 0x0000400060070043UL, 0x600c004300000020UL,
 128:Model/hand_landmark_ecblobs.h ****   0x1041104100000000UL, 0x24007c0000802081UL, 0x2402004300880100UL, 0x0001880034200000UL,
 129:Model/hand_landmark_ecblobs.h ****   0x00000000240500c3UL, 0x0000000000031000UL, 0x0000002400000000UL, 0x240c004200100000UL,
 130:Model/hand_landmark_ecblobs.h ****   0x0000000700000006UL, 0x00000003240d0043UL, 0x241100433429303fUL, 0x0000000000000000UL,
 131:Model/hand_landmark_ecblobs.h ****   0x2c007c00008020c1UL, 0x2c02012300080008UL, 0x0070007034293000UL, 0x00000a8000180008UL,
 132:Model/hand_landmark_ecblobs.h ****   0x0000000300000008UL, 0x0000002400049800UL, 0x2c0c004200100000UL, 0x0000000700000006UL,
 133:Model/hand_landmark_ecblobs.h ****   0x000000032c0d0043UL, 0x2c110043342dc83fUL, 0x0000000000000000UL, 0x0000000210007c00UL,
 134:Model/hand_landmark_ecblobs.h ****   0x0000006410000424UL, 0x10007c0000000000UL, 0x10007bc440000000UL, 0x0000000000000064UL,
 135:Model/hand_landmark_ecblobs.h ****   0x0000000110007c00UL, 0x0000002710087c00UL, 0x00000009101e7c00UL, 0x0000002510207c00UL,
 136:Model/hand_landmark_ecblobs.h ****   0x5c0020012c002001UL, 0x2400200160002001UL, 0x000000642c007fe4UL, 0x10087c0000000000UL,
 137:Model/hand_landmark_ecblobs.h ****   0x101e7c0000000000UL, 0x10207c0000000000UL, 0x2c007c0000000000UL, 0x2c00042400000002UL,
 138:Model/hand_landmark_ecblobs.h ****   0x0000000000000064UL, 0x400000002c007c00UL, 0x000000642c007bc4UL, 0x008000c100000000UL,
 139:Model/hand_landmark_ecblobs.h ****   0x080000025c007c00UL, 0x000000645c000424UL, 0x5c007c0000000000UL, 0x5c007bc448000000UL,
 140:Model/hand_landmark_ecblobs.h ****   0x0000000000000064UL, 0x60007c0000800241UL, 0x6000042408000002UL, 0x0000000000000064UL,
 141:Model/hand_landmark_ecblobs.h ****   0x4800000060007c00UL, 0x0000006460007bc4UL, 0x0080026100000000UL, 0x0000000224007c00UL,
 142:Model/hand_landmark_ecblobs.h ****   0x0000006424000424UL, 0x24007c0000000000UL, 0x24007bc440000000UL, 0x0000000000000064UL,
 143:Model/hand_landmark_ecblobs.h ****   0x000000bd00800081UL, 0x44007c0000802181UL, 0x440200c300100034UL, 0x0000110010180101UL,
 144:Model/hand_landmark_ecblobs.h ****   0x00700a8010634202UL, 0x006f00000a7f0000UL, 0x00000000440a7c00UL, 0x00000000440d7c00UL,
 145:Model/hand_landmark_ecblobs.h ****   0x6400004200802281UL, 0x096000fc08000000UL, 0x0008000064020123UL, 0x0000000f00000000UL,
 146:Model/hand_landmark_ecblobs.h ****   0x00030fff00030fffUL, 0x0000000000000001UL, 0x0000000107c403f1UL, 0x00000000640c0043UL,
 147:Model/hand_landmark_ecblobs.h ****   0x640b7c0020422042UL, 0x6500040300000001UL, 0x0000000000003c61UL, 0x000000000000527bUL,
 148:Model/hand_landmark_ecblobs.h ****   0x0000000000007b69UL, 0x0000000000004f7eUL, 0x000000000000622eUL, 0x0000000000003d2fUL,
 149:Model/hand_landmark_ecblobs.h ****   0x0000000000005dd1UL, 0x00000000000053e7UL, 0x0000000000004206UL, 0x0000000000005293UL,
 150:Model/hand_landmark_ecblobs.h ****   0x0000000000004755UL, 0x00000000000049c1UL, 0x0000000000003b0dUL, 0x00000000000051d1UL,
 151:Model/hand_landmark_ecblobs.h ****   0x0000000000003550UL, 0x0000000000003e2eUL, 0x68000042008022a1UL, 0x156000fc08000000UL,
 152:Model/hand_landmark_ecblobs.h ****   0x000a000068020123UL, 0x0000000f00000000UL, 0x00030fff00030fffUL, 0x0000000000006012UL,
 153:Model/hand_landmark_ecblobs.h ****   0x0000000107c403f1UL, 0x00000000680c0043UL, 0x680b7c0020422042UL, 0x6900040300000001UL,
 154:Model/hand_landmark_ecblobs.h ****   0x0000a648ffd56012UL, 0x0000c555ff666012UL, 0x0000d335fed66012UL, 0x00007246ff906012UL,
 155:Model/hand_landmark_ecblobs.h ****   0x000046acfef96012UL, 0x0000bdf3ff8d6012UL, 0x0000dbfc01ee6012UL, 0x0000580a014c6012UL,
 156:Model/hand_landmark_ecblobs.h ****   0x0000578e03dc6012UL, 0x0000c589fe1e6012UL, 0x0000feec01636012UL, 0x0000218d00cd6012UL,
 157:Model/hand_landmark_ecblobs.h ****   0x00003a18ff1b6012UL, 0x00001b37ff426012UL, 0x0000460bfef96012UL, 0x0000a5e4fe8d6012UL,
 158:Model/hand_landmark_ecblobs.h ****   0x2c007c00008020c1UL, 0x2c02004300080104UL, 0x0004980034293000UL, 0x000000002c0500c3UL,
 159:Model/hand_landmark_ecblobs.h ****   0x0000000100049800UL, 0x0000002400000000UL, 0x2c0c004200100000UL, 0x0000000700000006UL,
 160:Model/hand_landmark_ecblobs.h ****   0x000000012c0d0043UL, 0x2c110043342dc83fUL, 0x0000000000000000UL, 0x24007c0000802081UL,
 161:Model/hand_landmark_ecblobs.h ****   0x2402004300080184UL, 0x00000180708ab7f0UL, 0x00000000240500c3UL, 0x0000000000000000UL,
 162:Model/hand_landmark_ecblobs.h ****   0x0000002400000000UL, 0x240c004200100000UL, 0x0000000700000006UL, 0x00000001240d0043UL,
 163:Model/hand_landmark_ecblobs.h ****   0x24110043708ab9afUL, 0x0000000800000000UL, 0x1c007c0000802041UL, 0x1c0200430008010cUL,
 164:Model/hand_landmark_ecblobs.h ****   0x00031000342dc800UL, 0x000000001c0500c3UL, 0x0000000000031000UL, 0x0000002400000000UL,
 165:Model/hand_landmark_ecblobs.h ****   0x1c0c004200100000UL, 0x0000000700000006UL, 0x000000011c0d0043UL, 0x1c1100433430d83fUL,
 166:Model/hand_landmark_ecblobs.h ****   0x0000000000000000UL, 0x0000000210007c00UL, 0x0000006410000424UL, 0x10007c0000000000UL,
 167:Model/hand_landmark_ecblobs.h ****   0x10007bc440000000UL, 0x0000000000000064UL, 0x0000000110007c00UL, 0x0000002b10047c00UL,
 168:Model/hand_landmark_ecblobs.h ****   0x0000000d10120043UL, 0x10227c0000000009UL, 0x10247c0000000019UL, 0x1c00200100000029UL,
 169:Model/hand_landmark_ecblobs.h ****   0x0010003544007c00UL, 0x6800200164002001UL, 0x2c00200124002001UL, 0x000000641c007fe4UL,
 170:Model/hand_landmark_ecblobs.h ****   0x10047c0000000000UL, 0x1012004300000000UL, 0x0000000000000000UL, 0x0000000010227c00UL,
 171:Model/hand_landmark_ecblobs.h ****   0x0000000010247c00UL, 0x000000021c007c00UL, 0x000000641c000424UL, 0x1c007c0000000000UL,
 172:Model/hand_landmark_ecblobs.h ****   0x1c007bc440000000UL, 0x0000000000000064UL, 0x44007c0000800041UL, 0x4400042400000002UL,
 173:Model/hand_landmark_ecblobs.h ****   0x0000000000000064UL, 0x4000000044007c00UL, 0x0000006444007bc4UL, 0x0080018100000000UL,
 174:Model/hand_landmark_ecblobs.h ****   0x0800000264007c00UL, 0x0000006464000424UL, 0x64007c0000000000UL, 0x64007bc448000000UL,
 175:Model/hand_landmark_ecblobs.h ****   0x0000000000000064UL, 0x68007c0000800281UL, 0x6800042408000002UL, 0x0000000000000064UL,
 176:Model/hand_landmark_ecblobs.h ****   0x4800000068007c00UL, 0x0000006468007bc4UL, 0x008002a100000000UL, 0x0000000224007c00UL,
 177:Model/hand_landmark_ecblobs.h ****   0x0000006424000424UL, 0x24007c0000000000UL, 0x24007bc440000000UL, 0x0000000000000064UL,
 178:Model/hand_landmark_ecblobs.h ****   0x2c007c0000800081UL, 0x2c00042400000002UL, 0x0000000000000064UL, 0x400000002c007c00UL,
 179:Model/hand_landmark_ecblobs.h ****   0x000000642c007bc4UL, 0x008000c100000000UL, 0x008021a1000000ddUL, 0x0000005448007c00UL,
ARM GAS  /tmp/ccAJFP7B.s 			page 27


 180:Model/hand_landmark_ecblobs.h ****   0x10100101480200c3UL, 0x10a3420200001100UL, 0x06ff000000700700UL, 0x480a7c00006f0000UL,
 181:Model/hand_landmark_ecblobs.h ****   0x480c004300000000UL, 0x0000000000fffff6UL, 0x5c00004200802241UL, 0x096000fc08000000UL,
 182:Model/hand_landmark_ecblobs.h ****   0x000500005c020123UL, 0x0000000f00000000UL, 0x000c3fff00030fffUL, 0x0000000000000001UL,
 183:Model/hand_landmark_ecblobs.h ****   0x00000001070403f1UL, 0x000000005c0c0043UL, 0x5c0b7c0020422042UL, 0x5d00100300000001UL,
 184:Model/hand_landmark_ecblobs.h ****   0x00000000000008b5UL, 0x0000000000000000UL, 0x00000000000005cbUL, 0x00000000000041d7UL,
 185:Model/hand_landmark_ecblobs.h ****   0x0000000000000000UL, 0x0000000000000834UL, 0x0000000000002223UL, 0x00000000000007eeUL,
 186:Model/hand_landmark_ecblobs.h ****   0x0000000000002768UL, 0x00000000000001e7UL, 0x0000000000000a96UL, 0x0000000000000c6fUL,
 187:Model/hand_landmark_ecblobs.h ****   0x000000000000022bUL, 0x00000000000006deUL, 0x00000000000015a7UL, 0x000000000000028cUL,
 188:Model/hand_landmark_ecblobs.h ****   0x00000000000007deUL, 0x00000000000003c4UL, 0x000000000000035cUL, 0x0000000000000c4eUL,
 189:Model/hand_landmark_ecblobs.h ****   0x00000000000006a5UL, 0x00000000000002a6UL, 0x00000000000004aaUL, 0x0000000000001071UL,
 190:Model/hand_landmark_ecblobs.h ****   0x0000000000001396UL, 0x0000000000000627UL, 0x000000000000041fUL, 0x0000000000000051UL,
 191:Model/hand_landmark_ecblobs.h ****   0x00000000000009e6UL, 0x0000000000001b3cUL, 0x000000000000062aUL, 0x00000000000002bbUL,
 192:Model/hand_landmark_ecblobs.h ****   0x0000000000000000UL, 0x0000000000000e34UL, 0x0000000000000db4UL, 0x0000000000000378UL,
 193:Model/hand_landmark_ecblobs.h ****   0x00000000000007ceUL, 0x00000000000014f6UL, 0x000000000000199eUL, 0x00000000000003b9UL,
 194:Model/hand_landmark_ecblobs.h ****   0x0000000000000546UL, 0x0000000000000252UL, 0x00000000000012c2UL, 0x0000000000000ec0UL,
 195:Model/hand_landmark_ecblobs.h ****   0x000000000000172aUL, 0x00000000000007c5UL, 0x000000000000297bUL, 0x00000000000006beUL,
 196:Model/hand_landmark_ecblobs.h ****   0x0000000000001035UL, 0x000000000000024bUL, 0x00000000000005f3UL, 0x000000000000005bUL,
 197:Model/hand_landmark_ecblobs.h ****   0x0000000000000a41UL, 0x0000000000000028UL, 0x0000000000002829UL, 0x0000000000000d4bUL,
 198:Model/hand_landmark_ecblobs.h ****   0x0000000000000dc6UL, 0x00000000000004cdUL, 0x00000000000009d5UL, 0x0000000000000a91UL,
 199:Model/hand_landmark_ecblobs.h ****   0x0000000000000e8aUL, 0x0000000000000031UL, 0x0000000000000925UL, 0x0000000000001330UL,
 200:Model/hand_landmark_ecblobs.h ****   0x6000004200802261UL, 0x156000fc08000000UL, 0x000a000060020123UL, 0x0000000f00000000UL,
 201:Model/hand_landmark_ecblobs.h ****   0x000c3fff00030fffUL, 0x0000000000005500UL, 0x00000001070403f1UL, 0x00000000600c0043UL,
 202:Model/hand_landmark_ecblobs.h ****   0x600b7c0020422042UL, 0x6100100300000001UL, 0x0000b67efdf85500UL, 0x0000a711f7f35500UL,
 203:Model/hand_landmark_ecblobs.h ****   0x0000e0b5fccd5500UL, 0x0000798bfdf35500UL, 0x000006fef7f95500UL, 0x00005260fa025500UL,
 204:Model/hand_landmark_ecblobs.h ****   0x00003ab7f4ec5500UL, 0x00005f79fe545500UL, 0x0000da83f5e15500UL, 0x0000f60dfb575500UL,
 205:Model/hand_landmark_ecblobs.h ****   0x00009e71f6725500UL, 0x0000af88f84e5500UL, 0x0000436bfc665500UL, 0x0000b9e5fcf95500UL,
 206:Model/hand_landmark_ecblobs.h ****   0x00002235f41d5500UL, 0x0000a525f9ab5500UL, 0x0000573000425500UL, 0x000017f6f99a5500UL,
 207:Model/hand_landmark_ecblobs.h ****   0x0000cbb7fa2c5500UL, 0x0000d378f97f5500UL, 0x0000af77f6a55500UL, 0x0000fa32f82b5500UL,
 208:Model/hand_landmark_ecblobs.h ****   0x0000c8a2f7d55500UL, 0x000030b5f6ab5500UL, 0x000047fefd925500UL, 0x0000667cf6c05500UL,
 209:Model/hand_landmark_ecblobs.h ****   0x0000e31cfcbf5500UL, 0x0000a6cdf8ae5500UL, 0x00000647f8a85500UL, 0x000071f1f30d5500UL,
 210:Model/hand_landmark_ecblobs.h ****   0x00008d93fd625500UL, 0x000080d7fa795500UL, 0x00003a28f7f35500UL, 0x0000d78bf76a5500UL,
 211:Model/hand_landmark_ecblobs.h ****   0x0000cff0f66e5500UL, 0x00009d90f8e35500UL, 0x0000e79efab55500UL, 0x00003c1af5f15500UL,
 212:Model/hand_landmark_ecblobs.h ****   0x00005789f8515500UL, 0x00003ca0fd0c5500UL, 0x00000b5efb915500UL, 0x0000f2e8f9b25500UL,
 213:Model/hand_landmark_ecblobs.h ****   0x0000089cf48a5500UL, 0x00003312ee9c5500UL, 0x00003727f38d5500UL, 0x00004d1800af5500UL,
 214:Model/hand_landmark_ecblobs.h ****   0x00000072e4d15500UL, 0x00007e91f9d25500UL, 0x00004918f5f45500UL, 0x00004d2af8985500UL,
 215:Model/hand_landmark_ecblobs.h ****   0x0000f5cdf7b35500UL, 0x0000341af8115500UL, 0x00009c61f77e5500UL, 0x0000e3b7f7ee5500UL,
 216:Model/hand_landmark_ecblobs.h ****   0x00009c26f4dc5500UL, 0x00004309f8a05500UL, 0x0000e285f5ea5500UL, 0x0000f4b2f7bf5500UL,
 217:Model/hand_landmark_ecblobs.h ****   0x0000946af6ff5500UL, 0x000024d9fc215500UL, 0x000015c8f6815500UL, 0x00009ccff8105500UL,
 218:Model/hand_landmark_ecblobs.h ****   0x00004e96fc5a5500UL, 0x000064c2f7d55500UL, 0x6400004200802281UL, 0x1500000008000000UL,
 219:Model/hand_landmark_ecblobs.h ****   0x0007000064027c00UL, 0x0000400064070043UL, 0x640c004300000020UL, 0x1041104100000000UL,
 220:Model/hand_landmark_ecblobs.h ****   0x20007c0000802061UL, 0x200200430008c100UL, 0x00031000342dc800UL, 0x00000000200500c3UL,
 221:Model/hand_landmark_ecblobs.h ****   0x0000000100031000UL, 0x0000002400000000UL, 0x200c004200100000UL, 0x0000000700000006UL,
 222:Model/hand_landmark_ecblobs.h ****   0x00000004200d0043UL, 0x201100433430d83fUL, 0x0000000000000000UL, 0x14007c0000802001UL,
 223:Model/hand_landmark_ecblobs.h ****   0x140200430008c184UL, 0x00000400708ab160UL, 0x00000000140500c3UL, 0x0000000000000000UL,
 224:Model/hand_landmark_ecblobs.h ****   0x0000002400000000UL, 0x140c004200100000UL, 0x0000000700000006UL, 0x00000001140d0043UL,
 225:Model/hand_landmark_ecblobs.h ****   0x14110043708ab59fUL, 0x0000000800000000UL, 0x38007c0000802121UL, 0x3802012300080008UL,
 226:Model/hand_landmark_ecblobs.h ****   0x0070007034200000UL, 0x00001c0000400010UL, 0x0000000400000010UL, 0x00000024000c4000UL,
 227:Model/hand_landmark_ecblobs.h ****   0x380c004200100000UL, 0x0000000700000006UL, 0x00000004380d0043UL, 0x38110043342c403fUL,
 228:Model/hand_landmark_ecblobs.h ****   0x0000000000000000UL, 0x0000000210007c00UL, 0x0000006410000424UL, 0x10007c0000000000UL,
 229:Model/hand_landmark_ecblobs.h ****   0x10007bc440000000UL, 0x0000000000000064UL, 0x0000000110007c00UL, 0x00000029100b7c00UL,
 230:Model/hand_landmark_ecblobs.h ****   0x0000000710150043UL, 0x101e7c0000000001UL, 0x10207c000000001bUL, 0x10227c0000000025UL,
 231:Model/hand_landmark_ecblobs.h ****   0x3800200100000027UL, 0x0000005548007c00UL, 0x600020015c002001UL, 0x1400200164002001UL,
 232:Model/hand_landmark_ecblobs.h ****   0x38007fe420002001UL, 0x0000000000000064UL, 0x00000000100b7c00UL, 0x0000000010150043UL,
 233:Model/hand_landmark_ecblobs.h ****   0x101e7c0000000000UL, 0x10207c0000000000UL, 0x10227c0000000000UL, 0x38007c0000000000UL,
 234:Model/hand_landmark_ecblobs.h ****   0x3800042400000002UL, 0x0000000000000064UL, 0x4000000038007c00UL, 0x0000006438007bc4UL,
 235:Model/hand_landmark_ecblobs.h ****   0x0080012100000000UL, 0x0000000248007c00UL, 0x0000006448000424UL, 0x48007c0000000000UL,
 236:Model/hand_landmark_ecblobs.h ****   0x48007bc440000000UL, 0x0000000000000064UL, 0x5c007c00008001a1UL, 0x5c00042408000002UL,
ARM GAS  /tmp/ccAJFP7B.s 			page 28


 237:Model/hand_landmark_ecblobs.h ****   0x0000000000000064UL, 0x480000005c007c00UL, 0x000000645c007bc4UL, 0x0080024100000000UL,
 238:Model/hand_landmark_ecblobs.h ****   0x0800000260007c00UL, 0x0000006460000424UL, 0x60007c0000000000UL, 0x60007bc448000000UL,
 239:Model/hand_landmark_ecblobs.h ****   0x0000000000000064UL, 0x64007c0000800261UL, 0x6400042408000002UL, 0x0000000000000064UL,
 240:Model/hand_landmark_ecblobs.h ****   0x4800000064007c00UL, 0x0000006464007bc4UL, 0x0080028100000000UL, 0x0000000214007c00UL,
 241:Model/hand_landmark_ecblobs.h ****   0x0000006414000424UL, 0x14007c0000000000UL, 0x14007bc440000000UL, 0x0000000000000064UL,
 242:Model/hand_landmark_ecblobs.h ****   0x20007c0000800001UL, 0x2000042400000002UL, 0x0000000000000064UL, 0x4000000020007c00UL,
 243:Model/hand_landmark_ecblobs.h ****   0x0000006420007bc4UL, 0x0080006100000000UL, 0x00802141000000fdUL, 0x001000343c007c00UL,
 244:Model/hand_landmark_ecblobs.h ****   0x080803033c0200c3UL, 0x1063430300002244UL, 0x037f000000700380UL, 0x3c0a7c00006f0000UL,
 245:Model/hand_landmark_ecblobs.h ****   0x3c0d7c0000000000UL, 0x008022a100000000UL, 0x0800000068000042UL, 0x68020123096000fcUL,
 246:Model/hand_landmark_ecblobs.h ****   0x0000000000038000UL, 0x000061ff00000007UL, 0x0000000100030fffUL, 0x070403f900000000UL,
 247:Model/hand_landmark_ecblobs.h ****   0x680c004300000001UL, 0x2042204200000000UL, 0x00000001680b7c00UL, 0x000001df69001003UL,
 248:Model/hand_landmark_ecblobs.h ****   0x0000000000000000UL, 0x0000079100000000UL, 0x0000008900000000UL, 0x0000000000000000UL,
 249:Model/hand_landmark_ecblobs.h ****   0x0000008700000000UL, 0x0000002e00000000UL, 0x000001ef00000000UL, 0x0000009400000000UL,
 250:Model/hand_landmark_ecblobs.h ****   0x0000045a00000000UL, 0x0000007100000000UL, 0x000000a100000000UL, 0x000005ad00000000UL,
 251:Model/hand_landmark_ecblobs.h ****   0x000001aa00000000UL, 0x0000004700000000UL, 0x0000021000000000UL, 0x0000008c00000000UL,
 252:Model/hand_landmark_ecblobs.h ****   0x000002a300000000UL, 0x0000193500000000UL, 0x0000007900000000UL, 0x0000007d00000000UL,
 253:Model/hand_landmark_ecblobs.h ****   0x0000019900000000UL, 0x0000015000000000UL, 0x0000012100000000UL, 0x0000004700000000UL,
 254:Model/hand_landmark_ecblobs.h ****   0x0000016500000000UL, 0x0000016d00000000UL, 0x0000331500000000UL, 0x0000009f00000000UL,
 255:Model/hand_landmark_ecblobs.h ****   0x0000013400000000UL, 0x0000010b00000000UL, 0x0000066000000000UL, 0x0000000000000000UL,
 256:Model/hand_landmark_ecblobs.h ****   0x0000009600000000UL, 0x0000005a00000000UL, 0x0000019a00000000UL, 0x0000027600000000UL,
 257:Model/hand_landmark_ecblobs.h ****   0x0000004a00000000UL, 0x000000de00000000UL, 0x000001d500000000UL, 0x0000012700000000UL,
 258:Model/hand_landmark_ecblobs.h ****   0x0000034700000000UL, 0x000000ad00000000UL, 0x0000026400000000UL, 0x0000005f00000000UL,
 259:Model/hand_landmark_ecblobs.h ****   0x0000025300000000UL, 0x0000109700000000UL, 0x000000d300000000UL, 0x0000004700000000UL,
 260:Model/hand_landmark_ecblobs.h ****   0x0000028b00000000UL, 0x000000d400000000UL, 0x00000b9c00000000UL, 0x0000006b00000000UL,
 261:Model/hand_landmark_ecblobs.h ****   0x00005f9200000000UL, 0x0000003b00000000UL, 0x0000010700000000UL, 0x0000004a00000000UL,
 262:Model/hand_landmark_ecblobs.h ****   0x000001c800000000UL, 0x0000008d00000000UL, 0x0000008900000000UL, 0x000000d100000000UL,
 263:Model/hand_landmark_ecblobs.h ****   0x00001aa200000000UL, 0x0000010500000000UL, 0x0000008500000000UL, 0x0080224100000000UL,
 264:Model/hand_landmark_ecblobs.h ****   0x080000005c000042UL, 0x5c020123156000fcUL, 0x00000000000a0000UL, 0x000061ff00000007UL,
 265:Model/hand_landmark_ecblobs.h ****   0x0000550000030fffUL, 0x070403f900000000UL, 0x5c0c004300000001UL, 0x2042204200000000UL,
 266:Model/hand_landmark_ecblobs.h ****   0x000000015c0b7c00UL, 0xf80755005d001003UL, 0xf93655000000c4f9UL, 0xf8c2550000009d7eUL,
 267:Model/hand_landmark_ecblobs.h ****   0xf7fe55000000aa54UL, 0xfcf555000000efdfUL, 0x007b55000000affeUL, 0xfbe85500000078cbUL,
 268:Model/hand_landmark_ecblobs.h ****   0xf7eb55000000befdUL, 0xf79a55000000ee34UL, 0xf6bd55000000b942UL, 0x043e55000000ca94UL,
 269:Model/hand_landmark_ecblobs.h ****   0xfc435500000063b8UL, 0xf7f2550000000ca5UL, 0xf81655000000ce5cUL, 0xfc4e55000000d142UL,
 270:Model/hand_landmark_ecblobs.h ****   0xf814550000005893UL, 0x00b35500000031b3UL, 0xf8d5550000004898UL, 0xf8a3550000001000UL,
 271:Model/hand_landmark_ecblobs.h ****   0xf7e355000000376fUL, 0xf8ae55000000c650UL, 0xf79e5500000026e2UL, 0xf7f055000000c8a1UL,
 272:Model/hand_landmark_ecblobs.h ****   0x01f355000000bd3aUL, 0xff3f550000005fffUL, 0xfe5d55000000667bUL, 0xf7d0550000009e5bUL,
 273:Model/hand_landmark_ecblobs.h ****   0xf76755000000f172UL, 0xfc53550000005ab5UL, 0xfc1455000000ade8UL, 0xf7e15500000094dbUL,
 274:Model/hand_landmark_ecblobs.h ****   0xf7e5550000005c40UL, 0xfa8e5500000004e9UL, 0xf7ed5500000019fcUL, 0xf89155000000d9a7UL,
 275:Model/hand_landmark_ecblobs.h ****   0xf481550000009c01UL, 0xfbba55000000763dUL, 0xfdb85500000056d9UL, 0xf69c55000000ed91UL,
 276:Model/hand_landmark_ecblobs.h ****   0xf7ef55000000b56aUL, 0xf81555000000bdf4UL, 0xf849550000005be3UL, 0xfbab55000000c060UL,
 277:Model/hand_landmark_ecblobs.h ****   0xf503550000009f25UL, 0xfd72550000009243UL, 0xf83955000000887dUL, 0xf7fe550000007cf9UL,
 278:Model/hand_landmark_ecblobs.h ****   0xfa94550000009f7fUL, 0xf7f4550000006ed6UL, 0xfe6e55000000a275UL, 0xf79555000000f691UL,
 279:Model/hand_landmark_ecblobs.h ****   0xf8f75500000022fdUL, 0xfd2355000000a408UL, 0xfa8a550000007db8UL, 0x01c0550000008304UL,
 280:Model/hand_landmark_ecblobs.h ****   0xfc6c55000000e1daUL, 0xfbf1550000003f5eUL, 0xf3c1550000005ea5UL, 0xfc1a55000000a995UL,
 281:Model/hand_landmark_ecblobs.h ****   0xf814550000008901UL, 0xfd8d55000000aec9UL, 0xf2115500000016d4UL, 0xf778550000004c15UL,
 282:Model/hand_landmark_ecblobs.h ****   0xfe7955000000bc79UL, 0x0080226100008147UL, 0x0800000060000042UL, 0x60027c0015000000UL,
 283:Model/hand_landmark_ecblobs.h ****   0x6007004300070000UL, 0x0000002000004000UL, 0x00000000600c0043UL, 0x008020e110411041UL,
 284:Model/hand_landmark_ecblobs.h ****   0x0008000030007c00UL, 0x3420000030020123UL, 0x0040000800700070UL, 0x0000000000001c00UL,
 285:Model/hand_landmark_ecblobs.h ****   0x0000000800000001UL, 0x0010000000000024UL, 0x00000006300c0042UL, 0x300d004300000007UL,
 286:Model/hand_landmark_ecblobs.h ****   0x342c403f00000008UL, 0x0000000030110043UL, 0x0080208100000000UL, 0x0008018424007c00UL,
 287:Model/hand_landmark_ecblobs.h ****   0x708a3b8024020043UL, 0x240500c300001200UL, 0x0000000000000000UL, 0x0000000000000000UL,
 288:Model/hand_landmark_ecblobs.h ****   0x0010000000000024UL, 0x00000006240c0042UL, 0x240d004300000007UL, 0x708a4dbf00000001UL,
 289:Model/hand_landmark_ecblobs.h ****   0x0000000024110043UL, 0x0080206100000008UL, 0x0008000820007c00UL, 0x342c400020020123UL,
 290:Model/hand_landmark_ecblobs.h ****   0x0040000800380038UL, 0x0000000800000e00UL, 0x0003100000000008UL, 0x0010000000000024UL,
 291:Model/hand_landmark_ecblobs.h ****   0x00000006200c0042UL, 0x200d004300000007UL, 0x342f503f00000008UL, 0x0000000020110043UL,
 292:Model/hand_landmark_ecblobs.h ****   0x10007c0000000000UL, 0x1000042400000002UL, 0x0000000000000064UL, 0x4000000010007c00UL,
 293:Model/hand_landmark_ecblobs.h ****   0x0000006410007bc4UL, 0x10007c0000000000UL, 0x10057c0000000001UL, 0x100c004300000027UL,
ARM GAS  /tmp/ccAJFP7B.s 			page 29


 294:Model/hand_landmark_ecblobs.h ****   0x000000090000000fUL, 0x0000002b101e7c00UL, 0x0000002510207c00UL, 0x0000001510247c00UL,
 295:Model/hand_landmark_ecblobs.h ****   0x3c007c0020002001UL, 0x5c00200100100035UL, 0x6800200160002001UL, 0x3000200124002001UL,
 296:Model/hand_landmark_ecblobs.h ****   0x0000006420007fe4UL, 0x10057c0000000000UL, 0x100c004300000000UL, 0x0000000000000000UL,
 297:Model/hand_landmark_ecblobs.h ****   0x00000000101e7c00UL, 0x0000000010207c00UL, 0x0000000010247c00UL, 0x0000000220007c00UL,
 298:Model/hand_landmark_ecblobs.h ****   0x0000006420000424UL, 0x20007c0000000000UL, 0x20007bc440000000UL, 0x0000000000000064UL,
 299:Model/hand_landmark_ecblobs.h ****   0x3c007c0000800061UL, 0x3c00042400000002UL, 0x0000000000000064UL, 0x400000003c007c00UL,
 300:Model/hand_landmark_ecblobs.h ****   0x000000643c007bc4UL, 0x0080014100000000UL, 0x080000025c007c00UL, 0x000000645c000424UL,
 301:Model/hand_landmark_ecblobs.h ****   0x5c007c0000000000UL, 0x5c007bc448000000UL, 0x0000000000000064UL, 0x60007c0000800241UL,
 302:Model/hand_landmark_ecblobs.h ****   0x6000042408000002UL, 0x0000000000000064UL, 0x4800000060007c00UL, 0x0000006460007bc4UL,
 303:Model/hand_landmark_ecblobs.h ****   0x0080026100000000UL, 0x0800000268007c00UL, 0x0000006468000424UL, 0x68007c0000000000UL,
 304:Model/hand_landmark_ecblobs.h ****   0x68007bc448000000UL, 0x0000000000000064UL, 0x24007c00008002a1UL, 0x2400042400000002UL,
 305:Model/hand_landmark_ecblobs.h ****   0x0000000000000064UL, 0x4000000024007c00UL, 0x0000006424007bc4UL, 0x0080008100000000UL,
 306:Model/hand_landmark_ecblobs.h ****   0x0000000230007c00UL, 0x0000006430000424UL, 0x30007c0000000000UL, 0x30007bc440000000UL,
 307:Model/hand_landmark_ecblobs.h ****   0x0000000000000064UL, 0x0000011d008000e1UL, 0x40007c0000802161UL, 0x400200c310d00034UL,
 308:Model/hand_landmark_ecblobs.h ****   0x0000110018400101UL, 0x00380e0010e34303UL, 0x003700000dff0000UL, 0x00000000400a7c00UL,
 309:Model/hand_landmark_ecblobs.h ****   0x00000000400d7c00UL, 0x6400004200802281UL, 0x096000fc08000000UL, 0x0007800064020123UL,
 310:Model/hand_landmark_ecblobs.h ****   0x0000001700000000UL, 0x000125ff000125ffUL, 0x0000000000000001UL, 0x0000000107a403e9UL,
 311:Model/hand_landmark_ecblobs.h ****   0x00000000640c0043UL, 0x640b7c0020422042UL, 0x6500060300000001UL, 0x0000000000005355UL,
 312:Model/hand_landmark_ecblobs.h ****   0x0000000000002eacUL, 0x0000000000003d17UL, 0x0000000000005c28UL, 0x00000000000033b3UL,
 313:Model/hand_landmark_ecblobs.h ****   0x00000000000055e5UL, 0x000000000000402cUL, 0x000000000000414fUL, 0x0000000000002f98UL,
 314:Model/hand_landmark_ecblobs.h ****   0x0000000000002c4dUL, 0x0000000000003e0aUL, 0x00000000000031e5UL, 0x0000000000003085UL,
 315:Model/hand_landmark_ecblobs.h ****   0x000000000000606dUL, 0x0000000000002b48UL, 0x0000000000003283UL, 0x0000000000003ee4UL,
 316:Model/hand_landmark_ecblobs.h ****   0x0000000000003871UL, 0x0000000000004749UL, 0x000000000000489dUL, 0x0000000000004ca5UL,
 317:Model/hand_landmark_ecblobs.h ****   0x00000000000044baUL, 0x00000000000044baUL, 0x0000000000003b31UL, 0x5c00004200802241UL,
 318:Model/hand_landmark_ecblobs.h ****   0x156000fc08000000UL, 0x000a00005c020123UL, 0x0000001700000000UL, 0x000125ff000125ffUL,
 319:Model/hand_landmark_ecblobs.h ****   0x0000000000006ea3UL, 0x0000000107a403e9UL, 0x000000005c0c0043UL, 0x5c0b7c0020422042UL,
 320:Model/hand_landmark_ecblobs.h ****   0x5d00060300000001UL, 0x000047d2fd916ea3UL, 0x0000a37600806ea3UL, 0x0000b209fea06ea3UL,
 321:Model/hand_landmark_ecblobs.h ****   0x0000a2df03456ea3UL, 0x0000e54c02876ea3UL, 0x0000fab3feb16ea3UL, 0x0000c933fb996ea3UL,
 322:Model/hand_landmark_ecblobs.h ****   0x0000333402236ea3UL, 0x0000f878fd496ea3UL, 0x0000c4ec03116ea3UL, 0x0000759200586ea3UL,
 323:Model/hand_landmark_ecblobs.h ****   0x00009db800036ea3UL, 0x0000fc6e016e6ea3UL, 0x0000254bffd56ea3UL, 0x0000d5ffff5b6ea3UL,
 324:Model/hand_landmark_ecblobs.h ****   0x000097cbffb26ea3UL, 0x0000b92600986ea3UL, 0x0000b3cffdc46ea3UL, 0x0000560dfff66ea3UL,
 325:Model/hand_landmark_ecblobs.h ****   0x000086c0fef46ea3UL, 0x00002805fdd86ea3UL, 0x00005278014b6ea3UL, 0x0000222302706ea3UL,
 326:Model/hand_landmark_ecblobs.h ****   0x00005ece017c6ea3UL, 0x20007c0000802061UL, 0x2002004308880304UL, 0x00010556342c4000UL,
 327:Model/hand_landmark_ecblobs.h ****   0x00000000200500c3UL, 0x0000000100000000UL, 0x0000002400031000UL, 0x200c004200100000UL,
 328:Model/hand_landmark_ecblobs.h ****   0x0000000700000006UL, 0x00000001200d0043UL, 0x20110043342f503fUL, 0x0000000000000000UL,
 329:Model/hand_landmark_ecblobs.h ****   0x2c007c00008020c1UL, 0x2c02004308880184UL, 0x00000200708a9ca0UL, 0x000000002c0500c3UL,
 330:Model/hand_landmark_ecblobs.h ****   0x0000000000000000UL, 0x0000002400000000UL, 0x2c0c004200100000UL, 0x0000000700000006UL,
 331:Model/hand_landmark_ecblobs.h ****   0x000000012c0d0043UL, 0x2c110043708aa2dfUL, 0x0000000800000000UL, 0x38007c0000802121UL,
 332:Model/hand_landmark_ecblobs.h ****   0x380200430008010cUL, 0x00012600342f5000UL, 0x00000000380500c3UL, 0x0000000000012600UL,
 333:Model/hand_landmark_ecblobs.h ****   0x0000002400000000UL, 0x380c004200100000UL, 0x0000000700000006UL, 0x00000001380d0043UL,
 334:Model/hand_landmark_ecblobs.h ****   0x381100433430763fUL, 0x0000000000000000UL, 0x0000000210007c00UL, 0x0000006410000424UL,
 335:Model/hand_landmark_ecblobs.h ****   0x10007c0000000000UL, 0x10007bc440000000UL, 0x0000000000000064UL, 0x0000000110007c00UL,
 336:Model/hand_landmark_ecblobs.h ****   0x00000025100b7c00UL, 0x00000007100f0043UL, 0x101e7c000000000dUL, 0x10227c0000000029UL,
 337:Model/hand_landmark_ecblobs.h ****   0x3800200100000017UL, 0x10d0003540007c00UL, 0x640020015c002001UL, 0x2c00200120002001UL,
 338:Model/hand_landmark_ecblobs.h ****   0x0000006438007fe4UL, 0x100b7c0000000000UL, 0x100f004300000000UL, 0x0000000000000000UL,
 339:Model/hand_landmark_ecblobs.h ****   0x00000000101e7c00UL, 0x0000000010227c00UL, 0x0000000238007c00UL, 0x0000006438000424UL,
 340:Model/hand_landmark_ecblobs.h ****   0x38007c0000000000UL, 0x38007bc440000000UL, 0x0000000000000064UL, 0x40007c0000800121UL,
 341:Model/hand_landmark_ecblobs.h ****   0x4000042400000002UL, 0x0000000000000064UL, 0x4000000040007c00UL, 0x0000006440007bc4UL,
 342:Model/hand_landmark_ecblobs.h ****   0x0080016100000000UL, 0x080000025c007c00UL, 0x000000645c000424UL, 0x5c007c0000000000UL,
 343:Model/hand_landmark_ecblobs.h ****   0x5c007bc448000000UL, 0x0000000000000064UL, 0x64007c0000800241UL, 0x6400042408000002UL,
 344:Model/hand_landmark_ecblobs.h ****   0x0000000000000064UL, 0x4800000064007c00UL, 0x0000006464007bc4UL, 0x0080028100000000UL,
 345:Model/hand_landmark_ecblobs.h ****   0x0000000220007c00UL, 0x0000006420000424UL, 0x20007c0000000000UL, 0x20007bc440000000UL,
 346:Model/hand_landmark_ecblobs.h ****   0x0000000000000064UL, 0x2c007c0000800061UL, 0x2c00042400000002UL, 0x0000000000000064UL,
 347:Model/hand_landmark_ecblobs.h ****   0x400000002c007c00UL, 0x000000642c007bc4UL, 0x008000c100000000UL, 0x008021810000013dUL,
 348:Model/hand_landmark_ecblobs.h ****   0x0000005444007c00UL, 0x18180101440200c3UL, 0x10a3430300001100UL, 0x053f000000380540UL,
 349:Model/hand_landmark_ecblobs.h ****   0x440a7c0000370000UL, 0x440c004300000000UL, 0x0000000000000006UL, 0x6000004200802261UL,
 350:Model/hand_landmark_ecblobs.h ****   0x096000fc08000000UL, 0x0005800060020123UL, 0x0000001700000000UL, 0x0006e3ff000125ffUL,
ARM GAS  /tmp/ccAJFP7B.s 			page 30


 351:Model/hand_landmark_ecblobs.h ****   0x0000000000000001UL, 0x0000000105c403e9UL, 0x00000000600c0043UL, 0x600b7c0020422042UL,
 352:Model/hand_landmark_ecblobs.h ****   0x6100240300000001UL, 0x0000000000003304UL, 0x000000000000082eUL, 0x0000000000000ec2UL,
 353:Model/hand_landmark_ecblobs.h ****   0x000000000000083aUL, 0x000000000000065cUL, 0x0000000000000167UL, 0x00000000000010d6UL,
 354:Model/hand_landmark_ecblobs.h ****   0x00000000000007cbUL, 0x000000000000140bUL, 0x00000000000054d4UL, 0x0000000000003802UL,
 355:Model/hand_landmark_ecblobs.h ****   0x0000000000000c45UL, 0x0000000000000562UL, 0x00000000000005c9UL, 0x0000000000001d68UL,
 356:Model/hand_landmark_ecblobs.h ****   0x0000000000000adcUL, 0x0000000000000a7fUL, 0x000000000000012fUL, 0x00000000000012eeUL,
 357:Model/hand_landmark_ecblobs.h ****   0x0000000000000785UL, 0x00000000000004acUL, 0x00000000000026b3UL, 0x00000000000013e5UL,
 358:Model/hand_landmark_ecblobs.h ****   0x0000000000002789UL, 0x0000000000001c26UL, 0x000000000000080cUL, 0x00000000000010d6UL,
 359:Model/hand_landmark_ecblobs.h ****   0x0000000000002266UL, 0x0000000000000f24UL, 0x0000000000003aa1UL, 0x0000000000000b4cUL,
 360:Model/hand_landmark_ecblobs.h ****   0x000000000000228bUL, 0x000000000000162cUL, 0x00000000000010dfUL, 0x0000000000000640UL,
 361:Model/hand_landmark_ecblobs.h ****   0x0000000000002550UL, 0x0000000000000d79UL, 0x0000000000000bb5UL, 0x0000000000000245UL,
 362:Model/hand_landmark_ecblobs.h ****   0x0000000000002341UL, 0x000000000000197dUL, 0x000000000000281eUL, 0x00000000000020e3UL,
 363:Model/hand_landmark_ecblobs.h ****   0x0000000000004219UL, 0x0000000000000d10UL, 0x0000000000002a16UL, 0x0000000000000000UL,
 364:Model/hand_landmark_ecblobs.h ****   0x0000000000001109UL, 0x0000000000002d8cUL, 0x0000000000000c22UL, 0x0000000000002f39UL,
 365:Model/hand_landmark_ecblobs.h ****   0x0000000000000583UL, 0x0000000000002d96UL, 0x00000000000003b7UL, 0x0000000000002c62UL,
 366:Model/hand_landmark_ecblobs.h ****   0x0000000000000e1fUL, 0x000000000000254bUL, 0x0000000000003b49UL, 0x00000000000006abUL,
 367:Model/hand_landmark_ecblobs.h ****   0x0000000000000000UL, 0x0000000000000a50UL, 0x0000000000002462UL, 0x00000000000006c2UL,
 368:Model/hand_landmark_ecblobs.h ****   0x0000000000000c68UL, 0x0000000000001ae0UL, 0x00000000000002e0UL, 0x0000000000001f64UL,
 369:Model/hand_landmark_ecblobs.h ****   0x0000000000000fd7UL, 0x0000000000001519UL, 0x00000000000011c4UL, 0x0000000000001291UL,
 370:Model/hand_landmark_ecblobs.h ****   0x000000000000083bUL, 0x00000000000010e8UL, 0x000000000000160cUL, 0x00000000000021beUL,
 371:Model/hand_landmark_ecblobs.h ****   0x0000000000001138UL, 0x0000000000002028UL, 0x0000000000001089UL, 0x00000000000062f8UL,
 372:Model/hand_landmark_ecblobs.h ****   0x0000000000001b05UL, 0x00000000000017c2UL, 0x000000000000178fUL, 0x0000000000002cdbUL,
 373:Model/hand_landmark_ecblobs.h ****   0x0000000000000de9UL, 0x0000000000002111UL, 0x0000000000001760UL, 0x0000000000002601UL,
 374:Model/hand_landmark_ecblobs.h ****   0x0000000000001b62UL, 0x0000000000000662UL, 0x000000000000140bUL, 0x0000000000000558UL,
 375:Model/hand_landmark_ecblobs.h ****   0x0000000000001eb3UL, 0x00000000000015e6UL, 0x0000000000000c10UL, 0x0000000000003281UL,
 376:Model/hand_landmark_ecblobs.h ****   0x00000000000020d0UL, 0x0000000000000a1dUL, 0x0000000000003ab4UL, 0x0000000000000e3bUL,
 377:Model/hand_landmark_ecblobs.h ****   0x0000000000000fd0UL, 0x0000000000000c66UL, 0x0000000000000492UL, 0x0000000000001607UL,
 378:Model/hand_landmark_ecblobs.h ****   0x0000000000000bc5UL, 0x00000000000003baUL, 0x0000000000001ff0UL, 0x0000000000003a0cUL,
 379:Model/hand_landmark_ecblobs.h ****   0x000000000000288eUL, 0x0000000000001f52UL, 0x00000000000015aaUL, 0x00000000000008efUL,
 380:Model/hand_landmark_ecblobs.h ****   0x0000000000003613UL, 0x0000000000001a79UL, 0x000000000000029eUL, 0x0000000000001a6bUL,
 381:Model/hand_landmark_ecblobs.h ****   0x00000000000013b2UL, 0x00000000000002b6UL, 0x00000000000008e8UL, 0x0000000000001ed4UL,
 382:Model/hand_landmark_ecblobs.h ****   0x0000000000000bd3UL, 0x000000000000060aUL, 0x000000000000085dUL, 0x00000000000019ccUL,
 383:Model/hand_landmark_ecblobs.h ****   0x000000000000135eUL, 0x00000000000011bfUL, 0x0000000000000419UL, 0x0000000000005e3bUL,
 384:Model/hand_landmark_ecblobs.h ****   0x0000000000000b81UL, 0x0000000000002844UL, 0x0000000000000783UL, 0x0000000000000b1bUL,
 385:Model/hand_landmark_ecblobs.h ****   0x0000000000000000UL, 0x00000000000018b9UL, 0x0000000000003591UL, 0x0000000000000ed2UL,
 386:Model/hand_landmark_ecblobs.h ****   0x0000000000001c75UL, 0x0000000000000896UL, 0x0000000000000cbaUL, 0x00000000000008acUL,
 387:Model/hand_landmark_ecblobs.h ****   0x0000000000000f65UL, 0x0000000000001fdeUL, 0x00000000000004b8UL, 0x0000000000003d25UL,
 388:Model/hand_landmark_ecblobs.h ****   0x0000000000000a2dUL, 0x68000042008022a1UL, 0x156000fc08000000UL, 0x000a000068020123UL,
 389:Model/hand_landmark_ecblobs.h ****   0x0000001700000000UL, 0x0006e3ff000125ffUL, 0x0000000000005500UL, 0x0000000105c403e9UL,
 390:Model/hand_landmark_ecblobs.h ****   0x00000000680c0043UL, 0x680b7c0020422042UL, 0x6900240300000001UL, 0x00001f3bf7e75500UL,
 391:Model/hand_landmark_ecblobs.h ****   0x0000df93f9465500UL, 0x000029fff9d75500UL, 0x000088d2f8fb5500UL, 0x00005a1cfa4e5500UL,
 392:Model/hand_landmark_ecblobs.h ****   0x00004e3ff8b05500UL, 0x000044e8f9b85500UL, 0x0000a87cfa555500UL, 0x00009599f9b45500UL,
 393:Model/hand_landmark_ecblobs.h ****   0x0000bdbef5615500UL, 0x0000b667fc0c5500UL, 0x0000443bf8e35500UL, 0x00001410f9945500UL,
 394:Model/hand_landmark_ecblobs.h ****   0x0000b201f9f45500UL, 0x0000203df5985500UL, 0x000023e3fad55500UL, 0x0000a045f8b55500UL,
 395:Model/hand_landmark_ecblobs.h ****   0x0000202efb325500UL, 0x00000b4efba15500UL, 0x00004963f90e5500UL, 0x00008130f9525500UL,
 396:Model/hand_landmark_ecblobs.h ****   0x00008713f71a5500UL, 0x0000ae37f6075500UL, 0x000083ecf1d75500UL, 0x0000595ff7fc5500UL,
 397:Model/hand_landmark_ecblobs.h ****   0x00002bbef9795500UL, 0x000060d5f8a65500UL, 0x00008429f7af5500UL, 0x00002b16f9d95500UL,
 398:Model/hand_landmark_ecblobs.h ****   0x00004c20ff945500UL, 0x000078dbf85d5500UL, 0x0000674df9a65500UL, 0x00006431f9445500UL,
 399:Model/hand_landmark_ecblobs.h ****   0x00003095f9785500UL, 0x00006e80f9e45500UL, 0x0000e42bf6ed5500UL, 0x00003afdfc1d5500UL,
 400:Model/hand_landmark_ecblobs.h ****   0x0000b4bff9ee5500UL, 0x000053dbf9005500UL, 0x0000a42ef5f55500UL, 0x000092f8f8835500UL,
 401:Model/hand_landmark_ecblobs.h ****   0x0000ba04f5b15500UL, 0x00006feefb825500UL, 0x00003a1cf47e5500UL, 0x0000ba4bfb9f5500UL,
 402:Model/hand_landmark_ecblobs.h ****   0x00000213f7da5500UL, 0x000054aff7fd5500UL, 0x00001b0df79d5500UL, 0x0000f51af7425500UL,
 403:Model/hand_landmark_ecblobs.h ****   0x0000f125fb5f5500UL, 0x000026e5fb8f5500UL, 0x00000433f9235500UL, 0x00005006f8495500UL,
 404:Model/hand_landmark_ecblobs.h ****   0x0000c7adf84f5500UL, 0x0000c638f9775500UL, 0x0000ff3ff8d35500UL, 0x000031d5f85f5500UL,
 405:Model/hand_landmark_ecblobs.h ****   0x0000584ef6165500UL, 0x00003a12f89b5500UL, 0x00008580f6fb5500UL, 0x0000754cf90c5500UL,
 406:Model/hand_landmark_ecblobs.h ****   0x000081eff9075500UL, 0x0000e856015f5500UL, 0x0000b79ff9f85500UL, 0x0000c934fa345500UL,
 407:Model/hand_landmark_ecblobs.h ****   0x00003c21f9435500UL, 0x0000afc8f9635500UL, 0x0000995bfb665500UL, 0x0000a8b1f7995500UL,
ARM GAS  /tmp/ccAJFP7B.s 			page 31


 408:Model/hand_landmark_ecblobs.h ****   0x0000f0bffc545500UL, 0x00007629f8d75500UL, 0x0000a017f9b35500UL, 0x0000eef5fb0c5500UL,
 409:Model/hand_landmark_ecblobs.h ****   0x0000dd99f7245500UL, 0x00005d6af5f35500UL, 0x00003006f9195500UL, 0x0000e828f7a05500UL,
 410:Model/hand_landmark_ecblobs.h ****   0x0000239af97b5500UL, 0x00001a04fd505500UL, 0x0000618bf5f05500UL, 0x0000d6d4fb755500UL,
 411:Model/hand_landmark_ecblobs.h ****   0x00000b0afaac5500UL, 0x0000ec9fed575500UL, 0x00002ccffacb5500UL, 0x0000177ff63b5500UL,
 412:Model/hand_landmark_ecblobs.h ****   0x00002c6cfc175500UL, 0x0000f92ff7e55500UL, 0x00008f46f6815500UL, 0x0000d3eff9d75500UL,
 413:Model/hand_landmark_ecblobs.h ****   0x0000e339f7455500UL, 0x0000646ff9425500UL, 0x00009b8ff8c65500UL, 0x0000dea1f8cd5500UL,
 414:Model/hand_landmark_ecblobs.h ****   0x0000207af9e35500UL, 0x00001aaefb035500UL, 0x00004115f8ab5500UL, 0x00001052fb3e5500UL,
 415:Model/hand_landmark_ecblobs.h ****   0x00007d74ff0f5500UL, 0x00005b8dfaf85500UL, 0x0000652cf7425500UL, 0x000037f3fcc35500UL,
 416:Model/hand_landmark_ecblobs.h ****   0x000015f2fb935500UL, 0x00008bddf5255500UL, 0x00005dc4f99b5500UL, 0x0000c1dafa905500UL,
 417:Model/hand_landmark_ecblobs.h ****   0x000064bff8a05500UL, 0x00005e08fbaa5500UL, 0x0000507ff8025500UL, 0x00000c64f79d5500UL,
 418:Model/hand_landmark_ecblobs.h ****   0x00005423f89c5500UL, 0x000066fbf91d5500UL, 0x0000a005f6815500UL, 0x000045d1fb595500UL,
 419:Model/hand_landmark_ecblobs.h ****   0x00001c8df9375500UL, 0x0000f6f4fb4f5500UL, 0x00009535f8bf5500UL, 0x00008b9df9c75500UL,
 420:Model/hand_landmark_ecblobs.h ****   0x0000d5cefa825500UL, 0x0000587cfa455500UL, 0x0000272cf8d65500UL, 0x000036d3fa755500UL,
 421:Model/hand_landmark_ecblobs.h ****   0x0000a236f9b25500UL, 0x0000c24cf9f15500UL, 0x00008567fa7d5500UL, 0x0000adadfb5a5500UL,
 422:Model/hand_landmark_ecblobs.h ****   0x0000b29cf8445500UL, 0x0000f0e3f5b15500UL, 0x000096d5f9645500UL, 0x0000705ff7ba5500UL,
 423:Model/hand_landmark_ecblobs.h ****   0x00004396fb125500UL, 0x0000f261f8ba5500UL, 0x0000c5f0f7f45500UL, 0x00001baafad15500UL,
 424:Model/hand_landmark_ecblobs.h ****   0x00008bebfa8a5500UL, 0x0000ab48f9005500UL, 0x0000c4b0fae15500UL, 0x00005f0afb475500UL,
 425:Model/hand_landmark_ecblobs.h ****   0x00009094f8855500UL, 0x0000f05ff9b25500UL, 0x0000bb3bfaf55500UL, 0x0000c93ff8055500UL,
 426:Model/hand_landmark_ecblobs.h ****   0x00004c88f8b35500UL, 0x00005c8cf82d5500UL, 0x0000f2f0f93b5500UL, 0x5c00004200802241UL,
 427:Model/hand_landmark_ecblobs.h ****   0x1500000008000000UL, 0x000700005c027c00UL, 0x000040005c070043UL, 0x5c0c004300000020UL,
 428:Model/hand_landmark_ecblobs.h ****   0x1041104100000000UL, 0x28007c00008020a1UL, 0x280200430008c100UL, 0x00012600342f5000UL,
 429:Model/hand_landmark_ecblobs.h ****   0x00000000280500c3UL, 0x0000000100012600UL, 0x0000002400000000UL, 0x280c004200100000UL,
 430:Model/hand_landmark_ecblobs.h ****   0x0000000700000006UL, 0x00000006280d0043UL, 0x281100433430763fUL, 0x0000000000000000UL,
 431:Model/hand_landmark_ecblobs.h ****   0x30007c00008020e1UL, 0x300200430008c184UL, 0x00000d80708a5b90UL, 0x00000000300500c3UL,
 432:Model/hand_landmark_ecblobs.h ****   0x0000000000000000UL, 0x0000002400000000UL, 0x300c004200100000UL, 0x0000000700000006UL,
 433:Model/hand_landmark_ecblobs.h ****   0x00000001300d0043UL, 0x30110043708a694fUL, 0x0000000800000000UL, 0x24007c0000802081UL,
 434:Model/hand_landmark_ecblobs.h ****   0x2402012300080008UL, 0x003800383426e400UL, 0x00001f8000900018UL, 0x0000000600000018UL,
 435:Model/hand_landmark_ecblobs.h ****   0x000000240006e400UL, 0x240c004200100000UL, 0x0000000700000006UL, 0x00000006240d0043UL,
 436:Model/hand_landmark_ecblobs.h ****   0x24110043342dc83fUL, 0x0000000000000000UL, 0x0000000210007c00UL, 0x0000006410000424UL,
 437:Model/hand_landmark_ecblobs.h ****   0x10007c0000000000UL, 0x10007bc440000000UL, 0x0000000000000064UL, 0x0000000110007c00UL,
 438:Model/hand_landmark_ecblobs.h ****   0x0000002510067c00UL, 0x0000000b10120043UL, 0x101e7c000000000fUL, 0x10207c000000002bUL,
 439:Model/hand_landmark_ecblobs.h ****   0x10247c0000000019UL, 0x2400200100000027UL, 0x0000005544007c00UL, 0x600020015c002001UL,
 440:Model/hand_landmark_ecblobs.h ****   0x2800200168002001UL, 0x24007fe430002001UL, 0x0000000000000064UL, 0x0000000010067c00UL,
 441:Model/hand_landmark_ecblobs.h ****   0x0000000010120043UL, 0x101e7c0000000000UL, 0x10207c0000000000UL, 0x10247c0000000000UL,
 442:Model/hand_landmark_ecblobs.h ****   0x24007c0000000000UL, 0x2400042400000002UL, 0x0000000000000064UL, 0x4000000024007c00UL,
 443:Model/hand_landmark_ecblobs.h ****   0x0000006424007bc4UL, 0x0080008100000000UL, 0x0000000244007c00UL, 0x0000006444000424UL,
 444:Model/hand_landmark_ecblobs.h ****   0x44007c0000000000UL, 0x44007bc440000000UL, 0x0000000000000064UL, 0x5c007c0000800181UL,
 445:Model/hand_landmark_ecblobs.h ****   0x5c00042408000002UL, 0x0000000000000064UL, 0x480000005c007c00UL, 0x000000645c007bc4UL,
 446:Model/hand_landmark_ecblobs.h ****   0x0080024100000000UL, 0x0800000260007c00UL, 0x0000006460000424UL, 0x60007c0000000000UL,
 447:Model/hand_landmark_ecblobs.h ****   0x60007bc448000000UL, 0x0000000000000064UL, 0x68007c0000800261UL, 0x6800042408000002UL,
 448:Model/hand_landmark_ecblobs.h ****   0x0000000000000064UL, 0x4800000068007c00UL, 0x0000006468007bc4UL, 0x008002a100000000UL,
 449:Model/hand_landmark_ecblobs.h ****   0x0000000228007c00UL, 0x0000006428000424UL, 0x28007c0000000000UL, 0x28007bc440000000UL,
 450:Model/hand_landmark_ecblobs.h ****   0x0000000000000064UL, 0x30007c00008000a1UL, 0x3000042400000002UL, 0x0000000000000064UL,
 451:Model/hand_landmark_ecblobs.h ****   0x4000000030007c00UL, 0x0000006430007bc4UL, 0x008000e100000000UL, 0x008021a10000015dUL,
 452:Model/hand_landmark_ecblobs.h ****   0x0010003448007c00UL, 0x08080303480200c3UL, 0x1063430300001155UL, 0x01bf0000003801c0UL,
 453:Model/hand_landmark_ecblobs.h ****   0x480a7c0000370000UL, 0x480d7c0000000000UL, 0x0080228100000000UL, 0x0800000064000042UL,
 454:Model/hand_landmark_ecblobs.h ****   0x64020123096000fcUL, 0x0000000000040000UL, 0x000061ff00000007UL, 0x000000010006e3ffUL,
 455:Model/hand_landmark_ecblobs.h ****   0x05c403f900000000UL, 0x640c004300000001UL, 0x2042204200000000UL, 0x00000001640b7c00UL,
 456:Model/hand_landmark_ecblobs.h ****   0x0000007165002403UL, 0x0000086700000000UL, 0x0000082b00000000UL, 0x000005ab00000000UL,
 457:Model/hand_landmark_ecblobs.h ****   0x00000ee800000000UL, 0x000044ea00000000UL, 0x0000127900000000UL, 0x0000045c00000000UL,
 458:Model/hand_landmark_ecblobs.h ****   0x0000056100000000UL, 0x000000a000000000UL, 0x0000018800000000UL, 0x0000066700000000UL,
 459:Model/hand_landmark_ecblobs.h ****   0x000014c000000000UL, 0x00000cb300000000UL, 0x000001d800000000UL, 0x0000076f00000000UL,
 460:Model/hand_landmark_ecblobs.h ****   0x000015bf00000000UL, 0x0000092900000000UL, 0x000002ea00000000UL, 0x00000e6b00000000UL,
 461:Model/hand_landmark_ecblobs.h ****   0x0000092700000000UL, 0x0000010100000000UL, 0x0000035400000000UL, 0x0000105100000000UL,
 462:Model/hand_landmark_ecblobs.h ****   0x0000053a00000000UL, 0x000005f800000000UL, 0x000005e300000000UL, 0x000002bf00000000UL,
 463:Model/hand_landmark_ecblobs.h ****   0x000002f900000000UL, 0x000001b700000000UL, 0x000004f400000000UL, 0x000001f100000000UL,
 464:Model/hand_landmark_ecblobs.h ****   0x0000033e00000000UL, 0x000001f000000000UL, 0x00000a7a00000000UL, 0x000001fb00000000UL,
ARM GAS  /tmp/ccAJFP7B.s 			page 32


 465:Model/hand_landmark_ecblobs.h ****   0x0000063100000000UL, 0x0000062700000000UL, 0x000036ec00000000UL, 0x0000032900000000UL,
 466:Model/hand_landmark_ecblobs.h ****   0x0000017a00000000UL, 0x0000058b00000000UL, 0x000000a000000000UL, 0x000000e400000000UL,
 467:Model/hand_landmark_ecblobs.h ****   0x00000d1d00000000UL, 0x000001b500000000UL, 0x0000000000000000UL, 0x0000047e00000000UL,
 468:Model/hand_landmark_ecblobs.h ****   0x0000018200000000UL, 0x0000032800000000UL, 0x0000027700000000UL, 0x00000d0e00000000UL,
 469:Model/hand_landmark_ecblobs.h ****   0x0000025300000000UL, 0x000005f000000000UL, 0x000000ff00000000UL, 0x0000039500000000UL,
 470:Model/hand_landmark_ecblobs.h ****   0x0000014c00000000UL, 0x000000de00000000UL, 0x0000049c00000000UL, 0x0000000000000000UL,
 471:Model/hand_landmark_ecblobs.h ****   0x0000043100000000UL, 0x000001da00000000UL, 0x00000aaa00000000UL, 0x0000052300000000UL,
 472:Model/hand_landmark_ecblobs.h ****   0x0000014300000000UL, 0x00000f3d00000000UL, 0x0000025300000000UL, 0x0000039f00000000UL,
 473:Model/hand_landmark_ecblobs.h ****   0x000004a700000000UL, 0x0000034a00000000UL, 0x000003a300000000UL, 0x0000048800000000UL,
 474:Model/hand_landmark_ecblobs.h ****   0x0000071f00000000UL, 0x000001ed00000000UL, 0x0000034500000000UL, 0x000002fa00000000UL,
 475:Model/hand_landmark_ecblobs.h ****   0x0000030600000000UL, 0x0000086b00000000UL, 0x0000007900000000UL, 0x000002a900000000UL,
 476:Model/hand_landmark_ecblobs.h ****   0x0000018200000000UL, 0x0000024a00000000UL, 0x000009a500000000UL, 0x0000024d00000000UL,
 477:Model/hand_landmark_ecblobs.h ****   0x0000017f00000000UL, 0x0000022700000000UL, 0x0000015d00000000UL, 0x0000023300000000UL,
 478:Model/hand_landmark_ecblobs.h ****   0x0000043c00000000UL, 0x000001e000000000UL, 0x000007a900000000UL, 0x0000012d00000000UL,
 479:Model/hand_landmark_ecblobs.h ****   0x000004e700000000UL, 0x0000071d00000000UL, 0x0000015400000000UL, 0x0000021f00000000UL,
 480:Model/hand_landmark_ecblobs.h ****   0x00000b5e00000000UL, 0x0000008200000000UL, 0x0000017600000000UL, 0x0000041300000000UL,
 481:Model/hand_landmark_ecblobs.h ****   0x0000032500000000UL, 0x00000b8b00000000UL, 0x000001a500000000UL, 0x0000046200000000UL,
 482:Model/hand_landmark_ecblobs.h ****   0x00000ae900000000UL, 0x0000019f00000000UL, 0x000000b000000000UL, 0x0000011d00000000UL,
 483:Model/hand_landmark_ecblobs.h ****   0x0000021600000000UL, 0x000003c300000000UL, 0x000013a300000000UL, 0x0000018900000000UL,
 484:Model/hand_landmark_ecblobs.h ****   0x0000018c00000000UL, 0x00000a2000000000UL, 0x000003ce00000000UL, 0x000004b500000000UL,
 485:Model/hand_landmark_ecblobs.h ****   0x0000134e00000000UL, 0x0000092300000000UL, 0x0000165400000000UL, 0x0000040700000000UL,
 486:Model/hand_landmark_ecblobs.h ****   0x000005ad00000000UL, 0x00000a7400000000UL, 0x0000019200000000UL, 0x000001f700000000UL,
 487:Model/hand_landmark_ecblobs.h ****   0x0000066d00000000UL, 0x00001c0800000000UL, 0x0000014f00000000UL, 0x0000075f00000000UL,
 488:Model/hand_landmark_ecblobs.h ****   0x0000013000000000UL, 0x0000089f00000000UL, 0x0000054a00000000UL, 0x0000000000000000UL,
 489:Model/hand_landmark_ecblobs.h ****   0x0000044900000000UL, 0x0000007c00000000UL, 0x0000085a00000000UL, 0x0000019800000000UL,
 490:Model/hand_landmark_ecblobs.h ****   0x000002a100000000UL, 0x0000073a00000000UL, 0x000007e400000000UL, 0x0000062a00000000UL,
 491:Model/hand_landmark_ecblobs.h ****   0x0000039700000000UL, 0x00000efd00000000UL, 0x0000012500000000UL, 0x000002ea00000000UL,
 492:Model/hand_landmark_ecblobs.h ****   0x0080224100000000UL, 0x080000005c000042UL, 0x5c020123156000fcUL, 0x00000000000a0000UL,
 493:Model/hand_landmark_ecblobs.h ****   0x000061ff00000007UL, 0x000055000006e3ffUL, 0x05c403f900000000UL, 0x5c0c004300000001UL,
 494:Model/hand_landmark_ecblobs.h ****   0x2042204200000000UL, 0x000000015c0b7c00UL, 0xfafe55005d002403UL, 0xf74f55000000fcd5UL,
 495:Model/hand_landmark_ecblobs.h ****   0xf612550000003942UL, 0xf842550000004e9cUL, 0xf979550000009265UL, 0xf7bb5500000058f1UL,
 496:Model/hand_landmark_ecblobs.h ****   0xf7e3550000005ab5UL, 0xf14e55000000a183UL, 0xf85555000000ab39UL, 0xfac0550000004d2aUL,
 497:Model/hand_landmark_ecblobs.h ****   0xf77c55000000948cUL, 0xf71855000000554aUL, 0xf6a0550000008891UL, 0xf710550000009f3fUL,
 498:Model/hand_landmark_ecblobs.h ****   0xf813550000002f3eUL, 0xfb30550000006c00UL, 0xf83a55000000c427UL, 0x0fa855000000aa95UL,
 499:Model/hand_landmark_ecblobs.h ****   0xf80a5500000010d2UL, 0xf79b5500000048feUL, 0xfd495500000076edUL, 0xfbdc55000000478dUL,
 500:Model/hand_landmark_ecblobs.h ****   0xfba9550000001d9cUL, 0xf4f25500000007dfUL, 0xf830550000008d1fUL, 0xf7ab55000000962cUL,
 501:Model/hand_landmark_ecblobs.h ****   0xf65c550000008152UL, 0xf7f955000000b62cUL, 0xf149550000006469UL, 0xf753550000006664UL,
 502:Model/hand_landmark_ecblobs.h ****   0xf7dd55000000d30cUL, 0xf81e55000000762cUL, 0xf735550000003250UL, 0xf521550000009122UL,
 503:Model/hand_landmark_ecblobs.h ****   0xf6a755000000893eUL, 0xfb2455000000357dUL, 0xf985550000002e39UL, 0xf97c5500000071e4UL,
 504:Model/hand_landmark_ecblobs.h ****   0xf80d55000000d244UL, 0xf61655000000ad5aUL, 0xfa375500000047afUL, 0xef9955000000754bUL,
 505:Model/hand_landmark_ecblobs.h ****   0xf40f55000000c6b5UL, 0xf9ea55000000f64fUL, 0xf90c550000006a76UL, 0xf7f25500000055ebUL,
 506:Model/hand_landmark_ecblobs.h ****   0xf7df55000000f5ecUL, 0xf9b3550000007600UL, 0xf971550000000a63UL, 0x00ec55000000dfffUL,
 507:Model/hand_landmark_ecblobs.h ****   0xfc94550000005a03UL, 0xf6aa55000000aeebUL, 0xf786550000001ad5UL, 0xfbcc550000004a60UL,
 508:Model/hand_landmark_ecblobs.h ****   0xff60550000002cb2UL, 0xf56c5500000097ddUL, 0xf6ad5500000050cbUL, 0xfaed550000007c8eUL,
 509:Model/hand_landmark_ecblobs.h ****   0x033c550000001202UL, 0xf66955000000c9d5UL, 0xf66d550000004300UL, 0xf7fb550000009d89UL,
 510:Model/hand_landmark_ecblobs.h ****   0xd2ff55000000d902UL, 0xf83755000000cde3UL, 0xf49c55000000a614UL, 0xf5c255000000beaeUL,
 511:Model/hand_landmark_ecblobs.h ****   0xfd4b550000006dfaUL, 0xf9745500000050f2UL, 0xfcad550000008c97UL, 0xf84855000000f992UL,
 512:Model/hand_landmark_ecblobs.h ****   0x00bc550000002d83UL, 0xfc1e550000009e39UL, 0xfa955500000072a4UL, 0xf96d55000000f7f1UL,
 513:Model/hand_landmark_ecblobs.h ****   0xfae455000000dc69UL, 0xfe6555000000664cUL, 0x027d5500000099edUL, 0xf830550000007787UL,
 514:Model/hand_landmark_ecblobs.h ****   0xf6a555000000ead5UL, 0xf9ea5500000006f6UL, 0xfeb2550000000c1fUL, 0xf9815500000097e2UL,
 515:Model/hand_landmark_ecblobs.h ****   0xf54055000000c658UL, 0xf7705500000031c1UL, 0xf7ee550000000660UL, 0x030c5500000048afUL,
 516:Model/hand_landmark_ecblobs.h ****   0xf79c55000000e57fUL, 0x053a550000003a91UL, 0x02ca55000000be20UL, 0xf7e25500000088b3UL,
 517:Model/hand_landmark_ecblobs.h ****   0xf5eb550000006000UL, 0xfb3455000000d021UL, 0xf68d55000000cb5bUL, 0xf85d55000000d81eUL,
 518:Model/hand_landmark_ecblobs.h ****   0xf806550000004e9dUL, 0xf558550000000128UL, 0xf74e55000000a54bUL, 0xf20255000000a3c8UL,
 519:Model/hand_landmark_ecblobs.h ****   0xfd0d5500000001d9UL, 0xf80655000000943dUL, 0xf8155500000097bfUL, 0x1bd155000000ccb1UL,
 520:Model/hand_landmark_ecblobs.h ****   0xf7be550000003376UL, 0xfa7755000000ed43UL, 0xe681550000003b4fUL, 0x030a5500000056aaUL,
 521:Model/hand_landmark_ecblobs.h ****   0xf6185500000047b4UL, 0xf8fe5500000096c3UL, 0xfc5555000000a529UL, 0xf57455000000b10eUL,
ARM GAS  /tmp/ccAJFP7B.s 			page 33


 522:Model/hand_landmark_ecblobs.h ****   0xf81355000000f358UL, 0xfc60550000008f1eUL, 0xf73455000000f3f5UL, 0x020055000000feadUL,
 523:Model/hand_landmark_ecblobs.h ****   0xf83755000000bd3fUL, 0xf96d550000003f4fUL, 0xfb59550000008b78UL, 0xf8ec550000004384UL,
 524:Model/hand_landmark_ecblobs.h ****   0xfcf5550000009c38UL, 0xf369550000008ad3UL, 0x052055000000410cUL, 0xf7be550000003405UL,
 525:Model/hand_landmark_ecblobs.h ****   0x017e55000000edbbUL, 0xfc2b55000000805fUL, 0xf81955000000d752UL, 0xf67a5500000056eeUL,
 526:Model/hand_landmark_ecblobs.h ****   0xfe45550000004406UL, 0xf6fb55000000b84fUL, 0xfa02550000001ac6UL, 0x053d55000000008dUL,
 527:Model/hand_landmark_ecblobs.h ****   0xf77a550000003551UL, 0xf999550000008d1aUL, 0xf73955000000b9ffUL, 0xf6be55000000c655UL,
 528:Model/hand_landmark_ecblobs.h ****   0xf80f55000000174fUL, 0xf79c550000004142UL, 0x047055000000d502UL, 0xf75455000000d197UL,
 529:Model/hand_landmark_ecblobs.h ****   0xf820550000006d9cUL, 0xf82455000000c040UL, 0xf79755000000d9b3UL, 0xf5b9550000008ea5UL,
 530:Model/hand_landmark_ecblobs.h ****   0xf686550000002448UL, 0xfd615500000025deUL, 0x0080226100003d25UL, 0x0800000060000042UL,
 531:Model/hand_landmark_ecblobs.h ****   0x60027c0015000000UL, 0x6007004300070000UL, 0x0000002000004000UL, 0x00000000600c0043UL,
 532:Model/hand_landmark_ecblobs.h ****   0x008020c110411041UL, 0x000800002c007c00UL, 0x3426e4002c020123UL, 0x0090000800380038UL,
 533:Model/hand_landmark_ecblobs.h ****   0x0000000000001f80UL, 0x0000000800000001UL, 0x0010000000000024UL, 0x000000062c0c0042UL,
 534:Model/hand_landmark_ecblobs.h ****   0x2c0d004300000007UL, 0x342dc83f00000012UL, 0x000000002c110043UL, 0x0080206100000000UL,
 535:Model/hand_landmark_ecblobs.h ****   0x0008018420007c00UL, 0x70884ec020020043UL, 0x200500c300002880UL, 0x0000000000000000UL,
 536:Model/hand_landmark_ecblobs.h ****   0x0000000000000000UL, 0x0010000000000024UL, 0x00000006200c0042UL, 0x200d004300000007UL,
 537:Model/hand_landmark_ecblobs.h ****   0x7088777f00000001UL, 0x0000000020110043UL, 0x0080204100000008UL, 0x000800081c007c00UL,
 538:Model/hand_landmark_ecblobs.h ****   0x342000001c020123UL, 0x0090000800380038UL, 0x0000000800001f80UL, 0x0006e40000000012UL,
 539:Model/hand_landmark_ecblobs.h ****   0x0010000000000024UL, 0x000000061c0c0042UL, 0x1c0d004300000007UL, 0x3426e43f00000012UL,
 540:Model/hand_landmark_ecblobs.h ****   0x000000001c110043UL, 0x10007c0000000000UL, 0x1000042400000002UL, 0x0000000000000064UL,
 541:Model/hand_landmark_ecblobs.h ****   0x4000000010007c00UL, 0x0000006410007bc4UL, 0x10007c0000000000UL, 0x10047c0000000001UL,
 542:Model/hand_landmark_ecblobs.h ****   0x1015004300000027UL, 0x000000070000000dUL, 0x00000029101e7c00UL, 0x0000002510207c00UL,
 543:Model/hand_landmark_ecblobs.h ****   0x0000001b10227c00UL, 0x48007c001c002001UL, 0x5c00200100100035UL, 0x6400200160002001UL,
 544:Model/hand_landmark_ecblobs.h ****   0x2c00200120002001UL, 0x000000641c007fe4UL, 0x10047c0000000000UL, 0x1015004300000000UL,
 545:Model/hand_landmark_ecblobs.h ****   0x0000000000000000UL, 0x00000000101e7c00UL, 0x0000000010207c00UL, 0x0000000010227c00UL,
 546:Model/hand_landmark_ecblobs.h ****   0x000000021c007c00UL, 0x000000641c000424UL, 0x1c007c0000000000UL, 0x1c007bc440000000UL,
 547:Model/hand_landmark_ecblobs.h ****   0x0000000000000064UL, 0x48007c0000800041UL, 0x4800042400000002UL, 0x0000000000000064UL,
 548:Model/hand_landmark_ecblobs.h ****   0x4000000048007c00UL, 0x0000006448007bc4UL, 0x008001a100000000UL, 0x080000025c007c00UL,
 549:Model/hand_landmark_ecblobs.h ****   0x000000645c000424UL, 0x5c007c0000000000UL, 0x5c007bc448000000UL, 0x0000000000000064UL,
 550:Model/hand_landmark_ecblobs.h ****   0x60007c0000800241UL, 0x6000042408000002UL, 0x0000000000000064UL, 0x4800000060007c00UL,
 551:Model/hand_landmark_ecblobs.h ****   0x0000006460007bc4UL, 0x0080026100000000UL, 0x0800000264007c00UL, 0x0000006464000424UL,
 552:Model/hand_landmark_ecblobs.h ****   0x64007c0000000000UL, 0x64007bc448000000UL, 0x0000000000000064UL, 0x20007c0000800281UL,
 553:Model/hand_landmark_ecblobs.h ****   0x2000042400000002UL, 0x0000000000000064UL, 0x4000000020007c00UL, 0x0000006420007bc4UL,
 554:Model/hand_landmark_ecblobs.h ****   0x0080006100000000UL, 0x000000022c007c00UL, 0x000000642c000424UL, 0x2c007c0000000000UL,
 555:Model/hand_landmark_ecblobs.h ****   0x2c007bc440000000UL, 0x0000000000000064UL, 0x0000017d008000c1UL, 0x3c007c0000802141UL,
 556:Model/hand_landmark_ecblobs.h ****   0x3c0200e310d00034UL, 0x0000110018480101UL, 0x00380fc010774004UL, 0x003700000fbf0000UL,
 557:Model/hand_landmark_ecblobs.h ****   0x3c0a7c0000170030UL, 0x3c0d7c0000000000UL, 0x0080216100000000UL, 0x10d0002040007c00UL,
 558:Model/hand_landmark_ecblobs.h ****   0x18480101400200e3UL, 0x1063440000001100UL, 0x0fbf000000380fc0UL, 0x002f183000370000UL,
 559:Model/hand_landmark_ecblobs.h ****   0x00000000400a7c00UL, 0x00000000400d7c00UL, 0x68000042008022a1UL, 0x096000fc08000000UL,
 560:Model/hand_landmark_ecblobs.h ****   0x0006800068020123UL, 0x0000001700000000UL, 0x000125ff000125ffUL, 0x0000000000000001UL,
 561:Model/hand_landmark_ecblobs.h ****   0x0000000107a403e9UL, 0x00000000680c0043UL, 0x680b7c0020422042UL, 0x6900060300000001UL,
 562:Model/hand_landmark_ecblobs.h ****   0x000000000000110aUL, 0x0000000000002350UL, 0x0000000000001691UL, 0x0000000000001369UL,
 563:Model/hand_landmark_ecblobs.h ****   0x00000000000015cbUL, 0x00000000000017b4UL, 0x0000000000001005UL, 0x0000000000002004UL,
 564:Model/hand_landmark_ecblobs.h ****   0x0000000000005721UL, 0x0000000000001413UL, 0x0000000000001b2dUL, 0x000000000000189eUL,
 565:Model/hand_landmark_ecblobs.h ****   0x000000000000128bUL, 0x00000000000053c3UL, 0x0000000000001c87UL, 0x0000000000001b15UL,
 566:Model/hand_landmark_ecblobs.h ****   0x0000000000001bf0UL, 0x0000000000001c57UL, 0x000000000000139aUL, 0x0000000000001716UL,
 567:Model/hand_landmark_ecblobs.h ****   0x0000000000001c9aUL, 0x000000000000182aUL, 0x00000000000015a1UL, 0x0000000000001617UL,
 568:Model/hand_landmark_ecblobs.h ****   0x5c00004200802241UL, 0x156000fc08000000UL, 0x000a00005c020123UL, 0x0000001700000000UL,
 569:Model/hand_landmark_ecblobs.h ****   0x000125ff000125ffUL, 0x0000000000005b44UL, 0x0000000107a403e9UL, 0x000000005c0c0043UL,
 570:Model/hand_landmark_ecblobs.h ****   0x5c0b7c0020422042UL, 0x5d00060300000001UL, 0x00004740fe4c5b44UL, 0x0000cb8effc25b44UL,
 571:Model/hand_landmark_ecblobs.h ****   0x00003e8a00145b44UL, 0x0000fbdbfe955b44UL, 0x0000263000c15b44UL, 0x00000b9101735b44UL,
 572:Model/hand_landmark_ecblobs.h ****   0x00001207ffa75b44UL, 0x0000b848fd7b5b44UL, 0x0000b785ffdb5b44UL, 0x0000577b00415b44UL,
 573:Model/hand_landmark_ecblobs.h ****   0x000050ac003e5b44UL, 0x000083b0fdf35b44UL, 0x0000c3befddd5b44UL, 0x0000d1f2fd165b44UL,
 574:Model/hand_landmark_ecblobs.h ****   0x0000e0ad012d5b44UL, 0x00003261fc545b44UL, 0x00000bba01455b44UL, 0x00009f3500335b44UL,
 575:Model/hand_landmark_ecblobs.h ****   0x00006a82ffcc5b44UL, 0x0000747b00405b44UL, 0x0000b592ffc65b44UL, 0x000033ddfd175b44UL,
 576:Model/hand_landmark_ecblobs.h ****   0x0000e626fd455b44UL, 0x000035a5ff2a5b44UL, 0x6000004200802261UL, 0x0500016008000000UL,
 577:Model/hand_landmark_ecblobs.h ****   0x00078c0060027c00UL, 0x4f1a71e860070043UL, 0x600c004300005df6UL, 0x1041104100000000UL,
 578:Model/hand_landmark_ecblobs.h ****   0x24007c0000802081UL, 0x2402012308880204UL, 0x0038003834200000UL, 0x00001f8000900018UL,
ARM GAS  /tmp/ccAJFP7B.s 			page 34


 579:Model/hand_landmark_ecblobs.h ****   0x0000000100000000UL, 0x0000002400000090UL, 0x240c004200100000UL, 0x0000000700000006UL,
 580:Model/hand_landmark_ecblobs.h ****   0x00000001240d0043UL, 0x241100433426e43fUL, 0x0000000000000000UL, 0x38007c0000802121UL,
 581:Model/hand_landmark_ecblobs.h ****   0x3802004308880180UL, 0x00000240708a6910UL, 0x00000000380500c3UL, 0x00000000000006c0UL,
 582:Model/hand_landmark_ecblobs.h ****   0x0000002400000000UL, 0x380c004200100000UL, 0x0000000700000006UL, 0x00000002380d0043UL,
 583:Model/hand_landmark_ecblobs.h ****   0x38110043708a76cfUL, 0x0000000800000000UL, 0x2c007c00008020c1UL, 0x2c02012308880204UL,
 584:Model/hand_landmark_ecblobs.h ****   0x0038003834200048UL, 0x00001f8000900018UL, 0x0000000100000000UL, 0x0000002400000090UL,
 585:Model/hand_landmark_ecblobs.h ****   0x2c0c004200100000UL, 0x0000000700000006UL, 0x000000012c0d0043UL, 0x2c1100433426e43fUL,
 586:Model/hand_landmark_ecblobs.h ****   0x0000000000000000UL, 0x28007c00008020a1UL, 0x2802004300080104UL, 0x00012600342f5000UL,
 587:Model/hand_landmark_ecblobs.h ****   0x00000000280500c3UL, 0x0000000000012600UL, 0x0000002400000000UL, 0x280c004200100000UL,
 588:Model/hand_landmark_ecblobs.h ****   0x0000000700000006UL, 0x00000001280d0043UL, 0x281100433430763fUL, 0x0000000000000000UL,
 589:Model/hand_landmark_ecblobs.h ****   0x18007c0000802021UL, 0x180200430008010cUL, 0x000126003426e400UL, 0x00000000180500c3UL,
 590:Model/hand_landmark_ecblobs.h ****   0x0000000000012600UL, 0x0000002400000000UL, 0x180c004200100000UL, 0x0000000700000006UL,
 591:Model/hand_landmark_ecblobs.h ****   0x00000001180d0043UL, 0x1811004334280a3fUL, 0x0000000000000000UL, 0x0000000210007c00UL,
 592:Model/hand_landmark_ecblobs.h ****   0x0000006410000424UL, 0x10007c0000000000UL, 0x10007bc440000000UL, 0x0000000000000064UL,
 593:Model/hand_landmark_ecblobs.h ****   0x0000000110007c00UL, 0x0000002710037c00UL, 0x00000009100c0043UL, 0x100f006300000013UL,
 594:Model/hand_landmark_ecblobs.h ****   0x000000130000000dUL, 0x101e7c0000000015UL, 0x102000430000002bUL, 0x0000000b00000025UL,
 595:Model/hand_landmark_ecblobs.h ****   0x0000001710247c00UL, 0x3c007c0018002001UL, 0x40007c0010d00035UL, 0x5c00200110d00021UL,
 596:Model/hand_landmark_ecblobs.h ****   0x6800200160002001UL, 0x2800200124002001UL, 0x380020012c002001UL, 0x0000006418007fe4UL,
 597:Model/hand_landmark_ecblobs.h ****   0x10037c0000000000UL, 0x100c004300000000UL, 0x0000000000000000UL, 0x00000000100f0063UL,
 598:Model/hand_landmark_ecblobs.h ****   0x0000000000000000UL, 0x00000000101e7c00UL, 0x0000000010200043UL, 0x10247c0000000000UL,
 599:Model/hand_landmark_ecblobs.h ****   0x18007c0000000000UL, 0x1800042400000002UL, 0x0000000000000064UL, 0x4000000018007c00UL,
 600:Model/hand_landmark_ecblobs.h ****   0x0000006418007bc4UL, 0x0080002100000000UL, 0x000000023c007c00UL, 0x000000643c000424UL,
 601:Model/hand_landmark_ecblobs.h ****   0x3c007c0000000000UL, 0x3c007bc440000000UL, 0x0000000000000064UL, 0x40007c0000800141UL,
 602:Model/hand_landmark_ecblobs.h ****   0x4000042400000002UL, 0x0000000000000064UL, 0x4000000040007c00UL, 0x0000006440007bc4UL,
 603:Model/hand_landmark_ecblobs.h ****   0x0080016100000000UL, 0x080000025c007c00UL, 0x000000645c000424UL, 0x5c007c0000000000UL,
 604:Model/hand_landmark_ecblobs.h ****   0x5c007bc448000000UL, 0x0000000000000064UL, 0x60007c0000800241UL, 0x6000042408000002UL,
 605:Model/hand_landmark_ecblobs.h ****   0x0000000000000064UL, 0x4800000060007c00UL, 0x0000006460007bc4UL, 0x0080026100000000UL,
 606:Model/hand_landmark_ecblobs.h ****   0x0800000268007c00UL, 0x0000006468000424UL, 0x68007c0000000000UL, 0x68007bc448000000UL,
 607:Model/hand_landmark_ecblobs.h ****   0x0000000000000064UL, 0x24007c00008002a1UL, 0x2400042400000002UL, 0x0000000000000064UL,
 608:Model/hand_landmark_ecblobs.h ****   0x4000000024007c00UL, 0x0000006424007bc4UL, 0x0080008100000000UL, 0x0000000228007c00UL,
 609:Model/hand_landmark_ecblobs.h ****   0x0000006428000424UL, 0x28007c0000000000UL, 0x28007bc440000000UL, 0x0000000000000064UL,
 610:Model/hand_landmark_ecblobs.h ****   0x2c007c00008000a1UL, 0x2c00042400000002UL, 0x0000000000000064UL, 0x400000002c007c00UL,
 611:Model/hand_landmark_ecblobs.h ****   0x000000642c007bc4UL, 0x008000c100000000UL, 0x0000000238007c00UL, 0x0000006438000424UL,
 612:Model/hand_landmark_ecblobs.h ****   0x38007c0000000000UL, 0x38007bc440000000UL, 0x0000000000000064UL, 0x0000019d00800121UL,
 613:Model/hand_landmark_ecblobs.h ****   0x44007c0000802181UL, 0x440200c300000054UL, 0x0000110018180101UL, 0x0038054010a34303UL,
 614:Model/hand_landmark_ecblobs.h ****   0x00370000053f0000UL, 0x00000000440a7c00UL, 0x00fffffc440c0043UL, 0x0080228100000000UL,
 615:Model/hand_landmark_ecblobs.h ****   0x0800000064000042UL, 0x64020123096000fcUL, 0x0000000000058000UL, 0x000125ff00000017UL,
 616:Model/hand_landmark_ecblobs.h ****   0x000000010006e3ffUL, 0x05c403e900000000UL, 0x640c004300000001UL, 0x2042204200000000UL,
 617:Model/hand_landmark_ecblobs.h ****   0x00000001640b7c00UL, 0x00001e0865002403UL, 0x0000211c00000000UL, 0x0000088d00000000UL,
 618:Model/hand_landmark_ecblobs.h ****   0x0000000000000000UL, 0x0000102200000000UL, 0x0000260600000000UL, 0x0000000000000000UL,
 619:Model/hand_landmark_ecblobs.h ****   0x0000302d00000000UL, 0x00001d9600000000UL, 0x000006ad00000000UL, 0x00000e4c00000000UL,
 620:Model/hand_landmark_ecblobs.h ****   0x00002cba00000000UL, 0x0000236b00000000UL, 0x0000199d00000000UL, 0x0000069500000000UL,
 621:Model/hand_landmark_ecblobs.h ****   0x000017b700000000UL, 0x00000fcf00000000UL, 0x0000329500000000UL, 0x00001f7200000000UL,
 622:Model/hand_landmark_ecblobs.h ****   0x000016fc00000000UL, 0x00001a7500000000UL, 0x00004ec700000000UL, 0x00000c8a00000000UL,
 623:Model/hand_landmark_ecblobs.h ****   0x00000f2a00000000UL, 0x00001efa00000000UL, 0x000007de00000000UL, 0x0000104200000000UL,
 624:Model/hand_landmark_ecblobs.h ****   0x0000181300000000UL, 0x0000079a00000000UL, 0x000015c800000000UL, 0x0000126b00000000UL,
 625:Model/hand_landmark_ecblobs.h ****   0x0000073600000000UL, 0x00000fb000000000UL, 0x000029d900000000UL, 0x000017be00000000UL,
 626:Model/hand_landmark_ecblobs.h ****   0x00002b7c00000000UL, 0x00003a1400000000UL, 0x0000264600000000UL, 0x00000de000000000UL,
 627:Model/hand_landmark_ecblobs.h ****   0x0000280900000000UL, 0x00000c9500000000UL, 0x0000355000000000UL, 0x000004e500000000UL,
 628:Model/hand_landmark_ecblobs.h ****   0x0000165300000000UL, 0x000026fe00000000UL, 0x0000088f00000000UL, 0x0000252800000000UL,
 629:Model/hand_landmark_ecblobs.h ****   0x000019dd00000000UL, 0x00000b5600000000UL, 0x0000293400000000UL, 0x0000012c00000000UL,
 630:Model/hand_landmark_ecblobs.h ****   0x00000de300000000UL, 0x000031f000000000UL, 0x00000eb200000000UL, 0x0000034400000000UL,
 631:Model/hand_landmark_ecblobs.h ****   0x0000166600000000UL, 0x000002fc00000000UL, 0x000018cc00000000UL, 0x000001b900000000UL,
 632:Model/hand_landmark_ecblobs.h ****   0x000006bf00000000UL, 0x00000e0000000000UL, 0x000007ce00000000UL, 0x000013ab00000000UL,
 633:Model/hand_landmark_ecblobs.h ****   0x00000d5700000000UL, 0x00000f8d00000000UL, 0x0000130000000000UL, 0x0000124800000000UL,
 634:Model/hand_landmark_ecblobs.h ****   0x00000de900000000UL, 0x000027b600000000UL, 0x000026ab00000000UL, 0x00001afb00000000UL,
 635:Model/hand_landmark_ecblobs.h ****   0x0000137500000000UL, 0x0000068f00000000UL, 0x0000175e00000000UL, 0x0000282200000000UL,
ARM GAS  /tmp/ccAJFP7B.s 			page 35


 636:Model/hand_landmark_ecblobs.h ****   0x00002ac400000000UL, 0x0000209000000000UL, 0x000007b800000000UL, 0x000016e500000000UL,
 637:Model/hand_landmark_ecblobs.h ****   0x000008c500000000UL, 0x000018a900000000UL, 0x0000057900000000UL, 0x0000122b00000000UL,
 638:Model/hand_landmark_ecblobs.h ****   0x0000144100000000UL, 0x00000f3400000000UL, 0x00001d4300000000UL, 0x0000144700000000UL,
 639:Model/hand_landmark_ecblobs.h ****   0x000011f500000000UL, 0x00000e3f00000000UL, 0x0000104500000000UL, 0x000009ff00000000UL,
 640:Model/hand_landmark_ecblobs.h ****   0x0000119f00000000UL, 0x000017d700000000UL, 0x0000275d00000000UL, 0x00000afd00000000UL,
 641:Model/hand_landmark_ecblobs.h ****   0x00000ccf00000000UL, 0x000003a500000000UL, 0x000018ef00000000UL, 0x00000dad00000000UL,
 642:Model/hand_landmark_ecblobs.h ****   0x000010bb00000000UL, 0x000036f400000000UL, 0x000018bf00000000UL, 0x000002b700000000UL,
 643:Model/hand_landmark_ecblobs.h ****   0x0000080f00000000UL, 0x000029df00000000UL, 0x000032a800000000UL, 0x000008ab00000000UL,
 644:Model/hand_landmark_ecblobs.h ****   0x000006f200000000UL, 0x00000efb00000000UL, 0x00000db000000000UL, 0x000015c400000000UL,
 645:Model/hand_landmark_ecblobs.h ****   0x00001cbe00000000UL, 0x00001e0800000000UL, 0x000009d900000000UL, 0x0000196400000000UL,
 646:Model/hand_landmark_ecblobs.h ****   0x000028bb00000000UL, 0x00001db600000000UL, 0x00001a2900000000UL, 0x0000216200000000UL,
 647:Model/hand_landmark_ecblobs.h ****   0x0000237e00000000UL, 0x000021f400000000UL, 0x000027f600000000UL, 0x0000208400000000UL,
 648:Model/hand_landmark_ecblobs.h ****   0x000020ca00000000UL, 0x00000c7a00000000UL, 0x00000eb800000000UL, 0x0000237100000000UL,
 649:Model/hand_landmark_ecblobs.h ****   0x000005c400000000UL, 0x00000bcd00000000UL, 0x0000025d00000000UL, 0x000015d700000000UL,
 650:Model/hand_landmark_ecblobs.h ****   0x00001f8c00000000UL, 0x000024a200000000UL, 0x000026b800000000UL, 0x0000226000000000UL,
 651:Model/hand_landmark_ecblobs.h ****   0x000005d500000000UL, 0x00001e7b00000000UL, 0x00002b4300000000UL, 0x0000146400000000UL,
 652:Model/hand_landmark_ecblobs.h ****   0x00000a7500000000UL, 0x0000222d00000000UL, 0x00001d1000000000UL, 0x0000123b00000000UL,
 653:Model/hand_landmark_ecblobs.h ****   0x00000ede00000000UL, 0x0080224100000000UL, 0x080000005c000042UL, 0x5c020123156000fcUL,
 654:Model/hand_landmark_ecblobs.h ****   0x00000000000a0000UL, 0x000125ff00000017UL, 0x000055000006e3ffUL, 0x05c403e900000000UL,
 655:Model/hand_landmark_ecblobs.h ****   0x5c0c004300000001UL, 0x2042204200000000UL, 0x000000015c0b7c00UL, 0xf79255005d002403UL,
 656:Model/hand_landmark_ecblobs.h ****   0xf903550000009fabUL, 0xfa3f550000008ccaUL, 0xf62755000000bf0bUL, 0xf9e855000000da03UL,
 657:Model/hand_landmark_ecblobs.h ****   0xfa9c550000002025UL, 0xf7ed55000000592cUL, 0xf86455000000b25fUL, 0xf7d655000000b93eUL,
 658:Model/hand_landmark_ecblobs.h ****   0xfacb55000000b623UL, 0xf83355000000dd23UL, 0xf8bf550000004039UL, 0xf9f855000000e4d2UL,
 659:Model/hand_landmark_ecblobs.h ****   0xf975550000006401UL, 0xf9f5550000002516UL, 0xfa2e550000000595UL, 0xf9da55000000d417UL,
 660:Model/hand_landmark_ecblobs.h ****   0xfc3555000000d607UL, 0xf93f55000000c75dUL, 0xf76455000000ee11UL, 0xf865550000002831UL,
 661:Model/hand_landmark_ecblobs.h ****   0xfca655000000fcc9UL, 0xf921550000008d20UL, 0xfa0f550000000e90UL, 0xf9e2550000004942UL,
 662:Model/hand_landmark_ecblobs.h ****   0xf7c3550000006bb7UL, 0xfa24550000006255UL, 0xf89055000000cf9bUL, 0xf8c055000000e328UL,
 663:Model/hand_landmark_ecblobs.h ****   0xf8635500000066afUL, 0xf9035500000051eaUL, 0xf905550000007f8bUL, 0xf93555000000a888UL,
 664:Model/hand_landmark_ecblobs.h ****   0xfb7955000000f9fbUL, 0xfb22550000003d0aUL, 0xf8af55000000e8e0UL, 0xf6a355000000f75dUL,
 665:Model/hand_landmark_ecblobs.h ****   0xfafb55000000aee7UL, 0xfa1b550000000de8UL, 0xfafc5500000033f8UL, 0xf9d855000000f4e4UL,
 666:Model/hand_landmark_ecblobs.h ****   0xfc3555000000765eUL, 0xf8d45500000009abUL, 0xfa2f550000008197UL, 0xf9bf550000006f29UL,
 667:Model/hand_landmark_ecblobs.h ****   0xf94455000000440aUL, 0xf8ee550000005f5eUL, 0xf9f7550000004122UL, 0xfb1a55000000b072UL,
 668:Model/hand_landmark_ecblobs.h ****   0xf8c75500000038b8UL, 0xfd65550000006e14UL, 0xf87c550000004088UL, 0xf992550000006bbcUL,
 669:Model/hand_landmark_ecblobs.h ****   0xf92f55000000dd55UL, 0xf870550000005114UL, 0xf960550000002534UL, 0xfa5255000000eef1UL,
 670:Model/hand_landmark_ecblobs.h ****   0xfb7d55000000aaaaUL, 0xfd06550000002098UL, 0xf7cc55000000f394UL, 0xf9c05500000062f9UL,
 671:Model/hand_landmark_ecblobs.h ****   0xfa0c55000000e379UL, 0xf8df5500000098a8UL, 0xf90855000000fe37UL, 0xfc0f55000000f133UL,
 672:Model/hand_landmark_ecblobs.h ****   0xfaa455000000f0afUL, 0xf85a55000000af53UL, 0xf70a550000003067UL, 0xf9bf550000007770UL,
 673:Model/hand_landmark_ecblobs.h ****   0xfcdd55000000e62cUL, 0xfa1a55000000d531UL, 0xfa42550000009946UL, 0xf8bd550000000db7UL,
 674:Model/hand_landmark_ecblobs.h ****   0xf80055000000984fUL, 0xfa52550000003e12UL, 0xfad155000000a909UL, 0xfb1a55000000f1aeUL,
 675:Model/hand_landmark_ecblobs.h ****   0xf91655000000ddcdUL, 0xfa3d550000003da9UL, 0xf8fa550000002515UL, 0xfba755000000ad22UL,
 676:Model/hand_landmark_ecblobs.h ****   0xf8ff550000000836UL, 0xfa4255000000d1dbUL, 0xf666550000001364UL, 0xfae555000000a2c8UL,
 677:Model/hand_landmark_ecblobs.h ****   0xf97a55000000c382UL, 0xf9ee550000007982UL, 0xf90255000000c37bUL, 0xf938550000008659UL,
 678:Model/hand_landmark_ecblobs.h ****   0xf9885500000046caUL, 0xf90e55000000d359UL, 0xf8ef550000004bf1UL, 0xf8ab55000000b68cUL,
 679:Model/hand_landmark_ecblobs.h ****   0xfa35550000002c2dUL, 0xf90755000000b25aUL, 0xfad25500000029c4UL, 0xf9cc5500000080ceUL,
 680:Model/hand_landmark_ecblobs.h ****   0xfa4855000000dc02UL, 0xf9e655000000c524UL, 0xf9e255000000140eUL, 0xf91c55000000749bUL,
 681:Model/hand_landmark_ecblobs.h ****   0xfa3f550000008475UL, 0xfa2d5500000065aaUL, 0xf8fc55000000ce7eUL, 0xfa5e55000000fdb9UL,
 682:Model/hand_landmark_ecblobs.h ****   0xf8de550000004886UL, 0xf8d6550000005693UL, 0xfa5f550000005584UL, 0xf84e550000004c8eUL,
 683:Model/hand_landmark_ecblobs.h ****   0xf8685500000068daUL, 0xfab1550000009aaaUL, 0xf88255000000fce8UL, 0xf845550000000651UL,
 684:Model/hand_landmark_ecblobs.h ****   0xfa7755000000f50bUL, 0xf9f355000000dac4UL, 0xf7e85500000060feUL, 0xf7dd55000000c1a8UL,
 685:Model/hand_landmark_ecblobs.h ****   0xf94955000000a0dfUL, 0xf9095500000063f8UL, 0xf95755000000276cUL, 0xf5ea55000000697dUL,
 686:Model/hand_landmark_ecblobs.h ****   0xf7ba55000000c9f3UL, 0xfae0550000008cd6UL, 0xf93a550000007898UL, 0xf874550000000107UL,
 687:Model/hand_landmark_ecblobs.h ****   0xfa0f5500000033f5UL, 0xf89f5500000040c7UL, 0xf915550000006c03UL, 0xf9505500000041dfUL,
 688:Model/hand_landmark_ecblobs.h ****   0xf85955000000d0ecUL, 0xf5b455000000d0f3UL, 0xfdb055000000038eUL, 0xf87b55000000e9f2UL,
 689:Model/hand_landmark_ecblobs.h ****   0xfc3755000000590fUL, 0xf9c5550000001959UL, 0xfa2755000000853aUL, 0xfb4b550000002f79UL,
 690:Model/hand_landmark_ecblobs.h ****   0xf7ec550000006f9bUL, 0xf824550000000662UL, 0xf97455000000486eUL, 0xfb2b55000000367bUL,
 691:Model/hand_landmark_ecblobs.h ****   0xf85f550000008ceeUL, 0xf8c555000000bf94UL, 0xf66c55000000c380UL, 0x008022610000ea2bUL,
 692:Model/hand_landmark_ecblobs.h ****   0x0800000060000042UL, 0x60027c0015000000UL, 0x6007004300070000UL, 0x0000002000004000UL,
ARM GAS  /tmp/ccAJFP7B.s 			page 36


 693:Model/hand_landmark_ecblobs.h ****   0x00000000600c0043UL, 0x008020e110411041UL, 0x0008c10030007c00UL, 0x3426e40030020043UL,
 694:Model/hand_landmark_ecblobs.h ****   0x300500c300012600UL, 0x0001260000000000UL, 0x0000000000000001UL, 0x0010000000000024UL,
 695:Model/hand_landmark_ecblobs.h ****   0x00000006300c0042UL, 0x300d004300000007UL, 0x34280a3f00000006UL, 0x0000000030110043UL,
 696:Model/hand_landmark_ecblobs.h ****   0x0080212100000000UL, 0x0008c18438007c00UL, 0x708a769038020043UL, 0x380500c300000d80UL,
 697:Model/hand_landmark_ecblobs.h ****   0x0000000000000000UL, 0x0000000000000000UL, 0x0010000000000024UL, 0x00000006380c0042UL,
 698:Model/hand_landmark_ecblobs.h ****   0x380d004300000007UL, 0x708a844f00000001UL, 0x0000000038110043UL, 0x0080208100000008UL,
 699:Model/hand_landmark_ecblobs.h ****   0x0008000824007c00UL, 0x3420000024020123UL, 0x0090001800380038UL, 0x0000001800001f80UL,
 700:Model/hand_landmark_ecblobs.h ****   0x0006e40000000006UL, 0x0010000000000024UL, 0x00000006240c0042UL, 0x240d004300000007UL,
 701:Model/hand_landmark_ecblobs.h ****   0x3426e43f00000006UL, 0x0000000024110043UL, 0x10007c0000000000UL, 0x1000042400000002UL,
 702:Model/hand_landmark_ecblobs.h ****   0x0000000000000064UL, 0x4000000010007c00UL, 0x0000006410007bc4UL, 0x10007c0000000000UL,
 703:Model/hand_landmark_ecblobs.h ****   0x10067c0000000001UL, 0x1012004300000027UL, 0x000000130000000fUL, 0x00000029101e7c00UL,
 704:Model/hand_landmark_ecblobs.h ****   0x0000002510207c00UL, 0x0000001910227c00UL, 0x44007c0024002001UL, 0x5c00200100000055UL,
 705:Model/hand_landmark_ecblobs.h ****   0x6400200160002001UL, 0x3800200130002001UL, 0x0000006424007fe4UL, 0x10067c0000000000UL,
 706:Model/hand_landmark_ecblobs.h ****   0x1012004300000000UL, 0x0000000000000000UL, 0x00000000101e7c00UL, 0x0000000010207c00UL,
 707:Model/hand_landmark_ecblobs.h ****   0x0000000010227c00UL, 0x0000000224007c00UL, 0x0000006424000424UL, 0x24007c0000000000UL,
 708:Model/hand_landmark_ecblobs.h ****   0x24007bc440000000UL, 0x0000000000000064UL, 0x44007c0000800081UL, 0x4400042400000002UL,
 709:Model/hand_landmark_ecblobs.h ****   0x0000000000000064UL, 0x4000000044007c00UL, 0x0000006444007bc4UL, 0x0080018100000000UL,
 710:Model/hand_landmark_ecblobs.h ****   0x080000025c007c00UL, 0x000000645c000424UL, 0x5c007c0000000000UL, 0x5c007bc448000000UL,
 711:Model/hand_landmark_ecblobs.h ****   0x0000000000000064UL, 0x60007c0000800241UL, 0x6000042408000002UL, 0x0000000000000064UL,
 712:Model/hand_landmark_ecblobs.h ****   0x4800000060007c00UL, 0x0000006460007bc4UL, 0x0080026100000000UL, 0x0800000264007c00UL,
 713:Model/hand_landmark_ecblobs.h ****   0x0000006464000424UL, 0x64007c0000000000UL, 0x64007bc448000000UL, 0x0000000000000064UL,
 714:Model/hand_landmark_ecblobs.h ****   0x30007c0000800281UL, 0x3000042400000002UL, 0x0000000000000064UL, 0x4000000030007c00UL,
 715:Model/hand_landmark_ecblobs.h ****   0x0000006430007bc4UL, 0x008000e100000000UL, 0x0000000238007c00UL, 0x0000006438000424UL,
 716:Model/hand_landmark_ecblobs.h ****   0x38007c0000000000UL, 0x38007bc440000000UL, 0x0000000000000064UL, 0x000001bd00800121UL,
 717:Model/hand_landmark_ecblobs.h ****   0x28007c00008020a1UL, 0x2802012300080000UL, 0x0038003834200000UL, 0x00001f8000900001UL,
 718:Model/hand_landmark_ecblobs.h ****   0x0000009000000001UL, 0x000000240006e400UL, 0x280c004200100000UL, 0x0000000700000006UL,
 719:Model/hand_landmark_ecblobs.h ****   0x00000090280d0043UL, 0x281100433426e43fUL, 0x0000000000000000UL, 0x14007c0000802001UL,
 720:Model/hand_landmark_ecblobs.h ****   0x1402004300080108UL, 0x00000c403426e400UL, 0x00000000140500c3UL, 0x0000000000000c40UL,
 721:Model/hand_landmark_ecblobs.h ****   0x0000002400000000UL, 0x140c004200100000UL, 0x0000000700000006UL, 0x00000090140d0043UL,
 722:Model/hand_landmark_ecblobs.h ****   0x14110043342dc83fUL, 0x0000000000000000UL, 0x0000000210007c00UL, 0x0000006410000424UL,
 723:Model/hand_landmark_ecblobs.h ****   0x10007c0000000000UL, 0x10007bc440000000UL, 0x0000000000000064UL, 0x0000000110007c00UL,
 724:Model/hand_landmark_ecblobs.h ****   0x0000000b10027c00UL, 0x2800200114002001UL, 0x0000006414007fe4UL, 0x10027c0000000000UL,
 725:Model/hand_landmark_ecblobs.h ****   0x14007c0000000000UL, 0x1400042400000002UL, 0x0000000000000064UL, 0x4000000014007c00UL,
 726:Model/hand_landmark_ecblobs.h ****   0x0000006414007bc4UL, 0x0080000100000000UL, 0x0000000228007c00UL, 0x0000006428000424UL,
 727:Model/hand_landmark_ecblobs.h ****   0x28007c0000000000UL, 0x28007bc440000000UL, 0x0000000000000064UL, 0x000001dd008000a1UL,
 728:Model/hand_landmark_ecblobs.h ****   0x48007c00008021a1UL, 0x480200c300100034UL, 0x0000221901010305UL, 0x0038003810634404UL,
 729:Model/hand_landmark_ecblobs.h ****   0x0037000000370000UL, 0x00000000480a7c00UL, 0x00000000480d7c00UL, 0x3c007c0000802141UL,
 730:Model/hand_landmark_ecblobs.h ****   0x3c0200c300100034UL, 0x0000224901010205UL, 0x0038003810634404UL, 0x0037000200370000UL,
 731:Model/hand_landmark_ecblobs.h ****   0x010000003c0a7c00UL, 0x000000003c0d7c00UL, 0x68000042008022a1UL, 0x0900016008000000UL,
 732:Model/hand_landmark_ecblobs.h ****   0x0000000068027c00UL, 0x0000000168070043UL, 0x680c004300000001UL, 0x2042204200000000UL,
 733:Model/hand_landmark_ecblobs.h ****   0x5c00004200802241UL, 0x096000fc08000000UL, 0x000500005c020123UL, 0x0000000000000000UL,
 734:Model/hand_landmark_ecblobs.h ****   0x0001b8ff0000030fUL, 0x0000000000000001UL, 0x0000000105c40200UL, 0x000000005c0c0043UL,
 735:Model/hand_landmark_ecblobs.h ****   0x5c0b7c0020422042UL, 0x5d00240300000001UL, 0x0000000000000825UL, 0x0000000000001a2eUL,
 736:Model/hand_landmark_ecblobs.h ****   0x0000000000001397UL, 0x0000000000000000UL, 0x0000000000000932UL, 0x00000000000004d6UL,
 737:Model/hand_landmark_ecblobs.h ****   0x0000000000000000UL, 0x0000000000000950UL, 0x0000000000000ad8UL, 0x00000000000018bcUL,
 738:Model/hand_landmark_ecblobs.h ****   0x00000000000020b4UL, 0x0000000000000597UL, 0x00000000000009fcUL, 0x0000000000000944UL,
 739:Model/hand_landmark_ecblobs.h ****   0x0000000000002677UL, 0x0000000000000859UL, 0x0000000000000a62UL, 0x0000000000000859UL,
 740:Model/hand_landmark_ecblobs.h ****   0x00000000000005ddUL, 0x000000000000121bUL, 0x0000000000000b02UL, 0x0000000000000389UL,
 741:Model/hand_landmark_ecblobs.h ****   0x000000000000190bUL, 0x0000000000000911UL, 0x0000000000000bd2UL, 0x00000000000027fcUL,
 742:Model/hand_landmark_ecblobs.h ****   0x0000000000001249UL, 0x0000000000000b02UL, 0x000000000000227bUL, 0x0000000000000aa4UL,
 743:Model/hand_landmark_ecblobs.h ****   0x0000000000001595UL, 0x0000000000002be5UL, 0x000000000000137eUL, 0x00000000000005f5UL,
 744:Model/hand_landmark_ecblobs.h ****   0x000000000000093bUL, 0x00000000000005bcUL, 0x00000000000003daUL, 0x000000000000078cUL,
 745:Model/hand_landmark_ecblobs.h ****   0x000000000000081fUL, 0x000000000000091bUL, 0x0000000000000f9eUL, 0x0000000000000551UL,
 746:Model/hand_landmark_ecblobs.h ****   0x0000000000001c81UL, 0x00000000000010ecUL, 0x0000000000000830UL, 0x0000000000002e99UL,
 747:Model/hand_landmark_ecblobs.h ****   0x00000000000006a1UL, 0x0000000000000705UL, 0x0000000000000e38UL, 0x00000000000006b9UL,
 748:Model/hand_landmark_ecblobs.h ****   0x0000000000001eedUL, 0x0000000000004731UL, 0x000000000000062fUL, 0x00000000000018aaUL,
 749:Model/hand_landmark_ecblobs.h ****   0x0000000000004687UL, 0x0000000000000887UL, 0x000000000000307fUL, 0x000000000000095bUL,
ARM GAS  /tmp/ccAJFP7B.s 			page 37


 750:Model/hand_landmark_ecblobs.h ****   0x0000000000000f24UL, 0x00000000000034eeUL, 0x0000000000000aa7UL, 0x00000000000014c6UL,
 751:Model/hand_landmark_ecblobs.h ****   0x00000000000018aaUL, 0x00000000000019bbUL, 0x0000000000001162UL, 0x0000000000000ad8UL,
 752:Model/hand_landmark_ecblobs.h ****   0x000000000000101aUL, 0x0000000000001885UL, 0x0000000000000585UL, 0x000000000000047fUL,
 753:Model/hand_landmark_ecblobs.h ****   0x000000000000088aUL, 0x00000000000009cbUL, 0x0000000000001ff8UL, 0x0000000000001509UL,
 754:Model/hand_landmark_ecblobs.h ****   0x000000000000077eUL, 0x00000000000002bdUL, 0x00000000000006dfUL, 0x000000000000223eUL,
 755:Model/hand_landmark_ecblobs.h ****   0x0000000000000a98UL, 0x0000000000002461UL, 0x0000000000000c4cUL, 0x0000000000001b9bUL,
 756:Model/hand_landmark_ecblobs.h ****   0x0000000000001d44UL, 0x000000000000189eUL, 0x000000000000128bUL, 0x0000000000000583UL,
 757:Model/hand_landmark_ecblobs.h ****   0x000000000000093bUL, 0x0000000000000b3fUL, 0x00000000000018c2UL, 0x00000000000012b0UL,
 758:Model/hand_landmark_ecblobs.h ****   0x0000000000000f4fUL, 0x0000000000000fa1UL, 0x0000000000001503UL, 0x0000000000000460UL,
 759:Model/hand_landmark_ecblobs.h ****   0x0000000000001762UL, 0x0000000000000d9aUL, 0x0000000000002931UL, 0x0000000000000ad0UL,
 760:Model/hand_landmark_ecblobs.h ****   0x0000000000000dbeUL, 0x000000000000106fUL, 0x00000000000005f2UL, 0x0000000000000b67UL,
 761:Model/hand_landmark_ecblobs.h ****   0x000000000000338eUL, 0x0000000000001d31UL, 0x0000000000000885UL, 0x000000000000087aUL,
 762:Model/hand_landmark_ecblobs.h ****   0x0000000000001789UL, 0x0000000000002e38UL, 0x0000000000002c3aUL, 0x00000000000010b8UL,
 763:Model/hand_landmark_ecblobs.h ****   0x0000000000000a97UL, 0x0000000000000d7bUL, 0x0000000000000ce7UL, 0x00000000000010d6UL,
 764:Model/hand_landmark_ecblobs.h ****   0x0000000000000949UL, 0x000000000000083fUL, 0x00000000000006b5UL, 0x0000000000000885UL,
 765:Model/hand_landmark_ecblobs.h ****   0x0000000000000e10UL, 0x00000000000004e4UL, 0x00000000000008d5UL, 0x0000000000000682UL,
 766:Model/hand_landmark_ecblobs.h ****   0x00000000000009faUL, 0x0000000000000e44UL, 0x000000000000156dUL, 0x000000000000081eUL,
 767:Model/hand_landmark_ecblobs.h ****   0x00000000000008ccUL, 0x0000000000001be3UL, 0x0000000000001849UL, 0x0000000000004f59UL,
 768:Model/hand_landmark_ecblobs.h ****   0x00000000000017bdUL, 0x00000000000003a1UL, 0x0000000000000bd2UL, 0x00000000000007cdUL,
 769:Model/hand_landmark_ecblobs.h ****   0x00000000000007ccUL, 0x00000000000019c7UL, 0x00000000000011d2UL, 0x0000000000000531UL,
 770:Model/hand_landmark_ecblobs.h ****   0x0000000000001c8dUL, 0x0000000000002047UL, 0x000000000000076fUL, 0x000000000000070aUL,
 771:Model/hand_landmark_ecblobs.h ****   0x000000000000201cUL, 0x00000000000025d3UL, 0x6000004200802261UL, 0x156000fc08000000UL,
 772:Model/hand_landmark_ecblobs.h ****   0x000a000060020123UL, 0x0000000000000000UL, 0x0001b8ff0000030fUL, 0x0000000000005500UL,
 773:Model/hand_landmark_ecblobs.h ****   0x0000000105c40200UL, 0x00000000600c0043UL, 0x600b7c0020422042UL, 0x6100240300000001UL,
 774:Model/hand_landmark_ecblobs.h ****   0x0000202cf7fa5500UL, 0x00008e1cf7fd5500UL, 0x000006c906f15500UL, 0x0000f095f7ff5500UL,
 775:Model/hand_landmark_ecblobs.h ****   0x00008515001a5500UL, 0x00003af6f7885500UL, 0x000085c7f8075500UL, 0x00001240f7fb5500UL,
 776:Model/hand_landmark_ecblobs.h ****   0x000064c3f78c5500UL, 0x000080cbf9d45500UL, 0x00009f67f83f5500UL, 0x000055b1f7c05500UL,
 777:Model/hand_landmark_ecblobs.h ****   0x00007837f68f5500UL, 0x0000174bf8695500UL, 0x00002548fa355500UL, 0x000052a5fc525500UL,
 778:Model/hand_landmark_ecblobs.h ****   0x0000cf4dff795500UL, 0x00007af6f7f45500UL, 0x00008610fc1e5500UL, 0x00003a69f8645500UL,
 779:Model/hand_landmark_ecblobs.h ****   0x0000b28bf7a55500UL, 0x0000d947fdcc5500UL, 0x00003e7cf9225500UL, 0x000060ca02915500UL,
 780:Model/hand_landmark_ecblobs.h ****   0x0000ed6bf8105500UL, 0x00003528fed95500UL, 0x00005a5400465500UL, 0x00006087f7f35500UL,
 781:Model/hand_landmark_ecblobs.h ****   0x000017b0f8855500UL, 0x00008652fbcd5500UL, 0x0000dc68f75a5500UL, 0x00005b0ef8f45500UL,
 782:Model/hand_landmark_ecblobs.h ****   0x000061f4f8075500UL, 0x000020d1f80b5500UL, 0x0000c967fe865500UL, 0x0000c4defb8d5500UL,
 783:Model/hand_landmark_ecblobs.h ****   0x0000393af7c85500UL, 0x0000c8a1f7f35500UL, 0x000022ac03cc5500UL, 0x000052a6f9515500UL,
 784:Model/hand_landmark_ecblobs.h ****   0x00008c18f9275500UL, 0x0000f5a6f6085500UL, 0x00009ded05625500UL, 0x00006c6df8035500UL,
 785:Model/hand_landmark_ecblobs.h ****   0x0000d09afcd35500UL, 0x000015f3f9825500UL, 0x00009de8f5625500UL, 0x0000d9f7fc785500UL,
 786:Model/hand_landmark_ecblobs.h ****   0x0000d6b1f87b5500UL, 0x00004bfcfa055500UL, 0x00003ff220975500UL, 0x0000854afacc5500UL,
 787:Model/hand_landmark_ecblobs.h ****   0x0000e8b7fd635500UL, 0x0000ae5df8125500UL, 0x0000ad9a00225500UL, 0x00005a91f7a95500UL,
 788:Model/hand_landmark_ecblobs.h ****   0x000050c9f80a5500UL, 0x00002051f70d5500UL, 0x0000a81b0d9f5500UL, 0x0000dcfaf7595500UL,
 789:Model/hand_landmark_ecblobs.h ****   0x000035d6eed55500UL, 0x00007a95f8dd5500UL, 0x00003f7ff7ea5500UL, 0x0000c4d9f68e5500UL,
 790:Model/hand_landmark_ecblobs.h ****   0x0000bbbff8645500UL, 0x0000db5ff9235500UL, 0x00009bf8f7e85500UL, 0x0000b385f4f55500UL,
 791:Model/hand_landmark_ecblobs.h ****   0x000029d3f8095500UL, 0x0000674af4f25500UL, 0x00004c17f4665500UL, 0x0000f604f8e15500UL,
 792:Model/hand_landmark_ecblobs.h ****   0x0000f0ddfd4f5500UL, 0x00006614f7fc5500UL, 0x0000aa95f7d95500UL, 0x0000e187fd1a5500UL,
 793:Model/hand_landmark_ecblobs.h ****   0x00004a93f8105500UL, 0x000046cef8b65500UL, 0x000043f1f5145500UL, 0x0000a5cbfb155500UL,
 794:Model/hand_landmark_ecblobs.h ****   0x000057f7fb9c5500UL, 0x00003208ffd05500UL, 0x00009ffff7185500UL, 0x000030c1f7fd5500UL,
 795:Model/hand_landmark_ecblobs.h ****   0x00004f81fd5d5500UL, 0x0000032df6a95500UL, 0x0000c996f13e5500UL, 0x0000d532fd265500UL,
 796:Model/hand_landmark_ecblobs.h ****   0x0000d993f8a65500UL, 0x000078d2f8ac5500UL, 0x0000e390f8c25500UL, 0x0000d4baf3815500UL,
 797:Model/hand_landmark_ecblobs.h ****   0x0000263cf7295500UL, 0x00001c04f5905500UL, 0x0000b2d5f8995500UL, 0x00006ad4f9965500UL,
 798:Model/hand_landmark_ecblobs.h ****   0x00002b7afdd25500UL, 0x0000dc79f6735500UL, 0x0000d0a1f8165500UL, 0x00000613f8f85500UL,
 799:Model/hand_landmark_ecblobs.h ****   0x0000beccfc395500UL, 0x0000bc70f2455500UL, 0x00008fa203fe5500UL, 0x0000fe65f80e5500UL,
 800:Model/hand_landmark_ecblobs.h ****   0x000065a7f7485500UL, 0x0000c317f8e85500UL, 0x00002358fc2f5500UL, 0x0000f3dff9725500UL,
 801:Model/hand_landmark_ecblobs.h ****   0x000031fcf8065500UL, 0x0000eb82f4175500UL, 0x00004ab3f60a5500UL, 0x00008d96f6265500UL,
 802:Model/hand_landmark_ecblobs.h ****   0x00002c58f8a35500UL, 0x0000c5cbf82d5500UL, 0x0000b6f2f8255500UL, 0x0000a095f8da5500UL,
 803:Model/hand_landmark_ecblobs.h ****   0x0000bce3f8385500UL, 0x000095e4f7de5500UL, 0x000055abf8025500UL, 0x00007aabf5335500UL,
 804:Model/hand_landmark_ecblobs.h ****   0x00003a50f4c95500UL, 0x000044c9fb635500UL, 0x00003f02f85c5500UL, 0x0000f2ddf80e5500UL,
 805:Model/hand_landmark_ecblobs.h ****   0x000076c9f82d5500UL, 0x00005b9bf2a55500UL, 0x000000c9f9535500UL, 0x00004305f56e5500UL,
 806:Model/hand_landmark_ecblobs.h ****   0x00009932f8ac5500UL, 0x00002e48fbaa5500UL, 0x0000628df8315500UL, 0x000011caf5ef5500UL,
ARM GAS  /tmp/ccAJFP7B.s 			page 38


 807:Model/hand_landmark_ecblobs.h ****   0x00002e89f7f35500UL, 0x0000209af63a5500UL, 0x0000dbc8f57c5500UL, 0x00006eeffb825500UL,
 808:Model/hand_landmark_ecblobs.h ****   0x00000bd4f5a35500UL, 0x00009c7bf8115500UL, 0x00001367f7f25500UL, 0x0000bed6f8345500UL,
 809:Model/hand_landmark_ecblobs.h ****   0x0000cabdf7ec5500UL, 0x000085c3fa7b5500UL, 0x00004ac4f9a65500UL, 0x000086cef82d5500UL,
 810:Model/hand_landmark_ecblobs.h ****   0x6400004200802281UL, 0x1500000008000000UL, 0x0007000064027c00UL, 0x0000400064070043UL,
 811:Model/hand_landmark_ecblobs.h ****   0x640c004300000020UL, 0x1041104100000000UL, 0x20007c0000802061UL, 0x2002004300080100UL,
 812:Model/hand_landmark_ecblobs.h ****   0x00000c403426e400UL, 0x00000000200500c3UL, 0x0000000100000000UL, 0x0000002400000c40UL,
 813:Model/hand_landmark_ecblobs.h ****   0x200c004200100000UL, 0x0000000700000006UL, 0x00000090200d0043UL, 0x20110043342dc83fUL,
 814:Model/hand_landmark_ecblobs.h ****   0x0000000000000000UL, 0x2c007c00008020c1UL, 0x2c02004300080184UL, 0x00000870708a8d70UL,
 815:Model/hand_landmark_ecblobs.h ****   0x000000002c0500c3UL, 0x0000000000000000UL, 0x0000002400000000UL, 0x2c0c004200100000UL,
 816:Model/hand_landmark_ecblobs.h ****   0x0000000700000006UL, 0x000000012c0d0043UL, 0x2c110043708a961fUL, 0x0000000800000000UL,
 817:Model/hand_landmark_ecblobs.h ****   0x38007c0000802121UL, 0x3802004300080100UL, 0x00000c403426e400UL, 0x00000000380500c3UL,
 818:Model/hand_landmark_ecblobs.h ****   0x0000000100000000UL, 0x0000002400000c40UL, 0x380c004200100000UL, 0x0000000700000006UL,
 819:Model/hand_landmark_ecblobs.h ****   0x00000090380d0043UL, 0x38110043342dc83fUL, 0x0000000000000000UL, 0x18007c0000802021UL,
 820:Model/hand_landmark_ecblobs.h ****   0x1802004300080184UL, 0x000005a0708aa2a0UL, 0x00000000180500c3UL, 0x0000000000000000UL,
 821:Model/hand_landmark_ecblobs.h ****   0x0000002400000000UL, 0x180c004200100000UL, 0x0000000700000006UL, 0x00000001180d0043UL,
 822:Model/hand_landmark_ecblobs.h ****   0x18110043708aa87fUL, 0x0000000800000000UL, 0x24007c0000802081UL, 0x2402012300080008UL,
 823:Model/hand_landmark_ecblobs.h ****   0x001c001c342dc800UL, 0x00000fc000900001UL, 0x0000009000000001UL, 0x000000240001b900UL,
 824:Model/hand_landmark_ecblobs.h ****   0x240c004200100000UL, 0x0000000700000006UL, 0x00000090240d0043UL, 0x24110043342f813fUL,
 825:Model/hand_landmark_ecblobs.h ****   0x0000000000000000UL, 0x0000000210007c00UL, 0x0000006410000424UL, 0x10007c0000000000UL,
 826:Model/hand_landmark_ecblobs.h ****   0x10007bc440000000UL, 0x0000000000000064UL, 0x0000000110007c00UL, 0x0000002910067c00UL,
 827:Model/hand_landmark_ecblobs.h ****   0x00000013100c0043UL, 0x1015004300000003UL, 0x0000000d00000007UL, 0x0000002b101e7c00UL,
 828:Model/hand_landmark_ecblobs.h ****   0x0000002510207c00UL, 0x0000002710227c00UL, 0x0000001b10240043UL, 0x2400200100000015UL,
 829:Model/hand_landmark_ecblobs.h ****   0x001000353c007c00UL, 0x0010003548007c00UL, 0x600020015c002001UL, 0x6800200164002001UL,
 830:Model/hand_landmark_ecblobs.h ****   0x2000200118002001UL, 0x380020012c002001UL, 0x0000006424007fe4UL, 0x10067c0000000000UL,
 831:Model/hand_landmark_ecblobs.h ****   0x100c004300000000UL, 0x0000000000000000UL, 0x0000000010150043UL, 0x101e7c0000000000UL,
 832:Model/hand_landmark_ecblobs.h ****   0x10207c0000000000UL, 0x10227c0000000000UL, 0x1024004300000000UL, 0x0000000000000000UL,
 833:Model/hand_landmark_ecblobs.h ****   0x0000000224007c00UL, 0x0000006424000424UL, 0x24007c0000000000UL, 0x24007bc440000000UL,
 834:Model/hand_landmark_ecblobs.h ****   0x0000000000000064UL, 0x3c007c0000800081UL, 0x3c00042400000002UL, 0x0000000000000064UL,
 835:Model/hand_landmark_ecblobs.h ****   0x400000003c007c00UL, 0x000000643c007bc4UL, 0x0080014100000000UL, 0x0000000248007c00UL,
 836:Model/hand_landmark_ecblobs.h ****   0x0000006448000424UL, 0x48007c0000000000UL, 0x48007bc440000000UL, 0x0000000000000064UL,
 837:Model/hand_landmark_ecblobs.h ****   0x5c007c00008001a1UL, 0x5c00042408000002UL, 0x0000000000000064UL, 0x480000005c007c00UL,
 838:Model/hand_landmark_ecblobs.h ****   0x000000645c007bc4UL, 0x0080024100000000UL, 0x0800000260007c00UL, 0x0000006460000424UL,
 839:Model/hand_landmark_ecblobs.h ****   0x60007c0000000000UL, 0x60007bc448000000UL, 0x0000000000000064UL, 0x64007c0000800261UL,
 840:Model/hand_landmark_ecblobs.h ****   0x6400042408000002UL, 0x0000000000000064UL, 0x4800000064007c00UL, 0x0000006464007bc4UL,
 841:Model/hand_landmark_ecblobs.h ****   0x0080028100000000UL, 0x0800000268007c00UL, 0x0000006468000424UL, 0x68007c0000000000UL,
 842:Model/hand_landmark_ecblobs.h ****   0x68007bc448000000UL, 0x0000000000000064UL, 0x18007c00008002a1UL, 0x1800042400000002UL,
 843:Model/hand_landmark_ecblobs.h ****   0x0000000000000064UL, 0x4000000018007c00UL, 0x0000006418007bc4UL, 0x0080002100000000UL,
 844:Model/hand_landmark_ecblobs.h ****   0x0000000220007c00UL, 0x0000006420000424UL, 0x20007c0000000000UL, 0x20007bc440000000UL,
 845:Model/hand_landmark_ecblobs.h ****   0x0000000000000064UL, 0x2c007c0000800061UL, 0x2c00042400000002UL, 0x0000000000000064UL,
 846:Model/hand_landmark_ecblobs.h ****   0x400000002c007c00UL, 0x000000642c007bc4UL, 0x008000c100000000UL, 0x0000000238007c00UL,
 847:Model/hand_landmark_ecblobs.h ****   0x0000006438000424UL, 0x38007c0000000000UL, 0x38007bc440000000UL, 0x0000000000000064UL,
 848:Model/hand_landmark_ecblobs.h ****   0x000001fd00800121UL, 0x40007c0000802161UL, 0x400200e310d00034UL, 0x0000110014480101UL,
 849:Model/hand_landmark_ecblobs.h ****   0x001c07e010774004UL, 0x001b000007df0000UL, 0x400a7c0000130028UL, 0x400d7c0000000000UL,
 850:Model/hand_landmark_ecblobs.h ****   0x0080218100000000UL, 0x10d0002044007c00UL, 0x14480101440200e3UL, 0x1063440000001100UL,
 851:Model/hand_landmark_ecblobs.h ****   0x07df0000001c07e0UL, 0x00271428001b0000UL, 0x00000000440a7c00UL, 0x00000000440d7c00UL,
 852:Model/hand_landmark_ecblobs.h ****   0x5c00004200802241UL, 0x096000fc08000000UL, 0x000780005c020123UL, 0x0000001300000000UL,
 853:Model/hand_landmark_ecblobs.h ****   0x00007a7f00003d3fUL, 0x0000000000000001UL, 0x00000001076403edUL, 0x000000005c0c0043UL,
 854:Model/hand_landmark_ecblobs.h ****   0x5c0b7c0020422042UL, 0x5d000a0300000001UL, 0x00000000000046b8UL, 0x0000000000004f7eUL,
 855:Model/hand_landmark_ecblobs.h ****   0x0000000000006efcUL, 0x0000000000004081UL, 0x0000000000005cf6UL, 0x000000000000552fUL,
 856:Model/hand_landmark_ecblobs.h ****   0x000000000000549dUL, 0x0000000000005201UL, 0x00000000000058e2UL, 0x0000000000006b18UL,
 857:Model/hand_landmark_ecblobs.h ****   0x0000000000004ee0UL, 0x0000000000004f96UL, 0x00000000000046abUL, 0x0000000000003b49UL,
 858:Model/hand_landmark_ecblobs.h ****   0x00000000000056ccUL, 0x00000000000057e3UL, 0x0000000000005708UL, 0x00000000000063e3UL,
 859:Model/hand_landmark_ecblobs.h ****   0x00000000000040e2UL, 0x000000000000499cUL, 0x000000000000480cUL, 0x0000000000004786UL,
 860:Model/hand_landmark_ecblobs.h ****   0x0000000000006611UL, 0x00000000000053e7UL, 0x0000000000004febUL, 0x0000000000006567UL,
 861:Model/hand_landmark_ecblobs.h ****   0x00000000000054daUL, 0x0000000000006184UL, 0x0000000000004a6bUL, 0x0000000000005616UL,
 862:Model/hand_landmark_ecblobs.h ****   0x00000000000046f4UL, 0x0000000000003db5UL, 0x00000000000044a1UL, 0x0000000000004861UL,
 863:Model/hand_landmark_ecblobs.h ****   0x0000000000004471UL, 0x00000000000041f9UL, 0x00000000000055f1UL, 0x0000000000005fcfUL,
ARM GAS  /tmp/ccAJFP7B.s 			page 39


 864:Model/hand_landmark_ecblobs.h ****   0x0000000000004c99UL, 0x0000000000004626UL, 0x6000004200802261UL, 0x156000fc08000000UL,
 865:Model/hand_landmark_ecblobs.h ****   0x000a000060020123UL, 0x0000001300000000UL, 0x00007a7f00003d3fUL, 0x0000000000007626UL,
 866:Model/hand_landmark_ecblobs.h ****   0x00000001076403edUL, 0x00000000600c0043UL, 0x600b7c0020422042UL, 0x61000a0300000001UL,
 867:Model/hand_landmark_ecblobs.h ****   0x0000df50fdad7626UL, 0x0000711c01817626UL, 0x000084db01897626UL, 0x000098f9011f7626UL,
 868:Model/hand_landmark_ecblobs.h ****   0x0000241d00a17626UL, 0x0000cd07fdcc7626UL, 0x00007c4900897626UL, 0x00004d13009c7626UL,
 869:Model/hand_landmark_ecblobs.h ****   0x00009b34ff8b7626UL, 0x0000e95cff577626UL, 0x00000d3b012c7626UL, 0x00001025008d7626UL,
 870:Model/hand_landmark_ecblobs.h ****   0x00007a24ff1a7626UL, 0x00008e71fe837626UL, 0x0000997f00d77626UL, 0x000086a800b17626UL,
 871:Model/hand_landmark_ecblobs.h ****   0x0000a85501b17626UL, 0x000061deff6c7626UL, 0x0000a3c7fdfb7626UL, 0x0000678bfe107626UL,
 872:Model/hand_landmark_ecblobs.h ****   0x0000782fff5c7626UL, 0x000057e0001c7626UL, 0x0000c560ff467626UL, 0x0000926400317626UL,
 873:Model/hand_landmark_ecblobs.h ****   0x0000aac7013f7626UL, 0x000070e900b57626UL, 0x0000729c002e7626UL, 0x00002d4dffa87626UL,
 874:Model/hand_landmark_ecblobs.h ****   0x00008626ff627626UL, 0x00003a2eff507626UL, 0x000034a7ff3a7626UL, 0x0000160afff97626UL,
 875:Model/hand_landmark_ecblobs.h ****   0x00004eb8ff497626UL, 0x0000f8b2fec47626UL, 0x00001e70fca37626UL, 0x0000d1fc01cd7626UL,
 876:Model/hand_landmark_ecblobs.h ****   0x0000e5e400d37626UL, 0x0000ebe8ffb17626UL, 0x0000dbf9ff807626UL, 0x000021d8017c7626UL,
 877:Model/hand_landmark_ecblobs.h ****   0x34007c0000802101UL, 0x3402012308880200UL, 0x001c001c342dc800UL, 0x00000fc000900018UL,
 878:Model/hand_landmark_ecblobs.h ****   0x0000000200000000UL, 0x0000002400000090UL, 0x340c004200100000UL, 0x0000000700000006UL,
 879:Model/hand_landmark_ecblobs.h ****   0x00000002340d0043UL, 0x34110043342f813fUL, 0x0000000000000000UL, 0x30007c00008020e1UL,
 880:Model/hand_landmark_ecblobs.h ****   0x3002004308880180UL, 0x000001e0708a1240UL, 0x00000000300500c3UL, 0x00000000000005a0UL,
 881:Model/hand_landmark_ecblobs.h ****   0x0000002400000000UL, 0x300c004200100000UL, 0x0000000700000006UL, 0x00000004300d0043UL,
 882:Model/hand_landmark_ecblobs.h ****   0x30110043708a28ffUL, 0x0000000800000000UL, 0x18007c0000802021UL, 0x1802012308880200UL,
 883:Model/hand_landmark_ecblobs.h ****   0x001c001c342dc848UL, 0x00000fc000900018UL, 0x0000000200000000UL, 0x0000002400000090UL,
 884:Model/hand_landmark_ecblobs.h ****   0x180c004200100000UL, 0x0000000700000006UL, 0x00000002180d0043UL, 0x18110043342f813fUL,
 885:Model/hand_landmark_ecblobs.h ****   0x0000000000000000UL, 0x24007c0000802081UL, 0x2402004300080108UL, 0x00003d40342f8100UL,
 886:Model/hand_landmark_ecblobs.h ****   0x00000000240500c3UL, 0x0000000000003d40UL, 0x0000002400000000UL, 0x240c004200100000UL,
 887:Model/hand_landmark_ecblobs.h ****   0x0000000700000006UL, 0x00000002240d0043UL, 0x24110043342ffbbfUL, 0x0000000000000000UL,
 888:Model/hand_landmark_ecblobs.h ****   0x0000000210007c00UL, 0x0000006410000424UL, 0x10007c0000000000UL, 0x10007bc440000000UL,
 889:Model/hand_landmark_ecblobs.h ****   0x0000000000000064UL, 0x0000000110007c00UL, 0x0000002710067c00UL, 0x00000011100f0043UL,
 890:Model/hand_landmark_ecblobs.h ****   0x101200630000000fUL, 0x0000000f00000003UL, 0x101e7c0000000017UL, 0x10207c0000000019UL,
 891:Model/hand_landmark_ecblobs.h ****   0x2400200100000025UL, 0x10d0003540007c00UL, 0x10d0002144007c00UL, 0x600020015c002001UL,
 892:Model/hand_landmark_ecblobs.h ****   0x3000200118002001UL, 0x24007fe434002001UL, 0x0000000000000064UL, 0x0000000010067c00UL,
 893:Model/hand_landmark_ecblobs.h ****   0x00000000100f0043UL, 0x1012006300000000UL, 0x0000000000000000UL, 0x101e7c0000000000UL,
 894:Model/hand_landmark_ecblobs.h ****   0x10207c0000000000UL, 0x24007c0000000000UL, 0x2400042400000002UL, 0x0000000000000064UL,
 895:Model/hand_landmark_ecblobs.h ****   0x4000000024007c00UL, 0x0000006424007bc4UL, 0x0080008100000000UL, 0x0000000240007c00UL,
 896:Model/hand_landmark_ecblobs.h ****   0x0000006440000424UL, 0x40007c0000000000UL, 0x40007bc440000000UL, 0x0000000000000064UL,
 897:Model/hand_landmark_ecblobs.h ****   0x44007c0000800161UL, 0x4400042400000002UL, 0x0000000000000064UL, 0x4000000044007c00UL,
 898:Model/hand_landmark_ecblobs.h ****   0x0000006444007bc4UL, 0x0080018100000000UL, 0x080000025c007c00UL, 0x000000645c000424UL,
 899:Model/hand_landmark_ecblobs.h ****   0x5c007c0000000000UL, 0x5c007bc448000000UL, 0x0000000000000064UL, 0x60007c0000800241UL,
 900:Model/hand_landmark_ecblobs.h ****   0x6000042408000002UL, 0x0000000000000064UL, 0x4800000060007c00UL, 0x0000006460007bc4UL,
 901:Model/hand_landmark_ecblobs.h ****   0x0080026100000000UL, 0x0000000218007c00UL, 0x0000006418000424UL, 0x18007c0000000000UL,
 902:Model/hand_landmark_ecblobs.h ****   0x18007bc440000000UL, 0x0000000000000064UL, 0x30007c0000800021UL, 0x3000042400000002UL,
 903:Model/hand_landmark_ecblobs.h ****   0x0000000000000064UL, 0x4000000030007c00UL, 0x0000006430007bc4UL, 0x008000e100000000UL,
 904:Model/hand_landmark_ecblobs.h ****   0x0000000234007c00UL, 0x0000006434000424UL, 0x34007c0000000000UL, 0x34007bc440000000UL,
 905:Model/hand_landmark_ecblobs.h ****   0x0000000000000064UL, 0x0000021d00800101UL, 0x3c007c0000802141UL, 0x3c0200e300000054UL,
 906:Model/hand_landmark_ecblobs.h ****   0x0000110018140101UL, 0x001c023010b74003UL, 0x001b0000022f0000UL, 0x3c0a7c0000170030UL,
 907:Model/hand_landmark_ecblobs.h ****   0x3c0c004300000000UL, 0x0000000000fffffbUL, 0x48007c00008021a1UL, 0x480200e300000040UL,
 908:Model/hand_landmark_ecblobs.h ****   0x0000110018140101UL, 0x001c023010a34300UL, 0x001b0000022f0000UL, 0x480a7c00002f1830UL,
 909:Model/hand_landmark_ecblobs.h ****   0x480c004300000000UL, 0x0000000000fffffbUL, 0x6400004200802281UL, 0x096000fc08000000UL,
 910:Model/hand_landmark_ecblobs.h ****   0x0006000064020123UL, 0x0000001700000000UL, 0x0002deff0000497fUL, 0x0000000000000001UL,
 911:Model/hand_landmark_ecblobs.h ****   0x00000001044403e9UL, 0x00000000640c0043UL, 0x640b7c0020422042UL, 0x65003c0300000001UL,
 912:Model/hand_landmark_ecblobs.h ****   0x00000000000019b6UL, 0x00000000000011eeUL, 0x0000000000001b6fUL, 0x0000000000001b29UL,
 913:Model/hand_landmark_ecblobs.h ****   0x0000000000001aa6UL, 0x0000000000001adbUL, 0x0000000000002e82UL, 0x0000000000002122UL,
 914:Model/hand_landmark_ecblobs.h ****   0x0000000000002457UL, 0x000000000000296dUL, 0x0000000000001227UL, 0x0000000000001ca5UL,
 915:Model/hand_landmark_ecblobs.h ****   0x0000000000001264UL, 0x0000000000002d48UL, 0x00000000000031c0UL, 0x0000000000002175UL,
 916:Model/hand_landmark_ecblobs.h ****   0x0000000000001c22UL, 0x0000000000002ce8UL, 0x000000000000191dUL, 0x0000000000000a68UL,
 917:Model/hand_landmark_ecblobs.h ****   0x0000000000001c90UL, 0x0000000000002723UL, 0x0000000000002990UL, 0x0000000000001806UL,
 918:Model/hand_landmark_ecblobs.h ****   0x00000000000046d7UL, 0x00000000000012e3UL, 0x000000000000235aUL, 0x0000000000000eacUL,
 919:Model/hand_landmark_ecblobs.h ****   0x0000000000001052UL, 0x0000000000001de0UL, 0x0000000000002013UL, 0x0000000000001621UL,
 920:Model/hand_landmark_ecblobs.h ****   0x0000000000001f9dUL, 0x0000000000001667UL, 0x0000000000001907UL, 0x00000000000020e1UL,
ARM GAS  /tmp/ccAJFP7B.s 			page 40


 921:Model/hand_landmark_ecblobs.h ****   0x0000000000002f3aUL, 0x0000000000001771UL, 0x000000000000140cUL, 0x000000000000346aUL,
 922:Model/hand_landmark_ecblobs.h ****   0x000000000000159eUL, 0x0000000000000a8bUL, 0x000000000000148bUL, 0x000000000000120dUL,
 923:Model/hand_landmark_ecblobs.h ****   0x0000000000002b93UL, 0x0000000000002156UL, 0x0000000000001f16UL, 0x0000000000001873UL,
 924:Model/hand_landmark_ecblobs.h ****   0x000000000000146cUL, 0x0000000000001c45UL, 0x00000000000015dbUL, 0x00000000000022caUL,
 925:Model/hand_landmark_ecblobs.h ****   0x0000000000001915UL, 0x0000000000002f3aUL, 0x00000000000013b9UL, 0x0000000000003f89UL,
 926:Model/hand_landmark_ecblobs.h ****   0x0000000000001426UL, 0x00000000000028adUL, 0x00000000000012f9UL, 0x0000000000001697UL,
 927:Model/hand_landmark_ecblobs.h ****   0x000000000000194dUL, 0x0000000000002ac1UL, 0x00000000000021f8UL, 0x0000000000001de4UL,
 928:Model/hand_landmark_ecblobs.h ****   0x00000000000013cfUL, 0x0000000000003c06UL, 0x0000000000001542UL, 0x0000000000004dcdUL,
 929:Model/hand_landmark_ecblobs.h ****   0x0000000000001ff9UL, 0x0000000000003026UL, 0x00000000000014c3UL, 0x0000000000003b08UL,
 930:Model/hand_landmark_ecblobs.h ****   0x00000000000030b1UL, 0x0000000000002e5fUL, 0x0000000000001607UL, 0x0000000000002ea5UL,
 931:Model/hand_landmark_ecblobs.h ****   0x00000000000013d8UL, 0x00000000000032a3UL, 0x00000000000020c2UL, 0x0000000000002c88UL,
 932:Model/hand_landmark_ecblobs.h ****   0x0000000000002821UL, 0x0000000000002e22UL, 0x0000000000001d3aUL, 0x00000000000037c2UL,
 933:Model/hand_landmark_ecblobs.h ****   0x0000000000002302UL, 0x00000000000019c8UL, 0x0000000000002409UL, 0x00000000000020beUL,
 934:Model/hand_landmark_ecblobs.h ****   0x00000000000011cbUL, 0x0000000000001ed9UL, 0x000000000000336cUL, 0x0000000000000ed4UL,
 935:Model/hand_landmark_ecblobs.h ****   0x0000000000001121UL, 0x00000000000023ddUL, 0x00000000000022e4UL, 0x0000000000001eefUL,
 936:Model/hand_landmark_ecblobs.h ****   0x00000000000029c4UL, 0x000000000000143cUL, 0x0000000000001621UL, 0x0000000000003f92UL,
 937:Model/hand_landmark_ecblobs.h ****   0x000000000000271bUL, 0x000000000000250fUL, 0x000000000000207cUL, 0x0000000000002bc7UL,
 938:Model/hand_landmark_ecblobs.h ****   0x0000000000001a39UL, 0x000000000000124aUL, 0x0000000000000047UL, 0x00000000000021d9UL,
 939:Model/hand_landmark_ecblobs.h ****   0x0000000000002b10UL, 0x0000000000002735UL, 0x0000000000000fc2UL, 0x0000000000001a58UL,
 940:Model/hand_landmark_ecblobs.h ****   0x000000000000213cUL, 0x0000000000002400UL, 0x0000000000001fdfUL, 0x0000000000003ffbUL,
 941:Model/hand_landmark_ecblobs.h ****   0x00000000000014fcUL, 0x0000000000002d36UL, 0x00000000000014f8UL, 0x0000000000002cdfUL,
 942:Model/hand_landmark_ecblobs.h ****   0x0000000000002af6UL, 0x0000000000001e4dUL, 0x0000000000001607UL, 0x0000000000003003UL,
 943:Model/hand_landmark_ecblobs.h ****   0x0000000000000e11UL, 0x0000000000000cb6UL, 0x00000000000022edUL, 0x0000000000001f35UL,
 944:Model/hand_landmark_ecblobs.h ****   0x00000000000004dbUL, 0x0000000000001c75UL, 0x0000000000003e46UL, 0x0000000000001ea4UL,
 945:Model/hand_landmark_ecblobs.h ****   0x000000000000371cUL, 0x0000000000003759UL, 0x0000000000001e4dUL, 0x0000000000001dbdUL,
 946:Model/hand_landmark_ecblobs.h ****   0x0000000000002409UL, 0x00000000000025f2UL, 0x0000000000001cb2UL, 0x0000000000001db0UL,
 947:Model/hand_landmark_ecblobs.h ****   0x000000000000229aUL, 0x0000000000003e83UL, 0x0000000000000f66UL, 0x00000000000045a5UL,
 948:Model/hand_landmark_ecblobs.h ****   0x000000000000430dUL, 0x0000000000001bd8UL, 0x0000000000001adfUL, 0x0000000000001e5eUL,
 949:Model/hand_landmark_ecblobs.h ****   0x0000000000001836UL, 0x00000000000016b5UL, 0x0000000000000f3cUL, 0x0000000000002494UL,
 950:Model/hand_landmark_ecblobs.h ****   0x0000000000003b2bUL, 0x0000000000004797UL, 0x0000000000003999UL, 0x0000000000000fc4UL,
 951:Model/hand_landmark_ecblobs.h ****   0x000000000000336cUL, 0x000000000000454eUL, 0x0000000000001498UL, 0x0000000000001adfUL,
 952:Model/hand_landmark_ecblobs.h ****   0x0000000000002f88UL, 0x0000000000001670UL, 0x00000000000029b3UL, 0x000000000000235aUL,
 953:Model/hand_landmark_ecblobs.h ****   0x0000000000002ebfUL, 0x0000000000001a16UL, 0x0000000000000acdUL, 0x0000000000001cf8UL,
 954:Model/hand_landmark_ecblobs.h ****   0x00000000000011fcUL, 0x0000000000003bd1UL, 0x0000000000001ce2UL, 0x0000000000000c03UL,
 955:Model/hand_landmark_ecblobs.h ****   0x0000000000002663UL, 0x0000000000001b44UL, 0x000000000000232eUL, 0x0000000000002f65UL,
 956:Model/hand_landmark_ecblobs.h ****   0x0000000000002f6eUL, 0x000000000000195aUL, 0x0000000000002709UL, 0x00000000000011e6UL,
 957:Model/hand_landmark_ecblobs.h ****   0x000000000000193cUL, 0x00000000000011e1UL, 0x000000000000277bUL, 0x00000000000017d6UL,
 958:Model/hand_landmark_ecblobs.h ****   0x000000000000232eUL, 0x0000000000001fb8UL, 0x000000000000232eUL, 0x0000000000001516UL,
 959:Model/hand_landmark_ecblobs.h ****   0x0000000000002832UL, 0x0000000000001952UL, 0x000000000000186aUL, 0x00000000000014e6UL,
 960:Model/hand_landmark_ecblobs.h ****   0x000000000000173dUL, 0x000000000000138dUL, 0x0000000000002f05UL, 0x0000000000003de6UL,
 961:Model/hand_landmark_ecblobs.h ****   0x0000000000000b36UL, 0x000000000000106cUL, 0x000000000000139fUL, 0x0000000000003627UL,
 962:Model/hand_landmark_ecblobs.h ****   0x0000000000001801UL, 0x00000000000011cbUL, 0x0000000000002460UL, 0x0000000000002483UL,
 963:Model/hand_landmark_ecblobs.h ****   0x00000000000018c2UL, 0x0000000000001760UL, 0x000000000000096fUL, 0x0000000000001452UL,
 964:Model/hand_landmark_ecblobs.h ****   0x0000000000000d0bUL, 0x00000000000025faUL, 0x0000000000002c4bUL, 0x000000000000241aUL,
 965:Model/hand_landmark_ecblobs.h ****   0x00000000000014ccUL, 0x0000000000001ec3UL, 0x0000000000003762UL, 0x0000000000002e4eUL,
 966:Model/hand_landmark_ecblobs.h ****   0x0000000000005c33UL, 0x00000000000026c3UL, 0x000000000000198aUL, 0x0000000000000f06UL,
 967:Model/hand_landmark_ecblobs.h ****   0x00000000000014efUL, 0x0000000000000df5UL, 0x00000000000010a0UL, 0x0000000000002d13UL,
 968:Model/hand_landmark_ecblobs.h ****   0x00000000000010d0UL, 0x0000000000001ba8UL, 0x0000000000002698UL, 0x0000000000001336UL,
 969:Model/hand_landmark_ecblobs.h ****   0x00000000000017ebUL, 0x00000000000019c8UL, 0x0000000000000eeeUL, 0x0000000000001e79UL,
 970:Model/hand_landmark_ecblobs.h ****   0x0000000000000adeUL, 0x000000000000203fUL, 0x000000000000192aUL, 0x0000000000001dc6UL,
 971:Model/hand_landmark_ecblobs.h ****   0x00000000000015a2UL, 0x000000000000411bUL, 0x0000000000001c45UL, 0x00000000000039abUL,
 972:Model/hand_landmark_ecblobs.h ****   0x68000042008022a1UL, 0x156000fc08000000UL, 0x000a000068020123UL, 0x0000001700000000UL,
 973:Model/hand_landmark_ecblobs.h ****   0x0002deff0000497fUL, 0x0000000000005500UL, 0x00000001044403e9UL, 0x00000000680c0043UL,
 974:Model/hand_landmark_ecblobs.h ****   0x680b7c0020422042UL, 0x69003c0300000001UL, 0x0000b4e2f85d5500UL, 0x0000c868f9335500UL,
 975:Model/hand_landmark_ecblobs.h ****   0x00004745f89c5500UL, 0x00009924f7435500UL, 0x00003327f6cb5500UL, 0x0000f8cdf76b5500UL,
 976:Model/hand_landmark_ecblobs.h ****   0x000058bff8845500UL, 0x00001a38f8505500UL, 0x0000f80bf8715500UL, 0x000067e9f7d35500UL,
 977:Model/hand_landmark_ecblobs.h ****   0x0000c5ecf9e55500UL, 0x0000468df9675500UL, 0x0000fc9bf95a5500UL, 0x000068d4f8015500UL,
ARM GAS  /tmp/ccAJFP7B.s 			page 41


 978:Model/hand_landmark_ecblobs.h ****   0x00002e58f7b25500UL, 0x000010d6fa935500UL, 0x00005fb8f7ce5500UL, 0x00008ec1f77b5500UL,
 979:Model/hand_landmark_ecblobs.h ****   0x00002be2f8a15500UL, 0x0000f8a1f8d95500UL, 0x000051c4f7a95500UL, 0x0000ccd2fa355500UL,
 980:Model/hand_landmark_ecblobs.h ****   0x0000c4b8f9ed5500UL, 0x00002ef0f8fc5500UL, 0x0000adbcf8965500UL, 0x0000604af9f85500UL,
 981:Model/hand_landmark_ecblobs.h ****   0x00003d27f79d5500UL, 0x00001d53fa8e5500UL, 0x000076f0f9e05500UL, 0x0000f822f9005500UL,
 982:Model/hand_landmark_ecblobs.h ****   0x00002a72f8d55500UL, 0x0000afd6f9a95500UL, 0x00005357f8a05500UL, 0x000041c6f66c5500UL,
 983:Model/hand_landmark_ecblobs.h ****   0x00009433f9bd5500UL, 0x000055fef7a15500UL, 0x00004d5bf6565500UL, 0x0000a784f8fa5500UL,
 984:Model/hand_landmark_ecblobs.h ****   0x000014ecf9185500UL, 0x00001f98f8d95500UL, 0x00001fd3f7895500UL, 0x00003de3f96d5500UL,
 985:Model/hand_landmark_ecblobs.h ****   0x0000aadff9ab5500UL, 0x0000883bf9475500UL, 0x00003516f7b75500UL, 0x00007450f8335500UL,
 986:Model/hand_landmark_ecblobs.h ****   0x0000375ff96f5500UL, 0x0000e7d4f9405500UL, 0x00004969f9605500UL, 0x0000363cf67c5500UL,
 987:Model/hand_landmark_ecblobs.h ****   0x0000cb68f98c5500UL, 0x00000c3af7e15500UL, 0x0000b8ddf79c5500UL, 0x0000faf4f7a45500UL,
 988:Model/hand_landmark_ecblobs.h ****   0x0000f995f9b05500UL, 0x00003ac0f8095500UL, 0x000035cdf9c55500UL, 0x00007e6df7535500UL,
 989:Model/hand_landmark_ecblobs.h ****   0x00006d6cf9e65500UL, 0x0000084df9455500UL, 0x0000c12cf9905500UL, 0x0000c9a0f8735500UL,
 990:Model/hand_landmark_ecblobs.h ****   0x0000cb6bf8d75500UL, 0x000097cdf6ed5500UL, 0x0000e688f8c65500UL, 0x000092e2f8f25500UL,
 991:Model/hand_landmark_ecblobs.h ****   0x000019b9f93a5500UL, 0x00003264f9645500UL, 0x0000977ff8325500UL, 0x0000cbe7f7c95500UL,
 992:Model/hand_landmark_ecblobs.h ****   0x0000a663f89d5500UL, 0x000085edf8345500UL, 0x0000bf43f73e5500UL, 0x000059c0f7ca5500UL,
 993:Model/hand_landmark_ecblobs.h ****   0x00007cbff7f35500UL, 0x00000aa6f8a55500UL, 0x00007ddef6805500UL, 0x0000b219f91d5500UL,
 994:Model/hand_landmark_ecblobs.h ****   0x0000e9caf9615500UL, 0x00003698f87d5500UL, 0x0000e3d6f7b05500UL, 0x0000919df7885500UL,
 995:Model/hand_landmark_ecblobs.h ****   0x0000b901f7505500UL, 0x00001e5af9e75500UL, 0x0000e0a5f76e5500UL, 0x0000b6cbf6475500UL,
 996:Model/hand_landmark_ecblobs.h ****   0x000096c8f8015500UL, 0x0000ae1ff8f45500UL, 0x0000988af9b55500UL, 0x0000e738f6ea5500UL,
 997:Model/hand_landmark_ecblobs.h ****   0x0000c4b4f8ee5500UL, 0x0000c1fef8bc5500UL, 0x000052d8f9fc5500UL, 0x00006007f83c5500UL,
 998:Model/hand_landmark_ecblobs.h ****   0x000080edf7a35500UL, 0x000078f8f7e25500UL, 0x0000bec4f64e5500UL, 0x0000b7e1f8ee5500UL,
 999:Model/hand_landmark_ecblobs.h ****   0x0000818df9815500UL, 0x000027dcf8205500UL, 0x00009672f7bf5500UL, 0x00006d44f8b95500UL,
1000:Model/hand_landmark_ecblobs.h ****   0x00000690f7c65500UL, 0x000065bff8e55500UL, 0x0000e50af7605500UL, 0x00007c10f9d95500UL,
1001:Model/hand_landmark_ecblobs.h ****   0x0000293af8965500UL, 0x0000b7e8f89f5500UL, 0x0000300bf84d5500UL, 0x00008ed8f9c35500UL,
1002:Model/hand_landmark_ecblobs.h ****   0x000085bdf6f75500UL, 0x0000839ef84e5500UL, 0x00001243f7155500UL, 0x00004aa7f7965500UL,
1003:Model/hand_landmark_ecblobs.h ****   0x00001b70f6865500UL, 0x00001757f8af5500UL, 0x0000a76ff9575500UL, 0x0000e7b6f7745500UL,
1004:Model/hand_landmark_ecblobs.h ****   0x00009f99f88b5500UL, 0x00001ec0f7be5500UL, 0x00005feef9f95500UL, 0x0000785df6895500UL,
1005:Model/hand_landmark_ecblobs.h ****   0x00004b9cfa575500UL, 0x00009b68f8ad5500UL, 0x00008028f97d5500UL, 0x0000a8f6f9fb5500UL,
1006:Model/hand_landmark_ecblobs.h ****   0x000011eff8f15500UL, 0x0000f5f7f8475500UL, 0x0000da53f97a5500UL, 0x0000cc9ef97d5500UL,
1007:Model/hand_landmark_ecblobs.h ****   0x0000998cf8215500UL, 0x00006544f69a5500UL, 0x0000e447f67b5500UL, 0x00008a55f8165500UL,
1008:Model/hand_landmark_ecblobs.h ****   0x00002259f79a5500UL, 0x0000cd2df9385500UL, 0x0000885bf72e5500UL, 0x000090cff7c35500UL,
1009:Model/hand_landmark_ecblobs.h ****   0x00005c3cf8c95500UL, 0x00004544f7975500UL, 0x0000d66bf8285500UL, 0x00000742f7d55500UL,
1010:Model/hand_landmark_ecblobs.h ****   0x0000936ff93e5500UL, 0x00007562f7395500UL, 0x00004858f8e65500UL, 0x00000361f72c5500UL,
1011:Model/hand_landmark_ecblobs.h ****   0x0000ccc8fa2c5500UL, 0x00004780f9355500UL, 0x0000e6d6fab95500UL, 0x00009d06f9625500UL,
1012:Model/hand_landmark_ecblobs.h ****   0x00008f8af96e5500UL, 0x000082ebf8aa5500UL, 0x00001b2df8965500UL, 0x0000bc9ff6b15500UL,
1013:Model/hand_landmark_ecblobs.h ****   0x0000df26f8135500UL, 0x0000b7c5f99d5500UL, 0x0000fb41f8705500UL, 0x00002deef8105500UL,
1014:Model/hand_landmark_ecblobs.h ****   0x00002b87f8d05500UL, 0x00001eaff8635500UL, 0x0000fb43f85b5500UL, 0x000029cdf7525500UL,
1015:Model/hand_landmark_ecblobs.h ****   0x000099acf83f5500UL, 0x0000058af91f5500UL, 0x00000807f91f5500UL, 0x0000cf85f8d85500UL,
1016:Model/hand_landmark_ecblobs.h ****   0x0000ab0afa4f5500UL, 0x0000c935f6955500UL, 0x0000715bfa3a5500UL, 0x00001ef2f7fc5500UL,
1017:Model/hand_landmark_ecblobs.h ****   0x000070e1f9895500UL, 0x00009cd9fa0e5500UL, 0x00000b20f9405500UL, 0x0000566af6ce5500UL,
1018:Model/hand_landmark_ecblobs.h ****   0x00009ae5f80f5500UL, 0x0000b5e9f77b5500UL, 0x0000e88ef7fd5500UL, 0x00005cc0f77f5500UL,
1019:Model/hand_landmark_ecblobs.h ****   0x000077cff7345500UL, 0x00000fe3f8c05500UL, 0x00004296f9bf5500UL, 0x0000d50df9d05500UL,
1020:Model/hand_landmark_ecblobs.h ****   0x0000b5c5f78d5500UL, 0x00006c3ef98d5500UL, 0x00009019f8045500UL, 0x00006db8f8ee5500UL,
1021:Model/hand_landmark_ecblobs.h ****   0x0000af83f7ad5500UL, 0x000016e0f7935500UL, 0x0000c979f90e5500UL, 0x00006e77f8e85500UL,
1022:Model/hand_landmark_ecblobs.h ****   0x000034b9f8195500UL, 0x00008153f9ce5500UL, 0x0000c8c5fa8b5500UL, 0x00007170f8e15500UL,
1023:Model/hand_landmark_ecblobs.h ****   0x0000d381f7ed5500UL, 0x00005aa7f6f85500UL, 0x00008ba5f9c75500UL, 0x0000445df9695500UL,
1024:Model/hand_landmark_ecblobs.h ****   0x0000237af9d75500UL, 0x0000eba4f5b75500UL, 0x0000233af9d55500UL, 0x00003a10f6f75500UL,
1025:Model/hand_landmark_ecblobs.h ****   0x00004692f8b35500UL, 0x00003978f93e5500UL, 0x0000cbdff7775500UL, 0x0000b334f9235500UL,
1026:Model/hand_landmark_ecblobs.h ****   0x00008d20fa1a5500UL, 0x00009c17f90c5500UL, 0x0000e098f9715500UL, 0x0000b130f9eb5500UL,
1027:Model/hand_landmark_ecblobs.h ****   0x0000ad52f89b5500UL, 0x0000be6bf83e5500UL, 0x0000da0bf97d5500UL, 0x00007e13f9ce5500UL,
1028:Model/hand_landmark_ecblobs.h ****   0x00009813f86a5500UL, 0x0000a73ff7e35500UL, 0x0000aef5f8435500UL, 0x00002103f7aa5500UL,
1029:Model/hand_landmark_ecblobs.h ****   0x00001d15f8e35500UL, 0x0000dc70f9785500UL, 0x000067a5f9965500UL, 0x0000ddd1f9cd5500UL,
1030:Model/hand_landmark_ecblobs.h ****   0x000013eef9ee5500UL, 0x00009aa1f9b45500UL, 0x0000ebe7f96a5500UL, 0x00009c67f60b5500UL,
1031:Model/hand_landmark_ecblobs.h ****   0x0000bf88f93f5500UL, 0x00009ca9f9bc5500UL, 0x00002a22f79c5500UL, 0x0000aeabf7005500UL,
1032:Model/hand_landmark_ecblobs.h ****   0x0000c774f9dc5500UL, 0x00000a84f9ec5500UL, 0x00005c7ef9f75500UL, 0x0000ff5ef8f45500UL,
1033:Model/hand_landmark_ecblobs.h ****   0x00008723f8065500UL, 0x0000c887f8b25500UL, 0x00006d75f8c05500UL, 0x00005edef7c35500UL,
1034:Model/hand_landmark_ecblobs.h ****   0x00001d2af8a15500UL, 0x0000cb88f8015500UL, 0x5c00004200802241UL, 0x1500000008000000UL,
ARM GAS  /tmp/ccAJFP7B.s 			page 42


1035:Model/hand_landmark_ecblobs.h ****   0x000700005c027c00UL, 0x000040005c070043UL, 0x5c0c004300000020UL, 0x1041104100000000UL,
1036:Model/hand_landmark_ecblobs.h ****   0x38007c0000802121UL, 0x380200430008c100UL, 0x00003d40342f8100UL, 0x00000000380500c3UL,
1037:Model/hand_landmark_ecblobs.h ****   0x0000000100007a80UL, 0x0000002400000000UL, 0x380c004200100000UL, 0x0000000700000006UL,
1038:Model/hand_landmark_ecblobs.h ****   0x0000000a380d0043UL, 0x38110043342ffbbfUL, 0x0000000000000000UL, 0x20007c0000802061UL,
1039:Model/hand_landmark_ecblobs.h ****   0x200200430008c180UL, 0x000001e07088ed60UL, 0x00000000200500c3UL, 0x00000000000001e0UL,
1040:Model/hand_landmark_ecblobs.h ****   0x0000002400000000UL, 0x200c004200100000UL, 0x0000000700000006UL, 0x00000014200d0043UL,
1041:Model/hand_landmark_ecblobs.h ****   0x201100437089131fUL, 0x0000000800000000UL, 0x28007c00008020a1UL, 0x280200430008c100UL,
1042:Model/hand_landmark_ecblobs.h ****   0x00003d40342fbe40UL, 0x00000000280500c3UL, 0x0000000100007a80UL, 0x0000002400000000UL,
1043:Model/hand_landmark_ecblobs.h ****   0x280c004200100000UL, 0x0000000700000006UL, 0x0000000a280d0043UL, 0x28110043342ffbbfUL,
1044:Model/hand_landmark_ecblobs.h ****   0x0000000000000000UL, 0x14007c0000802001UL, 0x1402012300080008UL, 0x001c001c34200000UL,
1045:Model/hand_landmark_ecblobs.h ****   0x00001a4000f00018UL, 0x0000000a00000018UL, 0x000000240002df00UL, 0x140c004200100000UL,
1046:Model/hand_landmark_ecblobs.h ****   0x0000000700000006UL, 0x0000000a140d0043UL, 0x141100433422df3fUL, 0x0000000000000000UL,
1047:Model/hand_landmark_ecblobs.h ****   0x0000000210007c00UL, 0x0000006410000424UL, 0x10007c0000000000UL, 0x10007bc440000000UL,
1048:Model/hand_landmark_ecblobs.h ****   0x0000000000000064UL, 0x0000000110007c00UL, 0x0000002510027c00UL, 0x00000013100c0043UL,
1049:Model/hand_landmark_ecblobs.h ****   0x1015006300000007UL, 0x000000070000000bUL, 0x101e7c0000000015UL, 0x10227c000000002bUL,
1050:Model/hand_landmark_ecblobs.h ****   0x10247c000000001bUL, 0x1400200100000029UL, 0x000000553c007c00UL, 0x0000004148007c00UL,
1051:Model/hand_landmark_ecblobs.h ****   0x640020015c002001UL, 0x2000200168002001UL, 0x3800200128002001UL, 0x0000006414007fe4UL,
1052:Model/hand_landmark_ecblobs.h ****   0x10027c0000000000UL, 0x100c004300000000UL, 0x0000000000000000UL, 0x0000000010150063UL,
1053:Model/hand_landmark_ecblobs.h ****   0x0000000000000000UL, 0x00000000101e7c00UL, 0x0000000010227c00UL, 0x0000000010247c00UL,
1054:Model/hand_landmark_ecblobs.h ****   0x0000000214007c00UL, 0x0000006414000424UL, 0x14007c0000000000UL, 0x14007bc440000000UL,
1055:Model/hand_landmark_ecblobs.h ****   0x0000000000000064UL, 0x3c007c0000800001UL, 0x3c00042400000002UL, 0x0000000000000064UL,
1056:Model/hand_landmark_ecblobs.h ****   0x400000003c007c00UL, 0x000000643c007bc4UL, 0x0080014100000000UL, 0x0000000248007c00UL,
1057:Model/hand_landmark_ecblobs.h ****   0x0000006448000424UL, 0x48007c0000000000UL, 0x48007bc440000000UL, 0x0000000000000064UL,
1058:Model/hand_landmark_ecblobs.h ****   0x5c007c00008001a1UL, 0x5c00042408000002UL, 0x0000000000000064UL, 0x480000005c007c00UL,
1059:Model/hand_landmark_ecblobs.h ****   0x000000645c007bc4UL, 0x0080024100000000UL, 0x0800000264007c00UL, 0x0000006464000424UL,
1060:Model/hand_landmark_ecblobs.h ****   0x64007c0000000000UL, 0x64007bc448000000UL, 0x0000000000000064UL, 0x68007c0000800281UL,
1061:Model/hand_landmark_ecblobs.h ****   0x6800042408000002UL, 0x0000000000000064UL, 0x4800000068007c00UL, 0x0000006468007bc4UL,
1062:Model/hand_landmark_ecblobs.h ****   0x008002a100000000UL, 0x0000000220007c00UL, 0x0000006420000424UL, 0x20007c0000000000UL,
1063:Model/hand_landmark_ecblobs.h ****   0x20007bc440000000UL, 0x0000000000000064UL, 0x28007c0000800061UL, 0x2800042400000002UL,
1064:Model/hand_landmark_ecblobs.h ****   0x0000000000000064UL, 0x4000000028007c00UL, 0x0000006428007bc4UL, 0x008000a100000000UL,
1065:Model/hand_landmark_ecblobs.h ****   0x0000000238007c00UL, 0x0000006438000424UL, 0x38007c0000000000UL, 0x38007bc440000000UL,
1066:Model/hand_landmark_ecblobs.h ****   0x0000000000000064UL, 0x0000023d00800121UL, 0x34007c0000802101UL, 0x3402012300080000UL,
1067:Model/hand_landmark_ecblobs.h ****   0x001c001c34200000UL, 0x00001a4000f00001UL, 0x000000f000000001UL, 0x000000240002df00UL,
1068:Model/hand_landmark_ecblobs.h ****   0x340c004200100000UL, 0x0000000700000006UL, 0x000000f0340d0043UL, 0x341100433422df3fUL,
1069:Model/hand_landmark_ecblobs.h ****   0x0000000000000000UL, 0x14007c0000802001UL, 0x1402004300080108UL, 0x000003103422df00UL,
1070:Model/hand_landmark_ecblobs.h ****   0x00000000140500c3UL, 0x0000000000000310UL, 0x0000002400000000UL, 0x140c004200100000UL,
1071:Model/hand_landmark_ecblobs.h ****   0x0000000700000006UL, 0x000000f0140d0043UL, 0x141100433425be3fUL, 0x0000000000000000UL,
1072:Model/hand_landmark_ecblobs.h ****   0x0000000210007c00UL, 0x0000006410000424UL, 0x10007c0000000000UL, 0x10007bc440000000UL,
1073:Model/hand_landmark_ecblobs.h ****   0x0000000000000064UL, 0x0000000110007c00UL, 0x0000001110027c00UL, 0x3400200114002001UL,
1074:Model/hand_landmark_ecblobs.h ****   0x0000006414007fe4UL, 0x10027c0000000000UL, 0x14007c0000000000UL, 0x1400042400000002UL,
1075:Model/hand_landmark_ecblobs.h ****   0x0000000000000064UL, 0x4000000014007c00UL, 0x0000006414007bc4UL, 0x0080000100000000UL,
1076:Model/hand_landmark_ecblobs.h ****   0x0000000234007c00UL, 0x0000006434000424UL, 0x34007c0000000000UL, 0x34007bc440000000UL,
1077:Model/hand_landmark_ecblobs.h ****   0x0000000000000064UL, 0x0000025d00800101UL, 0x40007c0000802161UL, 0x400200c300100034UL,
1078:Model/hand_landmark_ecblobs.h ****   0x0000112a01010305UL, 0x001c001c10634404UL, 0x001b0000001b0000UL, 0x00000000400a7c00UL,
1079:Model/hand_landmark_ecblobs.h ****   0x00000000400d7c00UL, 0x44007c0000802181UL, 0x440200c300100034UL, 0x0000114a01010205UL,
1080:Model/hand_landmark_ecblobs.h ****   0x001c001c10634404UL, 0x001b0001001b0000UL, 0x01000000440a7c00UL, 0x00000000440d7c00UL,
1081:Model/hand_landmark_ecblobs.h ****   0x6000004200802261UL, 0x0900016008000000UL, 0x0000000060027c00UL, 0x0000000160070043UL,
1082:Model/hand_landmark_ecblobs.h ****   0x600c004300000001UL, 0x2042204200000000UL, 0x5c00004200802241UL, 0x096000fc08000000UL,
1083:Model/hand_landmark_ecblobs.h ****   0x000400005c020123UL, 0x0000000000000000UL, 0x0002deff0000030fUL, 0x0000000000000001UL,
1084:Model/hand_landmark_ecblobs.h ****   0x0000000104440200UL, 0x000000005c0c0043UL, 0x5c0b7c0020422042UL, 0x5d003c0300000001UL,
1085:Model/hand_landmark_ecblobs.h ****   0x00000000000002b2UL, 0x000000000000057aUL, 0x000000000000023aUL, 0x0000000000000502UL,
1086:Model/hand_landmark_ecblobs.h ****   0x0000000000000e16UL, 0x0000000000000444UL, 0x00000000000004d8UL, 0x00000000000002feUL,
1087:Model/hand_landmark_ecblobs.h ****   0x00000000000003f4UL, 0x00000000000002a2UL, 0x0000000000000624UL, 0x000000000000055dUL,
1088:Model/hand_landmark_ecblobs.h ****   0x0000000000000556UL, 0x000000000000026aUL, 0x000000000000041dUL, 0x000000000000057dUL,
1089:Model/hand_landmark_ecblobs.h ****   0x000000000000041aUL, 0x000000000000020dUL, 0x000000000000046aUL, 0x0000000000000c4cUL,
1090:Model/hand_landmark_ecblobs.h ****   0x0000000000000523UL, 0x00000000000002f5UL, 0x0000000000000319UL, 0x000000000000037eUL,
1091:Model/hand_landmark_ecblobs.h ****   0x00000000000001c8UL, 0x000000000000044aUL, 0x000000000000058dUL, 0x0000000000000769UL,
ARM GAS  /tmp/ccAJFP7B.s 			page 43


1092:Model/hand_landmark_ecblobs.h ****   0x000000000000061aUL, 0x00000000000001deUL, 0x0000000000000473UL, 0x00000000000002b7UL,
1093:Model/hand_landmark_ecblobs.h ****   0x0000000000000330UL, 0x0000000000000b7dUL, 0x000000000000048dUL, 0x0000000000000b7aUL,
1094:Model/hand_landmark_ecblobs.h ****   0x000000000000026dUL, 0x0000000000000493UL, 0x000000000000044fUL, 0x0000000000000276UL,
1095:Model/hand_landmark_ecblobs.h ****   0x0000000000000c07UL, 0x0000000000001023UL, 0x00000000000007cdUL, 0x0000000000000690UL,
1096:Model/hand_landmark_ecblobs.h ****   0x0000000000000255UL, 0x0000000000000387UL, 0x00000000000002a6UL, 0x00000000000004bbUL,
1097:Model/hand_landmark_ecblobs.h ****   0x0000000000000488UL, 0x0000000000000749UL, 0x0000000000000649UL, 0x0000000000000346UL,
1098:Model/hand_landmark_ecblobs.h ****   0x00000000000009f4UL, 0x00000000000004f5UL, 0x0000000000000587UL, 0x0000000000000528UL,
1099:Model/hand_landmark_ecblobs.h ****   0x000000000000069cUL, 0x0000000000000392UL, 0x00000000000006c8UL, 0x00000000000002daUL,
1100:Model/hand_landmark_ecblobs.h ****   0x0000000000000617UL, 0x00000000000005f8UL, 0x0000000000000809UL, 0x0000000000000e4dUL,
1101:Model/hand_landmark_ecblobs.h ****   0x00000000000008d2UL, 0x00000000000001abUL, 0x000000000000055dUL, 0x00000000000001d5UL,
1102:Model/hand_landmark_ecblobs.h ****   0x00000000000004f6UL, 0x000000000000039cUL, 0x000000000000033dUL, 0x00000000000002f0UL,
1103:Model/hand_landmark_ecblobs.h ****   0x0000000000000b05UL, 0x0000000000000445UL, 0x000000000000034eUL, 0x0000000000000310UL,
1104:Model/hand_landmark_ecblobs.h ****   0x0000000000000befUL, 0x0000000000000401UL, 0x00000000000002b4UL, 0x000000000000025eUL,
1105:Model/hand_landmark_ecblobs.h ****   0x0000000000000373UL, 0x00000000000002deUL, 0x00000000000007a3UL, 0x0000000000000152UL,
1106:Model/hand_landmark_ecblobs.h ****   0x000000000000044eUL, 0x000000000000065eUL, 0x000000000000035dUL, 0x0000000000000393UL,
1107:Model/hand_landmark_ecblobs.h ****   0x0000000000000378UL, 0x000000000000061dUL, 0x00000000000003a1UL, 0x0000000000000b3eUL,
1108:Model/hand_landmark_ecblobs.h ****   0x0000000000000a9dUL, 0x0000000000000430UL, 0x0000000000000468UL, 0x000000000000054dUL,
1109:Model/hand_landmark_ecblobs.h ****   0x0000000000000286UL, 0x000000000000070eUL, 0x00000000000008efUL, 0x0000000000000254UL,
1110:Model/hand_landmark_ecblobs.h ****   0x0000000000000949UL, 0x00000000000001f9UL, 0x0000000000000617UL, 0x000000000000046fUL,
1111:Model/hand_landmark_ecblobs.h ****   0x00000000000007e3UL, 0x0000000000000c17UL, 0x00000000000062bfUL, 0x00000000000006beUL,
1112:Model/hand_landmark_ecblobs.h ****   0x00000000000004d5UL, 0x00000000000004e3UL, 0x0000000000000f70UL, 0x00000000000005d0UL,
1113:Model/hand_landmark_ecblobs.h ****   0x0000000000001200UL, 0x000000000000037eUL, 0x000000000000035bUL, 0x00000000000001bdUL,
1114:Model/hand_landmark_ecblobs.h ****   0x0000000000000bbaUL, 0x000000000000053eUL, 0x00000000000005f3UL, 0x0000000000000389UL,
1115:Model/hand_landmark_ecblobs.h ****   0x00000000000002aaUL, 0x0000000000000b24UL, 0x00000000000004d1UL, 0x0000000000000567UL,
1116:Model/hand_landmark_ecblobs.h ****   0x0000000000000b61UL, 0x00000000000011ccUL, 0x00000000000002e3UL, 0x00000000000003baUL,
1117:Model/hand_landmark_ecblobs.h ****   0x000000000000178fUL, 0x00000000000008b9UL, 0x000000000000018bUL, 0x0000000000000a02UL,
1118:Model/hand_landmark_ecblobs.h ****   0x0000000000000580UL, 0x000000000000023dUL, 0x00000000000006c5UL, 0x00000000000002abUL,
1119:Model/hand_landmark_ecblobs.h ****   0x0000000000000440UL, 0x00000000000006f1UL, 0x000000000000041dUL, 0x00000000000004e4UL,
1120:Model/hand_landmark_ecblobs.h ****   0x0000000000000477UL, 0x00000000000003daUL, 0x00000000000007a1UL, 0x0000000000000191UL,
1121:Model/hand_landmark_ecblobs.h ****   0x0000000000000367UL, 0x0000000000000f33UL, 0x000000000000078eUL, 0x0000000000000537UL,
1122:Model/hand_landmark_ecblobs.h ****   0x0000000000000570UL, 0x0000000000000361UL, 0x00000000000005cfUL, 0x000000000000048fUL,
1123:Model/hand_landmark_ecblobs.h ****   0x00000000000002a8UL, 0x00000000000001a9UL, 0x00000000000001a4UL, 0x00000000000005aeUL,
1124:Model/hand_landmark_ecblobs.h ****   0x0000000000000244UL, 0x00000000000000cbUL, 0x0000000000000612UL, 0x000000000000056bUL,
1125:Model/hand_landmark_ecblobs.h ****   0x00000000000002c6UL, 0x0000000000001beaUL, 0x0000000000000669UL, 0x00000000000003f1UL,
1126:Model/hand_landmark_ecblobs.h ****   0x0000000000000314UL, 0x0000000000000976UL, 0x0000000000000a2cUL, 0x0000000000000373UL,
1127:Model/hand_landmark_ecblobs.h ****   0x0000000000000577UL, 0x0000000000000601UL, 0x00000000000006e1UL, 0x0000000000000ac7UL,
1128:Model/hand_landmark_ecblobs.h ****   0x0000000000000611UL, 0x00000000000005d6UL, 0x0000000000000409UL, 0x00000000000004c2UL,
1129:Model/hand_landmark_ecblobs.h ****   0x000000000000024cUL, 0x0000000000000593UL, 0x0000000000000373UL, 0x0000000000000bb1UL,
1130:Model/hand_landmark_ecblobs.h ****   0x00000000000006abUL, 0x0000000000000ce7UL, 0x00000000000006aeUL, 0x0000000000000730UL,
1131:Model/hand_landmark_ecblobs.h ****   0x000000000000022dUL, 0x00000000000003a5UL, 0x00000000000002c1UL, 0x00000000000005cbUL,
1132:Model/hand_landmark_ecblobs.h ****   0x00000000000008bfUL, 0x00000000000002eaUL, 0x0000000000000485UL, 0x0000000000000c6aUL,
1133:Model/hand_landmark_ecblobs.h ****   0x00000000000007e1UL, 0x0000000000000682UL, 0x00000000000002c7UL, 0x0000000000000161UL,
1134:Model/hand_landmark_ecblobs.h ****   0x0000000000000d11UL, 0x000000000000074cUL, 0x000000000000072cUL, 0x000000000000024fUL,
1135:Model/hand_landmark_ecblobs.h ****   0x0000000000000395UL, 0x0000000000000abaUL, 0x0000000000000340UL, 0x000000000000040aUL,
1136:Model/hand_landmark_ecblobs.h ****   0x0000000000000698UL, 0x000000000000037fUL, 0x0000000000000a52UL, 0x00000000000004abUL,
1137:Model/hand_landmark_ecblobs.h ****   0x0000000000000e25UL, 0x00000000000004a6UL, 0x000000000000023aUL, 0x00000000000004b1UL,
1138:Model/hand_landmark_ecblobs.h ****   0x0000000000000495UL, 0x0000000000000486UL, 0x0000000000000509UL, 0x0000000000000169UL,
1139:Model/hand_landmark_ecblobs.h ****   0x00000000000001b5UL, 0x00000000000003dbUL, 0x000000000000046fUL, 0x0000000000000b6bUL,
1140:Model/hand_landmark_ecblobs.h ****   0x0000000000000485UL, 0x0000000000000e0dUL, 0x00000000000008a9UL, 0x00000000000003ceUL,
1141:Model/hand_landmark_ecblobs.h ****   0x00000000000005a3UL, 0x000000000000129eUL, 0x000000000000052cUL, 0x00000000000003bfUL,
1142:Model/hand_landmark_ecblobs.h ****   0x00000000000005c6UL, 0x0000000000000851UL, 0x00000000000006ffUL, 0x00000000000003ccUL,
1143:Model/hand_landmark_ecblobs.h ****   0x0000000000000b6bUL, 0x0000000000000347UL, 0x0000000000000539UL, 0x0000000000000363UL,
1144:Model/hand_landmark_ecblobs.h ****   0x0000000000000cadUL, 0x000000000000038fUL, 0x000000000000044cUL, 0x00000000000002a3UL,
1145:Model/hand_landmark_ecblobs.h ****   0x6400004200802281UL, 0x156000fc08000000UL, 0x000a000064020123UL, 0x0000000000000000UL,
1146:Model/hand_landmark_ecblobs.h ****   0x0002deff0000030fUL, 0x0000000000005500UL, 0x0000000104440200UL, 0x00000000640c0043UL,
1147:Model/hand_landmark_ecblobs.h ****   0x640b7c0020422042UL, 0x65003c0300000001UL, 0x00005de0f7735500UL, 0x000097e8fcbe5500UL,
1148:Model/hand_landmark_ecblobs.h ****   0x00006e7cf9405500UL, 0x00007ed5f8325500UL, 0x0000a2c5f7385500UL, 0x00008578f6ac5500UL,
ARM GAS  /tmp/ccAJFP7B.s 			page 44


1149:Model/hand_landmark_ecblobs.h ****   0x00009c43f3115500UL, 0x0000d804f52c5500UL, 0x00008912f85e5500UL, 0x00004185f5bc5500UL,
1150:Model/hand_landmark_ecblobs.h ****   0x000002e7f0ff5500UL, 0x0000cb70f57f5500UL, 0x00008b55f21c5500UL, 0x00005ffff6ce5500UL,
1151:Model/hand_landmark_ecblobs.h ****   0x0000d1caf4335500UL, 0x0000561cfca75500UL, 0x00006837f4ea5500UL, 0x0000adc3f5ac5500UL,
1152:Model/hand_landmark_ecblobs.h ****   0x0000626ff5995500UL, 0x00008275fc325500UL, 0x0000b658f5eb5500UL, 0x0000a58cfc5d5500UL,
1153:Model/hand_landmark_ecblobs.h ****   0x0000297afe745500UL, 0x0000fc65fca75500UL, 0x00000e34f79f5500UL, 0x00001d46f7835500UL,
1154:Model/hand_landmark_ecblobs.h ****   0x0000b926f7cf5500UL, 0x00005174fbf55500UL, 0x00003bd8f8895500UL, 0x0000a9fcfda75500UL,
1155:Model/hand_landmark_ecblobs.h ****   0x0000afcbf9235500UL, 0x0000561ff4af5500UL, 0x000012f9f6e85500UL, 0x0000858bfa365500UL,
1156:Model/hand_landmark_ecblobs.h ****   0x000057fcf6fa5500UL, 0x000057aff7255500UL, 0x0000fd43fbf95500UL, 0x0000f63ff4b95500UL,
1157:Model/hand_landmark_ecblobs.h ****   0x000067dcf39c5500UL, 0x0000ffd1f8805500UL, 0x00002f20f4df5500UL, 0x0000bd6bf80f5500UL,
1158:Model/hand_landmark_ecblobs.h ****   0x0000eefef8075500UL, 0x0000a71ef7f25500UL, 0x0000eea5f81f5500UL, 0x00002830f7095500UL,
1159:Model/hand_landmark_ecblobs.h ****   0x0000906dfc715500UL, 0x0000301ff8ad5500UL, 0x00006650f44e5500UL, 0x00001e45f6e85500UL,
1160:Model/hand_landmark_ecblobs.h ****   0x0000b6cbfaaa5500UL, 0x0000ba35f74d5500UL, 0x00001c71f7215500UL, 0x0000a830f7345500UL,
1161:Model/hand_landmark_ecblobs.h ****   0x0000c959fd8b5500UL, 0x00002242f3815500UL, 0x0000be3cf7975500UL, 0x0000951ffd0f5500UL,
1162:Model/hand_landmark_ecblobs.h ****   0x0000c143f9115500UL, 0x0000accffeef5500UL, 0x0000bda2f7385500UL, 0x00001891f89d5500UL,
1163:Model/hand_landmark_ecblobs.h ****   0x00007ef6f7ef5500UL, 0x00006324f5f85500UL, 0x00004487f1d25500UL, 0x00000ee1fb465500UL,
1164:Model/hand_landmark_ecblobs.h ****   0x00007ab7f1965500UL, 0x000071f0fd315500UL, 0x00007a91f72b5500UL, 0x0000f12bf9be5500UL,
1165:Model/hand_landmark_ecblobs.h ****   0x0000f0e1f8b95500UL, 0x000079eaf9dc5500UL, 0x0000c4a7f5525500UL, 0x00009326f8745500UL,
1166:Model/hand_landmark_ecblobs.h ****   0x00005b4ff7215500UL, 0x00005673fbfb5500UL, 0x0000ce1cf6d65500UL, 0x0000df33f71a5500UL,
1167:Model/hand_landmark_ecblobs.h ****   0x0000c54af81b5500UL, 0x000013b7f86d5500UL, 0x00009802f9bd5500UL, 0x00009cb9f5b75500UL,
1168:Model/hand_landmark_ecblobs.h ****   0x0000268df8475500UL, 0x0000c830fbdc5500UL, 0x0000468df7e65500UL, 0x00008f81f4145500UL,
1169:Model/hand_landmark_ecblobs.h ****   0x000064cbf5985500UL, 0x00002f1af4cb5500UL, 0x000024e001245500UL, 0x0000a860f7f95500UL,
1170:Model/hand_landmark_ecblobs.h ****   0x0000adfcf8805500UL, 0x0000b52af6f75500UL, 0x0000acc9f6145500UL, 0x00004b87f8175500UL,
1171:Model/hand_landmark_ecblobs.h ****   0x0000c413f3935500UL, 0x00007dfbf9375500UL, 0x00002031f5325500UL, 0x0000b497f53c5500UL,
1172:Model/hand_landmark_ecblobs.h ****   0x00007f4cfad05500UL, 0x00006fd0f6e25500UL, 0x0000fb97f5105500UL, 0x000050d0fbaa5500UL,
1173:Model/hand_landmark_ecblobs.h ****   0x0000afe7f6a75500UL, 0x000051e6f3b85500UL, 0x0000b811f6955500UL, 0x000099a2f5d65500UL,
1174:Model/hand_landmark_ecblobs.h ****   0x0000474b20625500UL, 0x0000c5d4f7115500UL, 0x00009abdf7dc5500UL, 0x0000fc77f9335500UL,
1175:Model/hand_landmark_ecblobs.h ****   0x000060c1f80f5500UL, 0x00008030f7915500UL, 0x00009344f6125500UL, 0x0000ba89faed5500UL,
1176:Model/hand_landmark_ecblobs.h ****   0x00002092f7045500UL, 0x00005768f8d25500UL, 0x00009873f50d5500UL, 0x00005163f6135500UL,
1177:Model/hand_landmark_ecblobs.h ****   0x00001ce6f8295500UL, 0x0000ccf8f42f5500UL, 0x00004873fa5e5500UL, 0x0000a4d9f6b25500UL,
1178:Model/hand_landmark_ecblobs.h ****   0x0000f128f9ab5500UL, 0x0000c124f5955500UL, 0x0000439df25c5500UL, 0x00000131f8ab5500UL,
1179:Model/hand_landmark_ecblobs.h ****   0x0000ed45fb0e5500UL, 0x0000d541fb2a5500UL, 0x00002870fdaa5500UL, 0x00003157fa0f5500UL,
1180:Model/hand_landmark_ecblobs.h ****   0x00009e9dfbaf5500UL, 0x00000182f7af5500UL, 0x0000458ff4c55500UL, 0x0000d341f38b5500UL,
1181:Model/hand_landmark_ecblobs.h ****   0x00009cb9f80e5500UL, 0x00005d9cf3515500UL, 0x00002c18f6335500UL, 0x000031a4f5705500UL,
1182:Model/hand_landmark_ecblobs.h ****   0x00004aa9f7ba5500UL, 0x00005408f74b5500UL, 0x000068b9f79c5500UL, 0x00003669f83b5500UL,
1183:Model/hand_landmark_ecblobs.h ****   0x0000b3c0f6465500UL, 0x0000b7e0f74b5500UL, 0x0000df7ff7685500UL, 0x00009062f4025500UL,
1184:Model/hand_landmark_ecblobs.h ****   0x000044b9f60a5500UL, 0x0000d069f7e55500UL, 0x0000a2def7ca5500UL, 0x0000d5eef5815500UL,
1185:Model/hand_landmark_ecblobs.h ****   0x0000188ff5a35500UL, 0x00005c10f7485500UL, 0x0000a346f50f5500UL, 0x0000d3e5fdd45500UL,
1186:Model/hand_landmark_ecblobs.h ****   0x00008e80fb6c5500UL, 0x0000d7faf48c5500UL, 0x0000f78cfc015500UL, 0x0000ed53fb655500UL,
1187:Model/hand_landmark_ecblobs.h ****   0x0000c387fe415500UL, 0x0000ddacf5835500UL, 0x00007361f4955500UL, 0x00005f1ef8065500UL,
1188:Model/hand_landmark_ecblobs.h ****   0x0000a27df80c5500UL, 0x0000c459f7855500UL, 0x000071a3f7115500UL, 0x000065edf4a15500UL,
1189:Model/hand_landmark_ecblobs.h ****   0x00004dbf00a75500UL, 0x0000462cf7fb5500UL, 0x0000221cf7da5500UL, 0x0000ebbff73d5500UL,
1190:Model/hand_landmark_ecblobs.h ****   0x0000ca13f6915500UL, 0x000029a4edea5500UL, 0x00007d9bf7ba5500UL, 0x0000f936f7a65500UL,
1191:Model/hand_landmark_ecblobs.h ****   0x00002d5bf74f5500UL, 0x0000592bf8fd5500UL, 0x000053bbf9055500UL, 0x000007f0f7985500UL,
1192:Model/hand_landmark_ecblobs.h ****   0x0000f76ff8a05500UL, 0x0000ce5df6295500UL, 0x000097c7f76c5500UL, 0x0000c995f4005500UL,
1193:Model/hand_landmark_ecblobs.h ****   0x0000092af6f25500UL, 0x000028b4fe705500UL, 0x00000504f7e65500UL, 0x0000320af4295500UL,
1194:Model/hand_landmark_ecblobs.h ****   0x00008334f7a25500UL, 0x00007d59f6885500UL, 0x0000d63cf5ea5500UL, 0x00000dcaf4f75500UL,
1195:Model/hand_landmark_ecblobs.h ****   0x00009ffdf35e5500UL, 0x0000ec66f5a55500UL, 0x00002edffc8c5500UL, 0x000035fcf7245500UL,
1196:Model/hand_landmark_ecblobs.h ****   0x00004579fd105500UL, 0x00008d5df8485500UL, 0x000020a1f8585500UL, 0x000037efeb7f5500UL,
1197:Model/hand_landmark_ecblobs.h ****   0x0000277ff4dd5500UL, 0x00006fbbfae65500UL, 0x00000a14f7bb5500UL, 0x0000ec17f6ab5500UL,
1198:Model/hand_landmark_ecblobs.h ****   0x000023f9fb835500UL, 0x00009eabf3115500UL, 0x00007123f6bc5500UL, 0x00007970f6825500UL,
1199:Model/hand_landmark_ecblobs.h ****   0x0000d259f2e55500UL, 0x0000b829f8c95500UL, 0x0000bd4af82b5500UL, 0x000063c7f7935500UL,
1200:Model/hand_landmark_ecblobs.h ****   0x0000a5c5f7355500UL, 0x00009f56f83a5500UL, 0x00008cdaf7885500UL, 0x0000c6fdf48a5500UL,
1201:Model/hand_landmark_ecblobs.h ****   0x0000f340f55a5500UL, 0x00001dcaff2e5500UL, 0x00004b16f8785500UL, 0x000055baf9f55500UL,
1202:Model/hand_landmark_ecblobs.h ****   0x00000a7afba15500UL, 0x0000ca22f4725500UL, 0x000037fdf2c75500UL, 0x00006183fe485500UL,
1203:Model/hand_landmark_ecblobs.h ****   0x00002470f9005500UL, 0x0000168df7dd5500UL, 0x0000cd41f97f5500UL, 0x0000450af81a5500UL,
1204:Model/hand_landmark_ecblobs.h ****   0x0000b4c9f7fb5500UL, 0x0000b2a4f4a25500UL, 0x0000a002f5bd5500UL, 0x00009c07f7ba5500UL,
1205:Model/hand_landmark_ecblobs.h ****   0x00005799ec095500UL, 0x0000d9ccf4885500UL, 0x0000a74ff8975500UL, 0x00009c58f6625500UL,
ARM GAS  /tmp/ccAJFP7B.s 			page 45


1206:Model/hand_landmark_ecblobs.h ****   0x000014a1f7eb5500UL, 0x00000200f6035500UL, 0x0000e030f82a5500UL, 0x000010c5f7135500UL,
1207:Model/hand_landmark_ecblobs.h ****   0x0000b0ddfbfc5500UL, 0x00005202fbfb5500UL, 0x68000042008022a1UL, 0x1500000008000000UL,
1208:Model/hand_landmark_ecblobs.h ****   0x0007000068027c00UL, 0x0000400068070043UL, 0x680c004300000020UL, 0x1041104100000000UL,
1209:Model/hand_landmark_ecblobs.h ****   0x30007c00008020e1UL, 0x3002004300080100UL, 0x000003103422df00UL, 0x00000000300500c3UL,
1210:Model/hand_landmark_ecblobs.h ****   0x0000000100000000UL, 0x0000002400000310UL, 0x300c004200100000UL, 0x0000000700000006UL,
1211:Model/hand_landmark_ecblobs.h ****   0x000000f0300d0043UL, 0x301100433425be3fUL, 0x0000000000000000UL, 0x14007c0000802001UL,
1212:Model/hand_landmark_ecblobs.h ****   0x1402004300080184UL, 0x00000e10708a4d80UL, 0x00000000140500c3UL, 0x0000000000000000UL,
1213:Model/hand_landmark_ecblobs.h ****   0x0000002400000000UL, 0x140c004200100000UL, 0x0000000700000006UL, 0x00000001140d0043UL,
1214:Model/hand_landmark_ecblobs.h ****   0x14110043708a5bcfUL, 0x0000000800000000UL, 0x1c007c0000802041UL, 0x1c02004300080100UL,
1215:Model/hand_landmark_ecblobs.h ****   0x000003103422df00UL, 0x000000001c0500c3UL, 0x0000000100000000UL, 0x0000002400000310UL,
1216:Model/hand_landmark_ecblobs.h ****   0x1c0c004200100000UL, 0x0000000700000006UL, 0x000000f01c0d0043UL, 0x1c1100433425be3fUL,
1217:Model/hand_landmark_ecblobs.h ****   0x0000000000000000UL, 0x28007c00008020a1UL, 0x2802004300080184UL, 0x00000960708a8410UL,
1218:Model/hand_landmark_ecblobs.h ****   0x00000000280500c3UL, 0x0000000000000000UL, 0x0000002400000000UL, 0x280c004200100000UL,
1219:Model/hand_landmark_ecblobs.h ****   0x0000000700000006UL, 0x00000001280d0043UL, 0x28110043708a8dafUL, 0x0000000800000000UL,
1220:Model/hand_landmark_ecblobs.h ****   0x2c007c00008020c1UL, 0x2c02012300080008UL, 0x001c001c34200000UL, 0x00001a4000f00001UL,
1221:Model/hand_landmark_ecblobs.h ****   0x000000f000000001UL, 0x000000240002df00UL, 0x2c0c004200100000UL, 0x0000000700000006UL,
1222:Model/hand_landmark_ecblobs.h ****   0x000000f02c0d0043UL, 0x2c1100433422df3fUL, 0x0000000000000000UL, 0x0000000210007c00UL,
1223:Model/hand_landmark_ecblobs.h ****   0x0000006410000424UL, 0x10007c0000000000UL, 0x10007bc440000000UL, 0x0000000000000064UL,
1224:Model/hand_landmark_ecblobs.h ****   0x0000000110007c00UL, 0x0000002b10087c00UL, 0x0000000f100f0043UL, 0x1012004300000001UL,
1225:Model/hand_landmark_ecblobs.h ****   0x0000000b00000005UL, 0x00000027101e7c00UL, 0x0000001710200063UL, 0x0000002500000019UL,
1226:Model/hand_landmark_ecblobs.h ****   0x0000002910247c00UL, 0x40007c002c002001UL, 0x44007c0000100035UL, 0x5c00200100100035UL,
1227:Model/hand_landmark_ecblobs.h ****   0x6400200160002001UL, 0x1400200168002001UL, 0x280020011c002001UL, 0x2c007fe430002001UL,
1228:Model/hand_landmark_ecblobs.h ****   0x0000000000000064UL, 0x0000000010087c00UL, 0x00000000100f0043UL, 0x1012004300000000UL,
1229:Model/hand_landmark_ecblobs.h ****   0x0000000000000000UL, 0x00000000101e7c00UL, 0x0000000010200063UL, 0x0000000000000000UL,
1230:Model/hand_landmark_ecblobs.h ****   0x0000000010247c00UL, 0x000000022c007c00UL, 0x000000642c000424UL, 0x2c007c0000000000UL,
1231:Model/hand_landmark_ecblobs.h ****   0x2c007bc440000000UL, 0x0000000000000064UL, 0x40007c00008000c1UL, 0x4000042400000002UL,
1232:Model/hand_landmark_ecblobs.h ****   0x0000000000000064UL, 0x4000000040007c00UL, 0x0000006440007bc4UL, 0x0080016100000000UL,
1233:Model/hand_landmark_ecblobs.h ****   0x0000000244007c00UL, 0x0000006444000424UL, 0x44007c0000000000UL, 0x44007bc440000000UL,
1234:Model/hand_landmark_ecblobs.h ****   0x0000000000000064UL, 0x5c007c0000800181UL, 0x5c00042408000002UL, 0x0000000000000064UL,
1235:Model/hand_landmark_ecblobs.h ****   0x480000005c007c00UL, 0x000000645c007bc4UL, 0x0080024100000000UL, 0x0800000260007c00UL,
1236:Model/hand_landmark_ecblobs.h ****   0x0000006460000424UL, 0x60007c0000000000UL, 0x60007bc448000000UL, 0x0000000000000064UL,
1237:Model/hand_landmark_ecblobs.h ****   0x64007c0000800261UL, 0x6400042408000002UL, 0x0000000000000064UL, 0x4800000064007c00UL,
1238:Model/hand_landmark_ecblobs.h ****   0x0000006464007bc4UL, 0x0080028100000000UL, 0x0800000268007c00UL, 0x0000006468000424UL,
1239:Model/hand_landmark_ecblobs.h ****   0x68007c0000000000UL, 0x68007bc448000000UL, 0x0000000000000064UL, 0x14007c00008002a1UL,
1240:Model/hand_landmark_ecblobs.h ****   0x1400042400000002UL, 0x0000000000000064UL, 0x4000000014007c00UL, 0x0000006414007bc4UL,
1241:Model/hand_landmark_ecblobs.h ****   0x0080000100000000UL, 0x000000021c007c00UL, 0x000000641c000424UL, 0x1c007c0000000000UL,
1242:Model/hand_landmark_ecblobs.h ****   0x1c007bc440000000UL, 0x0000000000000064UL, 0x28007c0000800041UL, 0x2800042400000002UL,
1243:Model/hand_landmark_ecblobs.h ****   0x0000000000000064UL, 0x4000000028007c00UL, 0x0000006428007bc4UL, 0x008000a100000000UL,
1244:Model/hand_landmark_ecblobs.h ****   0x0000000230007c00UL, 0x0000006430000424UL, 0x30007c0000000000UL, 0x30007bc440000000UL,
1245:Model/hand_landmark_ecblobs.h ****   0x0000000000000064UL, 0x0000027d008000e1UL, 0x3c007c0000802141UL, 0x3c0200e310d00034UL,
1246:Model/hand_landmark_ecblobs.h ****   0x0000110014780101UL, 0x001c0d2010774005UL, 0x001b00000d1f0000UL, 0x3c0a7c0000130028UL,
1247:Model/hand_landmark_ecblobs.h ****   0x3c0d7c0000000000UL, 0x008021a100000000UL, 0x10d0002048007c00UL, 0x14780101480200e3UL,
1248:Model/hand_landmark_ecblobs.h ****   0x1063450000001100UL, 0x0d1f0000001c0d20UL, 0x00271428001b0000UL, 0x00000000480a7c00UL,
1249:Model/hand_landmark_ecblobs.h ****   0x00000000480d7c00UL, 0x5c00004200802241UL, 0x096000fc08000000UL, 0x000680005c020123UL,
1250:Model/hand_landmark_ecblobs.h ****   0x0000001300000000UL, 0x00007a7f00003d3fUL, 0x0000000000000001UL, 0x00000001076403edUL,
1251:Model/hand_landmark_ecblobs.h ****   0x000000005c0c0043UL, 0x5c0b7c0020422042UL, 0x5d000a0300000001UL, 0x0000000000003b3dUL,
1252:Model/hand_landmark_ecblobs.h ****   0x0000000000003a26UL, 0x00000000000031d9UL, 0x0000000000003859UL, 0x0000000000003871UL,
1253:Model/hand_landmark_ecblobs.h ****   0x00000000000045d1UL, 0x0000000000003c24UL, 0x0000000000002eacUL, 0x00000000000032fdUL,
1254:Model/hand_landmark_ecblobs.h ****   0x0000000000003042UL, 0x00000000000037ebUL, 0x0000000000004273UL, 0x0000000000003154UL,
1255:Model/hand_landmark_ecblobs.h ****   0x00000000000039f5UL, 0x0000000000003859UL, 0x0000000000003eb4UL, 0x00000000000030b6UL,
1256:Model/hand_landmark_ecblobs.h ****   0x000000000000365bUL, 0x0000000000003451UL, 0x0000000000004e2aUL, 0x0000000000002931UL,
1257:Model/hand_landmark_ecblobs.h ****   0x00000000000039a0UL, 0x0000000000006b31UL, 0x0000000000003810UL, 0x00000000000045a0UL,
1258:Model/hand_landmark_ecblobs.h ****   0x0000000000004404UL, 0x00000000000036d4UL, 0x0000000000003711UL, 0x0000000000003f5eUL,
1259:Model/hand_landmark_ecblobs.h ****   0x00000000000045f5UL, 0x00000000000034b2UL, 0x00000000000055e5UL, 0x0000000000003d2fUL,
1260:Model/hand_landmark_ecblobs.h ****   0x0000000000003865UL, 0x000000000000384cUL, 0x000000000000402cUL, 0x000000000000437eUL,
1261:Model/hand_landmark_ecblobs.h ****   0x00000000000036b0UL, 0x0000000000003ef0UL, 0x0000000000003aacUL, 0x6000004200802261UL,
1262:Model/hand_landmark_ecblobs.h ****   0x156000fc08000000UL, 0x000a000060020123UL, 0x0000001300000000UL, 0x00007a7f00003d3fUL,
ARM GAS  /tmp/ccAJFP7B.s 			page 46


1263:Model/hand_landmark_ecblobs.h ****   0x000000000000407eUL, 0x00000001076403edUL, 0x00000000600c0043UL, 0x600b7c0020422042UL,
1264:Model/hand_landmark_ecblobs.h ****   0x61000a0300000001UL, 0x00009ef50110407eUL, 0x0000e53d0185407eUL, 0x0000680f014f407eUL,
1265:Model/hand_landmark_ecblobs.h ****   0x0000a24b011a407eUL, 0x00004b8400c2407eUL, 0x0000eaa90010407eUL, 0x0000b4760113407eUL,
1266:Model/hand_landmark_ecblobs.h ****   0x00009a120160407eUL, 0x00001d7b0152407eUL, 0x0000920cfecc407eUL, 0x0000334700f2407eUL,
1267:Model/hand_landmark_ecblobs.h ****   0x000043d5000e407eUL, 0x00004bc201ab407eUL, 0x00003cbaffd8407eUL, 0x0000dded0267407eUL,
1268:Model/hand_landmark_ecblobs.h ****   0x00009ce2fff9407eUL, 0x00003e7d01f6407eUL, 0x0000f7fc0145407eUL, 0x0000636c0155407eUL,
1269:Model/hand_landmark_ecblobs.h ****   0x00007120ff81407eUL, 0x0000fbbb0171407eUL, 0x00008f3e0109407eUL, 0x00008cc9ff6d407eUL,
1270:Model/hand_landmark_ecblobs.h ****   0x0000784cfff6407eUL, 0x0000cb1501aa407eUL, 0x00002e41005d407eUL, 0x0000084f00cd407eUL,
1271:Model/hand_landmark_ecblobs.h ****   0x00005310017e407eUL, 0x0000803d0092407eUL, 0x000057b40048407eUL, 0x00004314003e407eUL,
1272:Model/hand_landmark_ecblobs.h ****   0x0000dd66030b407eUL, 0x00001e9202aa407eUL, 0x0000016a014b407eUL, 0x0000eae7ff9d407eUL,
1273:Model/hand_landmark_ecblobs.h ****   0x0000185c0244407eUL, 0x00007e5101f6407eUL, 0x00003f10fffa407eUL, 0x0000c34f0090407eUL,
1274:Model/hand_landmark_ecblobs.h ****   0x0000d62a0202407eUL, 0x6400004200802281UL, 0x0500016008000000UL, 0x00078c0064027c00UL,
1275:Model/hand_landmark_ecblobs.h ****   0xb9cd5b7164070043UL, 0x640c0043000063d4UL, 0x1041104100000000UL, 0x1c007c0000802041UL,
1276:Model/hand_landmark_ecblobs.h ****   0x1c02012308880200UL, 0x001c001c34200000UL, 0x00001a4000f00028UL, 0x0000000200000000UL,
1277:Model/hand_landmark_ecblobs.h ****   0x00000024000000f0UL, 0x1c0c004200100000UL, 0x0000000700000006UL, 0x000000021c0d0043UL,
1278:Model/hand_landmark_ecblobs.h ****   0x1c1100433422df3fUL, 0x0000000000000000UL, 0x20007c0000802061UL, 0x2002004308880180UL,
1279:Model/hand_landmark_ecblobs.h ****   0x00000320708912e0UL, 0x00000000200500c3UL, 0x0000000000000960UL, 0x0000002400000000UL,
1280:Model/hand_landmark_ecblobs.h ****   0x200c004200100000UL, 0x0000000700000006UL, 0x00000004200d0043UL, 0x201100437089389fUL,
1281:Model/hand_landmark_ecblobs.h ****   0x0000000800000000UL, 0x34007c0000802101UL, 0x3402012308880200UL, 0x001c001c34200078UL,
1282:Model/hand_landmark_ecblobs.h ****   0x00001a4000f00028UL, 0x0000000200000000UL, 0x00000024000000f0UL, 0x340c004200100000UL,
1283:Model/hand_landmark_ecblobs.h ****   0x0000000700000006UL, 0x00000002340d0043UL, 0x341100433422df3fUL, 0x0000000000000000UL,
1284:Model/hand_landmark_ecblobs.h ****   0x14007c0000802001UL, 0x1402004300080100UL, 0x00003d40342f8100UL, 0x00000000140500c3UL,
1285:Model/hand_landmark_ecblobs.h ****   0x0000000000003d40UL, 0x0000002400000000UL, 0x140c004200100000UL, 0x0000000700000006UL,
1286:Model/hand_landmark_ecblobs.h ****   0x00000002140d0043UL, 0x14110043342ffbbfUL, 0x0000000000000000UL, 0x38007c0000802121UL,
1287:Model/hand_landmark_ecblobs.h ****   0x3802004300080108UL, 0x00003d40342ffb80UL, 0x00000000380500c3UL, 0x0000000000003d40UL,
1288:Model/hand_landmark_ecblobs.h ****   0x0000002400000000UL, 0x380c004200100000UL, 0x0000000700000006UL, 0x00000002380d0043UL,
1289:Model/hand_landmark_ecblobs.h ****   0x381100433430763fUL, 0x0000000000000000UL, 0x0000000210007c00UL, 0x0000006410000424UL,
1290:Model/hand_landmark_ecblobs.h ****   0x10007c0000000000UL, 0x10007bc440000000UL, 0x0000000000000064UL, 0x0000000110007c00UL,
1291:Model/hand_landmark_ecblobs.h ****   0x00000029100b0063UL, 0x0000000700000005UL, 0x0000001110150063UL, 0x0000001500000007UL,
1292:Model/hand_landmark_ecblobs.h ****   0x0000001b101e7c00UL, 0x0000002510207c00UL, 0x0000002710220043UL, 0x3800200100000001UL,
1293:Model/hand_landmark_ecblobs.h ****   0x10d000353c007c00UL, 0x10d0002148007c00UL, 0x600020015c002001UL, 0x1400200164002001UL,
1294:Model/hand_landmark_ecblobs.h ****   0x200020011c002001UL, 0x38007fe434002001UL, 0x0000000000000064UL, 0x00000000100b0063UL,
1295:Model/hand_landmark_ecblobs.h ****   0x0000000000000000UL, 0x0000000010150063UL, 0x0000000000000000UL, 0x00000000101e7c00UL,
1296:Model/hand_landmark_ecblobs.h ****   0x0000000010207c00UL, 0x0000000010220043UL, 0x38007c0000000000UL, 0x3800042400000002UL,
1297:Model/hand_landmark_ecblobs.h ****   0x0000000000000064UL, 0x4000000038007c00UL, 0x0000006438007bc4UL, 0x0080012100000000UL,
1298:Model/hand_landmark_ecblobs.h ****   0x000000023c007c00UL, 0x000000643c000424UL, 0x3c007c0000000000UL, 0x3c007bc440000000UL,
1299:Model/hand_landmark_ecblobs.h ****   0x0000000000000064UL, 0x48007c0000800141UL, 0x4800042400000002UL, 0x0000000000000064UL,
1300:Model/hand_landmark_ecblobs.h ****   0x4000000048007c00UL, 0x0000006448007bc4UL, 0x008001a100000000UL, 0x080000025c007c00UL,
1301:Model/hand_landmark_ecblobs.h ****   0x000000645c000424UL, 0x5c007c0000000000UL, 0x5c007bc448000000UL, 0x0000000000000064UL,
1302:Model/hand_landmark_ecblobs.h ****   0x60007c0000800241UL, 0x6000042408000002UL, 0x0000000000000064UL, 0x4800000060007c00UL,
1303:Model/hand_landmark_ecblobs.h ****   0x0000006460007bc4UL, 0x0080026100000000UL, 0x0800000264007c00UL, 0x0000006464000424UL,
1304:Model/hand_landmark_ecblobs.h ****   0x64007c0000000000UL, 0x64007bc448000000UL, 0x0000000000000064UL, 0x14007c0000800281UL,
1305:Model/hand_landmark_ecblobs.h ****   0x1400042400000002UL, 0x0000000000000064UL, 0x4000000014007c00UL, 0x0000006414007bc4UL,
1306:Model/hand_landmark_ecblobs.h ****   0x0080000100000000UL, 0x000000021c007c00UL, 0x000000641c000424UL, 0x1c007c0000000000UL,
1307:Model/hand_landmark_ecblobs.h ****   0x1c007bc440000000UL, 0x0000000000000064UL, 0x20007c0000800041UL, 0x2000042400000002UL,
1308:Model/hand_landmark_ecblobs.h ****   0x0000000000000064UL, 0x4000000020007c00UL, 0x0000006420007bc4UL, 0x0080006100000000UL,
1309:Model/hand_landmark_ecblobs.h ****   0x0000000234007c00UL, 0x0000006434000424UL, 0x34007c0000000000UL, 0x34007bc440000000UL,
1310:Model/hand_landmark_ecblobs.h ****   0x0000000000000064UL, 0x0000029d00800101UL, 0x40007c0000802161UL, 0x400200e300000054UL,
1311:Model/hand_landmark_ecblobs.h ****   0x0000110018140101UL, 0x001c023010b74003UL, 0x001b0000022f0000UL, 0x400a7c0000170030UL,
1312:Model/hand_landmark_ecblobs.h ****   0x400c004300000000UL, 0x0000000000000001UL, 0x44007c0000802181UL, 0x440200e300000040UL,
1313:Model/hand_landmark_ecblobs.h ****   0x0000110018140101UL, 0x001c023010a34300UL, 0x001b0000022f0000UL, 0x440a7c00002f1830UL,
1314:Model/hand_landmark_ecblobs.h ****   0x440c004300000000UL, 0x0000000000000001UL, 0x68000042008022a1UL, 0x096000fc08000000UL,
1315:Model/hand_landmark_ecblobs.h ****   0x0006000068020123UL, 0x0000001700000000UL, 0x0002deff0000497fUL, 0x0000000000000001UL,
1316:Model/hand_landmark_ecblobs.h ****   0x00000001044403e9UL, 0x00000000680c0043UL, 0x680b7c0020422042UL, 0x69003c0300000001UL,
1317:Model/hand_landmark_ecblobs.h ****   0x0000000000000fdcUL, 0x0000000000002fb1UL, 0x0000000000001349UL, 0x0000000000002034UL,
1318:Model/hand_landmark_ecblobs.h ****   0x0000000000000fb8UL, 0x0000000000001be4UL, 0x000000000000317cUL, 0x00000000000023bfUL,
1319:Model/hand_landmark_ecblobs.h ****   0x00000000000029dfUL, 0x0000000000001bb8UL, 0x0000000000003cfeUL, 0x00000000000018b3UL,
ARM GAS  /tmp/ccAJFP7B.s 			page 47


1320:Model/hand_landmark_ecblobs.h ****   0x0000000000001abcUL, 0x0000000000002579UL, 0x00000000000037a7UL, 0x00000000000014c8UL,
1321:Model/hand_landmark_ecblobs.h ****   0x0000000000000000UL, 0x00000000000026a8UL, 0x0000000000002a5aUL, 0x00000000000004a5UL,
1322:Model/hand_landmark_ecblobs.h ****   0x00000000000026cfUL, 0x0000000000000902UL, 0x0000000000005813UL, 0x0000000000001b2cUL,
1323:Model/hand_landmark_ecblobs.h ****   0x0000000000001661UL, 0x0000000000001bb2UL, 0x0000000000000f7dUL, 0x00000000000028f9UL,
1324:Model/hand_landmark_ecblobs.h ****   0x0000000000001191UL, 0x0000000000001525UL, 0x0000000000002264UL, 0x0000000000001178UL,
1325:Model/hand_landmark_ecblobs.h ****   0x0000000000001dedUL, 0x0000000000001da4UL, 0x00000000000061beUL, 0x0000000000003304UL,
1326:Model/hand_landmark_ecblobs.h ****   0x0000000000000fa7UL, 0x0000000000002ca1UL, 0x00000000000014b2UL, 0x000000000000231dUL,
1327:Model/hand_landmark_ecblobs.h ****   0x0000000000003614UL, 0x0000000000000887UL, 0x0000000000002162UL, 0x0000000000001f21UL,
1328:Model/hand_landmark_ecblobs.h ****   0x0000000000003411UL, 0x0000000000002012UL, 0x0000000000001b10UL, 0x00000000000013f6UL,
1329:Model/hand_landmark_ecblobs.h ****   0x0000000000002e77UL, 0x000000000000222cUL, 0x00000000000022f5UL, 0x0000000000001928UL,
1330:Model/hand_landmark_ecblobs.h ****   0x00000000000021ddUL, 0x00000000000018b8UL, 0x0000000000002d54UL, 0x00000000000056d9UL,
1331:Model/hand_landmark_ecblobs.h ****   0x0000000000002478UL, 0x0000000000003d09UL, 0x00000000000019c5UL, 0x0000000000001ea6UL,
1332:Model/hand_landmark_ecblobs.h ****   0x000000000000190cUL, 0x00000000000012dbUL, 0x0000000000002574UL, 0x00000000000029a7UL,
1333:Model/hand_landmark_ecblobs.h ****   0x0000000000001223UL, 0x000000000000290aUL, 0x0000000000000652UL, 0x000000000000247dUL,
1334:Model/hand_landmark_ecblobs.h ****   0x00000000000010efUL, 0x00000000000019afUL, 0x00000000000027d1UL, 0x00000000000013ddUL,
1335:Model/hand_landmark_ecblobs.h ****   0x0000000000001f8cUL, 0x0000000000000c91UL, 0x0000000000000ec1UL, 0x0000000000002b13UL,
1336:Model/hand_landmark_ecblobs.h ****   0x000000000000041cUL, 0x00000000000013b3UL, 0x0000000000001a7eUL, 0x0000000000001d1eUL,
1337:Model/hand_landmark_ecblobs.h ****   0x0000000000000ab7UL, 0x0000000000002b35UL, 0x0000000000001c98UL, 0x0000000000001426UL,
1338:Model/hand_landmark_ecblobs.h ****   0x00000000000010ecUL, 0x0000000000001a9aUL, 0x000000000000286dUL, 0x0000000000000fb8UL,
1339:Model/hand_landmark_ecblobs.h ****   0x0000000000000284UL, 0x00000000000018c4UL, 0x000000000000173cUL, 0x00000000000027f8UL,
1340:Model/hand_landmark_ecblobs.h ****   0x0000000000001e52UL, 0x0000000000002851UL, 0x0000000000001f86UL, 0x00000000000032e2UL,
1341:Model/hand_landmark_ecblobs.h ****   0x0000000000002e34UL, 0x0000000000001095UL, 0x0000000000002472UL, 0x0000000000001aeeUL,
1342:Model/hand_landmark_ecblobs.h ****   0x0000000000001ec2UL, 0x0000000000002280UL, 0x0000000000000a06UL, 0x000000000000155aUL,
1343:Model/hand_landmark_ecblobs.h ****   0x000000000000134bUL, 0x0000000000001b04UL, 0x000000000000680bUL, 0x0000000000001241UL,
1344:Model/hand_landmark_ecblobs.h ****   0x0000000000001988UL, 0x0000000000001838UL, 0x0000000000001907UL, 0x0000000000002975UL,
1345:Model/hand_landmark_ecblobs.h ****   0x00000000000025a6UL, 0x0000000000001c54UL, 0x0000000000003989UL, 0x0000000000002509UL,
1346:Model/hand_landmark_ecblobs.h ****   0x0000000000001e5dUL, 0x0000000000002253UL, 0x000000000000181cUL, 0x000000000000081bUL,
1347:Model/hand_landmark_ecblobs.h ****   0x00000000000017c8UL, 0x000000000000237cUL, 0x00000000000010ffUL, 0x0000000000003b81UL,
1348:Model/hand_landmark_ecblobs.h ****   0x00000000000025b1UL, 0x0000000000001d18UL, 0x00000000000021abUL, 0x00000000000019f8UL,
