ARM GAS  /tmp/ccgbPSBw.s 			page 1


   1              		.arch armv8.1-m.main
   2              		.fpu fpv5-d16
   3              		.arch_extension dsp
   4              		.arch_extension fp
   5              		.arch_extension fp.dp
   6              		.arch_extension mve
   7              		.arch_extension mve.fp
   8              		.eabi_attribute 5, "cortex-m55"
   9              		.eabi_attribute 28, 1
  10              		.eabi_attribute 20, 1
  11              		.eabi_attribute 21, 1
  12              		.eabi_attribute 23, 3
  13              		.eabi_attribute 24, 1
  14              		.eabi_attribute 25, 1
  15              		.eabi_attribute 26, 1
  16              		.eabi_attribute 30, 4
  17              		.eabi_attribute 34, 1
  18              		.eabi_attribute 38, 1
  19              		.eabi_attribute 18, 4
  20              		.file	"ll_aton.c"
  21              		.text
  22              	.Ltext0:
  23              		.cfi_sections	.debug_frame
  24              		.file 1 "Lib/AI_Runtime/Npu/ll_aton/ll_aton.c"
  25              		.section	.text.decun_inc_page_addr,"ax",%progbits
  26              		.align	1
  27              		.syntax unified
  28              		.thumb
  29              		.thumb_func
  31              	decun_inc_page_addr:
  32              	.LVL0:
  33              	.LFB4840:
   1:Lib/AI_Runtime/Npu/ll_aton/ll_aton.c **** /**
   2:Lib/AI_Runtime/Npu/ll_aton/ll_aton.c ****  ******************************************************************************
   3:Lib/AI_Runtime/Npu/ll_aton/ll_aton.c ****  * @file    ll_aton.c
   4:Lib/AI_Runtime/Npu/ll_aton/ll_aton.c ****  * @author  SRA Artificial Intelligence & Embedded Architectures
   5:Lib/AI_Runtime/Npu/ll_aton/ll_aton.c ****  * @brief   ATON LL module driver.
   6:Lib/AI_Runtime/Npu/ll_aton/ll_aton.c ****  ******************************************************************************
   7:Lib/AI_Runtime/Npu/ll_aton/ll_aton.c ****  * @attention
   8:Lib/AI_Runtime/Npu/ll_aton/ll_aton.c ****  *
   9:Lib/AI_Runtime/Npu/ll_aton/ll_aton.c ****  * Copyright (c) 2024 STMicroelectronics.
  10:Lib/AI_Runtime/Npu/ll_aton/ll_aton.c ****  * All rights reserved.
  11:Lib/AI_Runtime/Npu/ll_aton/ll_aton.c ****  *
  12:Lib/AI_Runtime/Npu/ll_aton/ll_aton.c ****  * This software is licensed under terms that can be found in the LICENSE file
  13:Lib/AI_Runtime/Npu/ll_aton/ll_aton.c ****  * in the root directory of this software component.
  14:Lib/AI_Runtime/Npu/ll_aton/ll_aton.c ****  * If no LICENSE file comes with this software, it is provided AS-IS.
  15:Lib/AI_Runtime/Npu/ll_aton/ll_aton.c ****  *
  16:Lib/AI_Runtime/Npu/ll_aton/ll_aton.c ****  ******************************************************************************
  17:Lib/AI_Runtime/Npu/ll_aton/ll_aton.c ****  */
  18:Lib/AI_Runtime/Npu/ll_aton/ll_aton.c **** 
  19:Lib/AI_Runtime/Npu/ll_aton/ll_aton.c **** #include <assert.h>
  20:Lib/AI_Runtime/Npu/ll_aton/ll_aton.c **** #include <inttypes.h>
  21:Lib/AI_Runtime/Npu/ll_aton/ll_aton.c **** #include <stddef.h>
  22:Lib/AI_Runtime/Npu/ll_aton/ll_aton.c **** #include <stdint.h>
  23:Lib/AI_Runtime/Npu/ll_aton/ll_aton.c **** #include <stdlib.h>
  24:Lib/AI_Runtime/Npu/ll_aton/ll_aton.c **** 
  25:Lib/AI_Runtime/Npu/ll_aton/ll_aton.c **** #include "ll_aton.h"
ARM GAS  /tmp/ccgbPSBw.s 			page 2


  26:Lib/AI_Runtime/Npu/ll_aton/ll_aton.c **** #include "ll_aton_caches_interface.h"
  27:Lib/AI_Runtime/Npu/ll_aton/ll_aton.c **** #include "ll_aton_util.h"
  28:Lib/AI_Runtime/Npu/ll_aton/ll_aton.c **** 
  29:Lib/AI_Runtime/Npu/ll_aton/ll_aton.c **** #define ATONN_CONST_SRCPORT(S, J, U, I, P) ATON_##S##_##J##_LINK_##U##_##I##_##P
  30:Lib/AI_Runtime/Npu/ll_aton/ll_aton.c **** #define ATONN_CONST_DSTPORT(S, J, U, I, P) ATON_##S##_DST_OFFSET(J, ATON_##S##_##J##_DST##U##_##I##
  31:Lib/AI_Runtime/Npu/ll_aton/ll_aton.c **** 
  32:Lib/AI_Runtime/Npu/ll_aton/ll_aton.c **** #ifdef ATON_CONVACC_NUM
  33:Lib/AI_Runtime/Npu/ll_aton/ll_aton.c **** static uint32_t Conv_ctrl_bits[ATON_CONVACC_NUM]; // this is an hack FIXME !!!
  34:Lib/AI_Runtime/Npu/ll_aton/ll_aton.c **** #endif
  35:Lib/AI_Runtime/Npu/ll_aton/ll_aton.c **** 
  36:Lib/AI_Runtime/Npu/ll_aton/ll_aton.c **** #if (ATON_POOL_VERSION_MAJOR_DT < 1) || ((ATON_POOL_VERSION_MAJOR_DT == 1) && (ATON_POOL_VERSION_MI
  37:Lib/AI_Runtime/Npu/ll_aton/ll_aton.c **** #define POOL_RC14    /* Pooling unit is not yet patched with respect to auto-clearing of `CLR` bit 
  38:Lib/AI_Runtime/Npu/ll_aton/ll_aton.c ****                         reset values */
  39:Lib/AI_Runtime/Npu/ll_aton/ll_aton.c **** #endif
  40:Lib/AI_Runtime/Npu/ll_aton/ll_aton.c **** 
  41:Lib/AI_Runtime/Npu/ll_aton/ll_aton.c **** #define ASSERT_UNITS_VERS_W_MSG(unitname, rtl_unitver)                                             
  42:Lib/AI_Runtime/Npu/ll_aton/ll_aton.c ****   do                                                                                               
  43:Lib/AI_Runtime/Npu/ll_aton/ll_aton.c ****   {                                                                                                
  44:Lib/AI_Runtime/Npu/ll_aton/ll_aton.c ****     rtl_unitver = ATON_##unitname##_VERSION_GET(0);                                                
  45:Lib/AI_Runtime/Npu/ll_aton/ll_aton.c ****   } while (rtl_unitver == 0);                                                                      
  46:Lib/AI_Runtime/Npu/ll_aton/ll_aton.c ****   assertf(ATON_##unitname##_VERSION_GET_TYPE(rtl_unitver) == ATON_##unitname##_VERSION_TYPE_DT &&  
  47:Lib/AI_Runtime/Npu/ll_aton/ll_aton.c ****               ATON_##unitname##_VERSION_GET_MAJOR(rtl_unitver) == ATON_##unitname##_VERSION_MAJOR_D
  48:Lib/AI_Runtime/Npu/ll_aton/ll_aton.c ****               ATON_##unitname##_VERSION_GET_MINOR(rtl_unitver) == ATON_##unitname##_VERSION_MINOR_D
  49:Lib/AI_Runtime/Npu/ll_aton/ll_aton.c ****           0,                                                                                       
  50:Lib/AI_Runtime/Npu/ll_aton/ll_aton.c ****           "%s unit ver mismatch: RTL:t=%" PRIu32 ",ver=%" PRIu32 ".%" PRIu32 "  ATON.h:t=%" PRIu32 
  51:Lib/AI_Runtime/Npu/ll_aton/ll_aton.c ****           ".%" PRIu32 "\n\r",                                                                      
  52:Lib/AI_Runtime/Npu/ll_aton/ll_aton.c ****           #unitname, ATON_##unitname##_VERSION_GET_TYPE(rtl_unitver),                              
  53:Lib/AI_Runtime/Npu/ll_aton/ll_aton.c ****           ATON_##unitname##_VERSION_GET_MAJOR(rtl_unitver), ATON_##unitname##_VERSION_GET_MINOR(rtl
  54:Lib/AI_Runtime/Npu/ll_aton/ll_aton.c ****           (uint32_t)ATON_##unitname##_VERSION_TYPE_DT, (uint32_t)ATON_##unitname##_VERSION_MAJOR_DT
  55:Lib/AI_Runtime/Npu/ll_aton/ll_aton.c ****           (uint32_t)ATON_##unitname##_VERSION_MINOR_DT)
  56:Lib/AI_Runtime/Npu/ll_aton/ll_aton.c **** 
  57:Lib/AI_Runtime/Npu/ll_aton/ll_aton.c **** /** @defgroup Simple watchdog management functions.
  58:Lib/AI_Runtime/Npu/ll_aton/ll_aton.c ****  *  Used to exit from LL_Streng_Wait() in case epoch locks
  59:Lib/AI_Runtime/Npu/ll_aton/ll_aton.c ****  * @{
  60:Lib/AI_Runtime/Npu/ll_aton/ll_aton.c ****  */
  61:Lib/AI_Runtime/Npu/ll_aton/ll_aton.c **** 
  62:Lib/AI_Runtime/Npu/ll_aton/ll_aton.c **** static inline void ll_aton_static_checks(void)
  63:Lib/AI_Runtime/Npu/ll_aton/ll_aton.c **** {
  64:Lib/AI_Runtime/Npu/ll_aton/ll_aton.c ****   static char done = 0;
  65:Lib/AI_Runtime/Npu/ll_aton/ll_aton.c **** 
  66:Lib/AI_Runtime/Npu/ll_aton/ll_aton.c ****   if (done != 0)
  67:Lib/AI_Runtime/Npu/ll_aton/ll_aton.c ****     return;
  68:Lib/AI_Runtime/Npu/ll_aton/ll_aton.c ****   done = 1;
  69:Lib/AI_Runtime/Npu/ll_aton/ll_aton.c **** 
  70:Lib/AI_Runtime/Npu/ll_aton/ll_aton.c **** #define ASSERT_ATONN_SRCPORT(S, J, U, I, P)                                                        
  71:Lib/AI_Runtime/Npu/ll_aton/ll_aton.c ****   LL_ATON_ASSERT(ATONN_CONST_SRCPORT(S, J, U, I, P) == __atonn_getSrcPortID(S, J, U, I, P))
  72:Lib/AI_Runtime/Npu/ll_aton/ll_aton.c **** #define ASSERT_ATONN_DSTPORT(S, J, U, I, P)                                                        
  73:Lib/AI_Runtime/Npu/ll_aton/ll_aton.c ****   LL_ATON_ASSERT(ATONN_CONST_DSTPORT(S, J, U, I, P) == __atonn_getDstPortID(S, J, U, I, P))
  74:Lib/AI_Runtime/Npu/ll_aton/ll_aton.c **** 
  75:Lib/AI_Runtime/Npu/ll_aton/ll_aton.c **** #if ATON_STRENG_NUM > 1
  76:Lib/AI_Runtime/Npu/ll_aton/ll_aton.c ****   ASSERT_ATONN_SRCPORT(STRSWITCH, 0, STRENG, 1, 0);
  77:Lib/AI_Runtime/Npu/ll_aton/ll_aton.c ****   ASSERT_ATONN_DSTPORT(STRSWITCH, 0, STRENG, 1, 0);
  78:Lib/AI_Runtime/Npu/ll_aton/ll_aton.c **** #endif
  79:Lib/AI_Runtime/Npu/ll_aton/ll_aton.c **** #if ATON_STRENG_NUM > 2
  80:Lib/AI_Runtime/Npu/ll_aton/ll_aton.c ****   ASSERT_ATONN_SRCPORT(STRSWITCH, 0, STRENG, 2, 0);
  81:Lib/AI_Runtime/Npu/ll_aton/ll_aton.c ****   ASSERT_ATONN_DSTPORT(STRSWITCH, 0, STRENG, 2, 0);
  82:Lib/AI_Runtime/Npu/ll_aton/ll_aton.c **** #endif
ARM GAS  /tmp/ccgbPSBw.s 			page 3


  83:Lib/AI_Runtime/Npu/ll_aton/ll_aton.c **** 
  84:Lib/AI_Runtime/Npu/ll_aton/ll_aton.c **** #if (LL_ATON_PLATFORM == LL_ATON_PLAT_EC_TRACE)
  85:Lib/AI_Runtime/Npu/ll_aton/ll_aton.c **** 
  86:Lib/AI_Runtime/Npu/ll_aton/ll_aton.c **** #if ATON_CONVACC_NUM > 1
  87:Lib/AI_Runtime/Npu/ll_aton/ll_aton.c ****   ASSERT_ATONN_SRCPORT(STRSWITCH, 0, CONVACC, 1, 0);
  88:Lib/AI_Runtime/Npu/ll_aton/ll_aton.c ****   ASSERT_ATONN_DSTPORT(STRSWITCH, 0, CONVACC, 1, 0);
  89:Lib/AI_Runtime/Npu/ll_aton/ll_aton.c ****   ASSERT_ATONN_DSTPORT(STRSWITCH, 0, CONVACC, 1, 1);
  90:Lib/AI_Runtime/Npu/ll_aton/ll_aton.c ****   ASSERT_ATONN_DSTPORT(STRSWITCH, 0, CONVACC, 1, 2);
  91:Lib/AI_Runtime/Npu/ll_aton/ll_aton.c **** #endif
  92:Lib/AI_Runtime/Npu/ll_aton/ll_aton.c **** 
  93:Lib/AI_Runtime/Npu/ll_aton/ll_aton.c **** #if ATON_CONVACC_NUM > 2
  94:Lib/AI_Runtime/Npu/ll_aton/ll_aton.c ****   ASSERT_ATONN_SRCPORT(STRSWITCH, 0, CONVACC, 2, 0);
  95:Lib/AI_Runtime/Npu/ll_aton/ll_aton.c ****   ASSERT_ATONN_DSTPORT(STRSWITCH, 0, CONVACC, 2, 0);
  96:Lib/AI_Runtime/Npu/ll_aton/ll_aton.c ****   ASSERT_ATONN_DSTPORT(STRSWITCH, 0, CONVACC, 2, 1);
  97:Lib/AI_Runtime/Npu/ll_aton/ll_aton.c ****   ASSERT_ATONN_DSTPORT(STRSWITCH, 0, CONVACC, 2, 2);
  98:Lib/AI_Runtime/Npu/ll_aton/ll_aton.c **** #endif
  99:Lib/AI_Runtime/Npu/ll_aton/ll_aton.c **** 
 100:Lib/AI_Runtime/Npu/ll_aton/ll_aton.c **** #if ATON_POOL_NUM > 1
 101:Lib/AI_Runtime/Npu/ll_aton/ll_aton.c ****   ASSERT_ATONN_SRCPORT(STRSWITCH, 0, POOL, 1, 0);
 102:Lib/AI_Runtime/Npu/ll_aton/ll_aton.c ****   ASSERT_ATONN_DSTPORT(STRSWITCH, 0, POOL, 1, 0);
 103:Lib/AI_Runtime/Npu/ll_aton/ll_aton.c **** #endif
 104:Lib/AI_Runtime/Npu/ll_aton/ll_aton.c **** 
 105:Lib/AI_Runtime/Npu/ll_aton/ll_aton.c **** #if ATON_ARITH_NUM > 1
 106:Lib/AI_Runtime/Npu/ll_aton/ll_aton.c ****   ASSERT_ATONN_SRCPORT(STRSWITCH, 0, ARITH, 1, 0);
 107:Lib/AI_Runtime/Npu/ll_aton/ll_aton.c ****   ASSERT_ATONN_DSTPORT(STRSWITCH, 0, ARITH, 1, 0);
 108:Lib/AI_Runtime/Npu/ll_aton/ll_aton.c ****   ASSERT_ATONN_DSTPORT(STRSWITCH, 0, ARITH, 1, 1);
 109:Lib/AI_Runtime/Npu/ll_aton/ll_aton.c **** #endif
 110:Lib/AI_Runtime/Npu/ll_aton/ll_aton.c **** 
 111:Lib/AI_Runtime/Npu/ll_aton/ll_aton.c **** #if ATON_ACTIV_NUM > 1
 112:Lib/AI_Runtime/Npu/ll_aton/ll_aton.c ****   ASSERT_ATONN_SRCPORT(STRSWITCH, 0, ACTIV, 1, 0);
 113:Lib/AI_Runtime/Npu/ll_aton/ll_aton.c ****   ASSERT_ATONN_DSTPORT(STRSWITCH, 0, ACTIV, 1, 0);
 114:Lib/AI_Runtime/Npu/ll_aton/ll_aton.c **** #endif
 115:Lib/AI_Runtime/Npu/ll_aton/ll_aton.c **** 
 116:Lib/AI_Runtime/Npu/ll_aton/ll_aton.c **** #if ATON_DECUN_NUM > 1
 117:Lib/AI_Runtime/Npu/ll_aton/ll_aton.c ****   ASSERT_ATONN_SRCPORT(STRSWITCH, 0, DECUN, 1, 0);
 118:Lib/AI_Runtime/Npu/ll_aton/ll_aton.c ****   ASSERT_ATONN_DSTPORT(STRSWITCH, 0, DECUN, 1, 0);
 119:Lib/AI_Runtime/Npu/ll_aton/ll_aton.c ****   ASSERT_ATONN_DSTPORT(STRSWITCH, 0, DECUN, 1, 1);
 120:Lib/AI_Runtime/Npu/ll_aton/ll_aton.c **** #endif
 121:Lib/AI_Runtime/Npu/ll_aton/ll_aton.c **** 
 122:Lib/AI_Runtime/Npu/ll_aton/ll_aton.c **** #endif // (LL_ATON_PLATFORM == LL_ATON_PLAT_EC_TRACE)
 123:Lib/AI_Runtime/Npu/ll_aton/ll_aton.c **** 
 124:Lib/AI_Runtime/Npu/ll_aton/ll_aton.c **** #undef ASSERT_ATONN_SRCPORT
 125:Lib/AI_Runtime/Npu/ll_aton/ll_aton.c **** #undef ASSERT_ATONN_DSTPORT
 126:Lib/AI_Runtime/Npu/ll_aton/ll_aton.c **** }
 127:Lib/AI_Runtime/Npu/ll_aton/ll_aton.c **** 
 128:Lib/AI_Runtime/Npu/ll_aton/ll_aton.c **** unsigned char *LL_Address_Physical2Virtual(unsigned char *address)
 129:Lib/AI_Runtime/Npu/ll_aton/ll_aton.c **** {
 130:Lib/AI_Runtime/Npu/ll_aton/ll_aton.c ****   return ATON_LIB_PHYSICAL_TO_VIRTUAL_ADDR(address);
 131:Lib/AI_Runtime/Npu/ll_aton/ll_aton.c **** }
 132:Lib/AI_Runtime/Npu/ll_aton/ll_aton.c **** 
 133:Lib/AI_Runtime/Npu/ll_aton/ll_aton.c **** unsigned char *LL_Address_Virtual2Physical(unsigned char *address)
 134:Lib/AI_Runtime/Npu/ll_aton/ll_aton.c **** {
 135:Lib/AI_Runtime/Npu/ll_aton/ll_aton.c ****   return ATON_LIB_VIRTUAL_TO_PHYSICAL_ADDR(address);
 136:Lib/AI_Runtime/Npu/ll_aton/ll_aton.c **** }
 137:Lib/AI_Runtime/Npu/ll_aton/ll_aton.c **** 
 138:Lib/AI_Runtime/Npu/ll_aton/ll_aton.c **** /**
 139:Lib/AI_Runtime/Npu/ll_aton/ll_aton.c ****  * @brief Starts watchdog
ARM GAS  /tmp/ccgbPSBw.s 			page 4


 140:Lib/AI_Runtime/Npu/ll_aton/ll_aton.c ****  * @param timeout Watchdog timeout in cycles
 141:Lib/AI_Runtime/Npu/ll_aton/ll_aton.c ****  * @retval ATON Error code
 142:Lib/AI_Runtime/Npu/ll_aton/ll_aton.c ****  */
 143:Lib/AI_Runtime/Npu/ll_aton/ll_aton.c **** LL_ATON_WEAK int startWatchdog(uint32_t timeout)
 144:Lib/AI_Runtime/Npu/ll_aton/ll_aton.c **** {
 145:Lib/AI_Runtime/Npu/ll_aton/ll_aton.c ****   (void)timeout;
 146:Lib/AI_Runtime/Npu/ll_aton/ll_aton.c **** 
 147:Lib/AI_Runtime/Npu/ll_aton/ll_aton.c ****   return 0;
 148:Lib/AI_Runtime/Npu/ll_aton/ll_aton.c **** }
 149:Lib/AI_Runtime/Npu/ll_aton/ll_aton.c **** 
 150:Lib/AI_Runtime/Npu/ll_aton/ll_aton.c **** /**
 151:Lib/AI_Runtime/Npu/ll_aton/ll_aton.c ****  * @brief Checkes whether watchdog has expired or not
 152:Lib/AI_Runtime/Npu/ll_aton/ll_aton.c ****  * @retval ATON Error code
 153:Lib/AI_Runtime/Npu/ll_aton/ll_aton.c ****  */
 154:Lib/AI_Runtime/Npu/ll_aton/ll_aton.c **** LL_ATON_WEAK int checkWatchdog(void)
 155:Lib/AI_Runtime/Npu/ll_aton/ll_aton.c **** {
 156:Lib/AI_Runtime/Npu/ll_aton/ll_aton.c ****   return 0;
 157:Lib/AI_Runtime/Npu/ll_aton/ll_aton.c **** }
 158:Lib/AI_Runtime/Npu/ll_aton/ll_aton.c **** 
 159:Lib/AI_Runtime/Npu/ll_aton/ll_aton.c **** /**
 160:Lib/AI_Runtime/Npu/ll_aton/ll_aton.c ****  * @}
 161:Lib/AI_Runtime/Npu/ll_aton/ll_aton.c ****  */
 162:Lib/AI_Runtime/Npu/ll_aton/ll_aton.c **** 
 163:Lib/AI_Runtime/Npu/ll_aton/ll_aton.c **** /**
 164:Lib/AI_Runtime/Npu/ll_aton/ll_aton.c ****  * @brief  ATON global initialization. Initializes clocks and bus interfaces. Must be called before
 165:Lib/AI_Runtime/Npu/ll_aton/ll_aton.c ****  * @retval Always zero
 166:Lib/AI_Runtime/Npu/ll_aton/ll_aton.c ****  */
 167:Lib/AI_Runtime/Npu/ll_aton/ll_aton.c **** int LL_ATON_Init(void)
 168:Lib/AI_Runtime/Npu/ll_aton/ll_aton.c **** {
 169:Lib/AI_Runtime/Npu/ll_aton/ll_aton.c ****   uint32_t t;
 170:Lib/AI_Runtime/Npu/ll_aton/ll_aton.c ****   int i;
 171:Lib/AI_Runtime/Npu/ll_aton/ll_aton.c **** 
 172:Lib/AI_Runtime/Npu/ll_aton/ll_aton.c ****   ll_aton_static_checks();
 173:Lib/AI_Runtime/Npu/ll_aton/ll_aton.c **** 
 174:Lib/AI_Runtime/Npu/ll_aton/ll_aton.c ****   /* Clear pipeline */
 175:Lib/AI_Runtime/Npu/ll_aton/ll_aton.c ****   t = ATON_CLKCTRL_CTRL_GET(0);
 176:Lib/AI_Runtime/Npu/ll_aton/ll_aton.c ****   t = ATON_CLKCTRL_CTRL_SET_CLR(t, 1);
 177:Lib/AI_Runtime/Npu/ll_aton/ll_aton.c ****   ATON_CLKCTRL_CTRL_SET(0, t);
 178:Lib/AI_Runtime/Npu/ll_aton/ll_aton.c **** 
 179:Lib/AI_Runtime/Npu/ll_aton/ll_aton.c ****   /* Enable all ATON clocks */
 180:Lib/AI_Runtime/Npu/ll_aton/ll_aton.c ****   ATON_CLKCTRL_CTRL_SET(0, 1);
 181:Lib/AI_Runtime/Npu/ll_aton/ll_aton.c ****   ATON_CLKCTRL_AGATES0_SET(0, 0xffffffff);
 182:Lib/AI_Runtime/Npu/ll_aton/ll_aton.c ****   ATON_CLKCTRL_AGATES1_SET(0, 0xffffffff);
 183:Lib/AI_Runtime/Npu/ll_aton/ll_aton.c **** 
 184:Lib/AI_Runtime/Npu/ll_aton/ll_aton.c **** #if (LL_ATON_ENABLE_CLOCK_GATING == 1)
 185:Lib/AI_Runtime/Npu/ll_aton/ll_aton.c **** #if (LL_ATON_PLATFORM == LL_ATON_PLAT_EC_TRACE)
 186:Lib/AI_Runtime/Npu/ll_aton/ll_aton.c ****   ATON_CLKCTRL_BGATES_SET(0, (1 << ATON_EPOCHCTRL_CLKB_CLK(0)));
 187:Lib/AI_Runtime/Npu/ll_aton/ll_aton.c **** #else
 188:Lib/AI_Runtime/Npu/ll_aton/ll_aton.c ****   ATON_CLKCTRL_BGATES_SET(0, 0x0);
 189:Lib/AI_Runtime/Npu/ll_aton/ll_aton.c **** #endif
 190:Lib/AI_Runtime/Npu/ll_aton/ll_aton.c **** #else
 191:Lib/AI_Runtime/Npu/ll_aton/ll_aton.c ****   ATON_CLKCTRL_BGATES_SET(0, 0xffffffff);
 192:Lib/AI_Runtime/Npu/ll_aton/ll_aton.c **** #endif
 193:Lib/AI_Runtime/Npu/ll_aton/ll_aton.c **** 
 194:Lib/AI_Runtime/Npu/ll_aton/ll_aton.c **** #ifdef ATON_CLKCTRL_BGATES1_OFFSET
 195:Lib/AI_Runtime/Npu/ll_aton/ll_aton.c ****   ATON_CLKCTRL_BGATES1_SET(0, 0xffffffff);
 196:Lib/AI_Runtime/Npu/ll_aton/ll_aton.c **** #endif
ARM GAS  /tmp/ccgbPSBw.s 			page 5


 197:Lib/AI_Runtime/Npu/ll_aton/ll_aton.c **** 
 198:Lib/AI_Runtime/Npu/ll_aton/ll_aton.c ****   /* Check that RTL and ATON.h match. Only check first unit */
 199:Lib/AI_Runtime/Npu/ll_aton/ll_aton.c ****   ASSERT_UNITS_VERS_W_MSG(STRENG, t);
 200:Lib/AI_Runtime/Npu/ll_aton/ll_aton.c **** 
 201:Lib/AI_Runtime/Npu/ll_aton/ll_aton.c **** #ifdef ATON_CONVACC_NUM
 202:Lib/AI_Runtime/Npu/ll_aton/ll_aton.c ****   ASSERT_UNITS_VERS_W_MSG(CONVACC, t);
 203:Lib/AI_Runtime/Npu/ll_aton/ll_aton.c **** #endif
 204:Lib/AI_Runtime/Npu/ll_aton/ll_aton.c **** 
 205:Lib/AI_Runtime/Npu/ll_aton/ll_aton.c **** #ifdef ATON_POOL_NUM
 206:Lib/AI_Runtime/Npu/ll_aton/ll_aton.c ****   ASSERT_UNITS_VERS_W_MSG(POOL, t);
 207:Lib/AI_Runtime/Npu/ll_aton/ll_aton.c **** #endif
 208:Lib/AI_Runtime/Npu/ll_aton/ll_aton.c **** 
 209:Lib/AI_Runtime/Npu/ll_aton/ll_aton.c **** #ifdef ATON_ARITH_NUM
 210:Lib/AI_Runtime/Npu/ll_aton/ll_aton.c ****   ASSERT_UNITS_VERS_W_MSG(ARITH, t);
 211:Lib/AI_Runtime/Npu/ll_aton/ll_aton.c **** #endif
 212:Lib/AI_Runtime/Npu/ll_aton/ll_aton.c **** 
 213:Lib/AI_Runtime/Npu/ll_aton/ll_aton.c **** #ifdef ATON_ACTIV_NUM
 214:Lib/AI_Runtime/Npu/ll_aton/ll_aton.c ****   ASSERT_UNITS_VERS_W_MSG(ACTIV, t);
 215:Lib/AI_Runtime/Npu/ll_aton/ll_aton.c **** #endif
 216:Lib/AI_Runtime/Npu/ll_aton/ll_aton.c **** 
 217:Lib/AI_Runtime/Npu/ll_aton/ll_aton.c **** #ifdef ATON_DECUN_NUM
 218:Lib/AI_Runtime/Npu/ll_aton/ll_aton.c ****   ASSERT_UNITS_VERS_W_MSG(DECUN, t);
 219:Lib/AI_Runtime/Npu/ll_aton/ll_aton.c **** #endif
 220:Lib/AI_Runtime/Npu/ll_aton/ll_aton.c **** 
 221:Lib/AI_Runtime/Npu/ll_aton/ll_aton.c **** #ifdef ATON_EPOCHCTRL_VERSION_TYPE_DT
 222:Lib/AI_Runtime/Npu/ll_aton/ll_aton.c ****   ASSERT_UNITS_VERS_W_MSG(EPOCHCTRL, t);
 223:Lib/AI_Runtime/Npu/ll_aton/ll_aton.c **** #endif
 224:Lib/AI_Runtime/Npu/ll_aton/ll_aton.c **** 
 225:Lib/AI_Runtime/Npu/ll_aton/ll_aton.c **** #ifdef ATON_RECBUF_VERSION_TYPE_DT
 226:Lib/AI_Runtime/Npu/ll_aton/ll_aton.c ****   ASSERT_UNITS_VERS_W_MSG(RECBUF, t);
 227:Lib/AI_Runtime/Npu/ll_aton/ll_aton.c **** #endif
 228:Lib/AI_Runtime/Npu/ll_aton/ll_aton.c **** 
 229:Lib/AI_Runtime/Npu/ll_aton/ll_aton.c **** #ifdef ATON_STRENG64_NUM
 230:Lib/AI_Runtime/Npu/ll_aton/ll_aton.c ****   ASSERT_UNITS_VERS_W_MSG(STRENG64, t);
 231:Lib/AI_Runtime/Npu/ll_aton/ll_aton.c **** #endif
 232:Lib/AI_Runtime/Npu/ll_aton/ll_aton.c **** 
 233:Lib/AI_Runtime/Npu/ll_aton/ll_aton.c **** #ifdef ATON_STRSWITCH64_NUM
 234:Lib/AI_Runtime/Npu/ll_aton/ll_aton.c ****   ASSERT_UNITS_VERS_W_MSG(STRSWITCH64, t);
 235:Lib/AI_Runtime/Npu/ll_aton/ll_aton.c **** #endif
 236:Lib/AI_Runtime/Npu/ll_aton/ll_aton.c **** 
 237:Lib/AI_Runtime/Npu/ll_aton/ll_aton.c **** #ifdef ATON_STRSWITCH_VC_NUM
 238:Lib/AI_Runtime/Npu/ll_aton/ll_aton.c ****   ASSERT_UNITS_VERS_W_MSG(STRSWITCH_VC, t);
 239:Lib/AI_Runtime/Npu/ll_aton/ll_aton.c **** #endif
 240:Lib/AI_Runtime/Npu/ll_aton/ll_aton.c **** 
 241:Lib/AI_Runtime/Npu/ll_aton/ll_aton.c **** #ifdef ATON_IMC_NUM
 242:Lib/AI_Runtime/Npu/ll_aton/ll_aton.c ****   ASSERT_UNITS_VERS_W_MSG(IMC, t);
 243:Lib/AI_Runtime/Npu/ll_aton/ll_aton.c **** #endif
 244:Lib/AI_Runtime/Npu/ll_aton/ll_aton.c **** 
 245:Lib/AI_Runtime/Npu/ll_aton/ll_aton.c ****   ASSERT_UNITS_VERS_W_MSG(CLKCTRL, t);
 246:Lib/AI_Runtime/Npu/ll_aton/ll_aton.c **** 
 247:Lib/AI_Runtime/Npu/ll_aton/ll_aton.c ****   ASSERT_UNITS_VERS_W_MSG(INTCTRL, t);
 248:Lib/AI_Runtime/Npu/ll_aton/ll_aton.c **** 
 249:Lib/AI_Runtime/Npu/ll_aton/ll_aton.c ****   ASSERT_UNITS_VERS_W_MSG(STRSWITCH, t);
 250:Lib/AI_Runtime/Npu/ll_aton/ll_aton.c **** 
 251:Lib/AI_Runtime/Npu/ll_aton/ll_aton.c ****   ASSERT_UNITS_VERS_W_MSG(BUSIF, t);
 252:Lib/AI_Runtime/Npu/ll_aton/ll_aton.c **** 
 253:Lib/AI_Runtime/Npu/ll_aton/ll_aton.c ****   /* Enable Bus Interfaces */
ARM GAS  /tmp/ccgbPSBw.s 			page 6


 254:Lib/AI_Runtime/Npu/ll_aton/ll_aton.c ****   for (i = 0; i < ATON_BUSIF_NUM; i++)
 255:Lib/AI_Runtime/Npu/ll_aton/ll_aton.c ****   {
 256:Lib/AI_Runtime/Npu/ll_aton/ll_aton.c ****     ATON_BUSIF_CTRL_SET(i, 1);
 257:Lib/AI_Runtime/Npu/ll_aton/ll_aton.c ****   }
 258:Lib/AI_Runtime/Npu/ll_aton/ll_aton.c **** 
 259:Lib/AI_Runtime/Npu/ll_aton/ll_aton.c ****   /* Enable Interrupt Controller */
 260:Lib/AI_Runtime/Npu/ll_aton/ll_aton.c ****   ATON_INTCTRL_CTRL_SET(0, 1);
 261:Lib/AI_Runtime/Npu/ll_aton/ll_aton.c **** 
 262:Lib/AI_Runtime/Npu/ll_aton/ll_aton.c ****   return 0;
 263:Lib/AI_Runtime/Npu/ll_aton/ll_aton.c **** }
 264:Lib/AI_Runtime/Npu/ll_aton/ll_aton.c **** 
 265:Lib/AI_Runtime/Npu/ll_aton/ll_aton.c **** /**
 266:Lib/AI_Runtime/Npu/ll_aton/ll_aton.c ****  * @brief  ATON global de-initialization. Must be called at the very end
 267:Lib/AI_Runtime/Npu/ll_aton/ll_aton.c ****  * @retval Always zero
 268:Lib/AI_Runtime/Npu/ll_aton/ll_aton.c ****  */
 269:Lib/AI_Runtime/Npu/ll_aton/ll_aton.c **** int LL_ATON_DeInit(void)
 270:Lib/AI_Runtime/Npu/ll_aton/ll_aton.c **** {
 271:Lib/AI_Runtime/Npu/ll_aton/ll_aton.c ****   int i;
 272:Lib/AI_Runtime/Npu/ll_aton/ll_aton.c **** 
 273:Lib/AI_Runtime/Npu/ll_aton/ll_aton.c ****   /* Disable Interrupt Controller */
 274:Lib/AI_Runtime/Npu/ll_aton/ll_aton.c ****   ATON_INTCTRL_CTRL_SET(0, 0);
 275:Lib/AI_Runtime/Npu/ll_aton/ll_aton.c **** 
 276:Lib/AI_Runtime/Npu/ll_aton/ll_aton.c ****   /* Disable Bus Interfaces */
 277:Lib/AI_Runtime/Npu/ll_aton/ll_aton.c ****   for (i = 0; i < ATON_BUSIF_NUM; i++)
 278:Lib/AI_Runtime/Npu/ll_aton/ll_aton.c ****   {
 279:Lib/AI_Runtime/Npu/ll_aton/ll_aton.c ****     ATON_BUSIF_CTRL_SET(i, 0);
 280:Lib/AI_Runtime/Npu/ll_aton/ll_aton.c ****   }
 281:Lib/AI_Runtime/Npu/ll_aton/ll_aton.c **** 
 282:Lib/AI_Runtime/Npu/ll_aton/ll_aton.c ****   /* Disable all ATON clocks */
 283:Lib/AI_Runtime/Npu/ll_aton/ll_aton.c ****   ATON_CLKCTRL_AGATES0_SET(0, 0);
 284:Lib/AI_Runtime/Npu/ll_aton/ll_aton.c ****   ATON_CLKCTRL_AGATES1_SET(0, 0);
 285:Lib/AI_Runtime/Npu/ll_aton/ll_aton.c ****   ATON_CLKCTRL_BGATES_SET(0, 0);
 286:Lib/AI_Runtime/Npu/ll_aton/ll_aton.c **** #ifdef ATON_CLKCTRL_BGATES1_OFFSET
 287:Lib/AI_Runtime/Npu/ll_aton/ll_aton.c ****   ATON_CLKCTRL_BGATES1_SET(0, 0);
 288:Lib/AI_Runtime/Npu/ll_aton/ll_aton.c **** #endif
 289:Lib/AI_Runtime/Npu/ll_aton/ll_aton.c ****   ATON_CLKCTRL_CTRL_SET(0, 0);
 290:Lib/AI_Runtime/Npu/ll_aton/ll_aton.c **** 
 291:Lib/AI_Runtime/Npu/ll_aton/ll_aton.c ****   return 0;
 292:Lib/AI_Runtime/Npu/ll_aton/ll_aton.c **** }
 293:Lib/AI_Runtime/Npu/ll_aton/ll_aton.c **** 
 294:Lib/AI_Runtime/Npu/ll_aton/ll_aton.c **** /**
 295:Lib/AI_Runtime/Npu/ll_aton/ll_aton.c ****  * @brief  Enables a set of ATON units
 296:Lib/AI_Runtime/Npu/ll_aton/ll_aton.c ****  * @param  LL_ATON_EnableUnits_InitStruct Array of units to enable
 297:Lib/AI_Runtime/Npu/ll_aton/ll_aton.c ****  * @param  n Lenght of the initialization array
 298:Lib/AI_Runtime/Npu/ll_aton/ll_aton.c ****  * @retval Error code
 299:Lib/AI_Runtime/Npu/ll_aton/ll_aton.c ****  * @todo   Add boundary checks
 300:Lib/AI_Runtime/Npu/ll_aton/ll_aton.c ****  */
 301:Lib/AI_Runtime/Npu/ll_aton/ll_aton.c **** int LL_ATON_EnableUnits_Init(const LL_ATON_EnableUnits_InitTypeDef *LL_ATON_EnableUnits_InitStruct,
 302:Lib/AI_Runtime/Npu/ll_aton/ll_aton.c **** {
 303:Lib/AI_Runtime/Npu/ll_aton/ll_aton.c ****   int i;
 304:Lib/AI_Runtime/Npu/ll_aton/ll_aton.c ****   enum AccelUnitsType unitType;
 305:Lib/AI_Runtime/Npu/ll_aton/ll_aton.c ****   uint32_t unitId;
 306:Lib/AI_Runtime/Npu/ll_aton/ll_aton.c **** 
 307:Lib/AI_Runtime/Npu/ll_aton/ll_aton.c ****   for (i = 0; i < n; i++)
 308:Lib/AI_Runtime/Npu/ll_aton/ll_aton.c ****   {
 309:Lib/AI_Runtime/Npu/ll_aton/ll_aton.c ****     unitType = LL_ATON_EnableUnits_InitStruct[i].unit.unit_type;
 310:Lib/AI_Runtime/Npu/ll_aton/ll_aton.c ****     unitId = LL_ATON_EnableUnits_InitStruct[i].unit.unit_num;
ARM GAS  /tmp/ccgbPSBw.s 			page 7


 311:Lib/AI_Runtime/Npu/ll_aton/ll_aton.c **** 
 312:Lib/AI_Runtime/Npu/ll_aton/ll_aton.c ****     switch (unitType)
 313:Lib/AI_Runtime/Npu/ll_aton/ll_aton.c ****     {
 314:Lib/AI_Runtime/Npu/ll_aton/ll_aton.c ****     case STRENG:
 315:Lib/AI_Runtime/Npu/ll_aton/ll_aton.c ****       ATON_ENABLE(STRENG, unitId);
 316:Lib/AI_Runtime/Npu/ll_aton/ll_aton.c ****       break;
 317:Lib/AI_Runtime/Npu/ll_aton/ll_aton.c **** 
 318:Lib/AI_Runtime/Npu/ll_aton/ll_aton.c **** #ifdef ATON_STRENG64_NUM
 319:Lib/AI_Runtime/Npu/ll_aton/ll_aton.c ****     case STRENG64:
 320:Lib/AI_Runtime/Npu/ll_aton/ll_aton.c ****       ATON_ENABLE(STRENG64, unitId);
 321:Lib/AI_Runtime/Npu/ll_aton/ll_aton.c ****       break;
 322:Lib/AI_Runtime/Npu/ll_aton/ll_aton.c **** #endif
 323:Lib/AI_Runtime/Npu/ll_aton/ll_aton.c **** 
 324:Lib/AI_Runtime/Npu/ll_aton/ll_aton.c **** #ifdef ATON_CONVACC_NUM
 325:Lib/AI_Runtime/Npu/ll_aton/ll_aton.c ****     case CONVACC:
 326:Lib/AI_Runtime/Npu/ll_aton/ll_aton.c **** #if 0
 327:Lib/AI_Runtime/Npu/ll_aton/ll_aton.c ****       ATON_ENABLE(CONVACC, unitId);
 328:Lib/AI_Runtime/Npu/ll_aton/ll_aton.c **** #else
 329:Lib/AI_Runtime/Npu/ll_aton/ll_aton.c ****       ATON_CONVACC_CTRL_SET(unitId, ATON_CONVACC_CTRL_SET_EN(Conv_ctrl_bits[unitId], 1));
 330:Lib/AI_Runtime/Npu/ll_aton/ll_aton.c **** #endif
 331:Lib/AI_Runtime/Npu/ll_aton/ll_aton.c ****       break;
 332:Lib/AI_Runtime/Npu/ll_aton/ll_aton.c **** #endif
 333:Lib/AI_Runtime/Npu/ll_aton/ll_aton.c **** 
 334:Lib/AI_Runtime/Npu/ll_aton/ll_aton.c **** #ifdef ATON_DECUN_NUM
 335:Lib/AI_Runtime/Npu/ll_aton/ll_aton.c ****     case DECUN:
 336:Lib/AI_Runtime/Npu/ll_aton/ll_aton.c ****       ATON_ENABLE(DECUN, unitId);
 337:Lib/AI_Runtime/Npu/ll_aton/ll_aton.c ****       break;
 338:Lib/AI_Runtime/Npu/ll_aton/ll_aton.c **** #endif
 339:Lib/AI_Runtime/Npu/ll_aton/ll_aton.c **** 
 340:Lib/AI_Runtime/Npu/ll_aton/ll_aton.c **** #ifdef ATON_ACTIV_NUM
 341:Lib/AI_Runtime/Npu/ll_aton/ll_aton.c ****     case ACTIV:
 342:Lib/AI_Runtime/Npu/ll_aton/ll_aton.c ****       ATON_ENABLE(ACTIV, unitId);
 343:Lib/AI_Runtime/Npu/ll_aton/ll_aton.c ****       break;
 344:Lib/AI_Runtime/Npu/ll_aton/ll_aton.c **** #endif
 345:Lib/AI_Runtime/Npu/ll_aton/ll_aton.c **** 
 346:Lib/AI_Runtime/Npu/ll_aton/ll_aton.c **** #ifdef ATON_ARITH_NUM
 347:Lib/AI_Runtime/Npu/ll_aton/ll_aton.c ****     case ARITH:
 348:Lib/AI_Runtime/Npu/ll_aton/ll_aton.c ****       ATON_ENABLE(ARITH, unitId);
 349:Lib/AI_Runtime/Npu/ll_aton/ll_aton.c ****       break;
 350:Lib/AI_Runtime/Npu/ll_aton/ll_aton.c **** #endif
 351:Lib/AI_Runtime/Npu/ll_aton/ll_aton.c **** 
 352:Lib/AI_Runtime/Npu/ll_aton/ll_aton.c **** #ifdef ATON_POOL_NUM
 353:Lib/AI_Runtime/Npu/ll_aton/ll_aton.c ****     case POOL:
 354:Lib/AI_Runtime/Npu/ll_aton/ll_aton.c **** #ifdef POOL_RC14
 355:Lib/AI_Runtime/Npu/ll_aton/ll_aton.c ****       ATON_POOL_CTRL_SET(unitId, ATON_POOL_CTRL_SET_EN(ATON_POOL_CTRL_GET(unitId), 1));
 356:Lib/AI_Runtime/Npu/ll_aton/ll_aton.c **** #else  // !POOL_RC14
 357:Lib/AI_Runtime/Npu/ll_aton/ll_aton.c ****       ATON_ENABLE(POOL, unitId);
 358:Lib/AI_Runtime/Npu/ll_aton/ll_aton.c **** #endif // !POOL_RC14
 359:Lib/AI_Runtime/Npu/ll_aton/ll_aton.c ****       break;
 360:Lib/AI_Runtime/Npu/ll_aton/ll_aton.c **** #endif
 361:Lib/AI_Runtime/Npu/ll_aton/ll_aton.c **** #ifdef ATON_RECBUF_NUM
 362:Lib/AI_Runtime/Npu/ll_aton/ll_aton.c ****     case RECBUF:
 363:Lib/AI_Runtime/Npu/ll_aton/ll_aton.c ****       ATON_ENABLE(RECBUF, unitId);
 364:Lib/AI_Runtime/Npu/ll_aton/ll_aton.c ****       break;
 365:Lib/AI_Runtime/Npu/ll_aton/ll_aton.c **** #endif
 366:Lib/AI_Runtime/Npu/ll_aton/ll_aton.c **** 
 367:Lib/AI_Runtime/Npu/ll_aton/ll_aton.c ****     default:
ARM GAS  /tmp/ccgbPSBw.s 			page 8


 368:Lib/AI_Runtime/Npu/ll_aton/ll_aton.c ****       break;
 369:Lib/AI_Runtime/Npu/ll_aton/ll_aton.c ****     }
 370:Lib/AI_Runtime/Npu/ll_aton/ll_aton.c ****   }
 371:Lib/AI_Runtime/Npu/ll_aton/ll_aton.c **** 
 372:Lib/AI_Runtime/Npu/ll_aton/ll_aton.c ****   return 0;
 373:Lib/AI_Runtime/Npu/ll_aton/ll_aton.c **** }
 374:Lib/AI_Runtime/Npu/ll_aton/ll_aton.c **** 
 375:Lib/AI_Runtime/Npu/ll_aton/ll_aton.c **** /**
 376:Lib/AI_Runtime/Npu/ll_aton/ll_aton.c ****  * @brief  Disables a set of ATON units
 377:Lib/AI_Runtime/Npu/ll_aton/ll_aton.c ****  * @param  LL_ATON_DisableUnits_InitTypeDef Array of units to disable
 378:Lib/AI_Runtime/Npu/ll_aton/ll_aton.c ****  * @param  n Length of the initialization array
 379:Lib/AI_Runtime/Npu/ll_aton/ll_aton.c ****  * @retval Error code
 380:Lib/AI_Runtime/Npu/ll_aton/ll_aton.c ****  */
 381:Lib/AI_Runtime/Npu/ll_aton/ll_aton.c **** int LL_ATON_DisableUnits_Init(const LL_ATON_DisableUnits_InitTypeDef *LL_ATON_DisableUnits_InitStru
 382:Lib/AI_Runtime/Npu/ll_aton/ll_aton.c **** {
 383:Lib/AI_Runtime/Npu/ll_aton/ll_aton.c ****   int i;
 384:Lib/AI_Runtime/Npu/ll_aton/ll_aton.c ****   enum AccelUnitsType unitType;
 385:Lib/AI_Runtime/Npu/ll_aton/ll_aton.c ****   uint32_t unitId;
 386:Lib/AI_Runtime/Npu/ll_aton/ll_aton.c ****   uint32_t t;
 387:Lib/AI_Runtime/Npu/ll_aton/ll_aton.c **** 
 388:Lib/AI_Runtime/Npu/ll_aton/ll_aton.c ****   for (i = 0; i < n; i++)
 389:Lib/AI_Runtime/Npu/ll_aton/ll_aton.c ****   {
 390:Lib/AI_Runtime/Npu/ll_aton/ll_aton.c ****     unitType = LL_ATON_DisableUnits_InitStruct[i].unit.unit_type;
 391:Lib/AI_Runtime/Npu/ll_aton/ll_aton.c ****     unitId = LL_ATON_DisableUnits_InitStruct[i].unit.unit_num;
 392:Lib/AI_Runtime/Npu/ll_aton/ll_aton.c **** 
 393:Lib/AI_Runtime/Npu/ll_aton/ll_aton.c ****     switch (unitType)
 394:Lib/AI_Runtime/Npu/ll_aton/ll_aton.c ****     {
 395:Lib/AI_Runtime/Npu/ll_aton/ll_aton.c **** #ifdef ATON_STRENG_NUM
 396:Lib/AI_Runtime/Npu/ll_aton/ll_aton.c ****     case STRENG:
 397:Lib/AI_Runtime/Npu/ll_aton/ll_aton.c ****       ATON_DISABLE_CLR_CONFCLR(STRENG, unitId);
 398:Lib/AI_Runtime/Npu/ll_aton/ll_aton.c ****       LL_ATON_DisableClock(ATON_STRENG_CLKB_CLK(unitId));
 399:Lib/AI_Runtime/Npu/ll_aton/ll_aton.c ****       break;
 400:Lib/AI_Runtime/Npu/ll_aton/ll_aton.c **** #endif
 401:Lib/AI_Runtime/Npu/ll_aton/ll_aton.c **** 
 402:Lib/AI_Runtime/Npu/ll_aton/ll_aton.c **** #ifdef ATON_CONVACC_NUM
 403:Lib/AI_Runtime/Npu/ll_aton/ll_aton.c ****     case CONVACC:
 404:Lib/AI_Runtime/Npu/ll_aton/ll_aton.c ****       ATON_DISABLE_CLR_CONFCLR(CONVACC, unitId);
 405:Lib/AI_Runtime/Npu/ll_aton/ll_aton.c ****       LL_ATON_DisableClock(ATON_CONVACC_CLKB_CLK(unitId));
 406:Lib/AI_Runtime/Npu/ll_aton/ll_aton.c ****       break;
 407:Lib/AI_Runtime/Npu/ll_aton/ll_aton.c **** #endif
 408:Lib/AI_Runtime/Npu/ll_aton/ll_aton.c **** 
 409:Lib/AI_Runtime/Npu/ll_aton/ll_aton.c **** #ifdef ATON_DECUN_NUM
 410:Lib/AI_Runtime/Npu/ll_aton/ll_aton.c ****     case DECUN:
 411:Lib/AI_Runtime/Npu/ll_aton/ll_aton.c ****       ATON_DISABLE_CLR_CONFCLR(DECUN, unitId);
 412:Lib/AI_Runtime/Npu/ll_aton/ll_aton.c ****       LL_ATON_DisableClock(ATON_DECUN_CLKB_CLK(unitId));
 413:Lib/AI_Runtime/Npu/ll_aton/ll_aton.c ****       break;
 414:Lib/AI_Runtime/Npu/ll_aton/ll_aton.c **** #endif
 415:Lib/AI_Runtime/Npu/ll_aton/ll_aton.c **** 
 416:Lib/AI_Runtime/Npu/ll_aton/ll_aton.c **** #ifdef ATON_ACTIV_NUM
 417:Lib/AI_Runtime/Npu/ll_aton/ll_aton.c ****     case ACTIV:
 418:Lib/AI_Runtime/Npu/ll_aton/ll_aton.c ****       ATON_DISABLE_CLR_CONFCLR(ACTIV, unitId);
 419:Lib/AI_Runtime/Npu/ll_aton/ll_aton.c ****       LL_ATON_DisableClock(ATON_ACTIV_CLKB_CLK(unitId));
 420:Lib/AI_Runtime/Npu/ll_aton/ll_aton.c ****       break;
 421:Lib/AI_Runtime/Npu/ll_aton/ll_aton.c **** #endif
 422:Lib/AI_Runtime/Npu/ll_aton/ll_aton.c **** 
 423:Lib/AI_Runtime/Npu/ll_aton/ll_aton.c **** #ifdef ATON_ARITH_NUM
 424:Lib/AI_Runtime/Npu/ll_aton/ll_aton.c ****     case ARITH:
ARM GAS  /tmp/ccgbPSBw.s 			page 9


 425:Lib/AI_Runtime/Npu/ll_aton/ll_aton.c ****       ATON_DISABLE_CLR_CONFCLR(ARITH, unitId);
 426:Lib/AI_Runtime/Npu/ll_aton/ll_aton.c ****       LL_ATON_DisableClock(ATON_ARITH_CLKB_CLK(unitId));
 427:Lib/AI_Runtime/Npu/ll_aton/ll_aton.c ****       break;
 428:Lib/AI_Runtime/Npu/ll_aton/ll_aton.c **** #endif
 429:Lib/AI_Runtime/Npu/ll_aton/ll_aton.c **** 
 430:Lib/AI_Runtime/Npu/ll_aton/ll_aton.c **** #ifdef ATON_POOL_NUM
 431:Lib/AI_Runtime/Npu/ll_aton/ll_aton.c ****     case POOL:
 432:Lib/AI_Runtime/Npu/ll_aton/ll_aton.c **** #ifdef POOL_RC14
 433:Lib/AI_Runtime/Npu/ll_aton/ll_aton.c ****       ATON_POOL_CTRL_SET(unitId, ATON_POOL_CTRL_SET_EN(ATON_POOL_CTRL_GET(unitId), 0));
 434:Lib/AI_Runtime/Npu/ll_aton/ll_aton.c **** #else  // !POOL_RC14
 435:Lib/AI_Runtime/Npu/ll_aton/ll_aton.c ****       ATON_DISABLE_CLR_CONFCLR(POOL, unitId);
 436:Lib/AI_Runtime/Npu/ll_aton/ll_aton.c **** #endif // !POOL_RC14
 437:Lib/AI_Runtime/Npu/ll_aton/ll_aton.c **** 
 438:Lib/AI_Runtime/Npu/ll_aton/ll_aton.c ****       LL_ATON_DisableClock(ATON_POOL_CLKB_CLK(unitId));
 439:Lib/AI_Runtime/Npu/ll_aton/ll_aton.c ****       break;
 440:Lib/AI_Runtime/Npu/ll_aton/ll_aton.c **** #endif
 441:Lib/AI_Runtime/Npu/ll_aton/ll_aton.c **** 
 442:Lib/AI_Runtime/Npu/ll_aton/ll_aton.c **** #ifdef ATON_RECBUF_NUM
 443:Lib/AI_Runtime/Npu/ll_aton/ll_aton.c ****     case RECBUF:
 444:Lib/AI_Runtime/Npu/ll_aton/ll_aton.c ****       ATON_DISABLE_CLR_CONFCLR(RECBUF, unitId);
 445:Lib/AI_Runtime/Npu/ll_aton/ll_aton.c ****       LL_ATON_DisableClock(ATON_RECBUF_CLKB_CLK(unitId));
 446:Lib/AI_Runtime/Npu/ll_aton/ll_aton.c ****       break;
 447:Lib/AI_Runtime/Npu/ll_aton/ll_aton.c **** #endif
 448:Lib/AI_Runtime/Npu/ll_aton/ll_aton.c **** 
 449:Lib/AI_Runtime/Npu/ll_aton/ll_aton.c ****     default:
 450:Lib/AI_Runtime/Npu/ll_aton/ll_aton.c ****       return LL_ATON_INVALID_PARAM;
 451:Lib/AI_Runtime/Npu/ll_aton/ll_aton.c ****     }
 452:Lib/AI_Runtime/Npu/ll_aton/ll_aton.c ****   }
 453:Lib/AI_Runtime/Npu/ll_aton/ll_aton.c **** 
 454:Lib/AI_Runtime/Npu/ll_aton/ll_aton.c ****   return LL_ATON_OK;
 455:Lib/AI_Runtime/Npu/ll_aton/ll_aton.c **** }
 456:Lib/AI_Runtime/Npu/ll_aton/ll_aton.c **** 
 457:Lib/AI_Runtime/Npu/ll_aton/ll_aton.c **** /**
 458:Lib/AI_Runtime/Npu/ll_aton/ll_aton.c ****  * @brief  Waits for streaming engine(s) to become idle
 459:Lib/AI_Runtime/Npu/ll_aton/ll_aton.c ****  * @param  mask Bitmask of DMA identifiers
 460:Lib/AI_Runtime/Npu/ll_aton/ll_aton.c ****  * @retval Error code
 461:Lib/AI_Runtime/Npu/ll_aton/ll_aton.c ****  */
 462:Lib/AI_Runtime/Npu/ll_aton/ll_aton.c **** int LL_Streng_Wait(uint32_t mask)
 463:Lib/AI_Runtime/Npu/ll_aton/ll_aton.c **** {
 464:Lib/AI_Runtime/Npu/ll_aton/ll_aton.c ****   int i;
 465:Lib/AI_Runtime/Npu/ll_aton/ll_aton.c ****   uint32_t enableFlags;
 466:Lib/AI_Runtime/Npu/ll_aton/ll_aton.c **** 
 467:Lib/AI_Runtime/Npu/ll_aton/ll_aton.c ****   startWatchdog(ATON_EPOCH_TIMEOUT);
 468:Lib/AI_Runtime/Npu/ll_aton/ll_aton.c **** 
 469:Lib/AI_Runtime/Npu/ll_aton/ll_aton.c ****   do
 470:Lib/AI_Runtime/Npu/ll_aton/ll_aton.c ****   {
 471:Lib/AI_Runtime/Npu/ll_aton/ll_aton.c ****     enableFlags = 0;
 472:Lib/AI_Runtime/Npu/ll_aton/ll_aton.c ****     for (i = 0; i < ATON_STRENG_NUM; i++)
 473:Lib/AI_Runtime/Npu/ll_aton/ll_aton.c ****     {
 474:Lib/AI_Runtime/Npu/ll_aton/ll_aton.c ****       if (mask & (1 << i))
 475:Lib/AI_Runtime/Npu/ll_aton/ll_aton.c ****       {
 476:Lib/AI_Runtime/Npu/ll_aton/ll_aton.c ****         enableFlags |= (ATON_STRENG_CTRL_GET(i) & (1U << ATON_STRENG_CTRL_RUNNING_LSB));
 477:Lib/AI_Runtime/Npu/ll_aton/ll_aton.c ****       }
 478:Lib/AI_Runtime/Npu/ll_aton/ll_aton.c ****     }
 479:Lib/AI_Runtime/Npu/ll_aton/ll_aton.c **** 
 480:Lib/AI_Runtime/Npu/ll_aton/ll_aton.c ****     LL_ATON_ASSERT(checkWatchdog() == 0);
 481:Lib/AI_Runtime/Npu/ll_aton/ll_aton.c **** 
ARM GAS  /tmp/ccgbPSBw.s 			page 10


 482:Lib/AI_Runtime/Npu/ll_aton/ll_aton.c ****   } while (enableFlags);
 483:Lib/AI_Runtime/Npu/ll_aton/ll_aton.c **** 
 484:Lib/AI_Runtime/Npu/ll_aton/ll_aton.c ****   return LL_ATON_OK;
 485:Lib/AI_Runtime/Npu/ll_aton/ll_aton.c **** }
 486:Lib/AI_Runtime/Npu/ll_aton/ll_aton.c **** 
 487:Lib/AI_Runtime/Npu/ll_aton/ll_aton.c **** /**
 488:Lib/AI_Runtime/Npu/ll_aton/ll_aton.c ****  * @brief  Configures streaming engine
 489:Lib/AI_Runtime/Npu/ll_aton/ll_aton.c ****  * @param  id Streaming engine identifier [0..ATON_STRENG_NUM-1]
 490:Lib/AI_Runtime/Npu/ll_aton/ll_aton.c ****  * @param  conf Pointer to structure(s) describing initialization parameters
 491:Lib/AI_Runtime/Npu/ll_aton/ll_aton.c ****  * @param  n Number of elements in initialization structure array
 492:Lib/AI_Runtime/Npu/ll_aton/ll_aton.c ****  * @retval error code. E.g.: Invalid ID, invalid parameters, not idle,..
 493:Lib/AI_Runtime/Npu/ll_aton/ll_aton.c ****  */
 494:Lib/AI_Runtime/Npu/ll_aton/ll_aton.c **** int LL_Streng_TensorInit(int id, const LL_Streng_TensorInitTypeDef *conf, int n)
 495:Lib/AI_Runtime/Npu/ll_aton/ll_aton.c **** {
 496:Lib/AI_Runtime/Npu/ll_aton/ll_aton.c ****   uint32_t t;
 497:Lib/AI_Runtime/Npu/ll_aton/ll_aton.c **** 
 498:Lib/AI_Runtime/Npu/ll_aton/ll_aton.c ****   /* deferred register values */
 499:Lib/AI_Runtime/Npu/ll_aton/ll_aton.c ****   uint32_t t_streng_strd = ATON_STRENG_STRD_DT;
 500:Lib/AI_Runtime/Npu/ll_aton/ll_aton.c ****   uint32_t t_streng_cid_cache = ATON_STRENG_CID_CACHE_DT;
 501:Lib/AI_Runtime/Npu/ll_aton/ll_aton.c ****   uint32_t t_streng_event = ATON_STRENG_EVENT_DT;
 502:Lib/AI_Runtime/Npu/ll_aton/ll_aton.c **** 
 503:Lib/AI_Runtime/Npu/ll_aton/ll_aton.c ****   if (id >= ATON_STRENG_NUM)
 504:Lib/AI_Runtime/Npu/ll_aton/ll_aton.c ****     return LL_ATON_INVALID_ID;
 505:Lib/AI_Runtime/Npu/ll_aton/ll_aton.c **** 
 506:Lib/AI_Runtime/Npu/ll_aton/ll_aton.c ****   LL_ATON_EnableClock(ATON_STRENG_CLKB_CLK(id));
 507:Lib/AI_Runtime/Npu/ll_aton/ll_aton.c **** 
 508:Lib/AI_Runtime/Npu/ll_aton/ll_aton.c **** #define _LL_min(x, y) ((x) > (y) ? (y) : (x))
 509:Lib/AI_Runtime/Npu/ll_aton/ll_aton.c **** 
 510:Lib/AI_Runtime/Npu/ll_aton/ll_aton.c ****   if (n != 1)
 511:Lib/AI_Runtime/Npu/ll_aton/ll_aton.c ****     return -1;
 512:Lib/AI_Runtime/Npu/ll_aton/ll_aton.c ****     // if (conf->dir == 0 && (conf->nbits_in > conf->nbits_out)) return -1;
 513:Lib/AI_Runtime/Npu/ll_aton/ll_aton.c **** #ifndef ATON_IMC_NUM
 514:Lib/AI_Runtime/Npu/ll_aton/ll_aton.c ****   if (conf->nbits_in > 24 || conf->nbits_out > 24)
 515:Lib/AI_Runtime/Npu/ll_aton/ll_aton.c ****     return -1;
 516:Lib/AI_Runtime/Npu/ll_aton/ll_aton.c **** #endif
 517:Lib/AI_Runtime/Npu/ll_aton/ll_aton.c **** 
 518:Lib/AI_Runtime/Npu/ll_aton/ll_aton.c ****   t = ATON_STRENG_CTRL_DT;
 519:Lib/AI_Runtime/Npu/ll_aton/ll_aton.c ****   t = ATON_STRENG_CTRL_SET_DIR(t, (conf->dir != 0));
 520:Lib/AI_Runtime/Npu/ll_aton/ll_aton.c ****   t = ATON_STRENG_CTRL_SET_RAW(t, (conf->raw != 0));
 521:Lib/AI_Runtime/Npu/ll_aton/ll_aton.c **** #ifdef ATON_STRENG_CTRL_SET_RAW_OUT
 522:Lib/AI_Runtime/Npu/ll_aton/ll_aton.c ****   t = ATON_STRENG_CTRL_SET_RAW_OUT(t, conf->raw_out);
 523:Lib/AI_Runtime/Npu/ll_aton/ll_aton.c **** #else
 524:Lib/AI_Runtime/Npu/ll_aton/ll_aton.c ****   /* Hardware feature not supported */
 525:Lib/AI_Runtime/Npu/ll_aton/ll_aton.c ****   LL_ATON_ASSERT(conf->raw_out == 0);
 526:Lib/AI_Runtime/Npu/ll_aton/ll_aton.c **** #endif
 527:Lib/AI_Runtime/Npu/ll_aton/ll_aton.c ****   t = ATON_STRENG_CTRL_SET_NOBLK(t, (conf->noblk != 0));
 528:Lib/AI_Runtime/Npu/ll_aton/ll_aton.c ****   t = ATON_STRENG_CTRL_SET_NOINC(t, (conf->noinc == 1));
 529:Lib/AI_Runtime/Npu/ll_aton/ll_aton.c ****   t = ATON_STRENG_CTRL_SET_SINGLE(t, conf->frame_tot_cnt == 1);
 530:Lib/AI_Runtime/Npu/ll_aton/ll_aton.c ****   t = ATON_STRENG_CTRL_SET_CONT(t, conf->continuous == 1);
 531:Lib/AI_Runtime/Npu/ll_aton/ll_aton.c ****   t = ATON_STRENG_CTRL_SET_LSBMODE(t, conf->align_right == 1);
 532:Lib/AI_Runtime/Npu/ll_aton/ll_aton.c ****   t = ATON_STRENG_CTRL_SET_SIGNEXT(t, conf->align_right == 1 && conf->nbits_unsigned == 0);
 533:Lib/AI_Runtime/Npu/ll_aton/ll_aton.c **** 
 534:Lib/AI_Runtime/Npu/ll_aton/ll_aton.c ****   int ch_bits[3] = {0, 0, 0};
 535:Lib/AI_Runtime/Npu/ll_aton/ll_aton.c ****   int in_bits[3];
 536:Lib/AI_Runtime/Npu/ll_aton/ll_aton.c ****   int out_bits[3];
 537:Lib/AI_Runtime/Npu/ll_aton/ll_aton.c ****   int nbits_out = conf->nbits_out;
 538:Lib/AI_Runtime/Npu/ll_aton/ll_aton.c ****   int nbits_in = conf->nbits_in;
ARM GAS  /tmp/ccgbPSBw.s 			page 11


 539:Lib/AI_Runtime/Npu/ll_aton/ll_aton.c **** 
 540:Lib/AI_Runtime/Npu/ll_aton/ll_aton.c ****   // case 0: bus -> stream --> in_bits > out_bits -> use FRONT_GAP
 541:Lib/AI_Runtime/Npu/ll_aton/ll_aton.c ****   //                      |
 542:Lib/AI_Runtime/Npu/ll_aton/ll_aton.c ****   // case 1:              --> in_bits <= out_bits -> use lanes but valid for out_bits=8,16,24 for o
 543:Lib/AI_Runtime/Npu/ll_aton/ll_aton.c ****   // is right shifted by (8,16,24) - out_bits
 544:Lib/AI_Runtime/Npu/ll_aton/ll_aton.c ****   //
 545:Lib/AI_Runtime/Npu/ll_aton/ll_aton.c ****   // case 2: stream->bus  --> in_bits >= out_bits -> use lanes but valid for in_bits=8,16,24 for ot
 546:Lib/AI_Runtime/Npu/ll_aton/ll_aton.c ****   // right shifted by (8,16,24) - out_bits
 547:Lib/AI_Runtime/Npu/ll_aton/ll_aton.c ****   //                      |
 548:Lib/AI_Runtime/Npu/ll_aton/ll_aton.c ****   // case 3:              --> in_bits < out_bits -> use FRONT_GAP
 549:Lib/AI_Runtime/Npu/ll_aton/ll_aton.c **** 
 550:Lib/AI_Runtime/Npu/ll_aton/ll_aton.c ****   int io_case = ((conf->dir != 0) << 1);
 551:Lib/AI_Runtime/Npu/ll_aton/ll_aton.c ****   io_case += (conf->dir == 0 ? (conf->nbits_in <= conf->nbits_out) : (conf->nbits_in < conf->nbits_
 552:Lib/AI_Runtime/Npu/ll_aton/ll_aton.c **** 
 553:Lib/AI_Runtime/Npu/ll_aton/ll_aton.c ****   switch (io_case)
 554:Lib/AI_Runtime/Npu/ll_aton/ll_aton.c ****   {
 555:Lib/AI_Runtime/Npu/ll_aton/ll_aton.c ****   case 0: // in_bits > out_bits && bus->stream
 556:Lib/AI_Runtime/Npu/ll_aton/ll_aton.c ****           // must use FRONT_GAP
 557:Lib/AI_Runtime/Npu/ll_aton/ll_aton.c ****   {
 558:Lib/AI_Runtime/Npu/ll_aton/ll_aton.c ****     if (conf->mem_lsb)
 559:Lib/AI_Runtime/Npu/ll_aton/ll_aton.c ****       t_streng_strd = ATON_STRENG_STRD_SET_FGAP(t_streng_strd, (nbits_in - nbits_out));
 560:Lib/AI_Runtime/Npu/ll_aton/ll_aton.c ****     else
 561:Lib/AI_Runtime/Npu/ll_aton/ll_aton.c ****       t_streng_strd = ATON_STRENG_STRD_SET_BGAP(t_streng_strd, (nbits_in - nbits_out));
 562:Lib/AI_Runtime/Npu/ll_aton/ll_aton.c ****     nbits_in = nbits_out;
 563:Lib/AI_Runtime/Npu/ll_aton/ll_aton.c ****   }
 564:Lib/AI_Runtime/Npu/ll_aton/ll_aton.c ****   // intentional fall through
 565:Lib/AI_Runtime/Npu/ll_aton/ll_aton.c ****   case 1: // in_bits <= out_bits && bus->stream
 566:Lib/AI_Runtime/Npu/ll_aton/ll_aton.c ****     in_bits[0] = _LL_min(8, nbits_in);
 567:Lib/AI_Runtime/Npu/ll_aton/ll_aton.c ****     in_bits[1] = nbits_in > 8 ? _LL_min(8, nbits_in - 8) : 0;
 568:Lib/AI_Runtime/Npu/ll_aton/ll_aton.c ****     in_bits[2] = nbits_in > 16 ? _LL_min(8, nbits_in - 16) : 0;
 569:Lib/AI_Runtime/Npu/ll_aton/ll_aton.c ****     if (conf->align_right)
 570:Lib/AI_Runtime/Npu/ll_aton/ll_aton.c ****     {
 571:Lib/AI_Runtime/Npu/ll_aton/ll_aton.c ****       ch_bits[0] = in_bits[0];
 572:Lib/AI_Runtime/Npu/ll_aton/ll_aton.c ****       ch_bits[1] = in_bits[1];
 573:Lib/AI_Runtime/Npu/ll_aton/ll_aton.c ****       ch_bits[2] = in_bits[2];
 574:Lib/AI_Runtime/Npu/ll_aton/ll_aton.c ****     }
 575:Lib/AI_Runtime/Npu/ll_aton/ll_aton.c ****     else
 576:Lib/AI_Runtime/Npu/ll_aton/ll_aton.c ****     {
 577:Lib/AI_Runtime/Npu/ll_aton/ll_aton.c ****       if (nbits_out > 16)
 578:Lib/AI_Runtime/Npu/ll_aton/ll_aton.c ****       {
 579:Lib/AI_Runtime/Npu/ll_aton/ll_aton.c ****         ch_bits[2] = in_bits[0];
 580:Lib/AI_Runtime/Npu/ll_aton/ll_aton.c ****         ch_bits[1] = in_bits[1];
 581:Lib/AI_Runtime/Npu/ll_aton/ll_aton.c ****         ch_bits[0] = in_bits[2];
 582:Lib/AI_Runtime/Npu/ll_aton/ll_aton.c ****       }
 583:Lib/AI_Runtime/Npu/ll_aton/ll_aton.c ****       else if (nbits_out > 8)
 584:Lib/AI_Runtime/Npu/ll_aton/ll_aton.c ****       {
 585:Lib/AI_Runtime/Npu/ll_aton/ll_aton.c ****         ch_bits[1] = in_bits[0];
 586:Lib/AI_Runtime/Npu/ll_aton/ll_aton.c ****         ch_bits[0] = in_bits[1];
 587:Lib/AI_Runtime/Npu/ll_aton/ll_aton.c ****       } // N.B. the DMA stuffs the bits to the left of the channel
 588:Lib/AI_Runtime/Npu/ll_aton/ll_aton.c ****       else
 589:Lib/AI_Runtime/Npu/ll_aton/ll_aton.c ****         ch_bits[0] = in_bits[0];
 590:Lib/AI_Runtime/Npu/ll_aton/ll_aton.c ****     }
 591:Lib/AI_Runtime/Npu/ll_aton/ll_aton.c ****     break;
 592:Lib/AI_Runtime/Npu/ll_aton/ll_aton.c ****   case 3: // in_bits < out_bits && stream->bus
 593:Lib/AI_Runtime/Npu/ll_aton/ll_aton.c ****   {
 594:Lib/AI_Runtime/Npu/ll_aton/ll_aton.c ****     if (conf->mem_lsb)
 595:Lib/AI_Runtime/Npu/ll_aton/ll_aton.c ****       t_streng_strd = ATON_STRENG_STRD_SET_FGAP(t_streng_strd, (nbits_out - nbits_in));
ARM GAS  /tmp/ccgbPSBw.s 			page 12


 596:Lib/AI_Runtime/Npu/ll_aton/ll_aton.c ****     else
 597:Lib/AI_Runtime/Npu/ll_aton/ll_aton.c ****       t_streng_strd = ATON_STRENG_STRD_SET_BGAP(t_streng_strd, (nbits_out - nbits_in));
 598:Lib/AI_Runtime/Npu/ll_aton/ll_aton.c ****     nbits_out = nbits_in;
 599:Lib/AI_Runtime/Npu/ll_aton/ll_aton.c ****   }
 600:Lib/AI_Runtime/Npu/ll_aton/ll_aton.c ****   // intentional fall through
 601:Lib/AI_Runtime/Npu/ll_aton/ll_aton.c ****   case 2: // in_bits >= out_bits && stream->bus
 602:Lib/AI_Runtime/Npu/ll_aton/ll_aton.c ****     out_bits[0] = _LL_min(8, nbits_out);
 603:Lib/AI_Runtime/Npu/ll_aton/ll_aton.c ****     out_bits[1] = nbits_out > 8 ? _LL_min(8, nbits_out - 8) : 0;
 604:Lib/AI_Runtime/Npu/ll_aton/ll_aton.c ****     out_bits[2] = nbits_out > 16 ? _LL_min(8, nbits_out - 16) : 0;
 605:Lib/AI_Runtime/Npu/ll_aton/ll_aton.c ****     if (conf->align_right)
 606:Lib/AI_Runtime/Npu/ll_aton/ll_aton.c ****     {
 607:Lib/AI_Runtime/Npu/ll_aton/ll_aton.c ****       ch_bits[0] = out_bits[0];
 608:Lib/AI_Runtime/Npu/ll_aton/ll_aton.c ****       ch_bits[1] = out_bits[1];
 609:Lib/AI_Runtime/Npu/ll_aton/ll_aton.c ****       ch_bits[2] = out_bits[2];
 610:Lib/AI_Runtime/Npu/ll_aton/ll_aton.c ****     }
 611:Lib/AI_Runtime/Npu/ll_aton/ll_aton.c ****     else
 612:Lib/AI_Runtime/Npu/ll_aton/ll_aton.c ****     {
 613:Lib/AI_Runtime/Npu/ll_aton/ll_aton.c ****       if (nbits_in > 16)
 614:Lib/AI_Runtime/Npu/ll_aton/ll_aton.c ****       {
 615:Lib/AI_Runtime/Npu/ll_aton/ll_aton.c ****         ch_bits[2] = out_bits[0];
 616:Lib/AI_Runtime/Npu/ll_aton/ll_aton.c ****         ch_bits[1] = out_bits[1];
 617:Lib/AI_Runtime/Npu/ll_aton/ll_aton.c ****         ch_bits[0] = out_bits[2];
 618:Lib/AI_Runtime/Npu/ll_aton/ll_aton.c ****       }
 619:Lib/AI_Runtime/Npu/ll_aton/ll_aton.c ****       else if (nbits_in > 8)
 620:Lib/AI_Runtime/Npu/ll_aton/ll_aton.c ****       {
 621:Lib/AI_Runtime/Npu/ll_aton/ll_aton.c ****         ch_bits[1] = out_bits[0];
 622:Lib/AI_Runtime/Npu/ll_aton/ll_aton.c ****         ch_bits[0] = out_bits[1];
 623:Lib/AI_Runtime/Npu/ll_aton/ll_aton.c ****       } // N.B. the DMA stuffs the bits to the left of the channel
 624:Lib/AI_Runtime/Npu/ll_aton/ll_aton.c ****       else
 625:Lib/AI_Runtime/Npu/ll_aton/ll_aton.c ****         ch_bits[0] = out_bits[0];
 626:Lib/AI_Runtime/Npu/ll_aton/ll_aton.c ****     }
 627:Lib/AI_Runtime/Npu/ll_aton/ll_aton.c ****     break;
 628:Lib/AI_Runtime/Npu/ll_aton/ll_aton.c ****   }
 629:Lib/AI_Runtime/Npu/ll_aton/ll_aton.c **** 
 630:Lib/AI_Runtime/Npu/ll_aton/ll_aton.c **** /* Take care of N64 single size register. TODO: double check this  */
 631:Lib/AI_Runtime/Npu/ll_aton/ll_aton.c **** #ifdef ATON_STRENG_CTRL_SET_SIZE1
 632:Lib/AI_Runtime/Npu/ll_aton/ll_aton.c ****   t = ATON_STRENG_CTRL_SET_SIZE0(t, ch_bits[0]);
 633:Lib/AI_Runtime/Npu/ll_aton/ll_aton.c ****   t = ATON_STRENG_CTRL_SET_SIZE1(t, ch_bits[1]);
 634:Lib/AI_Runtime/Npu/ll_aton/ll_aton.c ****   t = ATON_STRENG_CTRL_SET_SIZE2(t, ch_bits[2]);
 635:Lib/AI_Runtime/Npu/ll_aton/ll_aton.c **** #else
 636:Lib/AI_Runtime/Npu/ll_aton/ll_aton.c ****   if (conf->dir)
 637:Lib/AI_Runtime/Npu/ll_aton/ll_aton.c ****     t = ATON_STRENG_CTRL_SET_SIZE0(t, conf->nbits_out);
 638:Lib/AI_Runtime/Npu/ll_aton/ll_aton.c ****   else
 639:Lib/AI_Runtime/Npu/ll_aton/ll_aton.c ****     t = ATON_STRENG_CTRL_SET_SIZE0(t, conf->nbits_in);
 640:Lib/AI_Runtime/Npu/ll_aton/ll_aton.c **** #endif
 641:Lib/AI_Runtime/Npu/ll_aton/ll_aton.c **** 
 642:Lib/AI_Runtime/Npu/ll_aton/ll_aton.c ****   ATON_STRENG_CTRL_SET(id, t);
 643:Lib/AI_Runtime/Npu/ll_aton/ll_aton.c **** 
 644:Lib/AI_Runtime/Npu/ll_aton/ll_aton.c ****   // ATON_STRENG_ADDR_SET(id, conf->addr_start.i);
 645:Lib/AI_Runtime/Npu/ll_aton/ll_aton.c ****   ATON_REG_WRITE_RELOC(((volatile uint32_t *)(uintptr_t)ATON_STRENG_ADDR_ADDR(id)), conf->addr_base
 646:Lib/AI_Runtime/Npu/ll_aton/ll_aton.c ****                        conf->offset_start);
 647:Lib/AI_Runtime/Npu/ll_aton/ll_aton.c **** 
 648:Lib/AI_Runtime/Npu/ll_aton/ll_aton.c ****   if (conf->raw)
 649:Lib/AI_Runtime/Npu/ll_aton/ll_aton.c ****   {
 650:Lib/AI_Runtime/Npu/ll_aton/ll_aton.c ****     if (conf->frame_count)
 651:Lib/AI_Runtime/Npu/ll_aton/ll_aton.c ****       t = conf->frame_count;
 652:Lib/AI_Runtime/Npu/ll_aton/ll_aton.c ****     else
ARM GAS  /tmp/ccgbPSBw.s 			page 13


 653:Lib/AI_Runtime/Npu/ll_aton/ll_aton.c ****     {
 654:Lib/AI_Runtime/Npu/ll_aton/ll_aton.c ****       // N.B. end - start must contain padding if nbits_in is not power of two
 655:Lib/AI_Runtime/Npu/ll_aton/ll_aton.c ****       t = (LL_Streng_len(conf) * 8) / (conf->dir == 0 ? conf->nbits_in : conf->nbits_out);
 656:Lib/AI_Runtime/Npu/ll_aton/ll_aton.c ****     }
 657:Lib/AI_Runtime/Npu/ll_aton/ll_aton.c ****     ATON_STRENG_FSIZE_SET(id, t);
 658:Lib/AI_Runtime/Npu/ll_aton/ll_aton.c ****   }
 659:Lib/AI_Runtime/Npu/ll_aton/ll_aton.c ****   else
 660:Lib/AI_Runtime/Npu/ll_aton/ll_aton.c ****   {
 661:Lib/AI_Runtime/Npu/ll_aton/ll_aton.c ****     t = ATON_STRENG_FSIZE_DT;
 662:Lib/AI_Runtime/Npu/ll_aton/ll_aton.c ****     t = ATON_STRENG_FSIZE_SET_WIDTH(t, conf->fwidth);
 663:Lib/AI_Runtime/Npu/ll_aton/ll_aton.c ****     t = ATON_STRENG_FSIZE_SET_HEIGHT(t, conf->fheight);
 664:Lib/AI_Runtime/Npu/ll_aton/ll_aton.c ****     ATON_STRENG_FSIZE_SET(id, t);
 665:Lib/AI_Runtime/Npu/ll_aton/ll_aton.c **** 
 666:Lib/AI_Runtime/Npu/ll_aton/ll_aton.c ****     uint32_t line_offset = conf->line_offset == 0 ? conf->fwidth * conf->batch_offset : conf->line_
 667:Lib/AI_Runtime/Npu/ll_aton/ll_aton.c ****     // if line_offset is left=0 then it's computed from the standard geometry of lines and batch
 668:Lib/AI_Runtime/Npu/ll_aton/ll_aton.c ****     t_streng_strd = ATON_STRENG_STRD_SET_LOFF(t_streng_strd, line_offset);
 669:Lib/AI_Runtime/Npu/ll_aton/ll_aton.c **** 
 670:Lib/AI_Runtime/Npu/ll_aton/ll_aton.c **** #if defined(ATON_STRENG_CID_CACHE_SET_LOFF_MSB)
 671:Lib/AI_Runtime/Npu/ll_aton/ll_aton.c ****     t = t_streng_cid_cache;
 672:Lib/AI_Runtime/Npu/ll_aton/ll_aton.c ****     t = ATON_STRENG_CID_CACHE_SET_LOFF_MSB(t, (line_offset >> ATON_STRENG_STRD_LOFF_W));
 673:Lib/AI_Runtime/Npu/ll_aton/ll_aton.c ****     t_streng_cid_cache = t;
 674:Lib/AI_Runtime/Npu/ll_aton/ll_aton.c **** #endif
 675:Lib/AI_Runtime/Npu/ll_aton/ll_aton.c **** 
 676:Lib/AI_Runtime/Npu/ll_aton/ll_aton.c ****     t = ATON_STRENG_DEPTH_DT;
 677:Lib/AI_Runtime/Npu/ll_aton/ll_aton.c ****     t = ATON_STRENG_DEPTH_SET_SIZE(t, conf->batch_depth);
 678:Lib/AI_Runtime/Npu/ll_aton/ll_aton.c ****     t = ATON_STRENG_DEPTH_SET_OFFSET(t, conf->batch_offset);
 679:Lib/AI_Runtime/Npu/ll_aton/ll_aton.c ****     ATON_STRENG_DEPTH_SET(id, t);
 680:Lib/AI_Runtime/Npu/ll_aton/ll_aton.c ****   }
 681:Lib/AI_Runtime/Npu/ll_aton/ll_aton.c **** 
 682:Lib/AI_Runtime/Npu/ll_aton/ll_aton.c ****   ATON_STRENG_FOFFSET_SET(id, conf->frame_offset);
 683:Lib/AI_Runtime/Npu/ll_aton/ll_aton.c **** 
 684:Lib/AI_Runtime/Npu/ll_aton/ll_aton.c ****   /* Frame repetition loop configuration */
 685:Lib/AI_Runtime/Npu/ll_aton/ll_aton.c ****   ATON_STRENG_FRPTOFF_SET(id, conf->loop_offset);
 686:Lib/AI_Runtime/Npu/ll_aton/ll_aton.c ****   ATON_STRENG_FRAME_RPT_SET(id, conf->frame_loop_cnt);
 687:Lib/AI_Runtime/Npu/ll_aton/ll_aton.c **** 
 688:Lib/AI_Runtime/Npu/ll_aton/ll_aton.c ****   /* Second level frame repetition loop configuration (if available) */
 689:Lib/AI_Runtime/Npu/ll_aton/ll_aton.c **** #ifdef ATON_STRENG_FRAME_RPT2_DT
 690:Lib/AI_Runtime/Npu/ll_aton/ll_aton.c ****   if (conf->frame_loop_cnt2 != ATON_STRENG_FRAME_RPT2_DT)
 691:Lib/AI_Runtime/Npu/ll_aton/ll_aton.c ****     ATON_STRENG_FRAME_RPT2_SET(id, conf->frame_loop_cnt2);
 692:Lib/AI_Runtime/Npu/ll_aton/ll_aton.c ****   if (conf->loop_offset2 != ATON_STRENG_FRPTOFF2_DT)
 693:Lib/AI_Runtime/Npu/ll_aton/ll_aton.c ****     ATON_STRENG_FRPTOFF2_SET(id, conf->loop_offset2);
 694:Lib/AI_Runtime/Npu/ll_aton/ll_aton.c **** #endif
 695:Lib/AI_Runtime/Npu/ll_aton/ll_aton.c **** 
 696:Lib/AI_Runtime/Npu/ll_aton/ll_aton.c ****   t = ATON_STRENG_LIMITEN_DT; // all other fields set to zero
 697:Lib/AI_Runtime/Npu/ll_aton/ll_aton.c ****   t = ATON_STRENG_LIMITEN_SET_FRAMELIMIT(t, 1);
 698:Lib/AI_Runtime/Npu/ll_aton/ll_aton.c **** #if defined(ATON_STRENG_LIMITEN_SET_DOFF_MSB)
 699:Lib/AI_Runtime/Npu/ll_aton/ll_aton.c ****   t = ATON_STRENG_LIMITEN_SET_DOFF_MSB(t, conf->batch_offset >> ATON_STRENG_DEPTH_OFFSET_W);
 700:Lib/AI_Runtime/Npu/ll_aton/ll_aton.c **** #endif
 701:Lib/AI_Runtime/Npu/ll_aton/ll_aton.c ****   ATON_STRENG_LIMITEN_SET(id, t);
 702:Lib/AI_Runtime/Npu/ll_aton/ll_aton.c **** 
 703:Lib/AI_Runtime/Npu/ll_aton/ll_aton.c ****   if (/*(conf->dir == 0) && */ (conf->offset_limit != 0x0))
 704:Lib/AI_Runtime/Npu/ll_aton/ll_aton.c ****   {
 705:Lib/AI_Runtime/Npu/ll_aton/ll_aton.c ****     t = ATON_STRENG_LIMITEN_SET_ADDRLIMIT(t, 1);
 706:Lib/AI_Runtime/Npu/ll_aton/ll_aton.c ****     t = ATON_STRENG_LIMITEN_SET_STOPPREFTC(t, 1);
 707:Lib/AI_Runtime/Npu/ll_aton/ll_aton.c ****     ATON_STRENG_LIMITEN_SET(id, t);
 708:Lib/AI_Runtime/Npu/ll_aton/ll_aton.c ****     // NOTE: limiter is to be set to last accessible byte address
 709:Lib/AI_Runtime/Npu/ll_aton/ll_aton.c ****     // ATON_STRENG_LIMITADDR_SET(id, (conf->addr_limit.i - 1));
ARM GAS  /tmp/ccgbPSBw.s 			page 14


 710:Lib/AI_Runtime/Npu/ll_aton/ll_aton.c ****     ATON_REG_WRITE_RELOC(((volatile uint32_t *)(uintptr_t)ATON_STRENG_LIMITADDR_ADDR(id)), conf->ad
 711:Lib/AI_Runtime/Npu/ll_aton/ll_aton.c ****                          conf->offset_limit - 1);
 712:Lib/AI_Runtime/Npu/ll_aton/ll_aton.c ****   }
 713:Lib/AI_Runtime/Npu/ll_aton/ll_aton.c **** 
 714:Lib/AI_Runtime/Npu/ll_aton/ll_aton.c ****   ATON_STRENG_LIMIT_SET(id, conf->frame_tot_cnt);
 715:Lib/AI_Runtime/Npu/ll_aton/ll_aton.c ****   // LL_ATON_PRINTF("frame_tot_cnt=%d\n", conf->frame_tot_cnt);
 716:Lib/AI_Runtime/Npu/ll_aton/ll_aton.c **** 
 717:Lib/AI_Runtime/Npu/ll_aton/ll_aton.c **** #if defined(ATON_STRENG_CID_CACHE_SET_CID)
 718:Lib/AI_Runtime/Npu/ll_aton/ll_aton.c ****   t_streng_cid_cache = ATON_STRENG_CID_CACHE_SET_CID(t_streng_cid_cache, conf->bus_cid);
 719:Lib/AI_Runtime/Npu/ll_aton/ll_aton.c ****   t_streng_cid_cache = ATON_STRENG_CID_CACHE_SET_CACHEABLE(t_streng_cid_cache, conf->cacheable);
 720:Lib/AI_Runtime/Npu/ll_aton/ll_aton.c ****   t_streng_cid_cache = ATON_STRENG_CID_CACHE_SET_ALLOC(t_streng_cid_cache, conf->cache_allocate);
 721:Lib/AI_Runtime/Npu/ll_aton/ll_aton.c ****   t_streng_cid_cache = ATON_STRENG_CID_CACHE_SET_PFETCH(t_streng_cid_cache, conf->bus_pfetch);
 722:Lib/AI_Runtime/Npu/ll_aton/ll_aton.c ****   t_streng_cid_cache = ATON_STRENG_CID_CACHE_SET_LINESIZE(t_streng_cid_cache, conf->cache_linesize)
 723:Lib/AI_Runtime/Npu/ll_aton/ll_aton.c **** #endif
 724:Lib/AI_Runtime/Npu/ll_aton/ll_aton.c **** 
 725:Lib/AI_Runtime/Npu/ll_aton/ll_aton.c ****   /* Enable event interrupts */
 726:Lib/AI_Runtime/Npu/ll_aton/ll_aton.c ****   if (conf->dir == 1)
 727:Lib/AI_Runtime/Npu/ll_aton/ll_aton.c ****   {
 728:Lib/AI_Runtime/Npu/ll_aton/ll_aton.c **** #if LL_ATON_EN_EVENT_IRQ
 729:Lib/AI_Runtime/Npu/ll_aton/ll_aton.c ****     t_streng_event = 0;
 730:Lib/AI_Runtime/Npu/ll_aton/ll_aton.c ****     t_streng_event = ATON_STRENG_EVENT_SET_EN_OFLOW_FRM(t_streng_event, 1); // enable frame overflo
 731:Lib/AI_Runtime/Npu/ll_aton/ll_aton.c **** #if 0
 732:Lib/AI_Runtime/Npu/ll_aton/ll_aton.c ****     t_streng_event = ATON_STRENG_EVENT_SET_EN_OFLOW_ADD(t_streng_event, 1); // enable address limit
 733:Lib/AI_Runtime/Npu/ll_aton/ll_aton.c **** #endif
 734:Lib/AI_Runtime/Npu/ll_aton/ll_aton.c **** #endif // LL_ATON_EN_EVENT_IRQ
 735:Lib/AI_Runtime/Npu/ll_aton/ll_aton.c ****   }
 736:Lib/AI_Runtime/Npu/ll_aton/ll_aton.c **** 
 737:Lib/AI_Runtime/Npu/ll_aton/ll_aton.c ****   /* Enable illegal configuration interrupts */
 738:Lib/AI_Runtime/Npu/ll_aton/ll_aton.c **** #if LL_ATON_EN_ERROR_IRQ
 739:Lib/AI_Runtime/Npu/ll_aton/ll_aton.c ****   t = t_streng_event;
 740:Lib/AI_Runtime/Npu/ll_aton/ll_aton.c ****   t = ATON_STRENG_EVENT_SET_EN_ILLCFG(t, 1); // Enable Illegal Configuration interrupt
 741:Lib/AI_Runtime/Npu/ll_aton/ll_aton.c ****   // t = ATON_STRENG_EVENT_SET_EN_FMTMM(t, 1); // Enable Format Mismatch interrupt (intentionally n
 742:Lib/AI_Runtime/Npu/ll_aton/ll_aton.c ****   t_streng_event = t;
 743:Lib/AI_Runtime/Npu/ll_aton/ll_aton.c **** #endif // LL_ATON_EN_ERROR_IRQ
 744:Lib/AI_Runtime/Npu/ll_aton/ll_aton.c **** 
 745:Lib/AI_Runtime/Npu/ll_aton/ll_aton.c ****   if ((conf->dir == 0) && conf->sync_with_other)
 746:Lib/AI_Runtime/Npu/ll_aton/ll_aton.c ****   {
 747:Lib/AI_Runtime/Npu/ll_aton/ll_aton.c ****     t = t_streng_event;
 748:Lib/AI_Runtime/Npu/ll_aton/ll_aton.c ****     t = ATON_STRENG_EVENT_SET_FRMTRG_EN(t, 1);               // Enable synchronizations of frames w
 749:Lib/AI_Runtime/Npu/ll_aton/ll_aton.c ****     t = ATON_STRENG_EVENT_SET_FRMTRG_SRC(t, conf->sync_dma); // Enable synchronizations of frames w
 750:Lib/AI_Runtime/Npu/ll_aton/ll_aton.c ****     t_streng_event = t;
 751:Lib/AI_Runtime/Npu/ll_aton/ll_aton.c ****   }
 752:Lib/AI_Runtime/Npu/ll_aton/ll_aton.c **** 
 753:Lib/AI_Runtime/Npu/ll_aton/ll_aton.c **** #if 1
 754:Lib/AI_Runtime/Npu/ll_aton/ll_aton.c ****   t = ATON_STRENG_POS_DT;
 755:Lib/AI_Runtime/Npu/ll_aton/ll_aton.c ****   t = ATON_STRENG_POS_SET_GAPCYCLES(t, 0); // set interline gap cycle to 0, as it should be safe to
 756:Lib/AI_Runtime/Npu/ll_aton/ll_aton.c ****   ATON_STRENG_POS_SET(id, t);
 757:Lib/AI_Runtime/Npu/ll_aton/ll_aton.c **** #endif
 758:Lib/AI_Runtime/Npu/ll_aton/ll_aton.c **** 
 759:Lib/AI_Runtime/Npu/ll_aton/ll_aton.c ****   /* deferred register setting */
 760:Lib/AI_Runtime/Npu/ll_aton/ll_aton.c ****   ATON_STRENG_STRD_SET(id, t_streng_strd);
 761:Lib/AI_Runtime/Npu/ll_aton/ll_aton.c ****   ATON_STRENG_CID_CACHE_SET(id, t_streng_cid_cache);
 762:Lib/AI_Runtime/Npu/ll_aton/ll_aton.c ****   ATON_STRENG_EVENT_SET(id, t_streng_event);
 763:Lib/AI_Runtime/Npu/ll_aton/ll_aton.c **** 
 764:Lib/AI_Runtime/Npu/ll_aton/ll_aton.c ****   /* Ciphering settings */
 765:Lib/AI_Runtime/Npu/ll_aton/ll_aton.c **** #if (ATON_STRENG_VERSION_ENCR_DT == 1)
 766:Lib/AI_Runtime/Npu/ll_aton/ll_aton.c ****   t = ATON_STRENG_ENCR_MSB_DT;
ARM GAS  /tmp/ccgbPSBw.s 			page 15


 767:Lib/AI_Runtime/Npu/ll_aton/ll_aton.c ****   t = ATON_STRENG_ENCR_MSB_SET_EN(t, conf->cipher_en);
 768:Lib/AI_Runtime/Npu/ll_aton/ll_aton.c ****   t = ATON_STRENG_ENCR_MSB_SET_KEY_SEL(t, conf->key_sel);
 769:Lib/AI_Runtime/Npu/ll_aton/ll_aton.c ****   ATON_STRENG_ENCR_MSB_SET(id, t);
 770:Lib/AI_Runtime/Npu/ll_aton/ll_aton.c **** #endif
 771:Lib/AI_Runtime/Npu/ll_aton/ll_aton.c **** 
 772:Lib/AI_Runtime/Npu/ll_aton/ll_aton.c ****   return 0;
 773:Lib/AI_Runtime/Npu/ll_aton/ll_aton.c **** }
 774:Lib/AI_Runtime/Npu/ll_aton/ll_aton.c **** 
 775:Lib/AI_Runtime/Npu/ll_aton/ll_aton.c **** /**
 776:Lib/AI_Runtime/Npu/ll_aton/ll_aton.c ****  * @brief Configures the Streaming Engine External trigger source
 777:Lib/AI_Runtime/Npu/ll_aton/ll_aton.c ****  *        To be used, for example, for configuring synchronization with DCMIPP
 778:Lib/AI_Runtime/Npu/ll_aton/ll_aton.c ****  * @param id Streaming engine identifier [0..ATON_STRENG_NUM-1]
 779:Lib/AI_Runtime/Npu/ll_aton/ll_aton.c ****  * @param conf Pointer to structure describing External Sync configuration
 780:Lib/AI_Runtime/Npu/ll_aton/ll_aton.c ****  */
 781:Lib/AI_Runtime/Npu/ll_aton/ll_aton.c **** int LL_Streng_ExtSyncInit(int id, LL_Streng_ExtSyncTypedef *conf)
 782:Lib/AI_Runtime/Npu/ll_aton/ll_aton.c **** {
 783:Lib/AI_Runtime/Npu/ll_aton/ll_aton.c **** #ifdef ATON_STRENG_EXTSYNC_SET
 784:Lib/AI_Runtime/Npu/ll_aton/ll_aton.c ****   uint32_t t;
 785:Lib/AI_Runtime/Npu/ll_aton/ll_aton.c **** 
 786:Lib/AI_Runtime/Npu/ll_aton/ll_aton.c ****   if (id >= ATON_STRENG_NUM)
 787:Lib/AI_Runtime/Npu/ll_aton/ll_aton.c ****     return LL_ATON_INVALID_ID;
 788:Lib/AI_Runtime/Npu/ll_aton/ll_aton.c **** 
 789:Lib/AI_Runtime/Npu/ll_aton/ll_aton.c ****   LL_ATON_EnableClock(ATON_STRENG_CLKB_CLK(id));
 790:Lib/AI_Runtime/Npu/ll_aton/ll_aton.c **** 
 791:Lib/AI_Runtime/Npu/ll_aton/ll_aton.c ****   t = ATON_STRENG_EXTSYNC_DT;
 792:Lib/AI_Runtime/Npu/ll_aton/ll_aton.c ****   t = ATON_STRENG_EXTSYNC_SET_EN(t, conf->enable);
 793:Lib/AI_Runtime/Npu/ll_aton/ll_aton.c ****   t = ATON_STRENG_EXTSYNC_SET_SRC(t, conf->trig_source);
 794:Lib/AI_Runtime/Npu/ll_aton/ll_aton.c ****   t = ATON_STRENG_EXTSYNC_SET_LINES(t, conf->lines);
 795:Lib/AI_Runtime/Npu/ll_aton/ll_aton.c ****   ATON_STRENG_EXTSYNC_SET(id, t);
 796:Lib/AI_Runtime/Npu/ll_aton/ll_aton.c **** 
 797:Lib/AI_Runtime/Npu/ll_aton/ll_aton.c ****   t = ATON_STRENG_EXTSYNC2_DT;
 798:Lib/AI_Runtime/Npu/ll_aton/ll_aton.c ****   t = ATON_STRENG_EXTSYNC2_SET_LINES(t, conf->lines_offset);
 799:Lib/AI_Runtime/Npu/ll_aton/ll_aton.c ****   t = ATON_STRENG_EXTSYNC2_SET_OFF(t, conf->offset);
 800:Lib/AI_Runtime/Npu/ll_aton/ll_aton.c ****   ATON_STRENG_EXTSYNC2_SET(id, t);
 801:Lib/AI_Runtime/Npu/ll_aton/ll_aton.c **** #endif
 802:Lib/AI_Runtime/Npu/ll_aton/ll_aton.c ****   return 0;
 803:Lib/AI_Runtime/Npu/ll_aton/ll_aton.c **** }
 804:Lib/AI_Runtime/Npu/ll_aton/ll_aton.c **** 
 805:Lib/AI_Runtime/Npu/ll_aton/ll_aton.c **** #if defined(ATON_EPOCHCTRL_NUM)
 806:Lib/AI_Runtime/Npu/ll_aton/ll_aton.c **** /**
 807:Lib/AI_Runtime/Npu/ll_aton/ll_aton.c ****  * @brief Sets external trigger signal to hi. Used to synchronize with external units, e.g.: HSP
 808:Lib/AI_Runtime/Npu/ll_aton/ll_aton.c ****  * @param irq Interrupt line used as trigger signal
 809:Lib/AI_Runtime/Npu/ll_aton/ll_aton.c ****  * @note uses Epoch Controller noack interrupt as irq source
 810:Lib/AI_Runtime/Npu/ll_aton/ll_aton.c ****  */
 811:Lib/AI_Runtime/Npu/ll_aton/ll_aton.c **** int LL_TriggerHigh(int irq)
 812:Lib/AI_Runtime/Npu/ll_aton/ll_aton.c **** {
 813:Lib/AI_Runtime/Npu/ll_aton/ll_aton.c ****   if (irq >= ATON_INTCTRL_INTS(0))
 814:Lib/AI_Runtime/Npu/ll_aton/ll_aton.c ****     return LL_ATON_INVALID_PARAM;
 815:Lib/AI_Runtime/Npu/ll_aton/ll_aton.c **** 
 816:Lib/AI_Runtime/Npu/ll_aton/ll_aton.c ****   ATON_INTCTRL_INTORMSK_SET(0, irq, ~(1 << ATON_INTCTRL_0_INTORMSK_EPOCHCTRL_0_1_IDX));
 817:Lib/AI_Runtime/Npu/ll_aton/ll_aton.c ****   ATON_INTCTRL_INTSET_SET(0, (1 << ATON_INTCTRL_0_INTSET_EPOCHCTRL_0_1_IDX));
 818:Lib/AI_Runtime/Npu/ll_aton/ll_aton.c ****   return 0;
 819:Lib/AI_Runtime/Npu/ll_aton/ll_aton.c **** }
 820:Lib/AI_Runtime/Npu/ll_aton/ll_aton.c **** 
 821:Lib/AI_Runtime/Npu/ll_aton/ll_aton.c **** /**
 822:Lib/AI_Runtime/Npu/ll_aton/ll_aton.c ****  * @brief Sets external trigger signal to low. Used to synchronize with external units, e.g.: HSP
 823:Lib/AI_Runtime/Npu/ll_aton/ll_aton.c ****  * @param irq Interrupt line used as trigger signal
ARM GAS  /tmp/ccgbPSBw.s 			page 16


 824:Lib/AI_Runtime/Npu/ll_aton/ll_aton.c ****  * @note uses Epoch Controller noack interrupt as irq source
 825:Lib/AI_Runtime/Npu/ll_aton/ll_aton.c ****  */
 826:Lib/AI_Runtime/Npu/ll_aton/ll_aton.c **** int LL_TriggerLow(int irq)
 827:Lib/AI_Runtime/Npu/ll_aton/ll_aton.c **** {
 828:Lib/AI_Runtime/Npu/ll_aton/ll_aton.c ****   if (irq >= ATON_INTCTRL_INTS(0))
 829:Lib/AI_Runtime/Npu/ll_aton/ll_aton.c ****     return LL_ATON_INVALID_PARAM;
 830:Lib/AI_Runtime/Npu/ll_aton/ll_aton.c **** 
 831:Lib/AI_Runtime/Npu/ll_aton/ll_aton.c ****   ATON_INTCTRL_INTCLR_SET(0, (1 << ATON_INTCTRL_0_INTCLR_EPOCHCTRL_0_1_IDX));
 832:Lib/AI_Runtime/Npu/ll_aton/ll_aton.c ****   return 0;
 833:Lib/AI_Runtime/Npu/ll_aton/ll_aton.c **** }
 834:Lib/AI_Runtime/Npu/ll_aton/ll_aton.c **** #endif
 835:Lib/AI_Runtime/Npu/ll_aton/ll_aton.c **** 
 836:Lib/AI_Runtime/Npu/ll_aton/ll_aton.c **** unsigned __atonn_getSrcPortID(enum SwitchUnitsType sut, unsigned char su_num, enum AccelUnitsType a
 837:Lib/AI_Runtime/Npu/ll_aton/ll_aton.c ****                               unsigned char au_num, unsigned char port)
 838:Lib/AI_Runtime/Npu/ll_aton/ll_aton.c **** {
 839:Lib/AI_Runtime/Npu/ll_aton/ll_aton.c ****   // FIXME
 840:Lib/AI_Runtime/Npu/ll_aton/ll_aton.c ****   LL_ATON_ASSERT(su_num == 0);
 841:Lib/AI_Runtime/Npu/ll_aton/ll_aton.c ****   switch (sut)
 842:Lib/AI_Runtime/Npu/ll_aton/ll_aton.c ****   {
 843:Lib/AI_Runtime/Npu/ll_aton/ll_aton.c ****   case STRSWITCH:
 844:Lib/AI_Runtime/Npu/ll_aton/ll_aton.c ****     switch (aut)
 845:Lib/AI_Runtime/Npu/ll_aton/ll_aton.c ****     {
 846:Lib/AI_Runtime/Npu/ll_aton/ll_aton.c **** #if defined(ATON_STRENG_NUM)
 847:Lib/AI_Runtime/Npu/ll_aton/ll_aton.c ****     case STRENG:
 848:Lib/AI_Runtime/Npu/ll_aton/ll_aton.c ****       LL_ATON_ASSERT(port == 0);
 849:Lib/AI_Runtime/Npu/ll_aton/ll_aton.c ****       LL_ATON_ASSERT(au_num < ATON_STRENG_NUM);
 850:Lib/AI_Runtime/Npu/ll_aton/ll_aton.c ****       return ATONN_CONST_SRCPORT(STRSWITCH, 0, STRENG, 0, 0) + au_num;
 851:Lib/AI_Runtime/Npu/ll_aton/ll_aton.c ****       break;
 852:Lib/AI_Runtime/Npu/ll_aton/ll_aton.c **** #endif
 853:Lib/AI_Runtime/Npu/ll_aton/ll_aton.c **** #if defined(ATON_CONVACC_NUM)
 854:Lib/AI_Runtime/Npu/ll_aton/ll_aton.c ****     case CONVACC:
 855:Lib/AI_Runtime/Npu/ll_aton/ll_aton.c ****       LL_ATON_ASSERT(port == 0);
 856:Lib/AI_Runtime/Npu/ll_aton/ll_aton.c ****       LL_ATON_ASSERT(au_num < ATON_CONVACC_NUM);
 857:Lib/AI_Runtime/Npu/ll_aton/ll_aton.c ****       return ATONN_CONST_SRCPORT(STRSWITCH, 0, CONVACC, 0, 0) + au_num;
 858:Lib/AI_Runtime/Npu/ll_aton/ll_aton.c ****       break;
 859:Lib/AI_Runtime/Npu/ll_aton/ll_aton.c **** #endif
 860:Lib/AI_Runtime/Npu/ll_aton/ll_aton.c **** #if defined(ATON_DECUN_NUM)
 861:Lib/AI_Runtime/Npu/ll_aton/ll_aton.c ****     case DECUN:
 862:Lib/AI_Runtime/Npu/ll_aton/ll_aton.c ****       LL_ATON_ASSERT(port == 0);
 863:Lib/AI_Runtime/Npu/ll_aton/ll_aton.c ****       LL_ATON_ASSERT(au_num < ATON_DECUN_NUM);
 864:Lib/AI_Runtime/Npu/ll_aton/ll_aton.c ****       return ATONN_CONST_SRCPORT(STRSWITCH, 0, DECUN, 0, 0) + au_num;
 865:Lib/AI_Runtime/Npu/ll_aton/ll_aton.c ****       break;
 866:Lib/AI_Runtime/Npu/ll_aton/ll_aton.c **** #endif
 867:Lib/AI_Runtime/Npu/ll_aton/ll_aton.c **** #if defined(ATON_ACTIV_NUM)
 868:Lib/AI_Runtime/Npu/ll_aton/ll_aton.c ****     case ACTIV:
 869:Lib/AI_Runtime/Npu/ll_aton/ll_aton.c ****       LL_ATON_ASSERT(port == 0);
 870:Lib/AI_Runtime/Npu/ll_aton/ll_aton.c ****       LL_ATON_ASSERT(au_num < ATON_ACTIV_NUM);
 871:Lib/AI_Runtime/Npu/ll_aton/ll_aton.c ****       return ATONN_CONST_SRCPORT(STRSWITCH, 0, ACTIV, 0, 0) + au_num;
 872:Lib/AI_Runtime/Npu/ll_aton/ll_aton.c ****       break;
 873:Lib/AI_Runtime/Npu/ll_aton/ll_aton.c **** #endif
 874:Lib/AI_Runtime/Npu/ll_aton/ll_aton.c **** #if defined(ATON_ARITH_NUM)
 875:Lib/AI_Runtime/Npu/ll_aton/ll_aton.c ****     case ARITH:
 876:Lib/AI_Runtime/Npu/ll_aton/ll_aton.c ****       LL_ATON_ASSERT(port == 0);
 877:Lib/AI_Runtime/Npu/ll_aton/ll_aton.c ****       LL_ATON_ASSERT(au_num < ATON_ARITH_NUM);
 878:Lib/AI_Runtime/Npu/ll_aton/ll_aton.c ****       return ATONN_CONST_SRCPORT(STRSWITCH, 0, ARITH, 0, 0) + au_num;
 879:Lib/AI_Runtime/Npu/ll_aton/ll_aton.c ****       break;
 880:Lib/AI_Runtime/Npu/ll_aton/ll_aton.c **** #endif
ARM GAS  /tmp/ccgbPSBw.s 			page 17


 881:Lib/AI_Runtime/Npu/ll_aton/ll_aton.c **** #if defined(ATON_POOL_NUM)
 882:Lib/AI_Runtime/Npu/ll_aton/ll_aton.c ****     case POOL:
 883:Lib/AI_Runtime/Npu/ll_aton/ll_aton.c ****       LL_ATON_ASSERT(port == 0);
 884:Lib/AI_Runtime/Npu/ll_aton/ll_aton.c ****       LL_ATON_ASSERT(au_num < ATON_POOL_NUM);
 885:Lib/AI_Runtime/Npu/ll_aton/ll_aton.c ****       return ATONN_CONST_SRCPORT(STRSWITCH, 0, POOL, 0, 0) + au_num;
 886:Lib/AI_Runtime/Npu/ll_aton/ll_aton.c ****       break;
 887:Lib/AI_Runtime/Npu/ll_aton/ll_aton.c **** #endif
 888:Lib/AI_Runtime/Npu/ll_aton/ll_aton.c ****     default:
 889:Lib/AI_Runtime/Npu/ll_aton/ll_aton.c ****       LL_ATON_ASSERT(0);
 890:Lib/AI_Runtime/Npu/ll_aton/ll_aton.c ****       break;
 891:Lib/AI_Runtime/Npu/ll_aton/ll_aton.c ****     }
 892:Lib/AI_Runtime/Npu/ll_aton/ll_aton.c ****     break;
 893:Lib/AI_Runtime/Npu/ll_aton/ll_aton.c ****   case STRSWITCH64:
 894:Lib/AI_Runtime/Npu/ll_aton/ll_aton.c ****     // TODO
 895:Lib/AI_Runtime/Npu/ll_aton/ll_aton.c ****     LL_ATON_ASSERT(0);
 896:Lib/AI_Runtime/Npu/ll_aton/ll_aton.c ****     break;
 897:Lib/AI_Runtime/Npu/ll_aton/ll_aton.c ****   case STRSWITCH_VC:
 898:Lib/AI_Runtime/Npu/ll_aton/ll_aton.c ****     // TODO
 899:Lib/AI_Runtime/Npu/ll_aton/ll_aton.c ****     LL_ATON_ASSERT(0);
 900:Lib/AI_Runtime/Npu/ll_aton/ll_aton.c ****     break;
 901:Lib/AI_Runtime/Npu/ll_aton/ll_aton.c ****   }
 902:Lib/AI_Runtime/Npu/ll_aton/ll_aton.c ****   return 0;
 903:Lib/AI_Runtime/Npu/ll_aton/ll_aton.c **** }
 904:Lib/AI_Runtime/Npu/ll_aton/ll_aton.c **** 
 905:Lib/AI_Runtime/Npu/ll_aton/ll_aton.c **** unsigned __atonn_getDstPortID(enum SwitchUnitsType sut, unsigned char su_num, enum AccelUnitsType a
 906:Lib/AI_Runtime/Npu/ll_aton/ll_aton.c ****                               unsigned char au_num, unsigned char port)
 907:Lib/AI_Runtime/Npu/ll_aton/ll_aton.c **** {
 908:Lib/AI_Runtime/Npu/ll_aton/ll_aton.c ****   // FIXME
 909:Lib/AI_Runtime/Npu/ll_aton/ll_aton.c ****   LL_ATON_ASSERT(su_num == 0);
 910:Lib/AI_Runtime/Npu/ll_aton/ll_aton.c ****   switch (sut)
 911:Lib/AI_Runtime/Npu/ll_aton/ll_aton.c ****   {
 912:Lib/AI_Runtime/Npu/ll_aton/ll_aton.c ****   case STRSWITCH:
 913:Lib/AI_Runtime/Npu/ll_aton/ll_aton.c ****     switch (aut)
 914:Lib/AI_Runtime/Npu/ll_aton/ll_aton.c ****     {
 915:Lib/AI_Runtime/Npu/ll_aton/ll_aton.c **** #if defined(ATON_STRENG_NUM)
 916:Lib/AI_Runtime/Npu/ll_aton/ll_aton.c ****     case STRENG:
 917:Lib/AI_Runtime/Npu/ll_aton/ll_aton.c ****       LL_ATON_ASSERT(port == 0);
 918:Lib/AI_Runtime/Npu/ll_aton/ll_aton.c ****       LL_ATON_ASSERT(au_num < ATON_STRENG_NUM);
 919:Lib/AI_Runtime/Npu/ll_aton/ll_aton.c ****       return ATONN_CONST_DSTPORT(STRSWITCH, 0, STRENG, 0, 0) + (0x4 * au_num);
 920:Lib/AI_Runtime/Npu/ll_aton/ll_aton.c ****       break;
 921:Lib/AI_Runtime/Npu/ll_aton/ll_aton.c **** #endif
 922:Lib/AI_Runtime/Npu/ll_aton/ll_aton.c **** #if defined(ATON_CONVACC_NUM)
 923:Lib/AI_Runtime/Npu/ll_aton/ll_aton.c ****     case CONVACC:
 924:Lib/AI_Runtime/Npu/ll_aton/ll_aton.c ****       LL_ATON_ASSERT(port < 3);
 925:Lib/AI_Runtime/Npu/ll_aton/ll_aton.c ****       LL_ATON_ASSERT(au_num < ATON_CONVACC_NUM);
 926:Lib/AI_Runtime/Npu/ll_aton/ll_aton.c ****       return ATONN_CONST_DSTPORT(STRSWITCH, 0, CONVACC, 0, 0) + (0x4 * (3 * au_num + port));
 927:Lib/AI_Runtime/Npu/ll_aton/ll_aton.c ****       break;
 928:Lib/AI_Runtime/Npu/ll_aton/ll_aton.c **** #endif
 929:Lib/AI_Runtime/Npu/ll_aton/ll_aton.c **** #if defined(ATON_DECUN_NUM)
 930:Lib/AI_Runtime/Npu/ll_aton/ll_aton.c ****     case DECUN:
 931:Lib/AI_Runtime/Npu/ll_aton/ll_aton.c ****       LL_ATON_ASSERT(port < 2);
 932:Lib/AI_Runtime/Npu/ll_aton/ll_aton.c ****       LL_ATON_ASSERT(au_num < ATON_DECUN_NUM);
 933:Lib/AI_Runtime/Npu/ll_aton/ll_aton.c ****       return ATONN_CONST_DSTPORT(STRSWITCH, 0, DECUN, 0, 0) + (0x4 * (2 * au_num + port));
 934:Lib/AI_Runtime/Npu/ll_aton/ll_aton.c ****       break;
 935:Lib/AI_Runtime/Npu/ll_aton/ll_aton.c **** #endif
 936:Lib/AI_Runtime/Npu/ll_aton/ll_aton.c **** #if defined(ATON_ACTIV_NUM)
 937:Lib/AI_Runtime/Npu/ll_aton/ll_aton.c ****     case ACTIV:
ARM GAS  /tmp/ccgbPSBw.s 			page 18


 938:Lib/AI_Runtime/Npu/ll_aton/ll_aton.c ****       LL_ATON_ASSERT(port == 0);
 939:Lib/AI_Runtime/Npu/ll_aton/ll_aton.c ****       LL_ATON_ASSERT(au_num < ATON_ACTIV_NUM);
 940:Lib/AI_Runtime/Npu/ll_aton/ll_aton.c ****       return ATONN_CONST_DSTPORT(STRSWITCH, 0, ACTIV, 0, 0) + (0x4 * au_num);
 941:Lib/AI_Runtime/Npu/ll_aton/ll_aton.c ****       break;
 942:Lib/AI_Runtime/Npu/ll_aton/ll_aton.c **** #endif
 943:Lib/AI_Runtime/Npu/ll_aton/ll_aton.c **** #if defined(ATON_ARITH_NUM)
 944:Lib/AI_Runtime/Npu/ll_aton/ll_aton.c ****     case ARITH:
 945:Lib/AI_Runtime/Npu/ll_aton/ll_aton.c ****       LL_ATON_ASSERT(port < 2);
 946:Lib/AI_Runtime/Npu/ll_aton/ll_aton.c ****       LL_ATON_ASSERT(au_num < ATON_ARITH_NUM);
 947:Lib/AI_Runtime/Npu/ll_aton/ll_aton.c ****       return ATONN_CONST_DSTPORT(STRSWITCH, 0, ARITH, 0, 0) + (0x4 * (2 * au_num + port));
 948:Lib/AI_Runtime/Npu/ll_aton/ll_aton.c ****       break;
 949:Lib/AI_Runtime/Npu/ll_aton/ll_aton.c **** #endif
 950:Lib/AI_Runtime/Npu/ll_aton/ll_aton.c **** #if defined(ATON_POOL_NUM)
 951:Lib/AI_Runtime/Npu/ll_aton/ll_aton.c ****     case POOL:
 952:Lib/AI_Runtime/Npu/ll_aton/ll_aton.c ****       LL_ATON_ASSERT(port == 0);
 953:Lib/AI_Runtime/Npu/ll_aton/ll_aton.c ****       LL_ATON_ASSERT(au_num < ATON_POOL_NUM);
 954:Lib/AI_Runtime/Npu/ll_aton/ll_aton.c ****       return ATONN_CONST_DSTPORT(STRSWITCH, 0, POOL, 0, 0) + (0x4 * au_num);
 955:Lib/AI_Runtime/Npu/ll_aton/ll_aton.c ****       break;
 956:Lib/AI_Runtime/Npu/ll_aton/ll_aton.c **** #endif
 957:Lib/AI_Runtime/Npu/ll_aton/ll_aton.c ****     default:
 958:Lib/AI_Runtime/Npu/ll_aton/ll_aton.c ****       LL_ATON_ASSERT(0);
 959:Lib/AI_Runtime/Npu/ll_aton/ll_aton.c ****       break;
 960:Lib/AI_Runtime/Npu/ll_aton/ll_aton.c ****     }
 961:Lib/AI_Runtime/Npu/ll_aton/ll_aton.c ****     break;
 962:Lib/AI_Runtime/Npu/ll_aton/ll_aton.c ****   case STRSWITCH64:
 963:Lib/AI_Runtime/Npu/ll_aton/ll_aton.c ****     // TODO
 964:Lib/AI_Runtime/Npu/ll_aton/ll_aton.c ****     LL_ATON_ASSERT(0);
 965:Lib/AI_Runtime/Npu/ll_aton/ll_aton.c ****     break;
 966:Lib/AI_Runtime/Npu/ll_aton/ll_aton.c ****   case STRSWITCH_VC:
 967:Lib/AI_Runtime/Npu/ll_aton/ll_aton.c ****     // TODO
 968:Lib/AI_Runtime/Npu/ll_aton/ll_aton.c ****     LL_ATON_ASSERT(0);
 969:Lib/AI_Runtime/Npu/ll_aton/ll_aton.c ****     break;
 970:Lib/AI_Runtime/Npu/ll_aton/ll_aton.c ****   }
 971:Lib/AI_Runtime/Npu/ll_aton/ll_aton.c ****   return 0;
 972:Lib/AI_Runtime/Npu/ll_aton/ll_aton.c **** }
 973:Lib/AI_Runtime/Npu/ll_aton/ll_aton.c **** 
 974:Lib/AI_Runtime/Npu/ll_aton/ll_aton.c **** /**
 975:Lib/AI_Runtime/Npu/ll_aton/ll_aton.c ****  * @brief  Connects input and output port(s) on the streaming switch (without clearing configuratio
 976:Lib/AI_Runtime/Npu/ll_aton/ll_aton.c ****  * @param  LL_Switch_InitStruct Pointer to structure(s) describing ports to be connected
 977:Lib/AI_Runtime/Npu/ll_aton/ll_aton.c ****  * @param  n Number of entries in configuration array
 978:Lib/AI_Runtime/Npu/ll_aton/ll_aton.c ****  * @retval Error code
 979:Lib/AI_Runtime/Npu/ll_aton/ll_aton.c ****  */
 980:Lib/AI_Runtime/Npu/ll_aton/ll_aton.c **** int LL_Switch_Init_NoReset(const LL_Switch_InitTypeDef *LL_Switch_InitStruct, int n)
 981:Lib/AI_Runtime/Npu/ll_aton/ll_aton.c **** {
 982:Lib/AI_Runtime/Npu/ll_aton/ll_aton.c ****   int i;
 983:Lib/AI_Runtime/Npu/ll_aton/ll_aton.c ****   volatile uint32_t *reg;
 984:Lib/AI_Runtime/Npu/ll_aton/ll_aton.c ****   uint32_t t;
 985:Lib/AI_Runtime/Npu/ll_aton/ll_aton.c ****   unsigned int en_shift[ATON_SWITCH_CONTEXT_NUM] = {ATON_STRSWITCH_DST_EN0_LSB, ATON_STRSWITCH_DST_
 986:Lib/AI_Runtime/Npu/ll_aton/ll_aton.c ****   unsigned int link_shift[ATON_SWITCH_CONTEXT_NUM] = {ATON_STRSWITCH_DST_LINK0_LSB, ATON_STRSWITCH_
 987:Lib/AI_Runtime/Npu/ll_aton/ll_aton.c ****   unsigned int fnr_shift[ATON_SWITCH_CONTEXT_NUM] = {ATON_STRSWITCH_DST_FNR0_LSB, ATON_STRSWITCH_DS
 988:Lib/AI_Runtime/Npu/ll_aton/ll_aton.c ****   unsigned int fnr_mask[ATON_SWITCH_CONTEXT_NUM] = {ATON_STRSWITCH_DST_FNR0_MASK, ATON_STRSWITCH_DS
 989:Lib/AI_Runtime/Npu/ll_aton/ll_aton.c **** 
 990:Lib/AI_Runtime/Npu/ll_aton/ll_aton.c ****   /* Enable Switch */
 991:Lib/AI_Runtime/Npu/ll_aton/ll_aton.c ****   t = ATON_STRSWITCH_CTRL_DT;
 992:Lib/AI_Runtime/Npu/ll_aton/ll_aton.c ****   t = ATON_STRSWITCH_CTRL_SET_EN(t, 1);
 993:Lib/AI_Runtime/Npu/ll_aton/ll_aton.c ****   ATON_STRSWITCH_CTRL_SET(0, t);
 994:Lib/AI_Runtime/Npu/ll_aton/ll_aton.c **** 
ARM GAS  /tmp/ccgbPSBw.s 			page 19


 995:Lib/AI_Runtime/Npu/ll_aton/ll_aton.c ****   for (i = 0; i < n; i++)
 996:Lib/AI_Runtime/Npu/ll_aton/ll_aton.c ****   {
 997:Lib/AI_Runtime/Npu/ll_aton/ll_aton.c ****     /* Compute target destination configuration register */
 998:Lib/AI_Runtime/Npu/ll_aton/ll_aton.c ****     reg = (uint32_t *)(ATON_STRSWITCH_BASE(0) + ATONN_DSTPORT_ID(LL_Switch_InitStruct[i].dest));
 999:Lib/AI_Runtime/Npu/ll_aton/ll_aton.c ****     t = 0;
1000:Lib/AI_Runtime/Npu/ll_aton/ll_aton.c ****     /* Enable Context and create link */
1001:Lib/AI_Runtime/Npu/ll_aton/ll_aton.c **** #if ATON_SWITCH_CONTEXT_NUM == 2
1002:Lib/AI_Runtime/Npu/ll_aton/ll_aton.c ****     t |= ((LL_Switch_InitStruct[i].context0 != 0) << en_shift[0]);
1003:Lib/AI_Runtime/Npu/ll_aton/ll_aton.c ****     t |= (ATONN_SRCPORT_ID(LL_Switch_InitStruct[i].source0) << link_shift[0]);
1004:Lib/AI_Runtime/Npu/ll_aton/ll_aton.c ****     t |= ((LL_Switch_InitStruct[i].frames0 << fnr_shift[0]) & fnr_mask[0]);
1005:Lib/AI_Runtime/Npu/ll_aton/ll_aton.c ****     t |= ((LL_Switch_InitStruct[i].context1 != 0) << en_shift[1]);
1006:Lib/AI_Runtime/Npu/ll_aton/ll_aton.c ****     t |= (ATONN_SRCPORT_ID(LL_Switch_InitStruct[i].source1) << link_shift[1]);
1007:Lib/AI_Runtime/Npu/ll_aton/ll_aton.c ****     t |= ((LL_Switch_InitStruct[i].frames1 << fnr_shift[1]) & fnr_mask[1]);
1008:Lib/AI_Runtime/Npu/ll_aton/ll_aton.c **** #else
1009:Lib/AI_Runtime/Npu/ll_aton/ll_aton.c ****     int c;
1010:Lib/AI_Runtime/Npu/ll_aton/ll_aton.c ****     for (c = 0; c < ATON_SWITCH_CONTEXT_NUM; c++)
1011:Lib/AI_Runtime/Npu/ll_aton/ll_aton.c ****     {
1012:Lib/AI_Runtime/Npu/ll_aton/ll_aton.c ****       t |= ((LL_Switch_InitStruct[i].context[c] != 0) << en_shift[c]);
1013:Lib/AI_Runtime/Npu/ll_aton/ll_aton.c ****       t |= (ATONN_SRCPORT_ID(LL_Switch_InitStruct[i].source[c]) << link_shift[c]);
1014:Lib/AI_Runtime/Npu/ll_aton/ll_aton.c ****       t |= ((LL_Switch_InitStruct[i].frames[c] << fnr_shift[c]) & fnr_mask[c]);
1015:Lib/AI_Runtime/Npu/ll_aton/ll_aton.c ****     }
1016:Lib/AI_Runtime/Npu/ll_aton/ll_aton.c **** #endif
1017:Lib/AI_Runtime/Npu/ll_aton/ll_aton.c **** 
1018:Lib/AI_Runtime/Npu/ll_aton/ll_aton.c ****     ATON_REG_WRITE(reg, t);
1019:Lib/AI_Runtime/Npu/ll_aton/ll_aton.c ****   }
1020:Lib/AI_Runtime/Npu/ll_aton/ll_aton.c **** 
1021:Lib/AI_Runtime/Npu/ll_aton/ll_aton.c ****   return 0;
1022:Lib/AI_Runtime/Npu/ll_aton/ll_aton.c **** }
1023:Lib/AI_Runtime/Npu/ll_aton/ll_aton.c **** 
1024:Lib/AI_Runtime/Npu/ll_aton/ll_aton.c **** /**
1025:Lib/AI_Runtime/Npu/ll_aton/ll_aton.c ****  * @brief  Connects input and output port(s) on the streaming switch (clearing configuration at the
1026:Lib/AI_Runtime/Npu/ll_aton/ll_aton.c ****  * @param  LL_Switch_InitStruct Pointer to structure(s) describing ports to be connected
1027:Lib/AI_Runtime/Npu/ll_aton/ll_aton.c ****  * @param  n Number of entries in configuration array
1028:Lib/AI_Runtime/Npu/ll_aton/ll_aton.c ****  * @retval Error code
1029:Lib/AI_Runtime/Npu/ll_aton/ll_aton.c ****  */
1030:Lib/AI_Runtime/Npu/ll_aton/ll_aton.c **** int LL_Switch_Init(const LL_Switch_InitTypeDef *LL_Switch_InitStruct, int n)
1031:Lib/AI_Runtime/Npu/ll_aton/ll_aton.c **** {
1032:Lib/AI_Runtime/Npu/ll_aton/ll_aton.c ****   uint32_t t;
1033:Lib/AI_Runtime/Npu/ll_aton/ll_aton.c **** 
1034:Lib/AI_Runtime/Npu/ll_aton/ll_aton.c **** #if (LL_ATON_PLATFORM == LL_ATON_PLAT_EC_TRACE)
1035:Lib/AI_Runtime/Npu/ll_aton/ll_aton.c ****   ll_aton_static_checks();
1036:Lib/AI_Runtime/Npu/ll_aton/ll_aton.c **** #endif
1037:Lib/AI_Runtime/Npu/ll_aton/ll_aton.c **** 
1038:Lib/AI_Runtime/Npu/ll_aton/ll_aton.c ****   /* Clear Configuration */
1039:Lib/AI_Runtime/Npu/ll_aton/ll_aton.c ****   ATON_DISABLE_CLR_CONFCLR(STRSWITCH, 0);
1040:Lib/AI_Runtime/Npu/ll_aton/ll_aton.c **** 
1041:Lib/AI_Runtime/Npu/ll_aton/ll_aton.c ****   return LL_Switch_Init_NoReset(LL_Switch_InitStruct, n);
1042:Lib/AI_Runtime/Npu/ll_aton/ll_aton.c **** }
1043:Lib/AI_Runtime/Npu/ll_aton/ll_aton.c **** 
1044:Lib/AI_Runtime/Npu/ll_aton/ll_aton.c **** /**
1045:Lib/AI_Runtime/Npu/ll_aton/ll_aton.c ****  * @brief  Fully disconnect a destination port from source ports on the streaming switch
1046:Lib/AI_Runtime/Npu/ll_aton/ll_aton.c ****  * @param  LL_Switch_InitStruct Pointer to structure(s) describing ports to be disconnected
1047:Lib/AI_Runtime/Npu/ll_aton/ll_aton.c ****  * @param  n Number of entries in configuration array
1048:Lib/AI_Runtime/Npu/ll_aton/ll_aton.c ****  * @retval Error code
1049:Lib/AI_Runtime/Npu/ll_aton/ll_aton.c ****  */
1050:Lib/AI_Runtime/Npu/ll_aton/ll_aton.c **** int LL_Switch_Deinit(const LL_Switch_InitTypeDef *LL_Switch_InitStruct, int n)
1051:Lib/AI_Runtime/Npu/ll_aton/ll_aton.c **** {
ARM GAS  /tmp/ccgbPSBw.s 			page 20


1052:Lib/AI_Runtime/Npu/ll_aton/ll_aton.c ****   int i;
1053:Lib/AI_Runtime/Npu/ll_aton/ll_aton.c ****   volatile uint32_t *reg;
1054:Lib/AI_Runtime/Npu/ll_aton/ll_aton.c **** 
1055:Lib/AI_Runtime/Npu/ll_aton/ll_aton.c ****   for (i = 0; i < n; i++)
1056:Lib/AI_Runtime/Npu/ll_aton/ll_aton.c ****   {
1057:Lib/AI_Runtime/Npu/ll_aton/ll_aton.c ****     /* Compute target destination configuration register */
1058:Lib/AI_Runtime/Npu/ll_aton/ll_aton.c ****     reg = (uint32_t *)(ATON_STRSWITCH_BASE(0) + ATONN_DSTPORT_ID(LL_Switch_InitStruct[i].dest));
1059:Lib/AI_Runtime/Npu/ll_aton/ll_aton.c **** 
1060:Lib/AI_Runtime/Npu/ll_aton/ll_aton.c ****     /* Disable contexts */
1061:Lib/AI_Runtime/Npu/ll_aton/ll_aton.c ****     ATON_REG_WRITE(reg, 0);
1062:Lib/AI_Runtime/Npu/ll_aton/ll_aton.c ****   }
1063:Lib/AI_Runtime/Npu/ll_aton/ll_aton.c **** 
1064:Lib/AI_Runtime/Npu/ll_aton/ll_aton.c ****   return 0;
1065:Lib/AI_Runtime/Npu/ll_aton/ll_aton.c **** }
1066:Lib/AI_Runtime/Npu/ll_aton/ll_aton.c **** 
1067:Lib/AI_Runtime/Npu/ll_aton/ll_aton.c **** /**
1068:Lib/AI_Runtime/Npu/ll_aton/ll_aton.c ****  * @brief  Disconnects destination and source port(s) on the streaming switch
1069:Lib/AI_Runtime/Npu/ll_aton/ll_aton.c ****  * @param  LL_Switch_InitStruct Pointer to structure(s) describing ports to be disconnected
1070:Lib/AI_Runtime/Npu/ll_aton/ll_aton.c ****  * @param  n Number of entries in configuration array
1071:Lib/AI_Runtime/Npu/ll_aton/ll_aton.c ****  * @retval Error code
1072:Lib/AI_Runtime/Npu/ll_aton/ll_aton.c ****  */
1073:Lib/AI_Runtime/Npu/ll_aton/ll_aton.c **** int LL_Switch_Deinit_Fine_Grained(const LL_Switch_InitTypeDef *LL_Switch_InitStruct, int n)
1074:Lib/AI_Runtime/Npu/ll_aton/ll_aton.c **** {
1075:Lib/AI_Runtime/Npu/ll_aton/ll_aton.c ****   int i;
1076:Lib/AI_Runtime/Npu/ll_aton/ll_aton.c ****   volatile uint32_t *reg;
1077:Lib/AI_Runtime/Npu/ll_aton/ll_aton.c ****   unsigned int en_shift[ATON_SWITCH_CONTEXT_NUM] = {ATON_STRSWITCH_DST_EN0_LSB, ATON_STRSWITCH_DST_
1078:Lib/AI_Runtime/Npu/ll_aton/ll_aton.c **** 
1079:Lib/AI_Runtime/Npu/ll_aton/ll_aton.c ****   for (i = 0; i < n; i++)
1080:Lib/AI_Runtime/Npu/ll_aton/ll_aton.c ****   {
1081:Lib/AI_Runtime/Npu/ll_aton/ll_aton.c ****     /* Compute target destination configuration register */
1082:Lib/AI_Runtime/Npu/ll_aton/ll_aton.c ****     reg = (uint32_t *)(ATON_STRSWITCH_BASE(0) + ATONN_DSTPORT_ID(LL_Switch_InitStruct[i].dest));
1083:Lib/AI_Runtime/Npu/ll_aton/ll_aton.c **** 
1084:Lib/AI_Runtime/Npu/ll_aton/ll_aton.c ****     /* Disable context */
1085:Lib/AI_Runtime/Npu/ll_aton/ll_aton.c ****     uint32_t t = *reg;
1086:Lib/AI_Runtime/Npu/ll_aton/ll_aton.c **** #if ATON_SWITCH_CONTEXT_NUM == 2
1087:Lib/AI_Runtime/Npu/ll_aton/ll_aton.c ****     t &= ~((LL_Switch_InitStruct[i].context0 != 0) << en_shift[0]);
1088:Lib/AI_Runtime/Npu/ll_aton/ll_aton.c ****     t &= ~((LL_Switch_InitStruct[i].context1 != 0) << en_shift[1]);
1089:Lib/AI_Runtime/Npu/ll_aton/ll_aton.c **** #else
1090:Lib/AI_Runtime/Npu/ll_aton/ll_aton.c ****     int c;
1091:Lib/AI_Runtime/Npu/ll_aton/ll_aton.c ****     for (c = 0; c < ATON_SWITCH_CONTEXT_NUM; c++)
1092:Lib/AI_Runtime/Npu/ll_aton/ll_aton.c ****       t &= ~((LL_Switch_InitStruct[i].context[c] != 0) << en_shift[c]);
1093:Lib/AI_Runtime/Npu/ll_aton/ll_aton.c **** #endif
1094:Lib/AI_Runtime/Npu/ll_aton/ll_aton.c ****     ATON_REG_WRITE(reg, t);
1095:Lib/AI_Runtime/Npu/ll_aton/ll_aton.c ****   }
1096:Lib/AI_Runtime/Npu/ll_aton/ll_aton.c **** 
1097:Lib/AI_Runtime/Npu/ll_aton/ll_aton.c ****   return 0;
1098:Lib/AI_Runtime/Npu/ll_aton/ll_aton.c **** }
1099:Lib/AI_Runtime/Npu/ll_aton/ll_aton.c **** 
1100:Lib/AI_Runtime/Npu/ll_aton/ll_aton.c **** #ifdef ATON_STRSWITCH_VC_NUM
1101:Lib/AI_Runtime/Npu/ll_aton/ll_aton.c **** 
1102:Lib/AI_Runtime/Npu/ll_aton/ll_aton.c **** /**
1103:Lib/AI_Runtime/Npu/ll_aton/ll_aton.c ****  * @brief  Connects input and output port(s) on the streaming switch with virtual channels (without
1104:Lib/AI_Runtime/Npu/ll_aton/ll_aton.c ****  * configuration)
1105:Lib/AI_Runtime/Npu/ll_aton/ll_aton.c ****  * @param  LL_SwitchVC_InitStruct Pointer to structure(s) describing ports to be connected
1106:Lib/AI_Runtime/Npu/ll_aton/ll_aton.c ****  * @param  n Number of entries in configuration array
1107:Lib/AI_Runtime/Npu/ll_aton/ll_aton.c ****  * @retval Error code
1108:Lib/AI_Runtime/Npu/ll_aton/ll_aton.c ****  */
ARM GAS  /tmp/ccgbPSBw.s 			page 21


1109:Lib/AI_Runtime/Npu/ll_aton/ll_aton.c **** int LL_SwitchVC_Init_NoReset(const LL_SwitchVC_InitTypeDef *LL_SwitchVC_InitStruct, int n)
1110:Lib/AI_Runtime/Npu/ll_aton/ll_aton.c **** {
1111:Lib/AI_Runtime/Npu/ll_aton/ll_aton.c ****   int i;
1112:Lib/AI_Runtime/Npu/ll_aton/ll_aton.c ****   volatile uint32_t *reg;
1113:Lib/AI_Runtime/Npu/ll_aton/ll_aton.c ****   uint32_t t;
1114:Lib/AI_Runtime/Npu/ll_aton/ll_aton.c ****   unsigned int en_shift = ATON_STRSWITCH_VC_DST_EN_LSB;
1115:Lib/AI_Runtime/Npu/ll_aton/ll_aton.c ****   unsigned int src_shift = ATON_STRSWITCH_VC_DST_SRC_LSB;
1116:Lib/AI_Runtime/Npu/ll_aton/ll_aton.c **** 
1117:Lib/AI_Runtime/Npu/ll_aton/ll_aton.c ****   /* Enable Switch */
1118:Lib/AI_Runtime/Npu/ll_aton/ll_aton.c ****   t = ATON_STRSWITCH_VC_CTRL_DT;
1119:Lib/AI_Runtime/Npu/ll_aton/ll_aton.c ****   t = ATON_STRSWITCH_VC_CTRL_SET_EN(t, 1);
1120:Lib/AI_Runtime/Npu/ll_aton/ll_aton.c ****   ATON_STRSWITCH_VC_CTRL_SET(0, t);
1121:Lib/AI_Runtime/Npu/ll_aton/ll_aton.c **** 
1122:Lib/AI_Runtime/Npu/ll_aton/ll_aton.c ****   for (i = 0; i < n; i++)
1123:Lib/AI_Runtime/Npu/ll_aton/ll_aton.c ****   {
1124:Lib/AI_Runtime/Npu/ll_aton/ll_aton.c ****     /* Compute target destination configuration register */
1125:Lib/AI_Runtime/Npu/ll_aton/ll_aton.c ****     reg = (uint32_t *)(ATON_STRSWITCH_VC_BASE(0) + ATONN_DSTPORT_ID(LL_SwitchVC_InitStruct[i].dest)
1126:Lib/AI_Runtime/Npu/ll_aton/ll_aton.c ****     t = 0;
1127:Lib/AI_Runtime/Npu/ll_aton/ll_aton.c ****     /* Enable Context and create link */
1128:Lib/AI_Runtime/Npu/ll_aton/ll_aton.c ****     t |= (1 << en_shift);
1129:Lib/AI_Runtime/Npu/ll_aton/ll_aton.c ****     t |= (ATONN_SRCPORT_ID(LL_SwitchVC_InitStruct[i].source) << src_shift);
1130:Lib/AI_Runtime/Npu/ll_aton/ll_aton.c ****     ATON_REG_WRITE(reg, t);
1131:Lib/AI_Runtime/Npu/ll_aton/ll_aton.c ****   }
1132:Lib/AI_Runtime/Npu/ll_aton/ll_aton.c **** 
1133:Lib/AI_Runtime/Npu/ll_aton/ll_aton.c ****   return 0;
1134:Lib/AI_Runtime/Npu/ll_aton/ll_aton.c **** }
1135:Lib/AI_Runtime/Npu/ll_aton/ll_aton.c **** 
1136:Lib/AI_Runtime/Npu/ll_aton/ll_aton.c **** /**
1137:Lib/AI_Runtime/Npu/ll_aton/ll_aton.c ****  * @brief  Connects input and output port(s) on the streaming switch with virtual channels (clearin
1138:Lib/AI_Runtime/Npu/ll_aton/ll_aton.c ****  * the beginning)
1139:Lib/AI_Runtime/Npu/ll_aton/ll_aton.c ****  * @param  LL_SwitchVC_InitStruct Pointer to structure(s) describing ports to be connected
1140:Lib/AI_Runtime/Npu/ll_aton/ll_aton.c ****  * @param  n Number of entries in configuration array
1141:Lib/AI_Runtime/Npu/ll_aton/ll_aton.c ****  * @retval Error code
1142:Lib/AI_Runtime/Npu/ll_aton/ll_aton.c ****  */
1143:Lib/AI_Runtime/Npu/ll_aton/ll_aton.c **** int LL_SwitchVC_Init(const LL_SwitchVC_InitTypeDef *LL_SwitchVC_InitStruct, int n)
1144:Lib/AI_Runtime/Npu/ll_aton/ll_aton.c **** {
1145:Lib/AI_Runtime/Npu/ll_aton/ll_aton.c ****   uint32_t t;
1146:Lib/AI_Runtime/Npu/ll_aton/ll_aton.c **** 
1147:Lib/AI_Runtime/Npu/ll_aton/ll_aton.c ****   /* Clear Configuration */
1148:Lib/AI_Runtime/Npu/ll_aton/ll_aton.c ****   ATON_DISABLE_CLR_CONFCLR(STRSWITCH_VC, 0);
1149:Lib/AI_Runtime/Npu/ll_aton/ll_aton.c **** 
1150:Lib/AI_Runtime/Npu/ll_aton/ll_aton.c ****   return LL_SwitchVC_Init_NoReset(LL_SwitchVC_InitStruct, n);
1151:Lib/AI_Runtime/Npu/ll_aton/ll_aton.c **** }
1152:Lib/AI_Runtime/Npu/ll_aton/ll_aton.c **** 
1153:Lib/AI_Runtime/Npu/ll_aton/ll_aton.c **** /**
1154:Lib/AI_Runtime/Npu/ll_aton/ll_aton.c ****  * @brief  Fully disconnect a destination port from source ports on the streaming switch with virtu
1155:Lib/AI_Runtime/Npu/ll_aton/ll_aton.c ****  * @param  LL_SwitchVC_InitStruct Pointer to structure(s) describing ports to be disconnected
1156:Lib/AI_Runtime/Npu/ll_aton/ll_aton.c ****  * @param  n Number of entries in configuration array
1157:Lib/AI_Runtime/Npu/ll_aton/ll_aton.c ****  * @retval Error code
1158:Lib/AI_Runtime/Npu/ll_aton/ll_aton.c ****  */
1159:Lib/AI_Runtime/Npu/ll_aton/ll_aton.c **** int LL_SwitchVC_Deinit(const LL_SwitchVC_InitTypeDef *LL_SwitchVC_InitStruct, int n)
1160:Lib/AI_Runtime/Npu/ll_aton/ll_aton.c **** {
1161:Lib/AI_Runtime/Npu/ll_aton/ll_aton.c ****   int i;
1162:Lib/AI_Runtime/Npu/ll_aton/ll_aton.c ****   volatile uint32_t *reg;
1163:Lib/AI_Runtime/Npu/ll_aton/ll_aton.c **** 
1164:Lib/AI_Runtime/Npu/ll_aton/ll_aton.c ****   for (i = 0; i < n; i++)
1165:Lib/AI_Runtime/Npu/ll_aton/ll_aton.c ****   {
ARM GAS  /tmp/ccgbPSBw.s 			page 22


1166:Lib/AI_Runtime/Npu/ll_aton/ll_aton.c ****     /* Compute target destination configuration register */
1167:Lib/AI_Runtime/Npu/ll_aton/ll_aton.c ****     reg = (uint32_t *)(ATON_STRSWITCH_VC_BASE(0) + ATONN_DSTPORT_ID(LL_SwitchVC_InitStruct[i].dest)
1168:Lib/AI_Runtime/Npu/ll_aton/ll_aton.c **** 
1169:Lib/AI_Runtime/Npu/ll_aton/ll_aton.c ****     /* Disable contexts */
1170:Lib/AI_Runtime/Npu/ll_aton/ll_aton.c ****     ATON_REG_WRITE(reg, 0);
1171:Lib/AI_Runtime/Npu/ll_aton/ll_aton.c ****   }
1172:Lib/AI_Runtime/Npu/ll_aton/ll_aton.c **** 
1173:Lib/AI_Runtime/Npu/ll_aton/ll_aton.c ****   return 0;
1174:Lib/AI_Runtime/Npu/ll_aton/ll_aton.c **** }
1175:Lib/AI_Runtime/Npu/ll_aton/ll_aton.c **** 
1176:Lib/AI_Runtime/Npu/ll_aton/ll_aton.c **** /**
1177:Lib/AI_Runtime/Npu/ll_aton/ll_aton.c ****  * @brief  Disconnects destination and source port(s) on the streaming switch with virtual channels
1178:Lib/AI_Runtime/Npu/ll_aton/ll_aton.c ****  * @param  LL_SwitchVC_InitStruct Pointer to structure(s) describing ports to be disconnected
1179:Lib/AI_Runtime/Npu/ll_aton/ll_aton.c ****  * @param  n Number of entries in configuration array
1180:Lib/AI_Runtime/Npu/ll_aton/ll_aton.c ****  * @retval Error code
1181:Lib/AI_Runtime/Npu/ll_aton/ll_aton.c ****  */
1182:Lib/AI_Runtime/Npu/ll_aton/ll_aton.c **** int LL_SwitchVC_Deinit_Fine_Grained(const LL_SwitchVC_InitTypeDef *LL_SwitchVC_InitStruct, int n)
1183:Lib/AI_Runtime/Npu/ll_aton/ll_aton.c **** {
1184:Lib/AI_Runtime/Npu/ll_aton/ll_aton.c ****   int i;
1185:Lib/AI_Runtime/Npu/ll_aton/ll_aton.c ****   volatile uint32_t *reg;
1186:Lib/AI_Runtime/Npu/ll_aton/ll_aton.c ****   unsigned int en_shift = ATON_STRSWITCH_VC_DST_EN_LSB;
1187:Lib/AI_Runtime/Npu/ll_aton/ll_aton.c **** 
1188:Lib/AI_Runtime/Npu/ll_aton/ll_aton.c ****   for (i = 0; i < n; i++)
1189:Lib/AI_Runtime/Npu/ll_aton/ll_aton.c ****   {
1190:Lib/AI_Runtime/Npu/ll_aton/ll_aton.c ****     /* Compute target destination configuration register */
1191:Lib/AI_Runtime/Npu/ll_aton/ll_aton.c ****     reg = (uint32_t *)(ATON_STRSWITCH_VC_BASE(0) + ATONN_DSTPORT_ID(LL_SwitchVC_InitStruct[i].dest)
1192:Lib/AI_Runtime/Npu/ll_aton/ll_aton.c **** 
1193:Lib/AI_Runtime/Npu/ll_aton/ll_aton.c ****     /* Disable context */
1194:Lib/AI_Runtime/Npu/ll_aton/ll_aton.c ****     uint32_t t = *reg;
1195:Lib/AI_Runtime/Npu/ll_aton/ll_aton.c ****     t &= ~(1 << en_shift);
1196:Lib/AI_Runtime/Npu/ll_aton/ll_aton.c ****     ATON_REG_WRITE(reg, t);
1197:Lib/AI_Runtime/Npu/ll_aton/ll_aton.c ****   }
1198:Lib/AI_Runtime/Npu/ll_aton/ll_aton.c **** 
1199:Lib/AI_Runtime/Npu/ll_aton/ll_aton.c ****   return 0;
1200:Lib/AI_Runtime/Npu/ll_aton/ll_aton.c **** }
1201:Lib/AI_Runtime/Npu/ll_aton/ll_aton.c **** #endif // ATON_STRSWITCH_VC_NUM
1202:Lib/AI_Runtime/Npu/ll_aton/ll_aton.c **** 
1203:Lib/AI_Runtime/Npu/ll_aton/ll_aton.c **** #ifdef ATON_DECUN_NUM
1204:Lib/AI_Runtime/Npu/ll_aton/ll_aton.c **** 
1205:Lib/AI_Runtime/Npu/ll_aton/ll_aton.c **** static inline uint32_t decun_inc_page_addr(int id, uint32_t ctrl_val)
1206:Lib/AI_Runtime/Npu/ll_aton/ll_aton.c **** {
  34              		.loc 1 1206 1 view -0
  35              		.cfi_startproc
  36              		@ args = 0, pretend = 0, frame = 0
  37              		@ frame_needed = 0, uses_anonymous_args = 0
  38              		@ link register save eliminated.
1207:Lib/AI_Runtime/Npu/ll_aton/ll_aton.c ****   uint32_t page_addr = ATON_DECUN_CTRL_GET_PAGEADDR(ctrl_val);
  39              		.loc 1 1207 3 view .LVU1
1208:Lib/AI_Runtime/Npu/ll_aton/ll_aton.c ****   page_addr++;
  40              		.loc 1 1208 3 view .LVU2
1209:Lib/AI_Runtime/Npu/ll_aton/ll_aton.c ****   ctrl_val = ATON_DECUN_CTRL_SET_PAGEADDR(ctrl_val, page_addr);
  41              		.loc 1 1209 3 view .LVU3
1208:Lib/AI_Runtime/Npu/ll_aton/ll_aton.c ****   page_addr++;
  42              		.loc 1 1208 12 is_stmt 0 view .LVU4
  43 0000 01F03003 		and	r3, r1, #48
  44              		.loc 1 1209 14 view .LVU5
  45 0004 1033     		adds	r3, r3, #16
ARM GAS  /tmp/ccgbPSBw.s 			page 23


1210:Lib/AI_Runtime/Npu/ll_aton/ll_aton.c ****   ATON_DECUN_CTRL_SET(id, ctrl_val);
  46              		.loc 1 1210 3 view .LVU6
  47 0006 00F5B020 		add	r0, r0, #360448
  48              	.LVL1:
1209:Lib/AI_Runtime/Npu/ll_aton/ll_aton.c ****   ctrl_val = ATON_DECUN_CTRL_SET_PAGEADDR(ctrl_val, page_addr);
  49              		.loc 1 1209 14 view .LVU7
  50 000a 21F03002 		bic	r2, r1, #48
  51 000e 03F03003 		and	r3, r3, #48
  52              		.loc 1 1210 3 view .LVU8
  53 0012 F330     		adds	r0, r0, #243
  54              	.LVL2:
1209:Lib/AI_Runtime/Npu/ll_aton/ll_aton.c ****   ctrl_val = ATON_DECUN_CTRL_SET_PAGEADDR(ctrl_val, page_addr);
  55              		.loc 1 1209 12 view .LVU9
  56 0014 1343     		orrs	r3, r3, r2
  57              	.LVL3:
  58              		.loc 1 1210 3 is_stmt 1 view .LVU10
  59              		.loc 1 1210 3 view .LVU11
  60 0016 0003     		lsls	r0, r0, #12
  61              	.LVL4:
  62              		.loc 1 1210 3 is_stmt 0 view .LVU12
  63 0018 0360     		str	r3, [r0]
  64              		.loc 1 1210 3 is_stmt 1 view .LVU13
  65              		.loc 1 1210 36 view .LVU14
1211:Lib/AI_Runtime/Npu/ll_aton/ll_aton.c ****   return ctrl_val;
  66              		.loc 1 1211 3 view .LVU15
1212:Lib/AI_Runtime/Npu/ll_aton/ll_aton.c **** }
  67              		.loc 1 1212 1 is_stmt 0 view .LVU16
  68 001a 1846     		mov	r0, r3
  69 001c 7047     		bx	lr
  70              		.cfi_endproc
  71              	.LFE4840:
  73              		.section	.text.LL_Address_Physical2Virtual,"ax",%progbits
  74              		.align	1
  75              		.global	LL_Address_Physical2Virtual
  76              		.syntax unified
  77              		.thumb
  78              		.thumb_func
  80              	LL_Address_Physical2Virtual:
  81              	.LVL5:
  82              	.LFB4821:
 129:Lib/AI_Runtime/Npu/ll_aton/ll_aton.c ****   return ATON_LIB_PHYSICAL_TO_VIRTUAL_ADDR(address);
  83              		.loc 1 129 1 is_stmt 1 view -0
  84              		.cfi_startproc
  85              		@ args = 0, pretend = 0, frame = 0
  86              		@ frame_needed = 0, uses_anonymous_args = 0
  87              		@ link register save eliminated.
 130:Lib/AI_Runtime/Npu/ll_aton/ll_aton.c **** }
  88              		.loc 1 130 3 view .LVU18
 131:Lib/AI_Runtime/Npu/ll_aton/ll_aton.c **** 
  89              		.loc 1 131 1 is_stmt 0 view .LVU19
  90 0000 7047     		bx	lr
  91              		.cfi_endproc
  92              	.LFE4821:
  94              		.section	.text.LL_Address_Virtual2Physical,"ax",%progbits
  95              		.align	1
  96              		.global	LL_Address_Virtual2Physical
  97              		.syntax unified
ARM GAS  /tmp/ccgbPSBw.s 			page 24


  98              		.thumb
  99              		.thumb_func
 101              	LL_Address_Virtual2Physical:
 102              	.LFB4860:
 103              		.cfi_startproc
 133:Lib/AI_Runtime/Npu/ll_aton/ll_aton.c **** {
 104              		.loc 1 133 16 is_stmt 1 view -0
 105              		@ args = 0, pretend = 0, frame = 0
 106              		@ frame_needed = 0, uses_anonymous_args = 0
 107              		@ link register save eliminated.
 108 0000 7047     		bx	lr
 109              		.cfi_endproc
 110              	.LFE4860:
 112              		.section	.text.startWatchdog,"ax",%progbits
 113              		.align	1
 114              		.weak	startWatchdog
 115              		.syntax unified
 116              		.thumb
 117              		.thumb_func
 119              	startWatchdog:
 120              	.LVL6:
 121              	.LFB4823:
 144:Lib/AI_Runtime/Npu/ll_aton/ll_aton.c ****   (void)timeout;
 122              		.loc 1 144 1 view -0
 123              		.cfi_startproc
 124              		@ args = 0, pretend = 0, frame = 0
 125              		@ frame_needed = 0, uses_anonymous_args = 0
 126              		@ link register save eliminated.
 145:Lib/AI_Runtime/Npu/ll_aton/ll_aton.c **** 
 127              		.loc 1 145 3 view .LVU22
 147:Lib/AI_Runtime/Npu/ll_aton/ll_aton.c **** }
 128              		.loc 1 147 3 view .LVU23
 148:Lib/AI_Runtime/Npu/ll_aton/ll_aton.c **** 
 129              		.loc 1 148 1 is_stmt 0 view .LVU24
 130 0000 0020     		movs	r0, #0
 131              	.LVL7:
 148:Lib/AI_Runtime/Npu/ll_aton/ll_aton.c **** 
 132              		.loc 1 148 1 view .LVU25
 133 0002 7047     		bx	lr
 134              		.cfi_endproc
 135              	.LFE4823:
 137              		.section	.text.checkWatchdog,"ax",%progbits
 138              		.align	1
 139              		.weak	checkWatchdog
 140              		.syntax unified
 141              		.thumb
 142              		.thumb_func
 144              	checkWatchdog:
 145              	.LFB4824:
 155:Lib/AI_Runtime/Npu/ll_aton/ll_aton.c ****   return 0;
 146              		.loc 1 155 1 is_stmt 1 view -0
 147              		.cfi_startproc
 148              		@ args = 0, pretend = 0, frame = 0
 149              		@ frame_needed = 0, uses_anonymous_args = 0
 150              		@ link register save eliminated.
 156:Lib/AI_Runtime/Npu/ll_aton/ll_aton.c **** }
 151              		.loc 1 156 3 view .LVU27
ARM GAS  /tmp/ccgbPSBw.s 			page 25


 157:Lib/AI_Runtime/Npu/ll_aton/ll_aton.c **** 
 152              		.loc 1 157 1 is_stmt 0 view .LVU28
 153 0000 0020     		movs	r0, #0
 154 0002 7047     		bx	lr
 155              		.cfi_endproc
 156              	.LFE4824:
 158              		.section	.rodata.LL_ATON_Init.str1.1,"aMS",%progbits,1
 159              	.LC3:
 160 0000 4E6F6E65 		.ascii	"None\000"
 160      00
 161              	.LC4:
 162 0005 4C69622F 		.ascii	"Lib/AI_Runtime/Npu/ll_aton/ll_aton.c\000"
 162      41495F52 
 162      756E7469 
 162      6D652F4E 
 162      70752F6C 
 163              	.LC5:
 164 002a 5B455252 		.ascii	"[ERROR] (%s:%d: errno: %s) %s unit ver mismatch: RT"
 164      4F525D20 
 164      2825733A 
 164      25643A20 
 164      6572726E 
 165 005d 4C3A743D 		.ascii	"L:t=%lu,ver=%lu.%lu  ATON.h:t=%lu,ver=%lu.%lu\012\015"
 165      256C752C 
 165      7665723D 
 165      256C752E 
 165      256C7520 
 166 008c 0A00     		.ascii	"\012\000"
 167              	.LC6:
 168 008e 53545245 		.ascii	"STRENG\000"
 168      4E4700
 169              	.LC7:
 170 0095 3000     		.ascii	"0\000"
 171              	.LC8:
 172 0097 434F4E56 		.ascii	"CONVACC\000"
 172      41434300 
 173              	.LC9:
 174 009f 504F4F4C 		.ascii	"POOL\000"
 174      00
 175              	.LC10:
 176 00a4 41524954 		.ascii	"ARITH\000"
 176      4800
 177              	.LC11:
 178 00aa 41435449 		.ascii	"ACTIV\000"
 178      5600
 179              	.LC12:
 180 00b0 44454355 		.ascii	"DECUN\000"
 180      4E00
 181              	.LC13:
 182 00b6 45504F43 		.ascii	"EPOCHCTRL\000"
 182      48435452 
 182      4C00
 183              	.LC14:
 184 00c0 52454342 		.ascii	"RECBUF\000"
 184      554600
 185              	.LC15:
 186 00c7 434C4B43 		.ascii	"CLKCTRL\000"
ARM GAS  /tmp/ccgbPSBw.s 			page 26


 186      54524C00 
 187              	.LC16:
 188 00cf 494E5443 		.ascii	"INTCTRL\000"
 188      54524C00 
 189              	.LC17:
 190 00d7 53545253 		.ascii	"STRSWITCH\000"
 190      57495443 
 190      4800
 191              	.LC18:
 192 00e1 42555349 		.ascii	"BUSIF\000"
 192      4600
 193              		.section	.text.LL_ATON_Init,"ax",%progbits
 194              		.align	1
 195              		.global	LL_ATON_Init
 196              		.syntax unified
 197              		.thumb
 198              		.thumb_func
 200              	LL_ATON_Init:
 201              	.LFB4825:
 168:Lib/AI_Runtime/Npu/ll_aton/ll_aton.c ****   uint32_t t;
 202              		.loc 1 168 1 is_stmt 1 view -0
 203              		.cfi_startproc
 204              		@ args = 0, pretend = 0, frame = 0
 205              		@ frame_needed = 0, uses_anonymous_args = 0
 169:Lib/AI_Runtime/Npu/ll_aton/ll_aton.c ****   int i;
 206              		.loc 1 169 3 view .LVU30
 170:Lib/AI_Runtime/Npu/ll_aton/ll_aton.c **** 
 207              		.loc 1 170 3 view .LVU31
 172:Lib/AI_Runtime/Npu/ll_aton/ll_aton.c **** 
 208              		.loc 1 172 3 view .LVU32
 209              	.LBB15:
 210              	.LBI15:
  62:Lib/AI_Runtime/Npu/ll_aton/ll_aton.c **** {
 211              		.loc 1 62 20 view .LVU33
 212              	.LBB16:
  64:Lib/AI_Runtime/Npu/ll_aton/ll_aton.c **** 
 213              		.loc 1 64 3 view .LVU34
  66:Lib/AI_Runtime/Npu/ll_aton/ll_aton.c ****     return;
 214              		.loc 1 66 3 view .LVU35
 215              	.LBE16:
 216              	.LBE15:
 168:Lib/AI_Runtime/Npu/ll_aton/ll_aton.c ****   uint32_t t;
 217              		.loc 1 168 1 is_stmt 0 view .LVU36
 218 0000 10B5     		push	{r4, lr}
 219              		.cfi_def_cfa_offset 8
 220              		.cfi_offset 4, -8
 221              		.cfi_offset 14, -4
 222              	.LBB19:
 223              	.LBB17:
  66:Lib/AI_Runtime/Npu/ll_aton/ll_aton.c ****     return;
 224              		.loc 1 66 12 view .LVU37
 225 0002 A34B     		ldr	r3, .L95
 226              	.LBE17:
 227              	.LBE19:
 168:Lib/AI_Runtime/Npu/ll_aton/ll_aton.c ****   uint32_t t;
 228              		.loc 1 168 1 view .LVU38
 229 0004 88B0     		sub	sp, sp, #32
ARM GAS  /tmp/ccgbPSBw.s 			page 27


 230              		.cfi_def_cfa_offset 40
 231              	.LBB20:
 232              	.LBB18:
  66:Lib/AI_Runtime/Npu/ll_aton/ll_aton.c ****     return;
 233              		.loc 1 66 6 view .LVU39
 234 0006 1A78     		ldrb	r2, [r3]	@ zero_extendqisi2
 235 0008 0AB9     		cbnz	r2, .L7
  68:Lib/AI_Runtime/Npu/ll_aton/ll_aton.c **** 
 236              		.loc 1 68 3 is_stmt 1 view .LVU40
  68:Lib/AI_Runtime/Npu/ll_aton/ll_aton.c **** 
 237              		.loc 1 68 8 is_stmt 0 view .LVU41
 238 000a 0122     		movs	r2, #1
 239 000c 1A70     		strb	r2, [r3]
  76:Lib/AI_Runtime/Npu/ll_aton/ll_aton.c ****   ASSERT_ATONN_DSTPORT(STRSWITCH, 0, STRENG, 1, 0);
 240              		.loc 1 76 3 is_stmt 1 view .LVU42
  77:Lib/AI_Runtime/Npu/ll_aton/ll_aton.c **** #endif
 241              		.loc 1 77 3 view .LVU43
  80:Lib/AI_Runtime/Npu/ll_aton/ll_aton.c ****   ASSERT_ATONN_DSTPORT(STRSWITCH, 0, STRENG, 2, 0);
 242              		.loc 1 80 3 view .LVU44
  81:Lib/AI_Runtime/Npu/ll_aton/ll_aton.c **** #endif
 243              		.loc 1 81 3 view .LVU45
 244              	.L7:
 245              	.LBE18:
 246              	.LBE20:
 175:Lib/AI_Runtime/Npu/ll_aton/ll_aton.c ****   t = ATON_CLKCTRL_CTRL_SET_CLR(t, 1);
 247              		.loc 1 175 3 view .LVU46
 175:Lib/AI_Runtime/Npu/ll_aton/ll_aton.c ****   t = ATON_CLKCTRL_CTRL_SET_CLR(t, 1);
 248              		.loc 1 175 5 is_stmt 0 view .LVU47
 249 000e A14B     		ldr	r3, .L95+4
 250 0010 1A68     		ldr	r2, [r3]
 251              	.LVL8:
 176:Lib/AI_Runtime/Npu/ll_aton/ll_aton.c ****   ATON_CLKCTRL_CTRL_SET(0, t);
 252              		.loc 1 176 3 is_stmt 1 view .LVU48
 176:Lib/AI_Runtime/Npu/ll_aton/ll_aton.c ****   ATON_CLKCTRL_CTRL_SET(0, t);
 253              		.loc 1 176 5 is_stmt 0 view .LVU49
 254 0012 42F00202 		orr	r2, r2, #2
 255              	.LVL9:
 177:Lib/AI_Runtime/Npu/ll_aton/ll_aton.c **** 
 256              		.loc 1 177 3 is_stmt 1 view .LVU50
 177:Lib/AI_Runtime/Npu/ll_aton/ll_aton.c **** 
 257              		.loc 1 177 3 view .LVU51
 258 0016 1A60     		str	r2, [r3]
 177:Lib/AI_Runtime/Npu/ll_aton/ll_aton.c **** 
 259              		.loc 1 177 3 view .LVU52
 177:Lib/AI_Runtime/Npu/ll_aton/ll_aton.c **** 
 260              		.loc 1 177 30 view .LVU53
 180:Lib/AI_Runtime/Npu/ll_aton/ll_aton.c ****   ATON_CLKCTRL_AGATES0_SET(0, 0xffffffff);
 261              		.loc 1 180 3 view .LVU54
 180:Lib/AI_Runtime/Npu/ll_aton/ll_aton.c ****   ATON_CLKCTRL_AGATES0_SET(0, 0xffffffff);
 262              		.loc 1 180 3 view .LVU55
 263 0018 0122     		movs	r2, #1
 264              	.LVL10:
 180:Lib/AI_Runtime/Npu/ll_aton/ll_aton.c ****   ATON_CLKCTRL_AGATES0_SET(0, 0xffffffff);
 265              		.loc 1 180 3 is_stmt 0 view .LVU56
 266 001a 1A60     		str	r2, [r3]
 267              	.LVL11:
 180:Lib/AI_Runtime/Npu/ll_aton/ll_aton.c ****   ATON_CLKCTRL_AGATES0_SET(0, 0xffffffff);
ARM GAS  /tmp/ccgbPSBw.s 			page 28


 268              		.loc 1 180 3 is_stmt 1 view .LVU57
 180:Lib/AI_Runtime/Npu/ll_aton/ll_aton.c ****   ATON_CLKCTRL_AGATES0_SET(0, 0xffffffff);
 269              		.loc 1 180 30 view .LVU58
 181:Lib/AI_Runtime/Npu/ll_aton/ll_aton.c ****   ATON_CLKCTRL_AGATES1_SET(0, 0xffffffff);
 270              		.loc 1 181 3 view .LVU59
 181:Lib/AI_Runtime/Npu/ll_aton/ll_aton.c ****   ATON_CLKCTRL_AGATES1_SET(0, 0xffffffff);
 271              		.loc 1 181 3 view .LVU60
 272 001c 4FF0FF32 		mov	r2, #-1
 273 0020 9A60     		str	r2, [r3, #8]
 181:Lib/AI_Runtime/Npu/ll_aton/ll_aton.c ****   ATON_CLKCTRL_AGATES1_SET(0, 0xffffffff);
 274              		.loc 1 181 3 view .LVU61
 181:Lib/AI_Runtime/Npu/ll_aton/ll_aton.c ****   ATON_CLKCTRL_AGATES1_SET(0, 0xffffffff);
 275              		.loc 1 181 42 view .LVU62
 182:Lib/AI_Runtime/Npu/ll_aton/ll_aton.c **** 
 276              		.loc 1 182 3 view .LVU63
 182:Lib/AI_Runtime/Npu/ll_aton/ll_aton.c **** 
 277              		.loc 1 182 3 view .LVU64
 278 0022 DA60     		str	r2, [r3, #12]
 182:Lib/AI_Runtime/Npu/ll_aton/ll_aton.c **** 
 279              		.loc 1 182 3 view .LVU65
 182:Lib/AI_Runtime/Npu/ll_aton/ll_aton.c **** 
 280              		.loc 1 182 42 view .LVU66
 188:Lib/AI_Runtime/Npu/ll_aton/ll_aton.c **** #endif
 281              		.loc 1 188 3 view .LVU67
 188:Lib/AI_Runtime/Npu/ll_aton/ll_aton.c **** #endif
 282              		.loc 1 188 3 view .LVU68
 283 0024 0022     		movs	r2, #0
 284 0026 1A61     		str	r2, [r3, #16]
 199:Lib/AI_Runtime/Npu/ll_aton/ll_aton.c **** 
 285              		.loc 1 199 3 is_stmt 0 discriminator 1 view .LVU69
 286 0028 03F5A043 		add	r3, r3, #20480
 287              	.LVL12:
 288              	.L8:
 188:Lib/AI_Runtime/Npu/ll_aton/ll_aton.c **** #endif
 289              		.loc 1 188 3 is_stmt 1 discriminator 1 view .LVU70
 188:Lib/AI_Runtime/Npu/ll_aton/ll_aton.c **** #endif
 290              		.loc 1 188 34 discriminator 1 view .LVU71
 199:Lib/AI_Runtime/Npu/ll_aton/ll_aton.c **** 
 291              		.loc 1 199 3 discriminator 1 view .LVU72
 199:Lib/AI_Runtime/Npu/ll_aton/ll_aton.c **** 
 292              		.loc 1 199 3 discriminator 1 view .LVU73
 293 002c 5C68     		ldr	r4, [r3, #4]
 294              	.LVL13:
 199:Lib/AI_Runtime/Npu/ll_aton/ll_aton.c **** 
 295              		.loc 1 199 3 discriminator 1 view .LVU74
 296 002e 002C     		cmp	r4, #0
 297 0030 FCD0     		beq	.L8
 199:Lib/AI_Runtime/Npu/ll_aton/ll_aton.c **** 
 298              		.loc 1 199 3 discriminator 2 view .LVU75
 299 0032 45F20103 		movw	r3, #20481
 300 0036 A2B2     		uxth	r2, r4
 301 0038 9A42     		cmp	r2, r3
 302 003a 40F09280 		bne	.L81
 202:Lib/AI_Runtime/Npu/ll_aton/ll_aton.c **** #endif
 303              		.loc 1 202 3 is_stmt 0 discriminator 1 view .LVU76
 304 003e 964B     		ldr	r3, .L95+8
 305              	.L9:
ARM GAS  /tmp/ccgbPSBw.s 			page 29


 199:Lib/AI_Runtime/Npu/ll_aton/ll_aton.c **** 
 306              		.loc 1 199 37 is_stmt 1 discriminator 4 view .LVU77
 202:Lib/AI_Runtime/Npu/ll_aton/ll_aton.c **** #endif
 307              		.loc 1 202 3 discriminator 1 view .LVU78
 202:Lib/AI_Runtime/Npu/ll_aton/ll_aton.c **** #endif
 308              		.loc 1 202 3 discriminator 1 view .LVU79
 309 0040 5C68     		ldr	r4, [r3, #4]
 310              	.LVL14:
 202:Lib/AI_Runtime/Npu/ll_aton/ll_aton.c **** #endif
 311              		.loc 1 202 3 discriminator 1 view .LVU80
 312 0042 002C     		cmp	r4, #0
 313 0044 FCD0     		beq	.L9
 202:Lib/AI_Runtime/Npu/ll_aton/ll_aton.c **** #endif
 314              		.loc 1 202 3 discriminator 2 view .LVU81
 315 0046 45F21713 		movw	r3, #20759
 316 004a A2B2     		uxth	r2, r4
 317 004c 9A42     		cmp	r2, r3
 318 004e 40F0B080 		bne	.L82
 206:Lib/AI_Runtime/Npu/ll_aton/ll_aton.c **** #endif
 319              		.loc 1 206 3 is_stmt 0 discriminator 1 view .LVU82
 320 0052 924B     		ldr	r3, .L95+12
 321              	.L11:
 202:Lib/AI_Runtime/Npu/ll_aton/ll_aton.c **** #endif
 322              		.loc 1 202 38 is_stmt 1 discriminator 4 view .LVU83
 206:Lib/AI_Runtime/Npu/ll_aton/ll_aton.c **** #endif
 323              		.loc 1 206 3 discriminator 1 view .LVU84
 206:Lib/AI_Runtime/Npu/ll_aton/ll_aton.c **** #endif
 324              		.loc 1 206 3 discriminator 1 view .LVU85
 325 0054 5C68     		ldr	r4, [r3, #4]
 326              	.LVL15:
 206:Lib/AI_Runtime/Npu/ll_aton/ll_aton.c **** #endif
 327              		.loc 1 206 3 discriminator 1 view .LVU86
 328 0056 002C     		cmp	r4, #0
 329 0058 FCD0     		beq	.L11
 206:Lib/AI_Runtime/Npu/ll_aton/ll_aton.c **** #endif
 330              		.loc 1 206 3 discriminator 2 view .LVU87
 331 005a 41F21C13 		movw	r3, #4380
 332 005e A2B2     		uxth	r2, r4
 333 0060 9A42     		cmp	r2, r3
 334 0062 40F0CC80 		bne	.L83
 210:Lib/AI_Runtime/Npu/ll_aton/ll_aton.c **** #endif
 335              		.loc 1 210 3 is_stmt 0 discriminator 1 view .LVU88
 336 0066 8E4B     		ldr	r3, .L95+16
 337              	.L13:
 206:Lib/AI_Runtime/Npu/ll_aton/ll_aton.c **** #endif
 338              		.loc 1 206 35 is_stmt 1 discriminator 4 view .LVU89
 210:Lib/AI_Runtime/Npu/ll_aton/ll_aton.c **** #endif
 339              		.loc 1 210 3 discriminator 1 view .LVU90
 210:Lib/AI_Runtime/Npu/ll_aton/ll_aton.c **** #endif
 340              		.loc 1 210 3 discriminator 1 view .LVU91
 341 0068 5C68     		ldr	r4, [r3, #4]
 342              	.LVL16:
 210:Lib/AI_Runtime/Npu/ll_aton/ll_aton.c **** #endif
 343              		.loc 1 210 3 discriminator 1 view .LVU92
 344 006a 002C     		cmp	r4, #0
 345 006c FCD0     		beq	.L13
 210:Lib/AI_Runtime/Npu/ll_aton/ll_aton.c **** #endif
ARM GAS  /tmp/ccgbPSBw.s 			page 30


 346              		.loc 1 210 3 discriminator 2 view .LVU93
 347 006e 41F21A03 		movw	r3, #4122
 348 0072 A2B2     		uxth	r2, r4
 349 0074 9A42     		cmp	r2, r3
 350 0076 40F0E680 		bne	.L84
 214:Lib/AI_Runtime/Npu/ll_aton/ll_aton.c **** #endif
 351              		.loc 1 214 3 is_stmt 0 discriminator 1 view .LVU94
 352 007a 8A4B     		ldr	r3, .L95+20
 353              	.L15:
 210:Lib/AI_Runtime/Npu/ll_aton/ll_aton.c **** #endif
 354              		.loc 1 210 36 is_stmt 1 discriminator 4 view .LVU95
 214:Lib/AI_Runtime/Npu/ll_aton/ll_aton.c **** #endif
 355              		.loc 1 214 3 discriminator 1 view .LVU96
 214:Lib/AI_Runtime/Npu/ll_aton/ll_aton.c **** #endif
 356              		.loc 1 214 3 discriminator 1 view .LVU97
 357 007c 5C68     		ldr	r4, [r3, #4]
 358              	.LVL17:
 214:Lib/AI_Runtime/Npu/ll_aton/ll_aton.c **** #endif
 359              		.loc 1 214 3 discriminator 1 view .LVU98
 360 007e 002C     		cmp	r4, #0
 361 0080 FCD0     		beq	.L15
 214:Lib/AI_Runtime/Npu/ll_aton/ll_aton.c **** #endif
 362              		.loc 1 214 3 discriminator 2 view .LVU99
 363 0082 41F21B13 		movw	r3, #4379
 364 0086 A2B2     		uxth	r2, r4
 365 0088 9A42     		cmp	r2, r3
 366 008a 40F02D81 		bne	.L85
 218:Lib/AI_Runtime/Npu/ll_aton/ll_aton.c **** #endif
 367              		.loc 1 218 3 is_stmt 0 discriminator 1 view .LVU100
 368 008e 864B     		ldr	r3, .L95+24
 369              	.L17:
 214:Lib/AI_Runtime/Npu/ll_aton/ll_aton.c **** #endif
 370              		.loc 1 214 36 is_stmt 1 discriminator 4 view .LVU101
 218:Lib/AI_Runtime/Npu/ll_aton/ll_aton.c **** #endif
 371              		.loc 1 218 3 discriminator 1 view .LVU102
 218:Lib/AI_Runtime/Npu/ll_aton/ll_aton.c **** #endif
 372              		.loc 1 218 3 discriminator 1 view .LVU103
 373 0090 5C68     		ldr	r4, [r3, #4]
 374              	.LVL18:
 218:Lib/AI_Runtime/Npu/ll_aton/ll_aton.c **** #endif
 375              		.loc 1 218 3 discriminator 1 view .LVU104
 376 0092 002C     		cmp	r4, #0
 377 0094 FCD0     		beq	.L17
 218:Lib/AI_Runtime/Npu/ll_aton/ll_aton.c **** #endif
 378              		.loc 1 218 3 discriminator 2 view .LVU105
 379 0096 41F61923 		movw	r3, #6681
 380 009a A2B2     		uxth	r2, r4
 381 009c 9A42     		cmp	r2, r3
 382 009e 40F04781 		bne	.L86
 222:Lib/AI_Runtime/Npu/ll_aton/ll_aton.c **** #endif
 383              		.loc 1 222 3 is_stmt 0 discriminator 1 view .LVU106
 384 00a2 824B     		ldr	r3, .L95+28
 385              	.L19:
 218:Lib/AI_Runtime/Npu/ll_aton/ll_aton.c **** #endif
 386              		.loc 1 218 36 is_stmt 1 discriminator 4 view .LVU107
 222:Lib/AI_Runtime/Npu/ll_aton/ll_aton.c **** #endif
 387              		.loc 1 222 3 discriminator 1 view .LVU108
ARM GAS  /tmp/ccgbPSBw.s 			page 31


 222:Lib/AI_Runtime/Npu/ll_aton/ll_aton.c **** #endif
 388              		.loc 1 222 3 discriminator 1 view .LVU109
 389 00a4 5C68     		ldr	r4, [r3, #4]
 390              	.LVL19:
 222:Lib/AI_Runtime/Npu/ll_aton/ll_aton.c **** #endif
 391              		.loc 1 222 3 discriminator 1 view .LVU110
 392 00a6 002C     		cmp	r4, #0
 393 00a8 FCD0     		beq	.L19
 222:Lib/AI_Runtime/Npu/ll_aton/ll_aton.c **** #endif
 394              		.loc 1 222 3 discriminator 2 view .LVU111
 395 00aa 41F22113 		movw	r3, #4385
 396 00ae A2B2     		uxth	r2, r4
 397 00b0 9A42     		cmp	r2, r3
 398 00b2 40F06281 		bne	.L87
 226:Lib/AI_Runtime/Npu/ll_aton/ll_aton.c **** #endif
 399              		.loc 1 226 3 is_stmt 0 discriminator 1 view .LVU112
 400 00b6 7E4B     		ldr	r3, .L95+32
 401              	.L21:
 222:Lib/AI_Runtime/Npu/ll_aton/ll_aton.c **** #endif
 402              		.loc 1 222 40 is_stmt 1 discriminator 4 view .LVU113
 226:Lib/AI_Runtime/Npu/ll_aton/ll_aton.c **** #endif
 403              		.loc 1 226 3 discriminator 1 view .LVU114
 226:Lib/AI_Runtime/Npu/ll_aton/ll_aton.c **** #endif
 404              		.loc 1 226 3 discriminator 1 view .LVU115
 405 00b8 5C68     		ldr	r4, [r3, #4]
 406              	.LVL20:
 226:Lib/AI_Runtime/Npu/ll_aton/ll_aton.c **** #endif
 407              		.loc 1 226 3 discriminator 1 view .LVU116
 408 00ba 002C     		cmp	r4, #0
 409 00bc FCD0     		beq	.L21
 226:Lib/AI_Runtime/Npu/ll_aton/ll_aton.c **** #endif
 410              		.loc 1 226 3 discriminator 2 view .LVU117
 411 00be 43F22023 		movw	r3, #12832
 412 00c2 A2B2     		uxth	r2, r4
 413 00c4 9A42     		cmp	r2, r3
 414 00c6 40F07C81 		bne	.L88
 245:Lib/AI_Runtime/Npu/ll_aton/ll_aton.c **** 
 415              		.loc 1 245 3 is_stmt 0 discriminator 1 view .LVU118
 416 00ca 724B     		ldr	r3, .L95+4
 417              	.L23:
 226:Lib/AI_Runtime/Npu/ll_aton/ll_aton.c **** #endif
 418              		.loc 1 226 37 is_stmt 1 discriminator 4 view .LVU119
 245:Lib/AI_Runtime/Npu/ll_aton/ll_aton.c **** 
 419              		.loc 1 245 3 discriminator 1 view .LVU120
 245:Lib/AI_Runtime/Npu/ll_aton/ll_aton.c **** 
 420              		.loc 1 245 3 discriminator 1 view .LVU121
 421 00cc 5C68     		ldr	r4, [r3, #4]
 422              	.LVL21:
 245:Lib/AI_Runtime/Npu/ll_aton/ll_aton.c **** 
 423              		.loc 1 245 3 discriminator 1 view .LVU122
 424 00ce 002C     		cmp	r4, #0
 425 00d0 FCD0     		beq	.L23
 245:Lib/AI_Runtime/Npu/ll_aton/ll_aton.c **** 
 426              		.loc 1 245 3 discriminator 2 view .LVU123
 427 00d2 41F21F23 		movw	r3, #4639
 428 00d6 A2B2     		uxth	r2, r4
 429 00d8 9A42     		cmp	r2, r3
ARM GAS  /tmp/ccgbPSBw.s 			page 32


 430 00da 40F09881 		bne	.L89
 247:Lib/AI_Runtime/Npu/ll_aton/ll_aton.c **** 
 431              		.loc 1 247 3 is_stmt 0 discriminator 1 view .LVU124
 432 00de 754B     		ldr	r3, .L95+36
 433              	.L25:
 245:Lib/AI_Runtime/Npu/ll_aton/ll_aton.c **** 
 434              		.loc 1 245 38 is_stmt 1 discriminator 4 view .LVU125
 247:Lib/AI_Runtime/Npu/ll_aton/ll_aton.c **** 
 435              		.loc 1 247 3 discriminator 1 view .LVU126
 247:Lib/AI_Runtime/Npu/ll_aton/ll_aton.c **** 
 436              		.loc 1 247 3 discriminator 1 view .LVU127
 437 00e0 5C68     		ldr	r4, [r3, #4]
 438              	.LVL22:
 247:Lib/AI_Runtime/Npu/ll_aton/ll_aton.c **** 
 439              		.loc 1 247 3 discriminator 1 view .LVU128
 440 00e2 002C     		cmp	r4, #0
 441 00e4 FCD0     		beq	.L25
 247:Lib/AI_Runtime/Npu/ll_aton/ll_aton.c **** 
 442              		.loc 1 247 3 discriminator 2 view .LVU129
 443 00e6 41F21E13 		movw	r3, #4382
 444 00ea A2B2     		uxth	r2, r4
 445 00ec 9A42     		cmp	r2, r3
 446 00ee 40F0B481 		bne	.L90
 249:Lib/AI_Runtime/Npu/ll_aton/ll_aton.c **** 
 447              		.loc 1 249 3 is_stmt 0 discriminator 1 view .LVU130
 448 00f2 714B     		ldr	r3, .L95+40
 449              	.L27:
 247:Lib/AI_Runtime/Npu/ll_aton/ll_aton.c **** 
 450              		.loc 1 247 38 is_stmt 1 discriminator 4 view .LVU131
 249:Lib/AI_Runtime/Npu/ll_aton/ll_aton.c **** 
 451              		.loc 1 249 3 discriminator 1 view .LVU132
 249:Lib/AI_Runtime/Npu/ll_aton/ll_aton.c **** 
 452              		.loc 1 249 3 discriminator 1 view .LVU133
 453 00f4 5C68     		ldr	r4, [r3, #4]
 454              	.LVL23:
 249:Lib/AI_Runtime/Npu/ll_aton/ll_aton.c **** 
 455              		.loc 1 249 3 discriminator 1 view .LVU134
 456 00f6 002C     		cmp	r4, #0
 457 00f8 FCD0     		beq	.L27
 249:Lib/AI_Runtime/Npu/ll_aton/ll_aton.c **** 
 458              		.loc 1 249 3 discriminator 2 view .LVU135
 459 00fa A3B2     		uxth	r3, r4
 460 00fc B3F5B05F 		cmp	r3, #5632
 461 0100 40F0CF81 		bne	.L91
 251:Lib/AI_Runtime/Npu/ll_aton/ll_aton.c **** 
 462              		.loc 1 251 3 is_stmt 0 discriminator 1 view .LVU136
 463 0104 6D4A     		ldr	r2, .L95+44
 464              	.L29:
 249:Lib/AI_Runtime/Npu/ll_aton/ll_aton.c **** 
 465              		.loc 1 249 40 is_stmt 1 discriminator 4 view .LVU137
 251:Lib/AI_Runtime/Npu/ll_aton/ll_aton.c **** 
 466              		.loc 1 251 3 discriminator 1 view .LVU138
 251:Lib/AI_Runtime/Npu/ll_aton/ll_aton.c **** 
 467              		.loc 1 251 3 discriminator 1 view .LVU139
 468 0106 5468     		ldr	r4, [r2, #4]
 469              	.LVL24:
 251:Lib/AI_Runtime/Npu/ll_aton/ll_aton.c **** 
ARM GAS  /tmp/ccgbPSBw.s 			page 33


 470              		.loc 1 251 3 discriminator 1 view .LVU140
 471 0108 002C     		cmp	r4, #0
 472 010a FCD0     		beq	.L29
 251:Lib/AI_Runtime/Npu/ll_aton/ll_aton.c **** 
 473              		.loc 1 251 3 discriminator 2 view .LVU141
 474 010c 45F21D03 		movw	r3, #20509
 475 0110 A1B2     		uxth	r1, r4
 476 0112 9942     		cmp	r1, r3
 477 0114 00F0EC81 		beq	.L93
 251:Lib/AI_Runtime/Npu/ll_aton/ll_aton.c **** 
 478              		.loc 1 251 3 discriminator 3 view .LVU142
 479 0118 FFF7FEFF 		bl	__errno
 480              	.LVL25:
 251:Lib/AI_Runtime/Npu/ll_aton/ll_aton.c **** 
 481              		.loc 1 251 3 is_stmt 0 discriminator 1 view .LVU143
 482 011c 0368     		ldr	r3, [r0]
 483 011e 002B     		cmp	r3, #0
 484 0120 00F0E481 		beq	.L44
 251:Lib/AI_Runtime/Npu/ll_aton/ll_aton.c **** 
 485              		.loc 1 251 3 discriminator 5 view .LVU144
 486 0124 FFF7FEFF 		bl	__errno
 487              	.LVL26:
 251:Lib/AI_Runtime/Npu/ll_aton/ll_aton.c **** 
 488              		.loc 1 251 3 discriminator 1 view .LVU145
 489 0128 0068     		ldr	r0, [r0]
 490 012a FFF7FEFF 		bl	strerror
 491              	.LVL27:
 492 012e 0346     		mov	r3, r0
 493              	.L32:
 251:Lib/AI_Runtime/Npu/ll_aton/ll_aton.c **** 
 494              		.loc 1 251 3 discriminator 8 view .LVU146
 495 0130 0522     		movs	r2, #5
 496 0132 0021     		movs	r1, #0
 497 0134 CDE90521 		strd	r2, r1, [sp, #20]
 498 0138 1D22     		movs	r2, #29
 499 013a 0492     		str	r2, [sp, #16]
 500 013c C4F30322 		ubfx	r2, r4, #8, #4
 501 0140 0392     		str	r2, [sp, #12]
 502 0142 C4F30332 		ubfx	r2, r4, #12, #4
 503 0146 0292     		str	r2, [sp, #8]
 504 0148 5D4A     		ldr	r2, .L95+48
 505 014a E4B2     		uxtb	r4, r4
 506              	.LVL28:
 251:Lib/AI_Runtime/Npu/ll_aton/ll_aton.c **** 
 507              		.loc 1 251 3 discriminator 8 view .LVU147
 508 014c 5D49     		ldr	r1, .L95+52
 509 014e 0092     		str	r2, [sp]
 510 0150 5D48     		ldr	r0, .L95+56
 511 0152 FB22     		movs	r2, #251
 512 0154 0194     		str	r4, [sp, #4]
 513 0156 FFF7FEFF 		bl	printf
 514              	.LVL29:
 251:Lib/AI_Runtime/Npu/ll_aton/ll_aton.c **** 
 515              		.loc 1 251 3 is_stmt 1 discriminator 1 view .LVU148
 251:Lib/AI_Runtime/Npu/ll_aton/ll_aton.c **** 
 516              		.loc 1 251 3 discriminator 10 view .LVU149
 517 015a FB21     		movs	r1, #251
ARM GAS  /tmp/ccgbPSBw.s 			page 34


 518 015c 5B4B     		ldr	r3, .L95+60
 519 015e 5C4A     		ldr	r2, .L95+64
 520 0160 22E0     		b	.L94
 521              	.LVL30:
 522              	.L81:
 199:Lib/AI_Runtime/Npu/ll_aton/ll_aton.c **** 
 523              		.loc 1 199 3 discriminator 3 view .LVU150
 524 0162 FFF7FEFF 		bl	__errno
 525              	.LVL31:
 199:Lib/AI_Runtime/Npu/ll_aton/ll_aton.c **** 
 526              		.loc 1 199 3 is_stmt 0 discriminator 1 view .LVU151
 527 0166 0368     		ldr	r3, [r0]
 528 0168 0BB3     		cbz	r3, .L33
 199:Lib/AI_Runtime/Npu/ll_aton/ll_aton.c **** 
 529              		.loc 1 199 3 discriminator 5 view .LVU152
 530 016a FFF7FEFF 		bl	__errno
 531              	.LVL32:
 199:Lib/AI_Runtime/Npu/ll_aton/ll_aton.c **** 
 532              		.loc 1 199 3 discriminator 1 view .LVU153
 533 016e 0068     		ldr	r0, [r0]
 534 0170 FFF7FEFF 		bl	strerror
 535              	.LVL33:
 536 0174 0346     		mov	r3, r0
 537              	.L10:
 199:Lib/AI_Runtime/Npu/ll_aton/ll_aton.c **** 
 538              		.loc 1 199 3 discriminator 8 view .LVU154
 539 0176 0522     		movs	r2, #5
 540 0178 4FF0000E 		mov	lr, #0
 541 017c CDE9052E 		strd	r2, lr, [sp, #20]
 542 0180 0122     		movs	r2, #1
 543 0182 0492     		str	r2, [sp, #16]
 544 0184 C4F30322 		ubfx	r2, r4, #8, #4
 545 0188 0392     		str	r2, [sp, #12]
 546 018a C4F30332 		ubfx	r2, r4, #12, #4
 547 018e 0292     		str	r2, [sp, #8]
 548 0190 504A     		ldr	r2, .L95+68
 549 0192 E4B2     		uxtb	r4, r4
 550              	.LVL34:
 199:Lib/AI_Runtime/Npu/ll_aton/ll_aton.c **** 
 551              		.loc 1 199 3 discriminator 8 view .LVU155
 552 0194 4B49     		ldr	r1, .L95+52
 553 0196 0092     		str	r2, [sp]
 554 0198 4B48     		ldr	r0, .L95+56
 555 019a C722     		movs	r2, #199
 556 019c 0194     		str	r4, [sp, #4]
 557 019e FFF7FEFF 		bl	printf
 558              	.LVL35:
 199:Lib/AI_Runtime/Npu/ll_aton/ll_aton.c **** 
 559              		.loc 1 199 3 is_stmt 1 discriminator 1 view .LVU156
 199:Lib/AI_Runtime/Npu/ll_aton/ll_aton.c **** 
 560              		.loc 1 199 3 discriminator 10 view .LVU157
 561 01a2 C721     		movs	r1, #199
 562 01a4 494B     		ldr	r3, .L95+60
 563 01a6 4A4A     		ldr	r2, .L95+64
 564              	.LVL36:
 565              	.L94:
 202:Lib/AI_Runtime/Npu/ll_aton/ll_aton.c **** #endif
ARM GAS  /tmp/ccgbPSBw.s 			page 35


 566              		.loc 1 202 3 is_stmt 0 discriminator 10 view .LVU158
 567 01a8 4648     		ldr	r0, .L95+52
 568 01aa FFF7FEFF 		bl	__assert_func
 569              	.LVL37:
 570              	.L33:
 199:Lib/AI_Runtime/Npu/ll_aton/ll_aton.c **** 
 571              		.loc 1 199 3 discriminator 6 view .LVU159
 572 01ae 4A4B     		ldr	r3, .L95+72
 573 01b0 E1E7     		b	.L10
 574              	.L82:
 202:Lib/AI_Runtime/Npu/ll_aton/ll_aton.c **** #endif
 575              		.loc 1 202 3 is_stmt 1 discriminator 3 view .LVU160
 576 01b2 FFF7FEFF 		bl	__errno
 577              	.LVL38:
 202:Lib/AI_Runtime/Npu/ll_aton/ll_aton.c **** #endif
 578              		.loc 1 202 3 is_stmt 0 discriminator 1 view .LVU161
 579 01b6 0368     		ldr	r3, [r0]
 580 01b8 FBB1     		cbz	r3, .L34
 202:Lib/AI_Runtime/Npu/ll_aton/ll_aton.c **** #endif
 581              		.loc 1 202 3 discriminator 5 view .LVU162
 582 01ba FFF7FEFF 		bl	__errno
 583              	.LVL39:
 202:Lib/AI_Runtime/Npu/ll_aton/ll_aton.c **** #endif
 584              		.loc 1 202 3 discriminator 1 view .LVU163
 585 01be 0068     		ldr	r0, [r0]
 586 01c0 FFF7FEFF 		bl	strerror
 587              	.LVL40:
 588 01c4 0346     		mov	r3, r0
 589              	.L12:
 202:Lib/AI_Runtime/Npu/ll_aton/ll_aton.c **** #endif
 590              		.loc 1 202 3 discriminator 8 view .LVU164
 591 01c6 0522     		movs	r2, #5
 592 01c8 4FF0010C 		mov	ip, #1
 593 01cc CDE9052C 		strd	r2, ip, [sp, #20]
 594 01d0 1722     		movs	r2, #23
 595 01d2 0492     		str	r2, [sp, #16]
 596 01d4 C4F30322 		ubfx	r2, r4, #8, #4
 597 01d8 0392     		str	r2, [sp, #12]
 598 01da C4F30332 		ubfx	r2, r4, #12, #4
 599 01de 0292     		str	r2, [sp, #8]
 600 01e0 3E4A     		ldr	r2, .L95+76
 601 01e2 E4B2     		uxtb	r4, r4
 602              	.LVL41:
 202:Lib/AI_Runtime/Npu/ll_aton/ll_aton.c **** #endif
 603              		.loc 1 202 3 discriminator 8 view .LVU165
 604 01e4 3749     		ldr	r1, .L95+52
 605 01e6 0092     		str	r2, [sp]
 606 01e8 3748     		ldr	r0, .L95+56
 607 01ea CA22     		movs	r2, #202
 608 01ec 0194     		str	r4, [sp, #4]
 609 01ee FFF7FEFF 		bl	printf
 610              	.LVL42:
 202:Lib/AI_Runtime/Npu/ll_aton/ll_aton.c **** #endif
 611              		.loc 1 202 3 is_stmt 1 discriminator 1 view .LVU166
 202:Lib/AI_Runtime/Npu/ll_aton/ll_aton.c **** #endif
 612              		.loc 1 202 3 discriminator 10 view .LVU167
 613 01f2 CA21     		movs	r1, #202
ARM GAS  /tmp/ccgbPSBw.s 			page 36


 614 01f4 354B     		ldr	r3, .L95+60
 615 01f6 364A     		ldr	r2, .L95+64
 616 01f8 D6E7     		b	.L94
 617              	.LVL43:
 618              	.L34:
 202:Lib/AI_Runtime/Npu/ll_aton/ll_aton.c **** #endif
 619              		.loc 1 202 3 is_stmt 0 discriminator 6 view .LVU168
 620 01fa 374B     		ldr	r3, .L95+72
 621 01fc E3E7     		b	.L12
 622              	.L83:
 206:Lib/AI_Runtime/Npu/ll_aton/ll_aton.c **** #endif
 623              		.loc 1 206 3 is_stmt 1 discriminator 3 view .LVU169
 624 01fe FFF7FEFF 		bl	__errno
 625              	.LVL44:
 206:Lib/AI_Runtime/Npu/ll_aton/ll_aton.c **** #endif
 626              		.loc 1 206 3 is_stmt 0 discriminator 1 view .LVU170
 627 0202 0368     		ldr	r3, [r0]
 628 0204 EBB1     		cbz	r3, .L35
 206:Lib/AI_Runtime/Npu/ll_aton/ll_aton.c **** #endif
 629              		.loc 1 206 3 discriminator 5 view .LVU171
 630 0206 FFF7FEFF 		bl	__errno
 631              	.LVL45:
 206:Lib/AI_Runtime/Npu/ll_aton/ll_aton.c **** #endif
 632              		.loc 1 206 3 discriminator 1 view .LVU172
 633 020a 0068     		ldr	r0, [r0]
 634 020c FFF7FEFF 		bl	strerror
 635              	.LVL46:
 636 0210 0346     		mov	r3, r0
 637              	.L14:
 206:Lib/AI_Runtime/Npu/ll_aton/ll_aton.c **** #endif
 638              		.loc 1 206 3 discriminator 8 view .LVU173
 639 0212 0122     		movs	r2, #1
 640 0214 CDE90522 		strd	r2, r2, [sp, #20]
 641 0218 1C22     		movs	r2, #28
 642 021a 0492     		str	r2, [sp, #16]
 643 021c C4F30322 		ubfx	r2, r4, #8, #4
 644 0220 0392     		str	r2, [sp, #12]
 645 0222 C4F30332 		ubfx	r2, r4, #12, #4
 646 0226 0292     		str	r2, [sp, #8]
 647 0228 2D4A     		ldr	r2, .L95+80
 648 022a E4B2     		uxtb	r4, r4
 649              	.LVL47:
 206:Lib/AI_Runtime/Npu/ll_aton/ll_aton.c **** #endif
 650              		.loc 1 206 3 discriminator 8 view .LVU174
 651 022c 2549     		ldr	r1, .L95+52
 652 022e 0092     		str	r2, [sp]
 653 0230 2548     		ldr	r0, .L95+56
 654 0232 CE22     		movs	r2, #206
 655 0234 0194     		str	r4, [sp, #4]
 656 0236 FFF7FEFF 		bl	printf
 657              	.LVL48:
 206:Lib/AI_Runtime/Npu/ll_aton/ll_aton.c **** #endif
 658              		.loc 1 206 3 is_stmt 1 discriminator 1 view .LVU175
 206:Lib/AI_Runtime/Npu/ll_aton/ll_aton.c **** #endif
 659              		.loc 1 206 3 discriminator 10 view .LVU176
 660 023a CE21     		movs	r1, #206
 661 023c 234B     		ldr	r3, .L95+60
ARM GAS  /tmp/ccgbPSBw.s 			page 37


 662 023e 244A     		ldr	r2, .L95+64
 663 0240 B2E7     		b	.L94
 664              	.LVL49:
 665              	.L35:
 206:Lib/AI_Runtime/Npu/ll_aton/ll_aton.c **** #endif
 666              		.loc 1 206 3 is_stmt 0 discriminator 6 view .LVU177
 667 0242 254B     		ldr	r3, .L95+72
 668 0244 E5E7     		b	.L14
 669              	.L84:
 210:Lib/AI_Runtime/Npu/ll_aton/ll_aton.c **** #endif
 670              		.loc 1 210 3 is_stmt 1 discriminator 3 view .LVU178
 671 0246 FFF7FEFF 		bl	__errno
 672              	.LVL50:
 210:Lib/AI_Runtime/Npu/ll_aton/ll_aton.c **** #endif
 673              		.loc 1 210 3 is_stmt 0 discriminator 1 view .LVU179
 674 024a 0368     		ldr	r3, [r0]
 675 024c F3B1     		cbz	r3, .L36
 210:Lib/AI_Runtime/Npu/ll_aton/ll_aton.c **** #endif
 676              		.loc 1 210 3 discriminator 5 view .LVU180
 677 024e FFF7FEFF 		bl	__errno
 678              	.LVL51:
 210:Lib/AI_Runtime/Npu/ll_aton/ll_aton.c **** #endif
 679              		.loc 1 210 3 discriminator 1 view .LVU181
 680 0252 0068     		ldr	r0, [r0]
 681 0254 FFF7FEFF 		bl	strerror
 682              	.LVL52:
 683 0258 0346     		mov	r3, r0
 684              	.L16:
 210:Lib/AI_Runtime/Npu/ll_aton/ll_aton.c **** #endif
 685              		.loc 1 210 3 discriminator 8 view .LVU182
 686 025a 0122     		movs	r2, #1
 687 025c 0020     		movs	r0, #0
 688 025e CDE90520 		strd	r2, r0, [sp, #20]
 689 0262 1A22     		movs	r2, #26
 690 0264 0492     		str	r2, [sp, #16]
 691 0266 C4F30322 		ubfx	r2, r4, #8, #4
 692 026a 0392     		str	r2, [sp, #12]
 693 026c C4F30332 		ubfx	r2, r4, #12, #4
 694 0270 0292     		str	r2, [sp, #8]
 695 0272 1C4A     		ldr	r2, .L95+84
 696 0274 E4B2     		uxtb	r4, r4
 697              	.LVL53:
 210:Lib/AI_Runtime/Npu/ll_aton/ll_aton.c **** #endif
 698              		.loc 1 210 3 discriminator 8 view .LVU183
 699 0276 1349     		ldr	r1, .L95+52
 700 0278 0092     		str	r2, [sp]
 701 027a 1348     		ldr	r0, .L95+56
 702 027c D222     		movs	r2, #210
 703 027e 0194     		str	r4, [sp, #4]
 704 0280 FFF7FEFF 		bl	printf
 705              	.LVL54:
 210:Lib/AI_Runtime/Npu/ll_aton/ll_aton.c **** #endif
 706              		.loc 1 210 3 is_stmt 1 discriminator 1 view .LVU184
 210:Lib/AI_Runtime/Npu/ll_aton/ll_aton.c **** #endif
 707              		.loc 1 210 3 discriminator 10 view .LVU185
 708 0284 D221     		movs	r1, #210
 709 0286 114B     		ldr	r3, .L95+60
ARM GAS  /tmp/ccgbPSBw.s 			page 38


 710 0288 114A     		ldr	r2, .L95+64
 711 028a 8DE7     		b	.L94
 712              	.LVL55:
 713              	.L36:
 210:Lib/AI_Runtime/Npu/ll_aton/ll_aton.c **** #endif
 714              		.loc 1 210 3 is_stmt 0 discriminator 6 view .LVU186
 715 028c 124B     		ldr	r3, .L95+72
 716 028e E4E7     		b	.L16
 717              	.L96:
 718              		.align	2
 719              	.L95:
 720 0290 00000000 		.word	done.9
 721 0294 00000E58 		.word	1477312512
 722 0298 00F00E58 		.word	1477373952
 723 029c 00B00F58 		.word	1477423104
 724 02a0 00700F58 		.word	1477406720
 725 02a4 00500F58 		.word	1477398528
 726 02a8 00300F58 		.word	1477390336
 727 02ac 00E00F58 		.word	1477435392
 728 02b0 00D00F58 		.word	1477431296
 729 02b4 00100E58 		.word	1477316608
 730 02b8 00400E58 		.word	1477328896
 731 02bc 00200E58 		.word	1477320704
 732 02c0 E1000000 		.word	.LC18
 733 02c4 05000000 		.word	.LC4
 734 02c8 2A000000 		.word	.LC5
 735 02cc 95000000 		.word	.LC7
 736 02d0 00000000 		.word	__func__.10
 737 02d4 8E000000 		.word	.LC6
 738 02d8 00000000 		.word	.LC3
 739 02dc 97000000 		.word	.LC8
 740 02e0 9F000000 		.word	.LC9
 741 02e4 A4000000 		.word	.LC10
 742              	.L85:
 214:Lib/AI_Runtime/Npu/ll_aton/ll_aton.c **** #endif
 743              		.loc 1 214 3 is_stmt 1 discriminator 3 view .LVU187
 744 02e8 FFF7FEFF 		bl	__errno
 745              	.LVL56:
 214:Lib/AI_Runtime/Npu/ll_aton/ll_aton.c **** #endif
 746              		.loc 1 214 3 is_stmt 0 discriminator 1 view .LVU188
 747 02ec 0368     		ldr	r3, [r0]
 748 02ee EBB1     		cbz	r3, .L37
 214:Lib/AI_Runtime/Npu/ll_aton/ll_aton.c **** #endif
 749              		.loc 1 214 3 discriminator 5 view .LVU189
 750 02f0 FFF7FEFF 		bl	__errno
 751              	.LVL57:
 214:Lib/AI_Runtime/Npu/ll_aton/ll_aton.c **** #endif
 752              		.loc 1 214 3 discriminator 1 view .LVU190
 753 02f4 0068     		ldr	r0, [r0]
 754 02f6 FFF7FEFF 		bl	strerror
 755              	.LVL58:
 756 02fa 0346     		mov	r3, r0
 757              	.L18:
 214:Lib/AI_Runtime/Npu/ll_aton/ll_aton.c **** #endif
 758              		.loc 1 214 3 discriminator 8 view .LVU191
 759 02fc 0122     		movs	r2, #1
 760 02fe CDE90522 		strd	r2, r2, [sp, #20]
ARM GAS  /tmp/ccgbPSBw.s 			page 39


 761 0302 1B22     		movs	r2, #27
 762 0304 0492     		str	r2, [sp, #16]
 763 0306 C4F30322 		ubfx	r2, r4, #8, #4
 764 030a 0392     		str	r2, [sp, #12]
 765 030c C4F30332 		ubfx	r2, r4, #12, #4
 766 0310 0292     		str	r2, [sp, #8]
 767 0312 7C4A     		ldr	r2, .L97
 768 0314 E4B2     		uxtb	r4, r4
 769              	.LVL59:
 214:Lib/AI_Runtime/Npu/ll_aton/ll_aton.c **** #endif
 770              		.loc 1 214 3 discriminator 8 view .LVU192
 771 0316 7C49     		ldr	r1, .L97+4
 772 0318 0092     		str	r2, [sp]
 773 031a 7C48     		ldr	r0, .L97+8
 774 031c D622     		movs	r2, #214
 775 031e 0194     		str	r4, [sp, #4]
 776 0320 FFF7FEFF 		bl	printf
 777              	.LVL60:
 214:Lib/AI_Runtime/Npu/ll_aton/ll_aton.c **** #endif
 778              		.loc 1 214 3 is_stmt 1 discriminator 1 view .LVU193
 214:Lib/AI_Runtime/Npu/ll_aton/ll_aton.c **** #endif
 779              		.loc 1 214 3 discriminator 10 view .LVU194
 780 0324 D621     		movs	r1, #214
 781 0326 7A4B     		ldr	r3, .L97+12
 782 0328 7A4A     		ldr	r2, .L97+16
 783 032a 3DE7     		b	.L94
 784              	.LVL61:
 785              	.L37:
 214:Lib/AI_Runtime/Npu/ll_aton/ll_aton.c **** #endif
 786              		.loc 1 214 3 is_stmt 0 discriminator 6 view .LVU195
 787 032c 7A4B     		ldr	r3, .L97+20
 788 032e E5E7     		b	.L18
 789              	.L86:
 218:Lib/AI_Runtime/Npu/ll_aton/ll_aton.c **** #endif
 790              		.loc 1 218 3 is_stmt 1 discriminator 3 view .LVU196
 791 0330 FFF7FEFF 		bl	__errno
 792              	.LVL62:
 218:Lib/AI_Runtime/Npu/ll_aton/ll_aton.c **** #endif
 793              		.loc 1 218 3 is_stmt 0 discriminator 1 view .LVU197
 794 0334 0368     		ldr	r3, [r0]
 795 0336 F3B1     		cbz	r3, .L38
 218:Lib/AI_Runtime/Npu/ll_aton/ll_aton.c **** #endif
 796              		.loc 1 218 3 discriminator 5 view .LVU198
 797 0338 FFF7FEFF 		bl	__errno
 798              	.LVL63:
 218:Lib/AI_Runtime/Npu/ll_aton/ll_aton.c **** #endif
 799              		.loc 1 218 3 discriminator 1 view .LVU199
 800 033c 0068     		ldr	r0, [r0]
 801 033e FFF7FEFF 		bl	strerror
 802              	.LVL64:
 803 0342 0346     		mov	r3, r0
 804              	.L20:
 218:Lib/AI_Runtime/Npu/ll_aton/ll_aton.c **** #endif
 805              		.loc 1 218 3 discriminator 8 view .LVU200
 806 0344 0122     		movs	r2, #1
 807 0346 0A21     		movs	r1, #10
 808 0348 CDE90521 		strd	r2, r1, [sp, #20]
ARM GAS  /tmp/ccgbPSBw.s 			page 40


 809 034c 1922     		movs	r2, #25
 810 034e 0492     		str	r2, [sp, #16]
 811 0350 C4F30322 		ubfx	r2, r4, #8, #4
 812 0354 0392     		str	r2, [sp, #12]
 813 0356 C4F30332 		ubfx	r2, r4, #12, #4
 814 035a 0292     		str	r2, [sp, #8]
 815 035c 6F4A     		ldr	r2, .L97+24
 816 035e E4B2     		uxtb	r4, r4
 817              	.LVL65:
 218:Lib/AI_Runtime/Npu/ll_aton/ll_aton.c **** #endif
 818              		.loc 1 218 3 discriminator 8 view .LVU201
 819 0360 6949     		ldr	r1, .L97+4
 820 0362 0092     		str	r2, [sp]
 821 0364 6948     		ldr	r0, .L97+8
 822 0366 DA22     		movs	r2, #218
 823 0368 0194     		str	r4, [sp, #4]
 824 036a FFF7FEFF 		bl	printf
 825              	.LVL66:
 218:Lib/AI_Runtime/Npu/ll_aton/ll_aton.c **** #endif
 826              		.loc 1 218 3 is_stmt 1 discriminator 1 view .LVU202
 218:Lib/AI_Runtime/Npu/ll_aton/ll_aton.c **** #endif
 827              		.loc 1 218 3 discriminator 10 view .LVU203
 828 036e DA21     		movs	r1, #218
 829 0370 674B     		ldr	r3, .L97+12
 830 0372 684A     		ldr	r2, .L97+16
 831 0374 18E7     		b	.L94
 832              	.LVL67:
 833              	.L38:
 218:Lib/AI_Runtime/Npu/ll_aton/ll_aton.c **** #endif
 834              		.loc 1 218 3 is_stmt 0 discriminator 6 view .LVU204
 835 0376 684B     		ldr	r3, .L97+20
 836 0378 E4E7     		b	.L20
 837              	.L87:
 222:Lib/AI_Runtime/Npu/ll_aton/ll_aton.c **** #endif
 838              		.loc 1 222 3 is_stmt 1 discriminator 3 view .LVU205
 839 037a FFF7FEFF 		bl	__errno
 840              	.LVL68:
 222:Lib/AI_Runtime/Npu/ll_aton/ll_aton.c **** #endif
 841              		.loc 1 222 3 is_stmt 0 discriminator 1 view .LVU206
 842 037e 0368     		ldr	r3, [r0]
 843 0380 EBB1     		cbz	r3, .L39
 222:Lib/AI_Runtime/Npu/ll_aton/ll_aton.c **** #endif
 844              		.loc 1 222 3 discriminator 5 view .LVU207
 845 0382 FFF7FEFF 		bl	__errno
 846              	.LVL69:
 222:Lib/AI_Runtime/Npu/ll_aton/ll_aton.c **** #endif
 847              		.loc 1 222 3 discriminator 1 view .LVU208
 848 0386 0068     		ldr	r0, [r0]
 849 0388 FFF7FEFF 		bl	strerror
 850              	.LVL70:
 851 038c 0346     		mov	r3, r0
 852              	.L22:
 222:Lib/AI_Runtime/Npu/ll_aton/ll_aton.c **** #endif
 853              		.loc 1 222 3 discriminator 8 view .LVU209
 854 038e 0122     		movs	r2, #1
 855 0390 CDE90522 		strd	r2, r2, [sp, #20]
 856 0394 2122     		movs	r2, #33
ARM GAS  /tmp/ccgbPSBw.s 			page 41


 857 0396 0492     		str	r2, [sp, #16]
 858 0398 C4F30322 		ubfx	r2, r4, #8, #4
 859 039c 0392     		str	r2, [sp, #12]
 860 039e C4F30332 		ubfx	r2, r4, #12, #4
 861 03a2 0292     		str	r2, [sp, #8]
 862 03a4 5E4A     		ldr	r2, .L97+28
 863 03a6 E4B2     		uxtb	r4, r4
 864              	.LVL71:
 222:Lib/AI_Runtime/Npu/ll_aton/ll_aton.c **** #endif
 865              		.loc 1 222 3 discriminator 8 view .LVU210
 866 03a8 5749     		ldr	r1, .L97+4
 867 03aa 0092     		str	r2, [sp]
 868 03ac 5748     		ldr	r0, .L97+8
 869 03ae DE22     		movs	r2, #222
 870 03b0 0194     		str	r4, [sp, #4]
 871 03b2 FFF7FEFF 		bl	printf
 872              	.LVL72:
 222:Lib/AI_Runtime/Npu/ll_aton/ll_aton.c **** #endif
 873              		.loc 1 222 3 is_stmt 1 discriminator 1 view .LVU211
 222:Lib/AI_Runtime/Npu/ll_aton/ll_aton.c **** #endif
 874              		.loc 1 222 3 discriminator 10 view .LVU212
 875 03b6 DE21     		movs	r1, #222
 876 03b8 554B     		ldr	r3, .L97+12
 877 03ba 564A     		ldr	r2, .L97+16
 878 03bc F4E6     		b	.L94
 879              	.LVL73:
 880              	.L39:
 222:Lib/AI_Runtime/Npu/ll_aton/ll_aton.c **** #endif
 881              		.loc 1 222 3 is_stmt 0 discriminator 6 view .LVU213
 882 03be 564B     		ldr	r3, .L97+20
 883 03c0 E5E7     		b	.L22
 884              	.L88:
 226:Lib/AI_Runtime/Npu/ll_aton/ll_aton.c **** #endif
 885              		.loc 1 226 3 is_stmt 1 discriminator 3 view .LVU214
 886 03c2 FFF7FEFF 		bl	__errno
 887              	.LVL74:
 226:Lib/AI_Runtime/Npu/ll_aton/ll_aton.c **** #endif
 888              		.loc 1 226 3 is_stmt 0 discriminator 1 view .LVU215
 889 03c6 0368     		ldr	r3, [r0]
 890 03c8 FBB1     		cbz	r3, .L40
 226:Lib/AI_Runtime/Npu/ll_aton/ll_aton.c **** #endif
 891              		.loc 1 226 3 discriminator 5 view .LVU216
 892 03ca FFF7FEFF 		bl	__errno
 893              	.LVL75:
 226:Lib/AI_Runtime/Npu/ll_aton/ll_aton.c **** #endif
 894              		.loc 1 226 3 discriminator 1 view .LVU217
 895 03ce 0068     		ldr	r0, [r0]
 896 03d0 FFF7FEFF 		bl	strerror
 897              	.LVL76:
 898 03d4 0346     		mov	r3, r0
 899              	.L24:
 226:Lib/AI_Runtime/Npu/ll_aton/ll_aton.c **** #endif
 900              		.loc 1 226 3 discriminator 8 view .LVU218
 901 03d6 0322     		movs	r2, #3
 902 03d8 4FF0020E 		mov	lr, #2
 903 03dc CDE9052E 		strd	r2, lr, [sp, #20]
 904 03e0 2022     		movs	r2, #32
ARM GAS  /tmp/ccgbPSBw.s 			page 42


 905 03e2 0492     		str	r2, [sp, #16]
 906 03e4 C4F30322 		ubfx	r2, r4, #8, #4
 907 03e8 0392     		str	r2, [sp, #12]
 908 03ea C4F30332 		ubfx	r2, r4, #12, #4
 909 03ee 0292     		str	r2, [sp, #8]
 910 03f0 4C4A     		ldr	r2, .L97+32
 911 03f2 E4B2     		uxtb	r4, r4
 912              	.LVL77:
 226:Lib/AI_Runtime/Npu/ll_aton/ll_aton.c **** #endif
 913              		.loc 1 226 3 discriminator 8 view .LVU219
 914 03f4 4449     		ldr	r1, .L97+4
 915 03f6 0092     		str	r2, [sp]
 916 03f8 4448     		ldr	r0, .L97+8
 917 03fa E222     		movs	r2, #226
 918 03fc 0194     		str	r4, [sp, #4]
 919 03fe FFF7FEFF 		bl	printf
 920              	.LVL78:
 226:Lib/AI_Runtime/Npu/ll_aton/ll_aton.c **** #endif
 921              		.loc 1 226 3 is_stmt 1 discriminator 1 view .LVU220
 226:Lib/AI_Runtime/Npu/ll_aton/ll_aton.c **** #endif
 922              		.loc 1 226 3 discriminator 10 view .LVU221
 923 0402 E221     		movs	r1, #226
 924 0404 424B     		ldr	r3, .L97+12
 925 0406 434A     		ldr	r2, .L97+16
 926 0408 CEE6     		b	.L94
 927              	.LVL79:
 928              	.L40:
 226:Lib/AI_Runtime/Npu/ll_aton/ll_aton.c **** #endif
 929              		.loc 1 226 3 is_stmt 0 discriminator 6 view .LVU222
 930 040a 434B     		ldr	r3, .L97+20
 931 040c E3E7     		b	.L24
 932              	.L89:
 245:Lib/AI_Runtime/Npu/ll_aton/ll_aton.c **** 
 933              		.loc 1 245 3 is_stmt 1 discriminator 3 view .LVU223
 934 040e FFF7FEFF 		bl	__errno
 935              	.LVL80:
 245:Lib/AI_Runtime/Npu/ll_aton/ll_aton.c **** 
 936              		.loc 1 245 3 is_stmt 0 discriminator 1 view .LVU224
 937 0412 0368     		ldr	r3, [r0]
 938 0414 FBB1     		cbz	r3, .L41
 245:Lib/AI_Runtime/Npu/ll_aton/ll_aton.c **** 
 939              		.loc 1 245 3 discriminator 5 view .LVU225
 940 0416 FFF7FEFF 		bl	__errno
 941              	.LVL81:
 245:Lib/AI_Runtime/Npu/ll_aton/ll_aton.c **** 
 942              		.loc 1 245 3 discriminator 1 view .LVU226
 943 041a 0068     		ldr	r0, [r0]
 944 041c FFF7FEFF 		bl	strerror
 945              	.LVL82:
 946 0420 0346     		mov	r3, r0
 947              	.L26:
 245:Lib/AI_Runtime/Npu/ll_aton/ll_aton.c **** 
 948              		.loc 1 245 3 discriminator 8 view .LVU227
 949 0422 0122     		movs	r2, #1
 950 0424 4FF0020C 		mov	ip, #2
 951 0428 CDE9052C 		strd	r2, ip, [sp, #20]
 952 042c 1F22     		movs	r2, #31
ARM GAS  /tmp/ccgbPSBw.s 			page 43


 953 042e 0492     		str	r2, [sp, #16]
 954 0430 C4F30322 		ubfx	r2, r4, #8, #4
 955 0434 0392     		str	r2, [sp, #12]
 956 0436 C4F30332 		ubfx	r2, r4, #12, #4
 957 043a 0292     		str	r2, [sp, #8]
 958 043c 3A4A     		ldr	r2, .L97+36
 959 043e E4B2     		uxtb	r4, r4
 960              	.LVL83:
 245:Lib/AI_Runtime/Npu/ll_aton/ll_aton.c **** 
 961              		.loc 1 245 3 discriminator 8 view .LVU228
 962 0440 3149     		ldr	r1, .L97+4
 963 0442 0092     		str	r2, [sp]
 964 0444 3148     		ldr	r0, .L97+8
 965 0446 F522     		movs	r2, #245
 966 0448 0194     		str	r4, [sp, #4]
 967 044a FFF7FEFF 		bl	printf
 968              	.LVL84:
 245:Lib/AI_Runtime/Npu/ll_aton/ll_aton.c **** 
 969              		.loc 1 245 3 is_stmt 1 discriminator 1 view .LVU229
 245:Lib/AI_Runtime/Npu/ll_aton/ll_aton.c **** 
 970              		.loc 1 245 3 discriminator 10 view .LVU230
 971 044e F521     		movs	r1, #245
 972 0450 2F4B     		ldr	r3, .L97+12
 973 0452 304A     		ldr	r2, .L97+16
 974 0454 A8E6     		b	.L94
 975              	.LVL85:
 976              	.L41:
 245:Lib/AI_Runtime/Npu/ll_aton/ll_aton.c **** 
 977              		.loc 1 245 3 is_stmt 0 discriminator 6 view .LVU231
 978 0456 304B     		ldr	r3, .L97+20
 979 0458 E3E7     		b	.L26
 980              	.L90:
 247:Lib/AI_Runtime/Npu/ll_aton/ll_aton.c **** 
 981              		.loc 1 247 3 is_stmt 1 discriminator 3 view .LVU232
 982 045a FFF7FEFF 		bl	__errno
 983              	.LVL86:
 247:Lib/AI_Runtime/Npu/ll_aton/ll_aton.c **** 
 984              		.loc 1 247 3 is_stmt 0 discriminator 1 view .LVU233
 985 045e 0368     		ldr	r3, [r0]
 986 0460 EBB1     		cbz	r3, .L42
 247:Lib/AI_Runtime/Npu/ll_aton/ll_aton.c **** 
 987              		.loc 1 247 3 discriminator 5 view .LVU234
 988 0462 FFF7FEFF 		bl	__errno
 989              	.LVL87:
 247:Lib/AI_Runtime/Npu/ll_aton/ll_aton.c **** 
 990              		.loc 1 247 3 discriminator 1 view .LVU235
 991 0466 0068     		ldr	r0, [r0]
 992 0468 FFF7FEFF 		bl	strerror
 993              	.LVL88:
 994 046c 0346     		mov	r3, r0
 995              	.L28:
 247:Lib/AI_Runtime/Npu/ll_aton/ll_aton.c **** 
 996              		.loc 1 247 3 discriminator 8 view .LVU236
 997 046e 0122     		movs	r2, #1
 998 0470 CDE90522 		strd	r2, r2, [sp, #20]
 999 0474 1E22     		movs	r2, #30
 1000 0476 0492     		str	r2, [sp, #16]
ARM GAS  /tmp/ccgbPSBw.s 			page 44


 1001 0478 C4F30322 		ubfx	r2, r4, #8, #4
 1002 047c 0392     		str	r2, [sp, #12]
 1003 047e C4F30332 		ubfx	r2, r4, #12, #4
 1004 0482 0292     		str	r2, [sp, #8]
 1005 0484 294A     		ldr	r2, .L97+40
 1006 0486 E4B2     		uxtb	r4, r4
 1007              	.LVL89:
 247:Lib/AI_Runtime/Npu/ll_aton/ll_aton.c **** 
 1008              		.loc 1 247 3 discriminator 8 view .LVU237
 1009 0488 1F49     		ldr	r1, .L97+4
 1010 048a 0092     		str	r2, [sp]
 1011 048c 1F48     		ldr	r0, .L97+8
 1012 048e F722     		movs	r2, #247
 1013 0490 0194     		str	r4, [sp, #4]
 1014 0492 FFF7FEFF 		bl	printf
 1015              	.LVL90:
 247:Lib/AI_Runtime/Npu/ll_aton/ll_aton.c **** 
 1016              		.loc 1 247 3 is_stmt 1 discriminator 1 view .LVU238
 247:Lib/AI_Runtime/Npu/ll_aton/ll_aton.c **** 
 1017              		.loc 1 247 3 discriminator 10 view .LVU239
 1018 0496 F721     		movs	r1, #247
 1019 0498 1D4B     		ldr	r3, .L97+12
 1020 049a 1E4A     		ldr	r2, .L97+16
 1021 049c 84E6     		b	.L94
 1022              	.LVL91:
 1023              	.L42:
 247:Lib/AI_Runtime/Npu/ll_aton/ll_aton.c **** 
 1024              		.loc 1 247 3 is_stmt 0 discriminator 6 view .LVU240
 1025 049e 1E4B     		ldr	r3, .L97+20
 1026 04a0 E5E7     		b	.L28
 1027              	.L91:
 249:Lib/AI_Runtime/Npu/ll_aton/ll_aton.c **** 
 1028              		.loc 1 249 3 is_stmt 1 discriminator 3 view .LVU241
 1029 04a2 FFF7FEFF 		bl	__errno
 1030              	.LVL92:
 249:Lib/AI_Runtime/Npu/ll_aton/ll_aton.c **** 
 1031              		.loc 1 249 3 is_stmt 0 discriminator 1 view .LVU242
 1032 04a6 0368     		ldr	r3, [r0]
 1033 04a8 F3B1     		cbz	r3, .L43
 249:Lib/AI_Runtime/Npu/ll_aton/ll_aton.c **** 
 1034              		.loc 1 249 3 discriminator 5 view .LVU243
 1035 04aa FFF7FEFF 		bl	__errno
 1036              	.LVL93:
 249:Lib/AI_Runtime/Npu/ll_aton/ll_aton.c **** 
 1037              		.loc 1 249 3 discriminator 1 view .LVU244
 1038 04ae 0068     		ldr	r0, [r0]
 1039 04b0 FFF7FEFF 		bl	strerror
 1040              	.LVL94:
 1041 04b4 0346     		mov	r3, r0
 1042              	.L30:
 249:Lib/AI_Runtime/Npu/ll_aton/ll_aton.c **** 
 1043              		.loc 1 249 3 discriminator 8 view .LVU245
 1044 04b6 0122     		movs	r2, #1
 1045 04b8 0620     		movs	r0, #6
 1046 04ba CDE90520 		strd	r2, r0, [sp, #20]
 1047 04be 0022     		movs	r2, #0
 1048 04c0 0492     		str	r2, [sp, #16]
ARM GAS  /tmp/ccgbPSBw.s 			page 45


 1049 04c2 C4F30322 		ubfx	r2, r4, #8, #4
 1050 04c6 0392     		str	r2, [sp, #12]
 1051 04c8 C4F30332 		ubfx	r2, r4, #12, #4
 1052 04cc 0292     		str	r2, [sp, #8]
 1053 04ce 184A     		ldr	r2, .L97+44
 1054 04d0 E4B2     		uxtb	r4, r4
 1055              	.LVL95:
 249:Lib/AI_Runtime/Npu/ll_aton/ll_aton.c **** 
 1056              		.loc 1 249 3 discriminator 8 view .LVU246
 1057 04d2 0D49     		ldr	r1, .L97+4
 1058 04d4 0092     		str	r2, [sp]
 1059 04d6 0D48     		ldr	r0, .L97+8
 1060 04d8 F922     		movs	r2, #249
 1061 04da 0194     		str	r4, [sp, #4]
 1062 04dc FFF7FEFF 		bl	printf
 1063              	.LVL96:
 249:Lib/AI_Runtime/Npu/ll_aton/ll_aton.c **** 
 1064              		.loc 1 249 3 is_stmt 1 discriminator 1 view .LVU247
 249:Lib/AI_Runtime/Npu/ll_aton/ll_aton.c **** 
 1065              		.loc 1 249 3 discriminator 10 view .LVU248
 1066 04e0 F921     		movs	r1, #249
 1067 04e2 0B4B     		ldr	r3, .L97+12
 1068 04e4 0B4A     		ldr	r2, .L97+16
 1069 04e6 5FE6     		b	.L94
 1070              	.LVL97:
 1071              	.L43:
 249:Lib/AI_Runtime/Npu/ll_aton/ll_aton.c **** 
 1072              		.loc 1 249 3 is_stmt 0 discriminator 6 view .LVU249
 1073 04e8 0B4B     		ldr	r3, .L97+20
 1074 04ea E4E7     		b	.L30
 1075              	.L44:
 251:Lib/AI_Runtime/Npu/ll_aton/ll_aton.c **** 
 1076              		.loc 1 251 3 discriminator 6 view .LVU250
 1077 04ec 0A4B     		ldr	r3, .L97+20
 1078 04ee 1FE6     		b	.L32
 1079              	.L93:
 1080              	.LVL98:
 254:Lib/AI_Runtime/Npu/ll_aton/ll_aton.c ****   {
 1081              		.loc 1 254 17 is_stmt 1 discriminator 1 view .LVU251
 256:Lib/AI_Runtime/Npu/ll_aton/ll_aton.c ****   }
 1082              		.loc 1 256 5 view .LVU252
 256:Lib/AI_Runtime/Npu/ll_aton/ll_aton.c ****   }
 1083              		.loc 1 256 5 view .LVU253
 1084 04f0 0123     		movs	r3, #1
 263:Lib/AI_Runtime/Npu/ll_aton/ll_aton.c **** 
 1085              		.loc 1 263 1 is_stmt 0 view .LVU254
 1086 04f2 0020     		movs	r0, #0
 256:Lib/AI_Runtime/Npu/ll_aton/ll_aton.c ****   }
 1087              		.loc 1 256 5 view .LVU255
 1088 04f4 1360     		str	r3, [r2]
 256:Lib/AI_Runtime/Npu/ll_aton/ll_aton.c ****   }
 1089              		.loc 1 256 5 is_stmt 1 view .LVU256
 256:Lib/AI_Runtime/Npu/ll_aton/ll_aton.c ****   }
 1090              		.loc 1 256 30 view .LVU257
 254:Lib/AI_Runtime/Npu/ll_aton/ll_aton.c ****   {
 1091              		.loc 1 254 36 discriminator 3 view .LVU258
 1092              	.LVL99:
ARM GAS  /tmp/ccgbPSBw.s 			page 46


 254:Lib/AI_Runtime/Npu/ll_aton/ll_aton.c ****   {
 1093              		.loc 1 254 17 discriminator 1 view .LVU259
 256:Lib/AI_Runtime/Npu/ll_aton/ll_aton.c ****   }
 1094              		.loc 1 256 5 view .LVU260
 256:Lib/AI_Runtime/Npu/ll_aton/ll_aton.c ****   }
 1095              		.loc 1 256 5 view .LVU261
 1096 04f6 0F4A     		ldr	r2, .L97+48
 1097 04f8 1360     		str	r3, [r2]
 256:Lib/AI_Runtime/Npu/ll_aton/ll_aton.c ****   }
 1098              		.loc 1 256 5 view .LVU262
 256:Lib/AI_Runtime/Npu/ll_aton/ll_aton.c ****   }
 1099              		.loc 1 256 30 view .LVU263
 254:Lib/AI_Runtime/Npu/ll_aton/ll_aton.c ****   {
 1100              		.loc 1 254 36 discriminator 3 view .LVU264
 1101              	.LVL100:
 254:Lib/AI_Runtime/Npu/ll_aton/ll_aton.c ****   {
 1102              		.loc 1 254 17 discriminator 1 view .LVU265
 260:Lib/AI_Runtime/Npu/ll_aton/ll_aton.c **** 
 1103              		.loc 1 260 3 view .LVU266
 260:Lib/AI_Runtime/Npu/ll_aton/ll_aton.c **** 
 1104              		.loc 1 260 3 view .LVU267
 1105 04fa A2F50052 		sub	r2, r2, #8192
 1106 04fe 1360     		str	r3, [r2]
 260:Lib/AI_Runtime/Npu/ll_aton/ll_aton.c **** 
 1107              		.loc 1 260 3 view .LVU268
 260:Lib/AI_Runtime/Npu/ll_aton/ll_aton.c **** 
 1108              		.loc 1 260 30 view .LVU269
 262:Lib/AI_Runtime/Npu/ll_aton/ll_aton.c **** }
 1109              		.loc 1 262 3 view .LVU270
 263:Lib/AI_Runtime/Npu/ll_aton/ll_aton.c **** 
 1110              		.loc 1 263 1 is_stmt 0 view .LVU271
 1111 0500 08B0     		add	sp, sp, #32
 1112              		.cfi_def_cfa_offset 8
 1113              		@ sp needed
 1114 0502 10BD     		pop	{r4, pc}
 1115              	.LVL101:
 1116              	.L98:
 263:Lib/AI_Runtime/Npu/ll_aton/ll_aton.c **** 
 1117              		.loc 1 263 1 view .LVU272
 1118              		.align	2
 1119              	.L97:
 1120 0504 AA000000 		.word	.LC11
 1121 0508 05000000 		.word	.LC4
 1122 050c 2A000000 		.word	.LC5
 1123 0510 95000000 		.word	.LC7
 1124 0514 00000000 		.word	__func__.10
 1125 0518 00000000 		.word	.LC3
 1126 051c B0000000 		.word	.LC12
 1127 0520 B6000000 		.word	.LC13
 1128 0524 C0000000 		.word	.LC14
 1129 0528 C7000000 		.word	.LC15
 1130 052c CF000000 		.word	.LC16
 1131 0530 D7000000 		.word	.LC17
 1132 0534 00300E58 		.word	1477324800
 1133              		.cfi_endproc
 1134              	.LFE4825:
 1136              		.section	.text.LL_ATON_DeInit,"ax",%progbits
ARM GAS  /tmp/ccgbPSBw.s 			page 47


 1137              		.align	1
 1138              		.global	LL_ATON_DeInit
 1139              		.syntax unified
 1140              		.thumb
 1141              		.thumb_func
 1143              	LL_ATON_DeInit:
 1144              	.LFB4826:
 270:Lib/AI_Runtime/Npu/ll_aton/ll_aton.c ****   int i;
 1145              		.loc 1 270 1 is_stmt 1 view -0
 1146              		.cfi_startproc
 1147              		@ args = 0, pretend = 0, frame = 0
 1148              		@ frame_needed = 0, uses_anonymous_args = 0
 1149              		@ link register save eliminated.
 271:Lib/AI_Runtime/Npu/ll_aton/ll_aton.c **** 
 1150              		.loc 1 271 3 view .LVU274
 274:Lib/AI_Runtime/Npu/ll_aton/ll_aton.c **** 
 1151              		.loc 1 274 3 view .LVU275
 274:Lib/AI_Runtime/Npu/ll_aton/ll_aton.c **** 
 1152              		.loc 1 274 3 view .LVU276
 1153 0000 0020     		movs	r0, #0
 1154 0002 074B     		ldr	r3, .L100
 1155 0004 1860     		str	r0, [r3]
 274:Lib/AI_Runtime/Npu/ll_aton/ll_aton.c **** 
 1156              		.loc 1 274 3 view .LVU277
 274:Lib/AI_Runtime/Npu/ll_aton/ll_aton.c **** 
 1157              		.loc 1 274 30 view .LVU278
 277:Lib/AI_Runtime/Npu/ll_aton/ll_aton.c ****   {
 1158              		.loc 1 277 3 view .LVU279
 1159              	.LVL102:
 277:Lib/AI_Runtime/Npu/ll_aton/ll_aton.c ****   {
 1160              		.loc 1 277 17 discriminator 1 view .LVU280
 279:Lib/AI_Runtime/Npu/ll_aton/ll_aton.c ****   }
 1161              		.loc 1 279 5 view .LVU281
 279:Lib/AI_Runtime/Npu/ll_aton/ll_aton.c ****   }
 1162              		.loc 1 279 5 view .LVU282
 1163 0006 03F58053 		add	r3, r3, #4096
 1164 000a 1860     		str	r0, [r3]
 279:Lib/AI_Runtime/Npu/ll_aton/ll_aton.c ****   }
 1165              		.loc 1 279 5 view .LVU283
 279:Lib/AI_Runtime/Npu/ll_aton/ll_aton.c ****   }
 1166              		.loc 1 279 30 view .LVU284
 277:Lib/AI_Runtime/Npu/ll_aton/ll_aton.c ****   {
 1167              		.loc 1 277 36 discriminator 3 view .LVU285
 1168              	.LVL103:
 277:Lib/AI_Runtime/Npu/ll_aton/ll_aton.c ****   {
 1169              		.loc 1 277 17 discriminator 1 view .LVU286
 279:Lib/AI_Runtime/Npu/ll_aton/ll_aton.c ****   }
 1170              		.loc 1 279 5 view .LVU287
 279:Lib/AI_Runtime/Npu/ll_aton/ll_aton.c ****   }
 1171              		.loc 1 279 5 view .LVU288
 1172 000c 03F58053 		add	r3, r3, #4096
 1173 0010 1860     		str	r0, [r3]
 279:Lib/AI_Runtime/Npu/ll_aton/ll_aton.c ****   }
 1174              		.loc 1 279 5 view .LVU289
 279:Lib/AI_Runtime/Npu/ll_aton/ll_aton.c ****   }
 1175              		.loc 1 279 30 view .LVU290
 277:Lib/AI_Runtime/Npu/ll_aton/ll_aton.c ****   {
ARM GAS  /tmp/ccgbPSBw.s 			page 48


 1176              		.loc 1 277 36 discriminator 3 view .LVU291
 1177              	.LVL104:
 277:Lib/AI_Runtime/Npu/ll_aton/ll_aton.c ****   {
 1178              		.loc 1 277 17 discriminator 1 view .LVU292
 283:Lib/AI_Runtime/Npu/ll_aton/ll_aton.c ****   ATON_CLKCTRL_AGATES1_SET(0, 0);
 1179              		.loc 1 283 3 view .LVU293
 283:Lib/AI_Runtime/Npu/ll_aton/ll_aton.c ****   ATON_CLKCTRL_AGATES1_SET(0, 0);
 1180              		.loc 1 283 3 view .LVU294
 1181 0012 A3F54053 		sub	r3, r3, #12288
 1182 0016 9860     		str	r0, [r3, #8]
 283:Lib/AI_Runtime/Npu/ll_aton/ll_aton.c ****   ATON_CLKCTRL_AGATES1_SET(0, 0);
 1183              		.loc 1 283 3 view .LVU295
 283:Lib/AI_Runtime/Npu/ll_aton/ll_aton.c ****   ATON_CLKCTRL_AGATES1_SET(0, 0);
 1184              		.loc 1 283 33 view .LVU296
 284:Lib/AI_Runtime/Npu/ll_aton/ll_aton.c ****   ATON_CLKCTRL_BGATES_SET(0, 0);
 1185              		.loc 1 284 3 view .LVU297
 284:Lib/AI_Runtime/Npu/ll_aton/ll_aton.c ****   ATON_CLKCTRL_BGATES_SET(0, 0);
 1186              		.loc 1 284 3 view .LVU298
 1187 0018 D860     		str	r0, [r3, #12]
 284:Lib/AI_Runtime/Npu/ll_aton/ll_aton.c ****   ATON_CLKCTRL_BGATES_SET(0, 0);
 1188              		.loc 1 284 3 view .LVU299
 284:Lib/AI_Runtime/Npu/ll_aton/ll_aton.c ****   ATON_CLKCTRL_BGATES_SET(0, 0);
 1189              		.loc 1 284 33 view .LVU300
 285:Lib/AI_Runtime/Npu/ll_aton/ll_aton.c **** #ifdef ATON_CLKCTRL_BGATES1_OFFSET
 1190              		.loc 1 285 3 view .LVU301
 285:Lib/AI_Runtime/Npu/ll_aton/ll_aton.c **** #ifdef ATON_CLKCTRL_BGATES1_OFFSET
 1191              		.loc 1 285 3 view .LVU302
 1192 001a 1861     		str	r0, [r3, #16]
 285:Lib/AI_Runtime/Npu/ll_aton/ll_aton.c **** #ifdef ATON_CLKCTRL_BGATES1_OFFSET
 1193              		.loc 1 285 3 view .LVU303
 285:Lib/AI_Runtime/Npu/ll_aton/ll_aton.c **** #ifdef ATON_CLKCTRL_BGATES1_OFFSET
 1194              		.loc 1 285 32 view .LVU304
 289:Lib/AI_Runtime/Npu/ll_aton/ll_aton.c **** 
 1195              		.loc 1 289 3 view .LVU305
 289:Lib/AI_Runtime/Npu/ll_aton/ll_aton.c **** 
 1196              		.loc 1 289 3 view .LVU306
 1197 001c 1860     		str	r0, [r3]
 289:Lib/AI_Runtime/Npu/ll_aton/ll_aton.c **** 
 1198              		.loc 1 289 3 view .LVU307
 289:Lib/AI_Runtime/Npu/ll_aton/ll_aton.c **** 
 1199              		.loc 1 289 30 view .LVU308
 291:Lib/AI_Runtime/Npu/ll_aton/ll_aton.c **** }
 1200              		.loc 1 291 3 view .LVU309
 292:Lib/AI_Runtime/Npu/ll_aton/ll_aton.c **** 
 1201              		.loc 1 292 1 is_stmt 0 view .LVU310
 1202 001e 7047     		bx	lr
 1203              	.L101:
 1204              		.align	2
 1205              	.L100:
 1206 0020 00100E58 		.word	1477316608
 1207              		.cfi_endproc
 1208              	.LFE4826:
 1210              		.section	.text.LL_ATON_EnableUnits_Init,"ax",%progbits
 1211              		.align	1
 1212              		.global	LL_ATON_EnableUnits_Init
 1213              		.syntax unified
 1214              		.thumb
ARM GAS  /tmp/ccgbPSBw.s 			page 49


 1215              		.thumb_func
 1217              	LL_ATON_EnableUnits_Init:
 1218              	.LVL105:
 1219              	.LFB4827:
 302:Lib/AI_Runtime/Npu/ll_aton/ll_aton.c ****   int i;
 1220              		.loc 1 302 1 is_stmt 1 view -0
 1221              		.cfi_startproc
 1222              		@ args = 0, pretend = 0, frame = 0
 1223              		@ frame_needed = 0, uses_anonymous_args = 0
 303:Lib/AI_Runtime/Npu/ll_aton/ll_aton.c ****   enum AccelUnitsType unitType;
 1224              		.loc 1 303 3 view .LVU312
 304:Lib/AI_Runtime/Npu/ll_aton/ll_aton.c ****   uint32_t unitId;
 1225              		.loc 1 304 3 view .LVU313
 305:Lib/AI_Runtime/Npu/ll_aton/ll_aton.c **** 
 1226              		.loc 1 305 3 view .LVU314
 307:Lib/AI_Runtime/Npu/ll_aton/ll_aton.c ****   {
 1227              		.loc 1 307 3 view .LVU315
 302:Lib/AI_Runtime/Npu/ll_aton/ll_aton.c ****   int i;
 1228              		.loc 1 302 1 is_stmt 0 view .LVU316
 1229 0000 F0B5     		push	{r4, r5, r6, r7, lr}
 1230              		.cfi_def_cfa_offset 20
 1231              		.cfi_offset 4, -20
 1232              		.cfi_offset 5, -16
 1233              		.cfi_offset 6, -12
 1234              		.cfi_offset 7, -8
 1235              		.cfi_offset 14, -4
 307:Lib/AI_Runtime/Npu/ll_aton/ll_aton.c ****   {
 1236              		.loc 1 307 10 view .LVU317
 1237 0002 0024     		movs	r4, #0
 1238 0004 A142     		cmp	r1, r4
 1239 0006 01F10102 		add	r2, r1, #1
 1240 000a B8BF     		it	lt
 1241 000c 0122     		movlt	r2, #1
 1242              	.LBB21:
 363:Lib/AI_Runtime/Npu/ll_aton/ll_aton.c ****       break;
 1243              		.loc 1 363 7 view .LVU318
 1244 000e 1E4D     		ldr	r5, .L117
 1245              	.LBE21:
 329:Lib/AI_Runtime/Npu/ll_aton/ll_aton.c **** #endif
 1246              		.loc 1 329 7 view .LVU319
 1247 0010 1E4F     		ldr	r7, .L117+4
 310:Lib/AI_Runtime/Npu/ll_aton/ll_aton.c **** 
 1248              		.loc 1 310 52 view .LVU320
 1249 0012 861C     		adds	r6, r0, #2
 1250              	.LVL106:
 1251              	.L103:
 307:Lib/AI_Runtime/Npu/ll_aton/ll_aton.c ****   {
 1252              		.loc 1 307 17 is_stmt 1 discriminator 1 view .LVU321
 1253 0014 013A     		subs	r2, r2, #1
 1254 0016 01D1     		bne	.L113
 372:Lib/AI_Runtime/Npu/ll_aton/ll_aton.c **** }
 1255              		.loc 1 372 3 view .LVU322
 373:Lib/AI_Runtime/Npu/ll_aton/ll_aton.c **** 
 1256              		.loc 1 373 1 is_stmt 0 view .LVU323
 1257 0018 0020     		movs	r0, #0
 1258              	.LVL107:
 373:Lib/AI_Runtime/Npu/ll_aton/ll_aton.c **** 
ARM GAS  /tmp/ccgbPSBw.s 			page 50


 1259              		.loc 1 373 1 view .LVU324
 1260 001a F0BD     		pop	{r4, r5, r6, r7, pc}
 1261              	.LVL108:
 1262              	.L113:
 309:Lib/AI_Runtime/Npu/ll_aton/ll_aton.c ****     unitId = LL_ATON_EnableUnits_InitStruct[i].unit.unit_num;
 1263              		.loc 1 309 5 is_stmt 1 view .LVU325
 310:Lib/AI_Runtime/Npu/ll_aton/ll_aton.c **** 
 1264              		.loc 1 310 5 view .LVU326
 312:Lib/AI_Runtime/Npu/ll_aton/ll_aton.c ****     {
 1265              		.loc 1 312 5 is_stmt 0 view .LVU327
 1266 001c 10F82410 		ldrb	r1, [r0, r4, lsl #2]	@ zero_extendqisi2
 310:Lib/AI_Runtime/Npu/ll_aton/ll_aton.c **** 
 1267              		.loc 1 310 12 view .LVU328
 1268 0020 36F82430 		ldrh	r3, [r6, r4, lsl #2]
 1269              	.LVL109:
 312:Lib/AI_Runtime/Npu/ll_aton/ll_aton.c ****     {
 1270              		.loc 1 312 5 is_stmt 1 view .LVU329
 1271 0024 0829     		cmp	r1, #8
 1272 0026 18D8     		bhi	.L104
 1273 0028 DFE801F0 		tbb	[pc, r1]
 1274              	.L106:
 1275 002c 05       		.byte	(.L112-.L106)/2
 1276 002d 17       		.byte	(.L104-.L106)/2
 1277 002e 0E       		.byte	(.L111-.L106)/2
 1278 002f 19       		.byte	(.L110-.L106)/2
 1279 0030 1D       		.byte	(.L109-.L106)/2
 1280 0031 21       		.byte	(.L108-.L106)/2
 1281 0032 25       		.byte	(.L107-.L106)/2
 1282 0033 17       		.byte	(.L104-.L106)/2
 1283 0034 29       		.byte	(.L105-.L106)/2
 1284 0035 00       		.p2align 1
 1285              	.L112:
 315:Lib/AI_Runtime/Npu/ll_aton/ll_aton.c ****       break;
 1286              		.loc 1 315 7 view .LVU330
 1287              	.LBB22:
 315:Lib/AI_Runtime/Npu/ll_aton/ll_aton.c ****       break;
 1288              		.loc 1 315 7 view .LVU331
 1289 0036 03F5B023 		add	r3, r3, #360448
 1290              	.LVL110:
 315:Lib/AI_Runtime/Npu/ll_aton/ll_aton.c ****       break;
 1291              		.loc 1 315 7 is_stmt 0 view .LVU332
 1292 003a E533     		adds	r3, r3, #229
 1293              	.LVL111:
 1294              	.L116:
 315:Lib/AI_Runtime/Npu/ll_aton/ll_aton.c ****       break;
 1295              		.loc 1 315 7 view .LVU333
 1296              	.LBE22:
 1297              	.LBB23:
 336:Lib/AI_Runtime/Npu/ll_aton/ll_aton.c ****       break;
 1298              		.loc 1 336 7 view .LVU334
 1299 003c 1B03     		lsls	r3, r3, #12
 1300 003e 1968     		ldr	r1, [r3]
 1301              	.LVL112:
 336:Lib/AI_Runtime/Npu/ll_aton/ll_aton.c ****       break;
 1302              		.loc 1 336 7 is_stmt 1 view .LVU335
 1303 0040 41F00101 		orr	r1, r1, #1
 1304              	.LVL113:
ARM GAS  /tmp/ccgbPSBw.s 			page 51


 336:Lib/AI_Runtime/Npu/ll_aton/ll_aton.c ****       break;
 1305              		.loc 1 336 7 view .LVU336
 336:Lib/AI_Runtime/Npu/ll_aton/ll_aton.c ****       break;
 1306              		.loc 1 336 7 view .LVU337
 1307 0044 1960     		str	r1, [r3]
 1308              	.LVL114:
 336:Lib/AI_Runtime/Npu/ll_aton/ll_aton.c ****       break;
 1309              		.loc 1 336 7 view .LVU338
 336:Lib/AI_Runtime/Npu/ll_aton/ll_aton.c ****       break;
 1310              		.loc 1 336 7 view .LVU339
 1311              	.LBE23:
 336:Lib/AI_Runtime/Npu/ll_aton/ll_aton.c ****       break;
 1312              		.loc 1 336 7 view .LVU340
 337:Lib/AI_Runtime/Npu/ll_aton/ll_aton.c **** #endif
 1313              		.loc 1 337 7 view .LVU341
 1314 0046 08E0     		b	.L104
 1315              	.LVL115:
 1316              	.L111:
 329:Lib/AI_Runtime/Npu/ll_aton/ll_aton.c **** #endif
 1317              		.loc 1 329 7 view .LVU342
 329:Lib/AI_Runtime/Npu/ll_aton/ll_aton.c **** #endif
 1318              		.loc 1 329 7 view .LVU343
 1319 0048 03F5B021 		add	r1, r3, #360448
 1320 004c 57F82330 		ldr	r3, [r7, r3, lsl #2]
 1321              	.LVL116:
 329:Lib/AI_Runtime/Npu/ll_aton/ll_aton.c **** #endif
 1322              		.loc 1 329 7 is_stmt 0 view .LVU344
 1323 0050 EF31     		adds	r1, r1, #239
 1324              	.LVL117:
 329:Lib/AI_Runtime/Npu/ll_aton/ll_aton.c **** #endif
 1325              		.loc 1 329 7 view .LVU345
 1326 0052 0903     		lsls	r1, r1, #12
 1327              	.LVL118:
 329:Lib/AI_Runtime/Npu/ll_aton/ll_aton.c **** #endif
 1328              		.loc 1 329 7 view .LVU346
 1329 0054 43F00103 		orr	r3, r3, #1
 1330 0058 0B60     		str	r3, [r1]
 1331              	.LVL119:
 329:Lib/AI_Runtime/Npu/ll_aton/ll_aton.c **** #endif
 1332              		.loc 1 329 7 is_stmt 1 view .LVU347
 329:Lib/AI_Runtime/Npu/ll_aton/ll_aton.c **** #endif
 1333              		.loc 1 329 89 view .LVU348
 331:Lib/AI_Runtime/Npu/ll_aton/ll_aton.c **** #endif
 1334              		.loc 1 331 7 view .LVU349
 1335              	.L104:
 307:Lib/AI_Runtime/Npu/ll_aton/ll_aton.c ****   {
 1336              		.loc 1 307 23 discriminator 2 view .LVU350
 1337 005a 0134     		adds	r4, r4, #1
 1338              	.LVL120:
 307:Lib/AI_Runtime/Npu/ll_aton/ll_aton.c ****   {
 1339              		.loc 1 307 23 is_stmt 0 discriminator 2 view .LVU351
 1340 005c DAE7     		b	.L103
 1341              	.LVL121:
 1342              	.L110:
 336:Lib/AI_Runtime/Npu/ll_aton/ll_aton.c ****       break;
 1343              		.loc 1 336 7 is_stmt 1 view .LVU352
 1344              	.LBB24:
ARM GAS  /tmp/ccgbPSBw.s 			page 52


 336:Lib/AI_Runtime/Npu/ll_aton/ll_aton.c ****       break;
 1345              		.loc 1 336 7 view .LVU353
 1346 005e 03F5B023 		add	r3, r3, #360448
 1347              	.LVL122:
 336:Lib/AI_Runtime/Npu/ll_aton/ll_aton.c ****       break;
 1348              		.loc 1 336 7 is_stmt 0 view .LVU354
 1349 0062 F333     		adds	r3, r3, #243
 1350              	.LVL123:
 336:Lib/AI_Runtime/Npu/ll_aton/ll_aton.c ****       break;
 1351              		.loc 1 336 7 view .LVU355
 1352 0064 EAE7     		b	.L116
 1353              	.LVL124:
 1354              	.L109:
 336:Lib/AI_Runtime/Npu/ll_aton/ll_aton.c ****       break;
 1355              		.loc 1 336 7 view .LVU356
 1356              	.LBE24:
 342:Lib/AI_Runtime/Npu/ll_aton/ll_aton.c ****       break;
 1357              		.loc 1 342 7 is_stmt 1 view .LVU357
 1358              	.LBB25:
 342:Lib/AI_Runtime/Npu/ll_aton/ll_aton.c ****       break;
 1359              		.loc 1 342 7 view .LVU358
 1360 0066 03F5B023 		add	r3, r3, #360448
 1361              	.LVL125:
 342:Lib/AI_Runtime/Npu/ll_aton/ll_aton.c ****       break;
 1362              		.loc 1 342 7 is_stmt 0 view .LVU359
 1363 006a F533     		adds	r3, r3, #245
 1364              	.LVL126:
 342:Lib/AI_Runtime/Npu/ll_aton/ll_aton.c ****       break;
 1365              		.loc 1 342 7 view .LVU360
 1366 006c E6E7     		b	.L116
 1367              	.LVL127:
 1368              	.L108:
 342:Lib/AI_Runtime/Npu/ll_aton/ll_aton.c ****       break;
 1369              		.loc 1 342 7 view .LVU361
 1370              	.LBE25:
 348:Lib/AI_Runtime/Npu/ll_aton/ll_aton.c ****       break;
 1371              		.loc 1 348 7 is_stmt 1 view .LVU362
 1372              	.LBB26:
 348:Lib/AI_Runtime/Npu/ll_aton/ll_aton.c ****       break;
 1373              		.loc 1 348 7 view .LVU363
 1374 006e 03F5B023 		add	r3, r3, #360448
 1375              	.LVL128:
 348:Lib/AI_Runtime/Npu/ll_aton/ll_aton.c ****       break;
 1376              		.loc 1 348 7 is_stmt 0 view .LVU364
 1377 0072 F733     		adds	r3, r3, #247
 1378              	.LVL129:
 348:Lib/AI_Runtime/Npu/ll_aton/ll_aton.c ****       break;
 1379              		.loc 1 348 7 view .LVU365
 1380 0074 E2E7     		b	.L116
 1381              	.LVL130:
 1382              	.L107:
 348:Lib/AI_Runtime/Npu/ll_aton/ll_aton.c ****       break;
 1383              		.loc 1 348 7 view .LVU366
 1384              	.LBE26:
 357:Lib/AI_Runtime/Npu/ll_aton/ll_aton.c **** #endif // !POOL_RC14
 1385              		.loc 1 357 7 is_stmt 1 view .LVU367
 1386              	.LBB27:
ARM GAS  /tmp/ccgbPSBw.s 			page 53


 357:Lib/AI_Runtime/Npu/ll_aton/ll_aton.c **** #endif // !POOL_RC14
 1387              		.loc 1 357 7 view .LVU368
 1388 0076 03F5B023 		add	r3, r3, #360448
 1389              	.LVL131:
 357:Lib/AI_Runtime/Npu/ll_aton/ll_aton.c **** #endif // !POOL_RC14
 1390              		.loc 1 357 7 is_stmt 0 view .LVU369
 1391 007a FB33     		adds	r3, r3, #251
 1392              	.LVL132:
 357:Lib/AI_Runtime/Npu/ll_aton/ll_aton.c **** #endif // !POOL_RC14
 1393              		.loc 1 357 7 view .LVU370
 1394 007c DEE7     		b	.L116
 1395              	.LVL133:
 1396              	.L105:
 357:Lib/AI_Runtime/Npu/ll_aton/ll_aton.c **** #endif // !POOL_RC14
 1397              		.loc 1 357 7 view .LVU371
 1398              	.LBE27:
 363:Lib/AI_Runtime/Npu/ll_aton/ll_aton.c ****       break;
 1399              		.loc 1 363 7 is_stmt 1 view .LVU372
 1400              	.LBB28:
 363:Lib/AI_Runtime/Npu/ll_aton/ll_aton.c ****       break;
 1401              		.loc 1 363 7 view .LVU373
 1402 007e 2B68     		ldr	r3, [r5]
 1403              	.LVL134:
 363:Lib/AI_Runtime/Npu/ll_aton/ll_aton.c ****       break;
 1404              		.loc 1 363 7 view .LVU374
 1405 0080 43F00103 		orr	r3, r3, #1
 1406              	.LVL135:
 363:Lib/AI_Runtime/Npu/ll_aton/ll_aton.c ****       break;
 1407              		.loc 1 363 7 view .LVU375
 363:Lib/AI_Runtime/Npu/ll_aton/ll_aton.c ****       break;
 1408              		.loc 1 363 7 view .LVU376
 1409 0084 2B60     		str	r3, [r5]
 1410              	.LVL136:
 363:Lib/AI_Runtime/Npu/ll_aton/ll_aton.c ****       break;
 1411              		.loc 1 363 7 view .LVU377
 363:Lib/AI_Runtime/Npu/ll_aton/ll_aton.c ****       break;
 1412              		.loc 1 363 7 view .LVU378
 1413              	.LBE28:
 363:Lib/AI_Runtime/Npu/ll_aton/ll_aton.c ****       break;
 1414              		.loc 1 363 7 view .LVU379
 364:Lib/AI_Runtime/Npu/ll_aton/ll_aton.c **** #endif
 1415              		.loc 1 364 7 view .LVU380
 1416 0086 E8E7     		b	.L104
 1417              	.L118:
 1418              		.align	2
 1419              	.L117:
 1420 0088 00D00F58 		.word	1477431296
 1421 008c 00000000 		.word	Conv_ctrl_bits
 1422              		.cfi_endproc
 1423              	.LFE4827:
 1425              		.section	.rodata.LL_Streng_Wait.str1.1,"aMS",%progbits,1
 1426              	.LC19:
 1427 0000 63686563 		.ascii	"checkWatchdog() == 0\000"
 1427      6B576174 
 1427      6368646F 
 1427      67282920 
 1427      3D3D2030 
ARM GAS  /tmp/ccgbPSBw.s 			page 54


 1428              		.section	.text.LL_Streng_Wait,"ax",%progbits
 1429              		.align	1
 1430              		.global	LL_Streng_Wait
 1431              		.syntax unified
 1432              		.thumb
 1433              		.thumb_func
 1435              	LL_Streng_Wait:
 1436              	.LVL137:
 1437              	.LFB4829:
 463:Lib/AI_Runtime/Npu/ll_aton/ll_aton.c ****   int i;
 1438              		.loc 1 463 1 view -0
 1439              		.cfi_startproc
 1440              		@ args = 0, pretend = 0, frame = 0
 1441              		@ frame_needed = 0, uses_anonymous_args = 0
 464:Lib/AI_Runtime/Npu/ll_aton/ll_aton.c ****   uint32_t enableFlags;
 1442              		.loc 1 464 3 view .LVU382
 465:Lib/AI_Runtime/Npu/ll_aton/ll_aton.c **** 
 1443              		.loc 1 465 3 view .LVU383
 467:Lib/AI_Runtime/Npu/ll_aton/ll_aton.c **** 
 1444              		.loc 1 467 3 view .LVU384
 463:Lib/AI_Runtime/Npu/ll_aton/ll_aton.c ****   int i;
 1445              		.loc 1 463 1 is_stmt 0 view .LVU385
 1446 0000 70B5     		push	{r4, r5, r6, lr}
 1447              		.cfi_def_cfa_offset 16
 1448              		.cfi_offset 4, -16
 1449              		.cfi_offset 5, -12
 1450              		.cfi_offset 6, -8
 1451              		.cfi_offset 14, -4
 463:Lib/AI_Runtime/Npu/ll_aton/ll_aton.c ****   int i;
 1452              		.loc 1 463 1 view .LVU386
 1453 0002 0546     		mov	r5, r0
 467:Lib/AI_Runtime/Npu/ll_aton/ll_aton.c **** 
 1454              		.loc 1 467 3 view .LVU387
 1455 0004 1248     		ldr	r0, .L129
 1456              	.LVL138:
 467:Lib/AI_Runtime/Npu/ll_aton/ll_aton.c **** 
 1457              		.loc 1 467 3 view .LVU388
 1458 0006 FFF7FEFF 		bl	startWatchdog
 1459              	.LVL139:
 474:Lib/AI_Runtime/Npu/ll_aton/ll_aton.c ****       {
 1460              		.loc 1 474 21 view .LVU389
 1461 000a 0126     		movs	r6, #1
 1462              	.L123:
 469:Lib/AI_Runtime/Npu/ll_aton/ll_aton.c ****   {
 1463              		.loc 1 469 3 is_stmt 1 view .LVU390
 471:Lib/AI_Runtime/Npu/ll_aton/ll_aton.c ****     for (i = 0; i < ATON_STRENG_NUM; i++)
 1464              		.loc 1 471 5 view .LVU391
 1465              	.LVL140:
 472:Lib/AI_Runtime/Npu/ll_aton/ll_aton.c ****     {
 1466              		.loc 1 472 5 view .LVU392
 472:Lib/AI_Runtime/Npu/ll_aton/ll_aton.c ****     {
 1467              		.loc 1 472 19 discriminator 1 view .LVU393
 471:Lib/AI_Runtime/Npu/ll_aton/ll_aton.c ****     for (i = 0; i < ATON_STRENG_NUM; i++)
 1468              		.loc 1 471 17 is_stmt 0 view .LVU394
 1469 000c 0024     		movs	r4, #0
 472:Lib/AI_Runtime/Npu/ll_aton/ll_aton.c ****     {
 1470              		.loc 1 472 12 view .LVU395
ARM GAS  /tmp/ccgbPSBw.s 			page 55


 1471 000e 0A21     		movs	r1, #10
 1472 0010 2246     		mov	r2, r4
 1473              	.LVL141:
 1474              	.L121:
 474:Lib/AI_Runtime/Npu/ll_aton/ll_aton.c ****       {
 1475              		.loc 1 474 7 is_stmt 1 view .LVU396
 474:Lib/AI_Runtime/Npu/ll_aton/ll_aton.c ****       {
 1476              		.loc 1 474 21 is_stmt 0 view .LVU397
 1477 0012 06FA02F3 		lsl	r3, r6, r2
 474:Lib/AI_Runtime/Npu/ll_aton/ll_aton.c ****       {
 1478              		.loc 1 474 10 view .LVU398
 1479 0016 2B42     		tst	r3, r5
 1480 0018 08D0     		beq	.L120
 476:Lib/AI_Runtime/Npu/ll_aton/ll_aton.c ****       }
 1481              		.loc 1 476 9 is_stmt 1 view .LVU399
 476:Lib/AI_Runtime/Npu/ll_aton/ll_aton.c ****       }
 1482              		.loc 1 476 25 is_stmt 0 view .LVU400
 1483 001a 1303     		lsls	r3, r2, #12
 1484 001c 03F1B043 		add	r3, r3, #1476395008
 1485 0020 03F56523 		add	r3, r3, #937984
 1486 0024 1B68     		ldr	r3, [r3]
 476:Lib/AI_Runtime/Npu/ll_aton/ll_aton.c ****       }
 1487              		.loc 1 476 49 view .LVU401
 1488 0026 03F00043 		and	r3, r3, #-2147483648
 476:Lib/AI_Runtime/Npu/ll_aton/ll_aton.c ****       }
 1489              		.loc 1 476 21 view .LVU402
 1490 002a 1C43     		orrs	r4, r4, r3
 1491              	.LVL142:
 1492              	.L120:
 472:Lib/AI_Runtime/Npu/ll_aton/ll_aton.c ****     {
 1493              		.loc 1 472 39 is_stmt 1 discriminator 2 view .LVU403
 472:Lib/AI_Runtime/Npu/ll_aton/ll_aton.c ****     {
 1494              		.loc 1 472 19 is_stmt 0 discriminator 1 view .LVU404
 1495 002c 0139     		subs	r1, r1, #1
 472:Lib/AI_Runtime/Npu/ll_aton/ll_aton.c ****     {
 1496              		.loc 1 472 39 discriminator 2 view .LVU405
 1497 002e 02F10102 		add	r2, r2, #1
 1498              	.LVL143:
 472:Lib/AI_Runtime/Npu/ll_aton/ll_aton.c ****     {
 1499              		.loc 1 472 19 is_stmt 1 discriminator 1 view .LVU406
 1500 0032 EED1     		bne	.L121
 480:Lib/AI_Runtime/Npu/ll_aton/ll_aton.c **** 
 1501              		.loc 1 480 5 view .LVU407
 1502 0034 FFF7FEFF 		bl	checkWatchdog
 1503              	.LVL144:
 480:Lib/AI_Runtime/Npu/ll_aton/ll_aton.c **** 
 1504              		.loc 1 480 5 is_stmt 0 discriminator 1 view .LVU408
 1505 0038 30B1     		cbz	r0, .L122
 1506              	.LBB31:
 1507              	.LBI31:
 462:Lib/AI_Runtime/Npu/ll_aton/ll_aton.c **** {
 1508              		.loc 1 462 5 is_stmt 1 view .LVU409
 1509              	.LVL145:
 1510              	.LBB32:
 480:Lib/AI_Runtime/Npu/ll_aton/ll_aton.c **** 
 1511              		.loc 1 480 5 is_stmt 0 discriminator 1 view .LVU410
 1512 003a 4FF4F071 		mov	r1, #480
ARM GAS  /tmp/ccgbPSBw.s 			page 56


 1513 003e 054B     		ldr	r3, .L129+4
 1514 0040 054A     		ldr	r2, .L129+8
 1515 0042 0648     		ldr	r0, .L129+12
 1516 0044 FFF7FEFF 		bl	__assert_func
 1517              	.LVL146:
 1518              	.L122:
 480:Lib/AI_Runtime/Npu/ll_aton/ll_aton.c **** 
 1519              		.loc 1 480 5 discriminator 1 view .LVU411
 1520              	.LBE32:
 1521              	.LBE31:
 482:Lib/AI_Runtime/Npu/ll_aton/ll_aton.c **** 
 1522              		.loc 1 482 12 is_stmt 1 view .LVU412
 1523 0048 002C     		cmp	r4, #0
 1524 004a DFD1     		bne	.L123
 484:Lib/AI_Runtime/Npu/ll_aton/ll_aton.c **** }
 1525              		.loc 1 484 3 view .LVU413
 485:Lib/AI_Runtime/Npu/ll_aton/ll_aton.c **** 
 1526              		.loc 1 485 1 is_stmt 0 view .LVU414
 1527 004c 70BD     		pop	{r4, r5, r6, pc}
 1528              	.LVL147:
 1529              	.L130:
 485:Lib/AI_Runtime/Npu/ll_aton/ll_aton.c **** 
 1530              		.loc 1 485 1 view .LVU415
 1531 004e 00BF     		.align	2
 1532              	.L129:
 1533 0050 80969800 		.word	10000000
 1534 0054 00000000 		.word	.LC19
 1535 0058 00000000 		.word	__func__.7
 1536 005c 05000000 		.word	.LC4
 1537              		.cfi_endproc
 1538              	.LFE4829:
 1540              		.section	.text.LL_TriggerHigh,"ax",%progbits
 1541              		.align	1
 1542              		.global	LL_TriggerHigh
 1543              		.syntax unified
 1544              		.thumb
 1545              		.thumb_func
 1547              	LL_TriggerHigh:
 1548              	.LVL148:
 1549              	.LFB4832:
 812:Lib/AI_Runtime/Npu/ll_aton/ll_aton.c ****   if (irq >= ATON_INTCTRL_INTS(0))
 1550              		.loc 1 812 1 is_stmt 1 view -0
 1551              		.cfi_startproc
 1552              		@ args = 0, pretend = 0, frame = 0
 1553              		@ frame_needed = 0, uses_anonymous_args = 0
 1554              		@ link register save eliminated.
 813:Lib/AI_Runtime/Npu/ll_aton/ll_aton.c ****     return LL_ATON_INVALID_PARAM;
 1555              		.loc 1 813 3 view .LVU417
 813:Lib/AI_Runtime/Npu/ll_aton/ll_aton.c ****     return LL_ATON_INVALID_PARAM;
 1556              		.loc 1 813 6 is_stmt 0 view .LVU418
 1557 0000 1F28     		cmp	r0, #31
 1558 0002 0EDC     		bgt	.L134
 816:Lib/AI_Runtime/Npu/ll_aton/ll_aton.c ****   ATON_INTCTRL_INTSET_SET(0, (1 << ATON_INTCTRL_0_INTSET_EPOCHCTRL_0_1_IDX));
 1559              		.loc 1 816 3 is_stmt 1 view .LVU419
 816:Lib/AI_Runtime/Npu/ll_aton/ll_aton.c ****   ATON_INTCTRL_INTSET_SET(0, (1 << ATON_INTCTRL_0_INTSET_EPOCHCTRL_0_1_IDX));
 1560              		.loc 1 816 3 view .LVU420
 816:Lib/AI_Runtime/Npu/ll_aton/ll_aton.c ****   ATON_INTCTRL_INTSET_SET(0, (1 << ATON_INTCTRL_0_INTSET_EPOCHCTRL_0_1_IDX));
ARM GAS  /tmp/ccgbPSBw.s 			page 57


 1561              		.loc 1 816 3 view .LVU421
 1562 0004 084A     		ldr	r2, .L136
 816:Lib/AI_Runtime/Npu/ll_aton/ll_aton.c ****   ATON_INTCTRL_INTSET_SET(0, (1 << ATON_INTCTRL_0_INTSET_EPOCHCTRL_0_1_IDX));
 1563              		.loc 1 816 3 is_stmt 0 discriminator 1 view .LVU422
 1564 0006 094B     		ldr	r3, .L136+4
 1565 0008 0428     		cmp	r0, #4
 1566 000a 03EB8003 		add	r3, r3, r0, lsl #2
 816:Lib/AI_Runtime/Npu/ll_aton/ll_aton.c ****   ATON_INTCTRL_INTSET_SET(0, (1 << ATON_INTCTRL_0_INTSET_EPOCHCTRL_0_1_IDX));
 1567              		.loc 1 816 3 discriminator 4 view .LVU423
 1568 000e 6FF00051 		mvn	r1, #536870912
 816:Lib/AI_Runtime/Npu/ll_aton/ll_aton.c ****   ATON_INTCTRL_INTSET_SET(0, (1 << ATON_INTCTRL_0_INTSET_EPOCHCTRL_0_1_IDX));
 1569              		.loc 1 816 3 discriminator 1 view .LVU424
 1570 0012 28BF     		it	cs
 1571 0014 1346     		movcs	r3, r2
 816:Lib/AI_Runtime/Npu/ll_aton/ll_aton.c ****   ATON_INTCTRL_INTSET_SET(0, (1 << ATON_INTCTRL_0_INTSET_EPOCHCTRL_0_1_IDX));
 1572              		.loc 1 816 3 discriminator 4 view .LVU425
 1573 0016 1960     		str	r1, [r3]
 816:Lib/AI_Runtime/Npu/ll_aton/ll_aton.c ****   ATON_INTCTRL_INTSET_SET(0, (1 << ATON_INTCTRL_0_INTSET_EPOCHCTRL_0_1_IDX));
 1574              		.loc 1 816 3 is_stmt 1 discriminator 4 view .LVU426
 816:Lib/AI_Runtime/Npu/ll_aton/ll_aton.c ****   ATON_INTCTRL_INTSET_SET(0, (1 << ATON_INTCTRL_0_INTSET_EPOCHCTRL_0_1_IDX));
 1575              		.loc 1 816 3 discriminator 4 view .LVU427
 816:Lib/AI_Runtime/Npu/ll_aton/ll_aton.c ****   ATON_INTCTRL_INTSET_SET(0, (1 << ATON_INTCTRL_0_INTSET_EPOCHCTRL_0_1_IDX));
 1576              		.loc 1 816 3 discriminator 4 view .LVU428
 817:Lib/AI_Runtime/Npu/ll_aton/ll_aton.c ****   return 0;
 1577              		.loc 1 817 3 view .LVU429
 817:Lib/AI_Runtime/Npu/ll_aton/ll_aton.c ****   return 0;
 1578              		.loc 1 817 3 view .LVU430
 1579 0018 4FF00053 		mov	r3, #536870912
 818:Lib/AI_Runtime/Npu/ll_aton/ll_aton.c **** }
 1580              		.loc 1 818 10 is_stmt 0 view .LVU431
 1581 001c 0020     		movs	r0, #0
 1582              	.LVL149:
 817:Lib/AI_Runtime/Npu/ll_aton/ll_aton.c ****   return 0;
 1583              		.loc 1 817 3 view .LVU432
 1584 001e D360     		str	r3, [r2, #12]
 817:Lib/AI_Runtime/Npu/ll_aton/ll_aton.c ****   return 0;
 1585              		.loc 1 817 3 is_stmt 1 view .LVU433
 817:Lib/AI_Runtime/Npu/ll_aton/ll_aton.c ****   return 0;
 1586              		.loc 1 817 77 view .LVU434
 818:Lib/AI_Runtime/Npu/ll_aton/ll_aton.c **** }
 1587              		.loc 1 818 3 view .LVU435
 818:Lib/AI_Runtime/Npu/ll_aton/ll_aton.c **** }
 1588              		.loc 1 818 10 is_stmt 0 view .LVU436
 1589 0020 7047     		bx	lr
 1590              	.LVL150:
 1591              	.L134:
 814:Lib/AI_Runtime/Npu/ll_aton/ll_aton.c **** 
 1592              		.loc 1 814 12 view .LVU437
 1593 0022 6FF00100 		mvn	r0, #1
 1594              	.LVL151:
 819:Lib/AI_Runtime/Npu/ll_aton/ll_aton.c **** 
 1595              		.loc 1 819 1 view .LVU438
 1596 0026 7047     		bx	lr
 1597              	.L137:
 1598              		.align	2
 1599              	.L136:
 1600 0028 00100E58 		.word	1477316608
ARM GAS  /tmp/ccgbPSBw.s 			page 58


 1601 002c 14100E58 		.word	1477316628
 1602              		.cfi_endproc
 1603              	.LFE4832:
 1605              		.section	.text.LL_TriggerLow,"ax",%progbits
 1606              		.align	1
 1607              		.global	LL_TriggerLow
 1608              		.syntax unified
 1609              		.thumb
 1610              		.thumb_func
 1612              	LL_TriggerLow:
 1613              	.LVL152:
 1614              	.LFB4833:
 827:Lib/AI_Runtime/Npu/ll_aton/ll_aton.c ****   if (irq >= ATON_INTCTRL_INTS(0))
 1615              		.loc 1 827 1 is_stmt 1 view -0
 1616              		.cfi_startproc
 1617              		@ args = 0, pretend = 0, frame = 0
 1618              		@ frame_needed = 0, uses_anonymous_args = 0
 1619              		@ link register save eliminated.
 828:Lib/AI_Runtime/Npu/ll_aton/ll_aton.c ****     return LL_ATON_INVALID_PARAM;
 1620              		.loc 1 828 3 view .LVU440
 828:Lib/AI_Runtime/Npu/ll_aton/ll_aton.c ****     return LL_ATON_INVALID_PARAM;
 1621              		.loc 1 828 6 is_stmt 0 view .LVU441
 1622 0000 1F28     		cmp	r0, #31
 831:Lib/AI_Runtime/Npu/ll_aton/ll_aton.c ****   return 0;
 1623              		.loc 1 831 3 is_stmt 1 view .LVU442
 831:Lib/AI_Runtime/Npu/ll_aton/ll_aton.c ****   return 0;
 1624              		.loc 1 831 3 view .LVU443
 1625 0002 DFBF     		itttt	le
 1626 0004 4FF00052 		movle	r2, #536870912
 1627 0008 034B     		ldrle	r3, .L141
 832:Lib/AI_Runtime/Npu/ll_aton/ll_aton.c **** }
 1628              		.loc 1 832 10 is_stmt 0 view .LVU444
 1629 000a 0020     		movle	r0, #0
 1630              	.LVL153:
 831:Lib/AI_Runtime/Npu/ll_aton/ll_aton.c ****   return 0;
 1631              		.loc 1 831 3 view .LVU445
 1632 000c 1A61     		strle	r2, [r3, #16]
 831:Lib/AI_Runtime/Npu/ll_aton/ll_aton.c ****   return 0;
 1633              		.loc 1 831 3 is_stmt 1 view .LVU446
 831:Lib/AI_Runtime/Npu/ll_aton/ll_aton.c ****   return 0;
 1634              		.loc 1 831 77 view .LVU447
 832:Lib/AI_Runtime/Npu/ll_aton/ll_aton.c **** }
 1635              		.loc 1 832 3 view .LVU448
 829:Lib/AI_Runtime/Npu/ll_aton/ll_aton.c **** 
 1636              		.loc 1 829 12 is_stmt 0 view .LVU449
 1637 000e C8BF     		it	gt
 1638 0010 6FF00100 		mvngt	r0, #1
 833:Lib/AI_Runtime/Npu/ll_aton/ll_aton.c **** #endif
 1639              		.loc 1 833 1 view .LVU450
 1640 0014 7047     		bx	lr
 1641              	.L142:
 1642 0016 00BF     		.align	2
 1643              	.L141:
 1644 0018 00100E58 		.word	1477316608
 1645              		.cfi_endproc
 1646              	.LFE4833:
 1648              		.section	.rodata.__atonn_getSrcPortID.str1.1,"aMS",%progbits,1
ARM GAS  /tmp/ccgbPSBw.s 			page 59


 1649              	.LC20:
 1650 0000 73755F6E 		.ascii	"su_num == 0\000"
 1650      756D203D 
 1650      3D203000 
 1651              	.LC21:
 1652 000c 706F7274 		.ascii	"port == 0\000"
 1652      203D3D20 
 1652      3000
 1653              	.LC22:
 1654 0016 61755F6E 		.ascii	"au_num < 10\000"
 1654      756D203C 
 1654      20313000 
 1655              	.LC23:
 1656 0022 61755F6E 		.ascii	"au_num < 4\000"
 1656      756D203C 
 1656      203400
 1657              	.LC24:
 1658 002d 61755F6E 		.ascii	"au_num < 2\000"
 1658      756D203C 
 1658      203200
 1659              		.section	.text.__atonn_getSrcPortID,"ax",%progbits
 1660              		.align	1
 1661              		.global	__atonn_getSrcPortID
 1662              		.syntax unified
 1663              		.thumb
 1664              		.thumb_func
 1666              	__atonn_getSrcPortID:
 1667              	.LVL154:
 1668              	.LFB4834:
 838:Lib/AI_Runtime/Npu/ll_aton/ll_aton.c ****   // FIXME
 1669              		.loc 1 838 1 is_stmt 1 view -0
 1670              		.cfi_startproc
 1671              		@ args = 4, pretend = 0, frame = 0
 1672              		@ frame_needed = 0, uses_anonymous_args = 0
 840:Lib/AI_Runtime/Npu/ll_aton/ll_aton.c ****   switch (sut)
 1673              		.loc 1 840 3 view .LVU452
 838:Lib/AI_Runtime/Npu/ll_aton/ll_aton.c ****   // FIXME
 1674              		.loc 1 838 1 is_stmt 0 view .LVU453
 1675 0000 38B5     		push	{r3, r4, r5, lr}
 1676              		.cfi_def_cfa_offset 16
 1677              		.cfi_offset 3, -16
 1678              		.cfi_offset 4, -12
 1679              		.cfi_offset 5, -8
 1680              		.cfi_offset 14, -4
 838:Lib/AI_Runtime/Npu/ll_aton/ll_aton.c ****   // FIXME
 1681              		.loc 1 838 1 view .LVU454
 1682 0002 0546     		mov	r5, r0
 1683 0004 9DF81040 		ldrb	r4, [sp, #16]	@ zero_extendqisi2
 840:Lib/AI_Runtime/Npu/ll_aton/ll_aton.c ****   switch (sut)
 1684              		.loc 1 840 3 view .LVU455
 1685 0008 0846     		mov	r0, r1
 1686              	.LVL155:
 840:Lib/AI_Runtime/Npu/ll_aton/ll_aton.c ****   switch (sut)
 1687              		.loc 1 840 3 view .LVU456
 1688 000a 31B1     		cbz	r1, .L144
 840:Lib/AI_Runtime/Npu/ll_aton/ll_aton.c ****   switch (sut)
 1689              		.loc 1 840 3 discriminator 1 view .LVU457
ARM GAS  /tmp/ccgbPSBw.s 			page 60


 1690 000c 4FF45271 		mov	r1, #840
 1691              	.LVL156:
 840:Lib/AI_Runtime/Npu/ll_aton/ll_aton.c ****   switch (sut)
 1692              		.loc 1 840 3 discriminator 1 view .LVU458
 1693 0010 3D4B     		ldr	r3, .L170
 1694              	.LVL157:
 840:Lib/AI_Runtime/Npu/ll_aton/ll_aton.c ****   switch (sut)
 1695              		.loc 1 840 3 discriminator 1 view .LVU459
 1696 0012 3E4A     		ldr	r2, .L170+4
 1697              	.LVL158:
 1698              	.L169:
 848:Lib/AI_Runtime/Npu/ll_aton/ll_aton.c ****       LL_ATON_ASSERT(au_num < ATON_STRENG_NUM);
 1699              		.loc 1 848 7 discriminator 1 view .LVU460
 1700 0014 3E48     		ldr	r0, .L170+8
 1701 0016 FFF7FEFF 		bl	__assert_func
 1702              	.LVL159:
 1703              	.L144:
 841:Lib/AI_Runtime/Npu/ll_aton/ll_aton.c ****   {
 1704              		.loc 1 841 3 is_stmt 1 view .LVU461
 1705 001a 25B1     		cbz	r5, .L145
 1706 001c 012D     		cmp	r5, #1
 1707 001e 68D0     		beq	.L146
 1708 0020 022D     		cmp	r5, #2
 1709 0022 6BD0     		beq	.L147
 1710              	.LVL160:
 1711              	.L143:
 903:Lib/AI_Runtime/Npu/ll_aton/ll_aton.c **** 
 1712              		.loc 1 903 1 is_stmt 0 view .LVU462
 1713 0024 38BD     		pop	{r3, r4, r5, pc}
 1714              	.LVL161:
 1715              	.L145:
 844:Lib/AI_Runtime/Npu/ll_aton/ll_aton.c ****     {
 1716              		.loc 1 844 5 is_stmt 1 view .LVU463
 1717 0026 062A     		cmp	r2, #6
 1718 0028 5ED8     		bhi	.L149
 1719 002a DFE802F0 		tbb	[pc, r2]
 1720              	.LVL162:
 1721              	.L151:
 1722 002e 04       		.byte	(.L156-.L151)/2
 1723 002f 5D       		.byte	(.L149-.L151)/2
 1724 0030 12       		.byte	(.L155-.L151)/2
 1725 0031 21       		.byte	(.L154-.L151)/2
 1726 0032 30       		.byte	(.L153-.L151)/2
 1727 0033 3F       		.byte	(.L152-.L151)/2
 1728 0034 4E       		.byte	(.L150-.L151)/2
 1729 0035 00       		.p2align 1
 1730              	.L156:
 848:Lib/AI_Runtime/Npu/ll_aton/ll_aton.c ****       LL_ATON_ASSERT(au_num < ATON_STRENG_NUM);
 1731              		.loc 1 848 7 view .LVU464
 1732 0036 24B1     		cbz	r4, .L157
 848:Lib/AI_Runtime/Npu/ll_aton/ll_aton.c ****       LL_ATON_ASSERT(au_num < ATON_STRENG_NUM);
 1733              		.loc 1 848 7 is_stmt 0 discriminator 1 view .LVU465
 1734 0038 4FF45471 		mov	r1, #848
 1735 003c 354B     		ldr	r3, .L170+12
 1736              	.LVL163:
 848:Lib/AI_Runtime/Npu/ll_aton/ll_aton.c ****       LL_ATON_ASSERT(au_num < ATON_STRENG_NUM);
 1737              		.loc 1 848 7 discriminator 1 view .LVU466
ARM GAS  /tmp/ccgbPSBw.s 			page 61


 1738 003e 334A     		ldr	r2, .L170+4
 1739              	.LVL164:
 848:Lib/AI_Runtime/Npu/ll_aton/ll_aton.c ****       LL_ATON_ASSERT(au_num < ATON_STRENG_NUM);
 1740              		.loc 1 848 7 discriminator 1 view .LVU467
 1741 0040 E8E7     		b	.L169
 1742              	.LVL165:
 1743              	.L157:
 849:Lib/AI_Runtime/Npu/ll_aton/ll_aton.c ****       return ATONN_CONST_SRCPORT(STRSWITCH, 0, STRENG, 0, 0) + au_num;
 1744              		.loc 1 849 7 is_stmt 1 view .LVU468
 1745 0042 092B     		cmp	r3, #9
 850:Lib/AI_Runtime/Npu/ll_aton/ll_aton.c ****       break;
 1746              		.loc 1 850 62 is_stmt 0 view .LVU469
 1747 0044 1846     		mov	r0, r3
 1748              	.LVL166:
 849:Lib/AI_Runtime/Npu/ll_aton/ll_aton.c ****       return ATONN_CONST_SRCPORT(STRSWITCH, 0, STRENG, 0, 0) + au_num;
 1749              		.loc 1 849 7 view .LVU470
 1750 0046 EDD9     		bls	.L143
 849:Lib/AI_Runtime/Npu/ll_aton/ll_aton.c ****       return ATONN_CONST_SRCPORT(STRSWITCH, 0, STRENG, 0, 0) + au_num;
 1751              		.loc 1 849 7 discriminator 1 view .LVU471
 1752 0048 40F25131 		movw	r1, #849
 1753 004c 324B     		ldr	r3, .L170+16
 1754              	.LVL167:
 849:Lib/AI_Runtime/Npu/ll_aton/ll_aton.c ****       return ATONN_CONST_SRCPORT(STRSWITCH, 0, STRENG, 0, 0) + au_num;
 1755              		.loc 1 849 7 discriminator 1 view .LVU472
 1756 004e 2F4A     		ldr	r2, .L170+4
 1757              	.LVL168:
 849:Lib/AI_Runtime/Npu/ll_aton/ll_aton.c ****       return ATONN_CONST_SRCPORT(STRSWITCH, 0, STRENG, 0, 0) + au_num;
 1758              		.loc 1 849 7 discriminator 1 view .LVU473
 1759 0050 E0E7     		b	.L169
 1760              	.LVL169:
 1761              	.L155:
 851:Lib/AI_Runtime/Npu/ll_aton/ll_aton.c **** #endif
 1762              		.loc 1 851 7 is_stmt 1 view .LVU474
 855:Lib/AI_Runtime/Npu/ll_aton/ll_aton.c ****       LL_ATON_ASSERT(au_num < ATON_CONVACC_NUM);
 1763              		.loc 1 855 7 view .LVU475
 1764 0052 24B1     		cbz	r4, .L159
 855:Lib/AI_Runtime/Npu/ll_aton/ll_aton.c ****       LL_ATON_ASSERT(au_num < ATON_CONVACC_NUM);
 1765              		.loc 1 855 7 is_stmt 0 discriminator 1 view .LVU476
 1766 0054 40F25731 		movw	r1, #855
 1767 0058 2E4B     		ldr	r3, .L170+12
 1768              	.LVL170:
 855:Lib/AI_Runtime/Npu/ll_aton/ll_aton.c ****       LL_ATON_ASSERT(au_num < ATON_CONVACC_NUM);
 1769              		.loc 1 855 7 discriminator 1 view .LVU477
 1770 005a 2C4A     		ldr	r2, .L170+4
 1771              	.LVL171:
 855:Lib/AI_Runtime/Npu/ll_aton/ll_aton.c ****       LL_ATON_ASSERT(au_num < ATON_CONVACC_NUM);
 1772              		.loc 1 855 7 discriminator 1 view .LVU478
 1773 005c DAE7     		b	.L169
 1774              	.LVL172:
 1775              	.L159:
 856:Lib/AI_Runtime/Npu/ll_aton/ll_aton.c ****       return ATONN_CONST_SRCPORT(STRSWITCH, 0, CONVACC, 0, 0) + au_num;
 1776              		.loc 1 856 7 is_stmt 1 view .LVU479
 1777 005e 032B     		cmp	r3, #3
 857:Lib/AI_Runtime/Npu/ll_aton/ll_aton.c ****       break;
 1778              		.loc 1 857 63 is_stmt 0 view .LVU480
 1779 0060 03F10A00 		add	r0, r3, #10
 856:Lib/AI_Runtime/Npu/ll_aton/ll_aton.c ****       return ATONN_CONST_SRCPORT(STRSWITCH, 0, CONVACC, 0, 0) + au_num;
ARM GAS  /tmp/ccgbPSBw.s 			page 62


 1780              		.loc 1 856 7 view .LVU481
 1781 0064 DED9     		bls	.L143
 856:Lib/AI_Runtime/Npu/ll_aton/ll_aton.c ****       return ATONN_CONST_SRCPORT(STRSWITCH, 0, CONVACC, 0, 0) + au_num;
 1782              		.loc 1 856 7 discriminator 1 view .LVU482
 1783 0066 4FF45671 		mov	r1, #856
 1784 006a 2C4B     		ldr	r3, .L170+20
 1785              	.LVL173:
 856:Lib/AI_Runtime/Npu/ll_aton/ll_aton.c ****       return ATONN_CONST_SRCPORT(STRSWITCH, 0, CONVACC, 0, 0) + au_num;
 1786              		.loc 1 856 7 discriminator 1 view .LVU483
 1787 006c 274A     		ldr	r2, .L170+4
 1788              	.LVL174:
 856:Lib/AI_Runtime/Npu/ll_aton/ll_aton.c ****       return ATONN_CONST_SRCPORT(STRSWITCH, 0, CONVACC, 0, 0) + au_num;
 1789              		.loc 1 856 7 discriminator 1 view .LVU484
 1790 006e D1E7     		b	.L169
 1791              	.LVL175:
 1792              	.L154:
 858:Lib/AI_Runtime/Npu/ll_aton/ll_aton.c **** #endif
 1793              		.loc 1 858 7 is_stmt 1 view .LVU485
 862:Lib/AI_Runtime/Npu/ll_aton/ll_aton.c ****       LL_ATON_ASSERT(au_num < ATON_DECUN_NUM);
 1794              		.loc 1 862 7 view .LVU486
 1795 0070 24B1     		cbz	r4, .L161
 862:Lib/AI_Runtime/Npu/ll_aton/ll_aton.c ****       LL_ATON_ASSERT(au_num < ATON_DECUN_NUM);
 1796              		.loc 1 862 7 is_stmt 0 discriminator 1 view .LVU487
 1797 0072 40F25E31 		movw	r1, #862
 1798 0076 274B     		ldr	r3, .L170+12
 1799              	.LVL176:
 862:Lib/AI_Runtime/Npu/ll_aton/ll_aton.c ****       LL_ATON_ASSERT(au_num < ATON_DECUN_NUM);
 1800              		.loc 1 862 7 discriminator 1 view .LVU488
 1801 0078 244A     		ldr	r2, .L170+4
 1802              	.LVL177:
 862:Lib/AI_Runtime/Npu/ll_aton/ll_aton.c ****       LL_ATON_ASSERT(au_num < ATON_DECUN_NUM);
 1803              		.loc 1 862 7 discriminator 1 view .LVU489
 1804 007a CBE7     		b	.L169
 1805              	.LVL178:
 1806              	.L161:
 863:Lib/AI_Runtime/Npu/ll_aton/ll_aton.c ****       return ATONN_CONST_SRCPORT(STRSWITCH, 0, DECUN, 0, 0) + au_num;
 1807              		.loc 1 863 7 is_stmt 1 view .LVU490
 1808 007c 012B     		cmp	r3, #1
 864:Lib/AI_Runtime/Npu/ll_aton/ll_aton.c ****       break;
 1809              		.loc 1 864 61 is_stmt 0 view .LVU491
 1810 007e 03F10E00 		add	r0, r3, #14
 863:Lib/AI_Runtime/Npu/ll_aton/ll_aton.c ****       return ATONN_CONST_SRCPORT(STRSWITCH, 0, DECUN, 0, 0) + au_num;
 1811              		.loc 1 863 7 view .LVU492
 1812 0082 CFD9     		bls	.L143
 863:Lib/AI_Runtime/Npu/ll_aton/ll_aton.c ****       return ATONN_CONST_SRCPORT(STRSWITCH, 0, DECUN, 0, 0) + au_num;
 1813              		.loc 1 863 7 discriminator 1 view .LVU493
 1814 0084 40F25F31 		movw	r1, #863
 1815 0088 254B     		ldr	r3, .L170+24
 1816              	.LVL179:
 863:Lib/AI_Runtime/Npu/ll_aton/ll_aton.c ****       return ATONN_CONST_SRCPORT(STRSWITCH, 0, DECUN, 0, 0) + au_num;
 1817              		.loc 1 863 7 discriminator 1 view .LVU494
 1818 008a 204A     		ldr	r2, .L170+4
 1819              	.LVL180:
 863:Lib/AI_Runtime/Npu/ll_aton/ll_aton.c ****       return ATONN_CONST_SRCPORT(STRSWITCH, 0, DECUN, 0, 0) + au_num;
 1820              		.loc 1 863 7 discriminator 1 view .LVU495
 1821 008c C2E7     		b	.L169
 1822              	.LVL181:
ARM GAS  /tmp/ccgbPSBw.s 			page 63


 1823              	.L153:
 865:Lib/AI_Runtime/Npu/ll_aton/ll_aton.c **** #endif
 1824              		.loc 1 865 7 is_stmt 1 view .LVU496
 869:Lib/AI_Runtime/Npu/ll_aton/ll_aton.c ****       LL_ATON_ASSERT(au_num < ATON_ACTIV_NUM);
 1825              		.loc 1 869 7 view .LVU497
 1826 008e 24B1     		cbz	r4, .L163
 869:Lib/AI_Runtime/Npu/ll_aton/ll_aton.c ****       LL_ATON_ASSERT(au_num < ATON_ACTIV_NUM);
 1827              		.loc 1 869 7 is_stmt 0 discriminator 1 view .LVU498
 1828 0090 40F26531 		movw	r1, #869
 1829 0094 1F4B     		ldr	r3, .L170+12
 1830              	.LVL182:
 869:Lib/AI_Runtime/Npu/ll_aton/ll_aton.c ****       LL_ATON_ASSERT(au_num < ATON_ACTIV_NUM);
 1831              		.loc 1 869 7 discriminator 1 view .LVU499
 1832 0096 1D4A     		ldr	r2, .L170+4
 1833              	.LVL183:
 869:Lib/AI_Runtime/Npu/ll_aton/ll_aton.c ****       LL_ATON_ASSERT(au_num < ATON_ACTIV_NUM);
 1834              		.loc 1 869 7 discriminator 1 view .LVU500
 1835 0098 BCE7     		b	.L169
 1836              	.LVL184:
 1837              	.L163:
 870:Lib/AI_Runtime/Npu/ll_aton/ll_aton.c ****       return ATONN_CONST_SRCPORT(STRSWITCH, 0, ACTIV, 0, 0) + au_num;
 1838              		.loc 1 870 7 is_stmt 1 view .LVU501
 1839 009a 012B     		cmp	r3, #1
 871:Lib/AI_Runtime/Npu/ll_aton/ll_aton.c ****       break;
 1840              		.loc 1 871 61 is_stmt 0 view .LVU502
 1841 009c 03F11000 		add	r0, r3, #16
 870:Lib/AI_Runtime/Npu/ll_aton/ll_aton.c ****       return ATONN_CONST_SRCPORT(STRSWITCH, 0, ACTIV, 0, 0) + au_num;
 1842              		.loc 1 870 7 view .LVU503
 1843 00a0 C0D9     		bls	.L143
 870:Lib/AI_Runtime/Npu/ll_aton/ll_aton.c ****       return ATONN_CONST_SRCPORT(STRSWITCH, 0, ACTIV, 0, 0) + au_num;
 1844              		.loc 1 870 7 discriminator 1 view .LVU504
 1845 00a2 40F26631 		movw	r1, #870
 1846 00a6 1E4B     		ldr	r3, .L170+24
 1847              	.LVL185:
 870:Lib/AI_Runtime/Npu/ll_aton/ll_aton.c ****       return ATONN_CONST_SRCPORT(STRSWITCH, 0, ACTIV, 0, 0) + au_num;
 1848              		.loc 1 870 7 discriminator 1 view .LVU505
 1849 00a8 184A     		ldr	r2, .L170+4
 1850              	.LVL186:
 870:Lib/AI_Runtime/Npu/ll_aton/ll_aton.c ****       return ATONN_CONST_SRCPORT(STRSWITCH, 0, ACTIV, 0, 0) + au_num;
 1851              		.loc 1 870 7 discriminator 1 view .LVU506
 1852 00aa B3E7     		b	.L169
 1853              	.LVL187:
 1854              	.L152:
 872:Lib/AI_Runtime/Npu/ll_aton/ll_aton.c **** #endif
 1855              		.loc 1 872 7 is_stmt 1 view .LVU507
 876:Lib/AI_Runtime/Npu/ll_aton/ll_aton.c ****       LL_ATON_ASSERT(au_num < ATON_ARITH_NUM);
 1856              		.loc 1 876 7 view .LVU508
 1857 00ac 24B1     		cbz	r4, .L165
 876:Lib/AI_Runtime/Npu/ll_aton/ll_aton.c ****       LL_ATON_ASSERT(au_num < ATON_ARITH_NUM);
 1858              		.loc 1 876 7 is_stmt 0 discriminator 1 view .LVU509
 1859 00ae 4FF45B71 		mov	r1, #876
 1860 00b2 184B     		ldr	r3, .L170+12
 1861              	.LVL188:
 876:Lib/AI_Runtime/Npu/ll_aton/ll_aton.c ****       LL_ATON_ASSERT(au_num < ATON_ARITH_NUM);
 1862              		.loc 1 876 7 discriminator 1 view .LVU510
 1863 00b4 154A     		ldr	r2, .L170+4
 1864              	.LVL189:
ARM GAS  /tmp/ccgbPSBw.s 			page 64


 876:Lib/AI_Runtime/Npu/ll_aton/ll_aton.c ****       LL_ATON_ASSERT(au_num < ATON_ARITH_NUM);
 1865              		.loc 1 876 7 discriminator 1 view .LVU511
 1866 00b6 ADE7     		b	.L169
 1867              	.LVL190:
 1868              	.L165:
 877:Lib/AI_Runtime/Npu/ll_aton/ll_aton.c ****       return ATONN_CONST_SRCPORT(STRSWITCH, 0, ARITH, 0, 0) + au_num;
 1869              		.loc 1 877 7 is_stmt 1 view .LVU512
 1870 00b8 032B     		cmp	r3, #3
 878:Lib/AI_Runtime/Npu/ll_aton/ll_aton.c ****       break;
 1871              		.loc 1 878 61 is_stmt 0 view .LVU513
 1872 00ba 03F11200 		add	r0, r3, #18
 877:Lib/AI_Runtime/Npu/ll_aton/ll_aton.c ****       return ATONN_CONST_SRCPORT(STRSWITCH, 0, ARITH, 0, 0) + au_num;
 1873              		.loc 1 877 7 view .LVU514
 1874 00be B1D9     		bls	.L143
 877:Lib/AI_Runtime/Npu/ll_aton/ll_aton.c ****       return ATONN_CONST_SRCPORT(STRSWITCH, 0, ARITH, 0, 0) + au_num;
 1875              		.loc 1 877 7 discriminator 1 view .LVU515
 1876 00c0 40F26D31 		movw	r1, #877
 1877 00c4 154B     		ldr	r3, .L170+20
 1878              	.LVL191:
 877:Lib/AI_Runtime/Npu/ll_aton/ll_aton.c ****       return ATONN_CONST_SRCPORT(STRSWITCH, 0, ARITH, 0, 0) + au_num;
 1879              		.loc 1 877 7 discriminator 1 view .LVU516
 1880 00c6 114A     		ldr	r2, .L170+4
 1881              	.LVL192:
 877:Lib/AI_Runtime/Npu/ll_aton/ll_aton.c ****       return ATONN_CONST_SRCPORT(STRSWITCH, 0, ARITH, 0, 0) + au_num;
 1882              		.loc 1 877 7 discriminator 1 view .LVU517
 1883 00c8 A4E7     		b	.L169
 1884              	.LVL193:
 1885              	.L150:
 879:Lib/AI_Runtime/Npu/ll_aton/ll_aton.c **** #endif
 1886              		.loc 1 879 7 is_stmt 1 view .LVU518
 883:Lib/AI_Runtime/Npu/ll_aton/ll_aton.c ****       LL_ATON_ASSERT(au_num < ATON_POOL_NUM);
 1887              		.loc 1 883 7 view .LVU519
 1888 00ca 24B1     		cbz	r4, .L167
 883:Lib/AI_Runtime/Npu/ll_aton/ll_aton.c ****       LL_ATON_ASSERT(au_num < ATON_POOL_NUM);
 1889              		.loc 1 883 7 is_stmt 0 discriminator 1 view .LVU520
 1890 00cc 40F27331 		movw	r1, #883
 1891 00d0 104B     		ldr	r3, .L170+12
 1892              	.LVL194:
 883:Lib/AI_Runtime/Npu/ll_aton/ll_aton.c ****       LL_ATON_ASSERT(au_num < ATON_POOL_NUM);
 1893              		.loc 1 883 7 discriminator 1 view .LVU521
 1894 00d2 0E4A     		ldr	r2, .L170+4
 1895              	.LVL195:
 883:Lib/AI_Runtime/Npu/ll_aton/ll_aton.c ****       LL_ATON_ASSERT(au_num < ATON_POOL_NUM);
 1896              		.loc 1 883 7 discriminator 1 view .LVU522
 1897 00d4 9EE7     		b	.L169
 1898              	.LVL196:
 1899              	.L167:
 884:Lib/AI_Runtime/Npu/ll_aton/ll_aton.c ****       return ATONN_CONST_SRCPORT(STRSWITCH, 0, POOL, 0, 0) + au_num;
 1900              		.loc 1 884 7 is_stmt 1 view .LVU523
 1901 00d6 012B     		cmp	r3, #1
 885:Lib/AI_Runtime/Npu/ll_aton/ll_aton.c ****       break;
 1902              		.loc 1 885 60 is_stmt 0 view .LVU524
 1903 00d8 03F11600 		add	r0, r3, #22
 884:Lib/AI_Runtime/Npu/ll_aton/ll_aton.c ****       return ATONN_CONST_SRCPORT(STRSWITCH, 0, POOL, 0, 0) + au_num;
 1904              		.loc 1 884 7 view .LVU525
 1905 00dc A2D9     		bls	.L143
 884:Lib/AI_Runtime/Npu/ll_aton/ll_aton.c ****       return ATONN_CONST_SRCPORT(STRSWITCH, 0, POOL, 0, 0) + au_num;
ARM GAS  /tmp/ccgbPSBw.s 			page 65


 1906              		.loc 1 884 7 discriminator 1 view .LVU526
 1907 00de 4FF45D71 		mov	r1, #884
 1908 00e2 0F4B     		ldr	r3, .L170+24
 1909              	.LVL197:
 884:Lib/AI_Runtime/Npu/ll_aton/ll_aton.c ****       return ATONN_CONST_SRCPORT(STRSWITCH, 0, POOL, 0, 0) + au_num;
 1910              		.loc 1 884 7 discriminator 1 view .LVU527
 1911 00e4 094A     		ldr	r2, .L170+4
 1912              	.LVL198:
 884:Lib/AI_Runtime/Npu/ll_aton/ll_aton.c ****       return ATONN_CONST_SRCPORT(STRSWITCH, 0, POOL, 0, 0) + au_num;
 1913              		.loc 1 884 7 discriminator 1 view .LVU528
 1914 00e6 95E7     		b	.L169
 1915              	.LVL199:
 1916              	.L149:
 886:Lib/AI_Runtime/Npu/ll_aton/ll_aton.c **** #endif
 1917              		.loc 1 886 7 is_stmt 1 view .LVU529
 889:Lib/AI_Runtime/Npu/ll_aton/ll_aton.c ****       break;
 1918              		.loc 1 889 7 view .LVU530
 1919 00e8 40F27931 		movw	r1, #889
 1920 00ec 0D4B     		ldr	r3, .L170+28
 1921              	.LVL200:
 889:Lib/AI_Runtime/Npu/ll_aton/ll_aton.c ****       break;
 1922              		.loc 1 889 7 is_stmt 0 view .LVU531
 1923 00ee 074A     		ldr	r2, .L170+4
 1924              	.LVL201:
 889:Lib/AI_Runtime/Npu/ll_aton/ll_aton.c ****       break;
 1925              		.loc 1 889 7 view .LVU532
 1926 00f0 90E7     		b	.L169
 1927              	.LVL202:
 1928              	.L146:
 895:Lib/AI_Runtime/Npu/ll_aton/ll_aton.c ****     break;
 1929              		.loc 1 895 5 is_stmt 1 view .LVU533
 1930 00f2 40F27F31 		movw	r1, #895
 1931              	.LVL203:
 895:Lib/AI_Runtime/Npu/ll_aton/ll_aton.c ****     break;
 1932              		.loc 1 895 5 is_stmt 0 view .LVU534
 1933 00f6 0B4B     		ldr	r3, .L170+28
 1934              	.LVL204:
 895:Lib/AI_Runtime/Npu/ll_aton/ll_aton.c ****     break;
 1935              		.loc 1 895 5 view .LVU535
 1936 00f8 044A     		ldr	r2, .L170+4
 1937              	.LVL205:
 895:Lib/AI_Runtime/Npu/ll_aton/ll_aton.c ****     break;
 1938              		.loc 1 895 5 view .LVU536
 1939 00fa 8BE7     		b	.L169
 1940              	.LVL206:
 1941              	.L147:
 896:Lib/AI_Runtime/Npu/ll_aton/ll_aton.c ****   case STRSWITCH_VC:
 1942              		.loc 1 896 5 is_stmt 1 view .LVU537
 899:Lib/AI_Runtime/Npu/ll_aton/ll_aton.c ****     break;
 1943              		.loc 1 899 5 view .LVU538
 1944 00fc 40F28331 		movw	r1, #899
 1945              	.LVL207:
 899:Lib/AI_Runtime/Npu/ll_aton/ll_aton.c ****     break;
 1946              		.loc 1 899 5 is_stmt 0 view .LVU539
 1947 0100 084B     		ldr	r3, .L170+28
 1948              	.LVL208:
 899:Lib/AI_Runtime/Npu/ll_aton/ll_aton.c ****     break;
ARM GAS  /tmp/ccgbPSBw.s 			page 66


 1949              		.loc 1 899 5 view .LVU540
 1950 0102 024A     		ldr	r2, .L170+4
 1951              	.LVL209:
 899:Lib/AI_Runtime/Npu/ll_aton/ll_aton.c ****     break;
 1952              		.loc 1 899 5 view .LVU541
 1953 0104 86E7     		b	.L169
 1954              	.L171:
 1955 0106 00BF     		.align	2
 1956              	.L170:
 1957 0108 00000000 		.word	.LC20
 1958 010c 00000000 		.word	__func__.6
 1959 0110 05000000 		.word	.LC4
 1960 0114 0C000000 		.word	.LC21
 1961 0118 16000000 		.word	.LC22
 1962 011c 22000000 		.word	.LC23
 1963 0120 2D000000 		.word	.LC24
 1964 0124 95000000 		.word	.LC7
 1965              		.cfi_endproc
 1966              	.LFE4834:
 1968              		.section	.rodata.__atonn_getDstPortID.str1.1,"aMS",%progbits,1
 1969              	.LC25:
 1970 0000 706F7274 		.ascii	"port < 3\000"
 1970      203C2033 
 1970      00
 1971              	.LC26:
 1972 0009 706F7274 		.ascii	"port < 2\000"
 1972      203C2032 
 1972      00
 1973              		.section	.text.__atonn_getDstPortID,"ax",%progbits
 1974              		.align	1
 1975              		.global	__atonn_getDstPortID
 1976              		.syntax unified
 1977              		.thumb
 1978              		.thumb_func
 1980              	__atonn_getDstPortID:
 1981              	.LVL210:
 1982              	.LFB4835:
 907:Lib/AI_Runtime/Npu/ll_aton/ll_aton.c ****   // FIXME
 1983              		.loc 1 907 1 is_stmt 1 view -0
 1984              		.cfi_startproc
 1985              		@ args = 4, pretend = 0, frame = 0
 1986              		@ frame_needed = 0, uses_anonymous_args = 0
 909:Lib/AI_Runtime/Npu/ll_aton/ll_aton.c ****   switch (sut)
 1987              		.loc 1 909 3 view .LVU543
 907:Lib/AI_Runtime/Npu/ll_aton/ll_aton.c ****   // FIXME
 1988              		.loc 1 907 1 is_stmt 0 view .LVU544
 1989 0000 38B5     		push	{r3, r4, r5, lr}
 1990              		.cfi_def_cfa_offset 16
 1991              		.cfi_offset 3, -16
 1992              		.cfi_offset 4, -12
 1993              		.cfi_offset 5, -8
 1994              		.cfi_offset 14, -4
 907:Lib/AI_Runtime/Npu/ll_aton/ll_aton.c ****   // FIXME
 1995              		.loc 1 907 1 view .LVU545
 1996 0002 0546     		mov	r5, r0
 1997 0004 9DF81040 		ldrb	r4, [sp, #16]	@ zero_extendqisi2
 909:Lib/AI_Runtime/Npu/ll_aton/ll_aton.c ****   switch (sut)
ARM GAS  /tmp/ccgbPSBw.s 			page 67


 1998              		.loc 1 909 3 view .LVU546
 1999 0008 0846     		mov	r0, r1
 2000              	.LVL211:
 909:Lib/AI_Runtime/Npu/ll_aton/ll_aton.c ****   switch (sut)
 2001              		.loc 1 909 3 view .LVU547
 2002 000a 31B1     		cbz	r1, .L173
 909:Lib/AI_Runtime/Npu/ll_aton/ll_aton.c ****   switch (sut)
 2003              		.loc 1 909 3 discriminator 1 view .LVU548
 2004 000c 40F28D31 		movw	r1, #909
 2005              	.LVL212:
 909:Lib/AI_Runtime/Npu/ll_aton/ll_aton.c ****   switch (sut)
 2006              		.loc 1 909 3 discriminator 1 view .LVU549
 2007 0010 464B     		ldr	r3, .L200
 2008              	.LVL213:
 909:Lib/AI_Runtime/Npu/ll_aton/ll_aton.c ****   switch (sut)
 2009              		.loc 1 909 3 discriminator 1 view .LVU550
 2010 0012 474A     		ldr	r2, .L200+4
 2011              	.LVL214:
 2012              	.L199:
 917:Lib/AI_Runtime/Npu/ll_aton/ll_aton.c ****       LL_ATON_ASSERT(au_num < ATON_STRENG_NUM);
 2013              		.loc 1 917 7 discriminator 1 view .LVU551
 2014 0014 4748     		ldr	r0, .L200+8
 2015              	.LVL215:
 917:Lib/AI_Runtime/Npu/ll_aton/ll_aton.c ****       LL_ATON_ASSERT(au_num < ATON_STRENG_NUM);
 2016              		.loc 1 917 7 discriminator 1 view .LVU552
 2017 0016 FFF7FEFF 		bl	__assert_func
 2018              	.LVL216:
 2019              	.L173:
 910:Lib/AI_Runtime/Npu/ll_aton/ll_aton.c ****   {
 2020              		.loc 1 910 3 is_stmt 1 view .LVU553
 2021 001a 25B1     		cbz	r5, .L174
 2022 001c 012D     		cmp	r5, #1
 2023 001e 7AD0     		beq	.L175
 2024 0020 022D     		cmp	r5, #2
 2025 0022 7DD0     		beq	.L176
 2026              	.LVL217:
 2027              	.L172:
 972:Lib/AI_Runtime/Npu/ll_aton/ll_aton.c **** 
 2028              		.loc 1 972 1 is_stmt 0 view .LVU554
 2029 0024 38BD     		pop	{r3, r4, r5, pc}
 2030              	.LVL218:
 2031              	.L174:
 913:Lib/AI_Runtime/Npu/ll_aton/ll_aton.c ****     {
 2032              		.loc 1 913 5 is_stmt 1 view .LVU555
 2033 0026 062A     		cmp	r2, #6
 2034 0028 70D8     		bhi	.L178
 2035 002a DFE802F0 		tbb	[pc, r2]
 2036              	.LVL219:
 2037              	.L180:
 2038 002e 04       		.byte	(.L185-.L180)/2
 2039 002f 6F       		.byte	(.L178-.L180)/2
 2040 0030 15       		.byte	(.L184-.L180)/2
 2041 0031 29       		.byte	(.L183-.L180)/2
 2042 0032 3D       		.byte	(.L182-.L180)/2
 2043 0033 4C       		.byte	(.L181-.L180)/2
 2044 0034 60       		.byte	(.L179-.L180)/2
 2045 0035 00       		.p2align 1
ARM GAS  /tmp/ccgbPSBw.s 			page 68


 2046              	.L185:
 917:Lib/AI_Runtime/Npu/ll_aton/ll_aton.c ****       LL_ATON_ASSERT(au_num < ATON_STRENG_NUM);
 2047              		.loc 1 917 7 view .LVU556
 2048 0036 24B1     		cbz	r4, .L186
 917:Lib/AI_Runtime/Npu/ll_aton/ll_aton.c ****       LL_ATON_ASSERT(au_num < ATON_STRENG_NUM);
 2049              		.loc 1 917 7 is_stmt 0 discriminator 1 view .LVU557
 2050 0038 40F29531 		movw	r1, #917
 2051 003c 3E4B     		ldr	r3, .L200+12
 2052              	.LVL220:
 917:Lib/AI_Runtime/Npu/ll_aton/ll_aton.c ****       LL_ATON_ASSERT(au_num < ATON_STRENG_NUM);
 2053              		.loc 1 917 7 discriminator 1 view .LVU558
 2054 003e 3C4A     		ldr	r2, .L200+4
 2055              	.LVL221:
 917:Lib/AI_Runtime/Npu/ll_aton/ll_aton.c ****       LL_ATON_ASSERT(au_num < ATON_STRENG_NUM);
 2056              		.loc 1 917 7 discriminator 1 view .LVU559
 2057 0040 E8E7     		b	.L199
 2058              	.LVL222:
 2059              	.L186:
 918:Lib/AI_Runtime/Npu/ll_aton/ll_aton.c ****       return ATONN_CONST_DSTPORT(STRSWITCH, 0, STRENG, 0, 0) + (0x4 * au_num);
 2060              		.loc 1 918 7 is_stmt 1 view .LVU560
 2061 0042 092B     		cmp	r3, #9
 2062 0044 04D9     		bls	.L187
 918:Lib/AI_Runtime/Npu/ll_aton/ll_aton.c ****       return ATONN_CONST_DSTPORT(STRSWITCH, 0, STRENG, 0, 0) + (0x4 * au_num);
 2063              		.loc 1 918 7 is_stmt 0 discriminator 1 view .LVU561
 2064 0046 40F29631 		movw	r1, #918
 2065 004a 3C4B     		ldr	r3, .L200+16
 2066              	.LVL223:
 918:Lib/AI_Runtime/Npu/ll_aton/ll_aton.c ****       return ATONN_CONST_DSTPORT(STRSWITCH, 0, STRENG, 0, 0) + (0x4 * au_num);
 2067              		.loc 1 918 7 discriminator 1 view .LVU562
 2068 004c 384A     		ldr	r2, .L200+4
 2069              	.LVL224:
 918:Lib/AI_Runtime/Npu/ll_aton/ll_aton.c ****       return ATONN_CONST_DSTPORT(STRSWITCH, 0, STRENG, 0, 0) + (0x4 * au_num);
 2070              		.loc 1 918 7 discriminator 1 view .LVU563
 2071 004e E1E7     		b	.L199
 2072              	.LVL225:
 2073              	.L187:
 919:Lib/AI_Runtime/Npu/ll_aton/ll_aton.c ****       break;
 2074              		.loc 1 919 7 is_stmt 1 view .LVU564
 919:Lib/AI_Runtime/Npu/ll_aton/ll_aton.c ****       break;
 2075              		.loc 1 919 62 is_stmt 0 view .LVU565
 2076 0050 0820     		movs	r0, #8
 2077              	.LVL226:
 2078              	.L198:
 954:Lib/AI_Runtime/Npu/ll_aton/ll_aton.c ****       break;
 2079              		.loc 1 954 60 view .LVU566
 2080 0052 00EB8300 		add	r0, r0, r3, lsl #2
 2081 0056 E5E7     		b	.L172
 2082              	.L184:
 920:Lib/AI_Runtime/Npu/ll_aton/ll_aton.c **** #endif
 2083              		.loc 1 920 7 is_stmt 1 view .LVU567
 924:Lib/AI_Runtime/Npu/ll_aton/ll_aton.c ****       LL_ATON_ASSERT(au_num < ATON_CONVACC_NUM);
 2084              		.loc 1 924 7 view .LVU568
 2085 0058 022C     		cmp	r4, #2
 2086 005a 04D9     		bls	.L188
 924:Lib/AI_Runtime/Npu/ll_aton/ll_aton.c ****       LL_ATON_ASSERT(au_num < ATON_CONVACC_NUM);
 2087              		.loc 1 924 7 is_stmt 0 discriminator 1 view .LVU569
 2088 005c 4FF46771 		mov	r1, #924
ARM GAS  /tmp/ccgbPSBw.s 			page 69


 2089 0060 374B     		ldr	r3, .L200+20
 2090              	.LVL227:
 924:Lib/AI_Runtime/Npu/ll_aton/ll_aton.c ****       LL_ATON_ASSERT(au_num < ATON_CONVACC_NUM);
 2091              		.loc 1 924 7 discriminator 1 view .LVU570
 2092 0062 334A     		ldr	r2, .L200+4
 2093              	.LVL228:
 924:Lib/AI_Runtime/Npu/ll_aton/ll_aton.c ****       LL_ATON_ASSERT(au_num < ATON_CONVACC_NUM);
 2094              		.loc 1 924 7 discriminator 1 view .LVU571
 2095 0064 D6E7     		b	.L199
 2096              	.LVL229:
 2097              	.L188:
 925:Lib/AI_Runtime/Npu/ll_aton/ll_aton.c ****       return ATONN_CONST_DSTPORT(STRSWITCH, 0, CONVACC, 0, 0) + (0x4 * (3 * au_num + port));
 2098              		.loc 1 925 7 is_stmt 1 view .LVU572
 2099 0066 032B     		cmp	r3, #3
 2100 0068 04D9     		bls	.L189
 925:Lib/AI_Runtime/Npu/ll_aton/ll_aton.c ****       return ATONN_CONST_DSTPORT(STRSWITCH, 0, CONVACC, 0, 0) + (0x4 * (3 * au_num + port));
 2101              		.loc 1 925 7 is_stmt 0 discriminator 1 view .LVU573
 2102 006a 40F29D31 		movw	r1, #925
 2103 006e 354B     		ldr	r3, .L200+24
 2104              	.LVL230:
 925:Lib/AI_Runtime/Npu/ll_aton/ll_aton.c ****       return ATONN_CONST_DSTPORT(STRSWITCH, 0, CONVACC, 0, 0) + (0x4 * (3 * au_num + port));
 2105              		.loc 1 925 7 discriminator 1 view .LVU574
 2106 0070 2F4A     		ldr	r2, .L200+4
 2107              	.LVL231:
 925:Lib/AI_Runtime/Npu/ll_aton/ll_aton.c ****       return ATONN_CONST_DSTPORT(STRSWITCH, 0, CONVACC, 0, 0) + (0x4 * (3 * au_num + port));
 2108              		.loc 1 925 7 discriminator 1 view .LVU575
 2109 0072 CFE7     		b	.L199
 2110              	.LVL232:
 2111              	.L189:
 926:Lib/AI_Runtime/Npu/ll_aton/ll_aton.c ****       break;
 2112              		.loc 1 926 7 is_stmt 1 view .LVU576
 926:Lib/AI_Runtime/Npu/ll_aton/ll_aton.c ****       break;
 2113              		.loc 1 926 84 is_stmt 0 view .LVU577
 2114 0074 0320     		movs	r0, #3
 2115 0076 10FB0340 		smlabb	r0, r0, r3, r4
 926:Lib/AI_Runtime/Npu/ll_aton/ll_aton.c ****       break;
 2116              		.loc 1 926 70 view .LVU578
 2117 007a 8000     		lsls	r0, r0, #2
 926:Lib/AI_Runtime/Npu/ll_aton/ll_aton.c ****       break;
 2118              		.loc 1 926 63 view .LVU579
 2119 007c 3030     		adds	r0, r0, #48
 2120 007e D1E7     		b	.L172
 2121              	.L183:
 927:Lib/AI_Runtime/Npu/ll_aton/ll_aton.c **** #endif
 2122              		.loc 1 927 7 is_stmt 1 view .LVU580
 931:Lib/AI_Runtime/Npu/ll_aton/ll_aton.c ****       LL_ATON_ASSERT(au_num < ATON_DECUN_NUM);
 2123              		.loc 1 931 7 view .LVU581
 2124 0080 012C     		cmp	r4, #1
 2125 0082 04D9     		bls	.L190
 931:Lib/AI_Runtime/Npu/ll_aton/ll_aton.c ****       LL_ATON_ASSERT(au_num < ATON_DECUN_NUM);
 2126              		.loc 1 931 7 is_stmt 0 discriminator 1 view .LVU582
 2127 0084 40F2A331 		movw	r1, #931
 2128 0088 2F4B     		ldr	r3, .L200+28
 2129              	.LVL233:
 931:Lib/AI_Runtime/Npu/ll_aton/ll_aton.c ****       LL_ATON_ASSERT(au_num < ATON_DECUN_NUM);
 2130              		.loc 1 931 7 discriminator 1 view .LVU583
 2131 008a 294A     		ldr	r2, .L200+4
ARM GAS  /tmp/ccgbPSBw.s 			page 70


 2132              	.LVL234:
 931:Lib/AI_Runtime/Npu/ll_aton/ll_aton.c ****       LL_ATON_ASSERT(au_num < ATON_DECUN_NUM);
 2133              		.loc 1 931 7 discriminator 1 view .LVU584
 2134 008c C2E7     		b	.L199
 2135              	.LVL235:
 2136              	.L190:
 932:Lib/AI_Runtime/Npu/ll_aton/ll_aton.c ****       return ATONN_CONST_DSTPORT(STRSWITCH, 0, DECUN, 0, 0) + (0x4 * (2 * au_num + port));
 2137              		.loc 1 932 7 is_stmt 1 view .LVU585
 2138 008e 012B     		cmp	r3, #1
 2139 0090 04D9     		bls	.L191
 932:Lib/AI_Runtime/Npu/ll_aton/ll_aton.c ****       return ATONN_CONST_DSTPORT(STRSWITCH, 0, DECUN, 0, 0) + (0x4 * (2 * au_num + port));
 2140              		.loc 1 932 7 is_stmt 0 discriminator 1 view .LVU586
 2141 0092 4FF46971 		mov	r1, #932
 2142 0096 2D4B     		ldr	r3, .L200+32
 2143              	.LVL236:
 932:Lib/AI_Runtime/Npu/ll_aton/ll_aton.c ****       return ATONN_CONST_DSTPORT(STRSWITCH, 0, DECUN, 0, 0) + (0x4 * (2 * au_num + port));
 2144              		.loc 1 932 7 discriminator 1 view .LVU587
 2145 0098 254A     		ldr	r2, .L200+4
 2146              	.LVL237:
 932:Lib/AI_Runtime/Npu/ll_aton/ll_aton.c ****       return ATONN_CONST_DSTPORT(STRSWITCH, 0, DECUN, 0, 0) + (0x4 * (2 * au_num + port));
 2147              		.loc 1 932 7 discriminator 1 view .LVU588
 2148 009a BBE7     		b	.L199
 2149              	.LVL238:
 2150              	.L191:
 933:Lib/AI_Runtime/Npu/ll_aton/ll_aton.c ****       break;
 2151              		.loc 1 933 7 is_stmt 1 view .LVU589
 933:Lib/AI_Runtime/Npu/ll_aton/ll_aton.c ****       break;
 2152              		.loc 1 933 82 is_stmt 0 view .LVU590
 2153 009c 04EB4304 		add	r4, r4, r3, lsl #1
 933:Lib/AI_Runtime/Npu/ll_aton/ll_aton.c ****       break;
 2154              		.loc 1 933 68 view .LVU591
 2155 00a0 A400     		lsls	r4, r4, #2
 933:Lib/AI_Runtime/Npu/ll_aton/ll_aton.c ****       break;
 2156              		.loc 1 933 61 view .LVU592
 2157 00a2 04F16000 		add	r0, r4, #96
 2158 00a6 BDE7     		b	.L172
 2159              	.L182:
 934:Lib/AI_Runtime/Npu/ll_aton/ll_aton.c **** #endif
 2160              		.loc 1 934 7 is_stmt 1 view .LVU593
 938:Lib/AI_Runtime/Npu/ll_aton/ll_aton.c ****       LL_ATON_ASSERT(au_num < ATON_ACTIV_NUM);
 2161              		.loc 1 938 7 view .LVU594
 2162 00a8 24B1     		cbz	r4, .L192
 938:Lib/AI_Runtime/Npu/ll_aton/ll_aton.c ****       LL_ATON_ASSERT(au_num < ATON_ACTIV_NUM);
 2163              		.loc 1 938 7 is_stmt 0 discriminator 1 view .LVU595
 2164 00aa 40F2AA31 		movw	r1, #938
 2165 00ae 224B     		ldr	r3, .L200+12
 2166              	.LVL239:
 938:Lib/AI_Runtime/Npu/ll_aton/ll_aton.c ****       LL_ATON_ASSERT(au_num < ATON_ACTIV_NUM);
 2167              		.loc 1 938 7 discriminator 1 view .LVU596
 2168 00b0 1F4A     		ldr	r2, .L200+4
 2169              	.LVL240:
 938:Lib/AI_Runtime/Npu/ll_aton/ll_aton.c ****       LL_ATON_ASSERT(au_num < ATON_ACTIV_NUM);
 2170              		.loc 1 938 7 discriminator 1 view .LVU597
 2171 00b2 AFE7     		b	.L199
 2172              	.LVL241:
 2173              	.L192:
 939:Lib/AI_Runtime/Npu/ll_aton/ll_aton.c ****       return ATONN_CONST_DSTPORT(STRSWITCH, 0, ACTIV, 0, 0) + (0x4 * au_num);
ARM GAS  /tmp/ccgbPSBw.s 			page 71


 2174              		.loc 1 939 7 is_stmt 1 view .LVU598
 2175 00b4 012B     		cmp	r3, #1
 2176 00b6 04D9     		bls	.L193
 939:Lib/AI_Runtime/Npu/ll_aton/ll_aton.c ****       return ATONN_CONST_DSTPORT(STRSWITCH, 0, ACTIV, 0, 0) + (0x4 * au_num);
 2177              		.loc 1 939 7 is_stmt 0 discriminator 1 view .LVU599
 2178 00b8 40F2AB31 		movw	r1, #939
 2179 00bc 234B     		ldr	r3, .L200+32
 2180              	.LVL242:
 939:Lib/AI_Runtime/Npu/ll_aton/ll_aton.c ****       return ATONN_CONST_DSTPORT(STRSWITCH, 0, ACTIV, 0, 0) + (0x4 * au_num);
 2181              		.loc 1 939 7 discriminator 1 view .LVU600
 2182 00be 1C4A     		ldr	r2, .L200+4
 2183              	.LVL243:
 939:Lib/AI_Runtime/Npu/ll_aton/ll_aton.c ****       return ATONN_CONST_DSTPORT(STRSWITCH, 0, ACTIV, 0, 0) + (0x4 * au_num);
 2184              		.loc 1 939 7 discriminator 1 view .LVU601
 2185 00c0 A8E7     		b	.L199
 2186              	.LVL244:
 2187              	.L193:
 940:Lib/AI_Runtime/Npu/ll_aton/ll_aton.c ****       break;
 2188              		.loc 1 940 7 is_stmt 1 view .LVU602
 940:Lib/AI_Runtime/Npu/ll_aton/ll_aton.c ****       break;
 2189              		.loc 1 940 61 is_stmt 0 view .LVU603
 2190 00c2 7020     		movs	r0, #112
 2191 00c4 C5E7     		b	.L198
 2192              	.L181:
 941:Lib/AI_Runtime/Npu/ll_aton/ll_aton.c **** #endif
 2193              		.loc 1 941 7 is_stmt 1 view .LVU604
 945:Lib/AI_Runtime/Npu/ll_aton/ll_aton.c ****       LL_ATON_ASSERT(au_num < ATON_ARITH_NUM);
 2194              		.loc 1 945 7 view .LVU605
 2195 00c6 012C     		cmp	r4, #1
 2196 00c8 04D9     		bls	.L194
 945:Lib/AI_Runtime/Npu/ll_aton/ll_aton.c ****       LL_ATON_ASSERT(au_num < ATON_ARITH_NUM);
 2197              		.loc 1 945 7 is_stmt 0 discriminator 1 view .LVU606
 2198 00ca 40F2B131 		movw	r1, #945
 2199 00ce 1E4B     		ldr	r3, .L200+28
 2200              	.LVL245:
 945:Lib/AI_Runtime/Npu/ll_aton/ll_aton.c ****       LL_ATON_ASSERT(au_num < ATON_ARITH_NUM);
 2201              		.loc 1 945 7 discriminator 1 view .LVU607
 2202 00d0 174A     		ldr	r2, .L200+4
 2203              	.LVL246:
 945:Lib/AI_Runtime/Npu/ll_aton/ll_aton.c ****       LL_ATON_ASSERT(au_num < ATON_ARITH_NUM);
 2204              		.loc 1 945 7 discriminator 1 view .LVU608
 2205 00d2 9FE7     		b	.L199
 2206              	.LVL247:
 2207              	.L194:
 946:Lib/AI_Runtime/Npu/ll_aton/ll_aton.c ****       return ATONN_CONST_DSTPORT(STRSWITCH, 0, ARITH, 0, 0) + (0x4 * (2 * au_num + port));
 2208              		.loc 1 946 7 is_stmt 1 view .LVU609
 2209 00d4 032B     		cmp	r3, #3
 2210 00d6 04D9     		bls	.L195
 946:Lib/AI_Runtime/Npu/ll_aton/ll_aton.c ****       return ATONN_CONST_DSTPORT(STRSWITCH, 0, ARITH, 0, 0) + (0x4 * (2 * au_num + port));
 2211              		.loc 1 946 7 is_stmt 0 discriminator 1 view .LVU610
 2212 00d8 40F2B231 		movw	r1, #946
 2213 00dc 194B     		ldr	r3, .L200+24
 2214              	.LVL248:
 946:Lib/AI_Runtime/Npu/ll_aton/ll_aton.c ****       return ATONN_CONST_DSTPORT(STRSWITCH, 0, ARITH, 0, 0) + (0x4 * (2 * au_num + port));
 2215              		.loc 1 946 7 discriminator 1 view .LVU611
 2216 00de 144A     		ldr	r2, .L200+4
 2217              	.LVL249:
ARM GAS  /tmp/ccgbPSBw.s 			page 72


 946:Lib/AI_Runtime/Npu/ll_aton/ll_aton.c ****       return ATONN_CONST_DSTPORT(STRSWITCH, 0, ARITH, 0, 0) + (0x4 * (2 * au_num + port));
 2218              		.loc 1 946 7 discriminator 1 view .LVU612
 2219 00e0 98E7     		b	.L199
 2220              	.LVL250:
 2221              	.L195:
 947:Lib/AI_Runtime/Npu/ll_aton/ll_aton.c ****       break;
 2222              		.loc 1 947 7 is_stmt 1 view .LVU613
 947:Lib/AI_Runtime/Npu/ll_aton/ll_aton.c ****       break;
 2223              		.loc 1 947 82 is_stmt 0 view .LVU614
 2224 00e2 04EB4304 		add	r4, r4, r3, lsl #1
 947:Lib/AI_Runtime/Npu/ll_aton/ll_aton.c ****       break;
 2225              		.loc 1 947 68 view .LVU615
 2226 00e6 A400     		lsls	r4, r4, #2
 947:Lib/AI_Runtime/Npu/ll_aton/ll_aton.c ****       break;
 2227              		.loc 1 947 61 view .LVU616
 2228 00e8 04F17800 		add	r0, r4, #120
 2229 00ec 9AE7     		b	.L172
 2230              	.L179:
 948:Lib/AI_Runtime/Npu/ll_aton/ll_aton.c **** #endif
 2231              		.loc 1 948 7 is_stmt 1 view .LVU617
 952:Lib/AI_Runtime/Npu/ll_aton/ll_aton.c ****       LL_ATON_ASSERT(au_num < ATON_POOL_NUM);
 2232              		.loc 1 952 7 view .LVU618
 2233 00ee 24B1     		cbz	r4, .L196
 952:Lib/AI_Runtime/Npu/ll_aton/ll_aton.c ****       LL_ATON_ASSERT(au_num < ATON_POOL_NUM);
 2234              		.loc 1 952 7 is_stmt 0 discriminator 1 view .LVU619
 2235 00f0 4FF46E71 		mov	r1, #952
 2236 00f4 104B     		ldr	r3, .L200+12
 2237              	.LVL251:
 952:Lib/AI_Runtime/Npu/ll_aton/ll_aton.c ****       LL_ATON_ASSERT(au_num < ATON_POOL_NUM);
 2238              		.loc 1 952 7 discriminator 1 view .LVU620
 2239 00f6 0E4A     		ldr	r2, .L200+4
 2240              	.LVL252:
 952:Lib/AI_Runtime/Npu/ll_aton/ll_aton.c ****       LL_ATON_ASSERT(au_num < ATON_POOL_NUM);
 2241              		.loc 1 952 7 discriminator 1 view .LVU621
 2242 00f8 8CE7     		b	.L199
 2243              	.LVL253:
 2244              	.L196:
 953:Lib/AI_Runtime/Npu/ll_aton/ll_aton.c ****       return ATONN_CONST_DSTPORT(STRSWITCH, 0, POOL, 0, 0) + (0x4 * au_num);
 2245              		.loc 1 953 7 is_stmt 1 view .LVU622
 2246 00fa 012B     		cmp	r3, #1
 2247 00fc 04D9     		bls	.L197
 953:Lib/AI_Runtime/Npu/ll_aton/ll_aton.c ****       return ATONN_CONST_DSTPORT(STRSWITCH, 0, POOL, 0, 0) + (0x4 * au_num);
 2248              		.loc 1 953 7 is_stmt 0 discriminator 1 view .LVU623
 2249 00fe 40F2B931 		movw	r1, #953
 2250 0102 124B     		ldr	r3, .L200+32
 2251              	.LVL254:
 953:Lib/AI_Runtime/Npu/ll_aton/ll_aton.c ****       return ATONN_CONST_DSTPORT(STRSWITCH, 0, POOL, 0, 0) + (0x4 * au_num);
 2252              		.loc 1 953 7 discriminator 1 view .LVU624
 2253 0104 0A4A     		ldr	r2, .L200+4
 2254              	.LVL255:
 953:Lib/AI_Runtime/Npu/ll_aton/ll_aton.c ****       return ATONN_CONST_DSTPORT(STRSWITCH, 0, POOL, 0, 0) + (0x4 * au_num);
 2255              		.loc 1 953 7 discriminator 1 view .LVU625
 2256 0106 85E7     		b	.L199
 2257              	.LVL256:
 2258              	.L197:
 954:Lib/AI_Runtime/Npu/ll_aton/ll_aton.c ****       break;
 2259              		.loc 1 954 7 is_stmt 1 view .LVU626
ARM GAS  /tmp/ccgbPSBw.s 			page 73


 954:Lib/AI_Runtime/Npu/ll_aton/ll_aton.c ****       break;
 2260              		.loc 1 954 60 is_stmt 0 view .LVU627
 2261 0108 9820     		movs	r0, #152
 2262 010a A2E7     		b	.L198
 2263              	.L178:
 955:Lib/AI_Runtime/Npu/ll_aton/ll_aton.c **** #endif
 2264              		.loc 1 955 7 is_stmt 1 view .LVU628
 958:Lib/AI_Runtime/Npu/ll_aton/ll_aton.c ****       break;
 2265              		.loc 1 958 7 view .LVU629
 2266 010c 40F2BE31 		movw	r1, #958
 2267 0110 0F4B     		ldr	r3, .L200+36
 2268              	.LVL257:
 958:Lib/AI_Runtime/Npu/ll_aton/ll_aton.c ****       break;
 2269              		.loc 1 958 7 is_stmt 0 view .LVU630
 2270 0112 074A     		ldr	r2, .L200+4
 2271              	.LVL258:
 958:Lib/AI_Runtime/Npu/ll_aton/ll_aton.c ****       break;
 2272              		.loc 1 958 7 view .LVU631
 2273 0114 7EE7     		b	.L199
 2274              	.LVL259:
 2275              	.L175:
 964:Lib/AI_Runtime/Npu/ll_aton/ll_aton.c ****     break;
 2276              		.loc 1 964 5 is_stmt 1 view .LVU632
 2277 0116 4FF47171 		mov	r1, #964
 2278              	.LVL260:
 964:Lib/AI_Runtime/Npu/ll_aton/ll_aton.c ****     break;
 2279              		.loc 1 964 5 is_stmt 0 view .LVU633
 2280 011a 0D4B     		ldr	r3, .L200+36
 2281              	.LVL261:
 964:Lib/AI_Runtime/Npu/ll_aton/ll_aton.c ****     break;
 2282              		.loc 1 964 5 view .LVU634
 2283 011c 044A     		ldr	r2, .L200+4
 2284              	.LVL262:
 964:Lib/AI_Runtime/Npu/ll_aton/ll_aton.c ****     break;
 2285              		.loc 1 964 5 view .LVU635
 2286 011e 79E7     		b	.L199
 2287              	.LVL263:
 2288              	.L176:
 965:Lib/AI_Runtime/Npu/ll_aton/ll_aton.c ****   case STRSWITCH_VC:
 2289              		.loc 1 965 5 is_stmt 1 view .LVU636
 968:Lib/AI_Runtime/Npu/ll_aton/ll_aton.c ****     break;
 2290              		.loc 1 968 5 view .LVU637
 2291 0120 4FF47271 		mov	r1, #968
 2292              	.LVL264:
 968:Lib/AI_Runtime/Npu/ll_aton/ll_aton.c ****     break;
 2293              		.loc 1 968 5 is_stmt 0 view .LVU638
 2294 0124 0A4B     		ldr	r3, .L200+36
 2295              	.LVL265:
 968:Lib/AI_Runtime/Npu/ll_aton/ll_aton.c ****     break;
 2296              		.loc 1 968 5 view .LVU639
 2297 0126 024A     		ldr	r2, .L200+4
 2298              	.LVL266:
 968:Lib/AI_Runtime/Npu/ll_aton/ll_aton.c ****     break;
 2299              		.loc 1 968 5 view .LVU640
 2300 0128 74E7     		b	.L199
 2301              	.L201:
 2302 012a 00BF     		.align	2
ARM GAS  /tmp/ccgbPSBw.s 			page 74


 2303              	.L200:
 2304 012c 00000000 		.word	.LC20
 2305 0130 00000000 		.word	__func__.5
 2306 0134 05000000 		.word	.LC4
 2307 0138 0C000000 		.word	.LC21
 2308 013c 16000000 		.word	.LC22
 2309 0140 00000000 		.word	.LC25
 2310 0144 22000000 		.word	.LC23
 2311 0148 09000000 		.word	.LC26
 2312 014c 2D000000 		.word	.LC24
 2313 0150 95000000 		.word	.LC7
 2314              		.cfi_endproc
 2315              	.LFE4835:
 2317              		.section	.text.LL_Switch_Init_NoReset,"ax",%progbits
 2318              		.align	1
 2319              		.global	LL_Switch_Init_NoReset
 2320              		.syntax unified
 2321              		.thumb
 2322              		.thumb_func
 2324              	LL_Switch_Init_NoReset:
 2325              	.LVL267:
 2326              	.LFB4836:
 981:Lib/AI_Runtime/Npu/ll_aton/ll_aton.c ****   int i;
 2327              		.loc 1 981 1 is_stmt 1 view -0
 2328              		.cfi_startproc
 2329              		@ args = 0, pretend = 0, frame = 0
 2330              		@ frame_needed = 0, uses_anonymous_args = 0
 982:Lib/AI_Runtime/Npu/ll_aton/ll_aton.c ****   volatile uint32_t *reg;
 2331              		.loc 1 982 3 view .LVU642
 983:Lib/AI_Runtime/Npu/ll_aton/ll_aton.c ****   uint32_t t;
 2332              		.loc 1 983 3 view .LVU643
 984:Lib/AI_Runtime/Npu/ll_aton/ll_aton.c ****   unsigned int en_shift[ATON_SWITCH_CONTEXT_NUM] = {ATON_STRSWITCH_DST_EN0_LSB, ATON_STRSWITCH_DST_
 2333              		.loc 1 984 3 view .LVU644
 985:Lib/AI_Runtime/Npu/ll_aton/ll_aton.c ****   unsigned int link_shift[ATON_SWITCH_CONTEXT_NUM] = {ATON_STRSWITCH_DST_LINK0_LSB, ATON_STRSWITCH_
 2334              		.loc 1 985 3 view .LVU645
 986:Lib/AI_Runtime/Npu/ll_aton/ll_aton.c ****   unsigned int fnr_shift[ATON_SWITCH_CONTEXT_NUM] = {ATON_STRSWITCH_DST_FNR0_LSB, ATON_STRSWITCH_DS
 2335              		.loc 1 986 3 view .LVU646
 987:Lib/AI_Runtime/Npu/ll_aton/ll_aton.c ****   unsigned int fnr_mask[ATON_SWITCH_CONTEXT_NUM] = {ATON_STRSWITCH_DST_FNR0_MASK, ATON_STRSWITCH_DS
 2336              		.loc 1 987 3 view .LVU647
 988:Lib/AI_Runtime/Npu/ll_aton/ll_aton.c **** 
 2337              		.loc 1 988 3 view .LVU648
 991:Lib/AI_Runtime/Npu/ll_aton/ll_aton.c ****   t = ATON_STRSWITCH_CTRL_SET_EN(t, 1);
 2338              		.loc 1 991 3 view .LVU649
 992:Lib/AI_Runtime/Npu/ll_aton/ll_aton.c ****   ATON_STRSWITCH_CTRL_SET(0, t);
 2339              		.loc 1 992 3 view .LVU650
 993:Lib/AI_Runtime/Npu/ll_aton/ll_aton.c **** 
 2340              		.loc 1 993 3 view .LVU651
 993:Lib/AI_Runtime/Npu/ll_aton/ll_aton.c **** 
 2341              		.loc 1 993 3 view .LVU652
 2342 0000 0123     		movs	r3, #1
 2343 0002 134A     		ldr	r2, .L206
 2344 0004 0029     		cmp	r1, #0
 981:Lib/AI_Runtime/Npu/ll_aton/ll_aton.c ****   int i;
 2345              		.loc 1 981 1 is_stmt 0 view .LVU653
 2346 0006 30B5     		push	{r4, r5, lr}
 2347              		.cfi_def_cfa_offset 12
 2348              		.cfi_offset 4, -12
ARM GAS  /tmp/ccgbPSBw.s 			page 75


 2349              		.cfi_offset 5, -8
 2350              		.cfi_offset 14, -4
 993:Lib/AI_Runtime/Npu/ll_aton/ll_aton.c **** 
 2351              		.loc 1 993 3 view .LVU654
 2352 0008 1360     		str	r3, [r2]
 993:Lib/AI_Runtime/Npu/ll_aton/ll_aton.c **** 
 2353              		.loc 1 993 3 is_stmt 1 view .LVU655
 993:Lib/AI_Runtime/Npu/ll_aton/ll_aton.c **** 
 2354              		.loc 1 993 32 view .LVU656
 995:Lib/AI_Runtime/Npu/ll_aton/ll_aton.c ****   {
 2355              		.loc 1 995 3 view .LVU657
 2356              	.LVL268:
 995:Lib/AI_Runtime/Npu/ll_aton/ll_aton.c ****   {
 2357              		.loc 1 995 3 is_stmt 0 view .LVU658
 2358 000a 01EB0302 		add	r2, r1, r3
 2359 000e B8BF     		it	lt
 2360 0010 1A46     		movlt	r2, r3
 2361              	.LVL269:
 2362              	.L203:
 995:Lib/AI_Runtime/Npu/ll_aton/ll_aton.c ****   {
 2363              		.loc 1 995 17 is_stmt 1 discriminator 1 view .LVU659
 2364 0012 013A     		subs	r2, r2, #1
 2365 0014 01D1     		bne	.L204
1021:Lib/AI_Runtime/Npu/ll_aton/ll_aton.c **** }
 2366              		.loc 1 1021 3 view .LVU660
 2367              	.LVL270:
1022:Lib/AI_Runtime/Npu/ll_aton/ll_aton.c **** 
 2368              		.loc 1 1022 1 is_stmt 0 view .LVU661
 2369 0016 0020     		movs	r0, #0
 2370 0018 30BD     		pop	{r4, r5, pc}
 2371              	.LVL271:
 2372              	.L204:
 998:Lib/AI_Runtime/Npu/ll_aton/ll_aton.c ****     t = 0;
 2373              		.loc 1 998 5 is_stmt 1 view .LVU662
1002:Lib/AI_Runtime/Npu/ll_aton/ll_aton.c ****     t |= (ATONN_SRCPORT_ID(LL_Switch_InitStruct[i].source0) << link_shift[0]);
 2374              		.loc 1 1002 45 is_stmt 0 view .LVU663
 2375 001a 847B     		ldrb	r4, [r0, #14]	@ zero_extendqisi2
1006:Lib/AI_Runtime/Npu/ll_aton/ll_aton.c ****     t |= ((LL_Switch_InitStruct[i].frames1 << fnr_shift[1]) & fnr_mask[1]);
 2376              		.loc 1 1006 61 view .LVU664
 2377 001c D0E90053 		ldrd	r5, r3, [r0]
 2378 0020 5B04     		lsls	r3, r3, #17
1007:Lib/AI_Runtime/Npu/ll_aton/ll_aton.c **** #else
 2379              		.loc 1 1007 7 view .LVU665
 2380 0022 43EA4503 		orr	r3, r3, r5, lsl #1
1002:Lib/AI_Runtime/Npu/ll_aton/ll_aton.c ****     t |= (ATONN_SRCPORT_ID(LL_Switch_InitStruct[i].source0) << link_shift[0]);
 2381              		.loc 1 1002 51 view .LVU666
 2382 0026 04F00105 		and	r5, r4, #1
1007:Lib/AI_Runtime/Npu/ll_aton/ll_aton.c **** #else
 2383              		.loc 1 1007 7 view .LVU667
 2384 002a 2B43     		orrs	r3, r3, r5
1004:Lib/AI_Runtime/Npu/ll_aton/ll_aton.c ****     t |= ((LL_Switch_InitStruct[i].context1 != 0) << en_shift[1]);
 2385              		.loc 1 1004 61 view .LVU668
 2386 002c 057B     		ldrb	r5, [r0, #12]	@ zero_extendqisi2
 998:Lib/AI_Runtime/Npu/ll_aton/ll_aton.c ****     t = 0;
 2387              		.loc 1 998 47 view .LVU669
 2388 002e 8168     		ldr	r1, [r0, #8]
1007:Lib/AI_Runtime/Npu/ll_aton/ll_aton.c **** #else
ARM GAS  /tmp/ccgbPSBw.s 			page 76


 2389              		.loc 1 1007 7 view .LVU670
 2390 0030 43EA0523 		orr	r3, r3, r5, lsl #8
1007:Lib/AI_Runtime/Npu/ll_aton/ll_aton.c **** #else
 2391              		.loc 1 1007 44 view .LVU671
 2392 0034 457B     		ldrb	r5, [r0, #13]	@ zero_extendqisi2
 998:Lib/AI_Runtime/Npu/ll_aton/ll_aton.c ****     t = 0;
 2393              		.loc 1 998 47 view .LVU672
 2394 0036 01F1B041 		add	r1, r1, #1476395008
1007:Lib/AI_Runtime/Npu/ll_aton/ll_aton.c **** #else
 2395              		.loc 1 1007 7 view .LVU673
 2396 003a 43EA0563 		orr	r3, r3, r5, lsl #24
1005:Lib/AI_Runtime/Npu/ll_aton/ll_aton.c ****     t |= (ATONN_SRCPORT_ID(LL_Switch_InitStruct[i].source1) << link_shift[1]);
 2397              		.loc 1 1005 45 view .LVU674
 2398 003e C4F34004 		ubfx	r4, r4, #1, #1
 998:Lib/AI_Runtime/Npu/ll_aton/ll_aton.c ****     t = 0;
 2399              		.loc 1 998 47 view .LVU675
 2400 0042 01F56421 		add	r1, r1, #933888
 2401              	.LVL272:
 999:Lib/AI_Runtime/Npu/ll_aton/ll_aton.c ****     /* Enable Context and create link */
 2402              		.loc 1 999 5 is_stmt 1 view .LVU676
1002:Lib/AI_Runtime/Npu/ll_aton/ll_aton.c ****     t |= (ATONN_SRCPORT_ID(LL_Switch_InitStruct[i].source0) << link_shift[0]);
 2403              		.loc 1 1002 5 view .LVU677
1003:Lib/AI_Runtime/Npu/ll_aton/ll_aton.c ****     t |= ((LL_Switch_InitStruct[i].frames0 << fnr_shift[0]) & fnr_mask[0]);
 2404              		.loc 1 1003 5 view .LVU678
1004:Lib/AI_Runtime/Npu/ll_aton/ll_aton.c ****     t |= ((LL_Switch_InitStruct[i].context1 != 0) << en_shift[1]);
 2405              		.loc 1 1004 5 view .LVU679
1005:Lib/AI_Runtime/Npu/ll_aton/ll_aton.c ****     t |= (ATONN_SRCPORT_ID(LL_Switch_InitStruct[i].source1) << link_shift[1]);
 2406              		.loc 1 1005 5 view .LVU680
1006:Lib/AI_Runtime/Npu/ll_aton/ll_aton.c ****     t |= ((LL_Switch_InitStruct[i].frames1 << fnr_shift[1]) & fnr_mask[1]);
 2407              		.loc 1 1006 5 view .LVU681
1007:Lib/AI_Runtime/Npu/ll_aton/ll_aton.c **** #else
 2408              		.loc 1 1007 5 view .LVU682
1007:Lib/AI_Runtime/Npu/ll_aton/ll_aton.c **** #else
 2409              		.loc 1 1007 7 is_stmt 0 view .LVU683
 2410 0046 43EA0443 		orr	r3, r3, r4, lsl #16
 2411              	.LVL273:
1018:Lib/AI_Runtime/Npu/ll_aton/ll_aton.c ****   }
 2412              		.loc 1 1018 5 is_stmt 1 view .LVU684
1018:Lib/AI_Runtime/Npu/ll_aton/ll_aton.c ****   }
 2413              		.loc 1 1018 5 view .LVU685
 2414 004a 0B60     		str	r3, [r1]
1018:Lib/AI_Runtime/Npu/ll_aton/ll_aton.c ****   }
 2415              		.loc 1 1018 5 view .LVU686
 995:Lib/AI_Runtime/Npu/ll_aton/ll_aton.c ****   {
 2416              		.loc 1 995 23 discriminator 3 view .LVU687
 2417 004c 1030     		adds	r0, r0, #16
 2418 004e E0E7     		b	.L203
 2419              	.L207:
 2420              		.align	2
 2421              	.L206:
 2422 0050 00400E58 		.word	1477328896
 2423              		.cfi_endproc
 2424              	.LFE4836:
 2426              		.section	.text.LL_Switch_Init,"ax",%progbits
 2427              		.align	1
 2428              		.global	LL_Switch_Init
 2429              		.syntax unified
ARM GAS  /tmp/ccgbPSBw.s 			page 77


 2430              		.thumb
 2431              		.thumb_func
 2433              	LL_Switch_Init:
 2434              	.LVL274:
 2435              	.LFB4837:
1031:Lib/AI_Runtime/Npu/ll_aton/ll_aton.c ****   uint32_t t;
 2436              		.loc 1 1031 1 view -0
 2437              		.cfi_startproc
 2438              		@ args = 0, pretend = 0, frame = 0
 2439              		@ frame_needed = 0, uses_anonymous_args = 0
 2440              		@ link register save eliminated.
1032:Lib/AI_Runtime/Npu/ll_aton/ll_aton.c **** 
 2441              		.loc 1 1032 3 view .LVU689
1039:Lib/AI_Runtime/Npu/ll_aton/ll_aton.c **** 
 2442              		.loc 1 1039 3 view .LVU690
1039:Lib/AI_Runtime/Npu/ll_aton/ll_aton.c **** 
 2443              		.loc 1 1039 3 view .LVU691
1039:Lib/AI_Runtime/Npu/ll_aton/ll_aton.c **** 
 2444              		.loc 1 1039 3 view .LVU692
1039:Lib/AI_Runtime/Npu/ll_aton/ll_aton.c **** 
 2445              		.loc 1 1039 3 view .LVU693
1039:Lib/AI_Runtime/Npu/ll_aton/ll_aton.c **** 
 2446              		.loc 1 1039 3 view .LVU694
1039:Lib/AI_Runtime/Npu/ll_aton/ll_aton.c **** 
 2447              		.loc 1 1039 3 view .LVU695
 2448 0000 0222     		movs	r2, #2
 2449 0002 064B     		ldr	r3, .L213
 2450 0004 1A60     		str	r2, [r3]
1039:Lib/AI_Runtime/Npu/ll_aton/ll_aton.c **** 
 2451              		.loc 1 1039 3 view .LVU696
1039:Lib/AI_Runtime/Npu/ll_aton/ll_aton.c **** 
 2452              		.loc 1 1039 3 view .LVU697
1039:Lib/AI_Runtime/Npu/ll_aton/ll_aton.c **** 
 2453              		.loc 1 1039 3 view .LVU698
1039:Lib/AI_Runtime/Npu/ll_aton/ll_aton.c **** 
 2454              		.loc 1 1039 3 view .LVU699
 2455              	.L209:
1039:Lib/AI_Runtime/Npu/ll_aton/ll_aton.c **** 
 2456              		.loc 1 1039 3 discriminator 2 view .LVU700
1039:Lib/AI_Runtime/Npu/ll_aton/ll_aton.c **** 
 2457              		.loc 1 1039 3 discriminator 2 view .LVU701
 2458 0006 1A68     		ldr	r2, [r3]
 2459 0008 9207     		lsls	r2, r2, #30
 2460 000a FCD4     		bmi	.L209
1039:Lib/AI_Runtime/Npu/ll_aton/ll_aton.c **** 
 2461              		.loc 1 1039 3 discriminator 3 view .LVU702
1039:Lib/AI_Runtime/Npu/ll_aton/ll_aton.c **** 
 2462              		.loc 1 1039 3 discriminator 3 view .LVU703
 2463              	.LVL275:
1039:Lib/AI_Runtime/Npu/ll_aton/ll_aton.c **** 
 2464              		.loc 1 1039 3 discriminator 3 view .LVU704
1039:Lib/AI_Runtime/Npu/ll_aton/ll_aton.c **** 
 2465              		.loc 1 1039 3 discriminator 3 view .LVU705
1039:Lib/AI_Runtime/Npu/ll_aton/ll_aton.c **** 
 2466              		.loc 1 1039 3 discriminator 3 view .LVU706
 2467 000c 4FF08042 		mov	r2, #1073741824
 2468 0010 1A60     		str	r2, [r3]
ARM GAS  /tmp/ccgbPSBw.s 			page 78


1039:Lib/AI_Runtime/Npu/ll_aton/ll_aton.c **** 
 2469              		.loc 1 1039 3 discriminator 3 view .LVU707
1039:Lib/AI_Runtime/Npu/ll_aton/ll_aton.c **** 
 2470              		.loc 1 1039 3 discriminator 3 view .LVU708
1039:Lib/AI_Runtime/Npu/ll_aton/ll_aton.c **** 
 2471              		.loc 1 1039 3 discriminator 3 view .LVU709
1039:Lib/AI_Runtime/Npu/ll_aton/ll_aton.c **** 
 2472              		.loc 1 1039 3 discriminator 3 view .LVU710
 2473              	.L210:
1039:Lib/AI_Runtime/Npu/ll_aton/ll_aton.c **** 
 2474              		.loc 1 1039 3 discriminator 5 view .LVU711
1039:Lib/AI_Runtime/Npu/ll_aton/ll_aton.c **** 
 2475              		.loc 1 1039 3 discriminator 5 view .LVU712
 2476 0012 1A68     		ldr	r2, [r3]
 2477 0014 5200     		lsls	r2, r2, #1
 2478 0016 FCD4     		bmi	.L210
1039:Lib/AI_Runtime/Npu/ll_aton/ll_aton.c **** 
 2479              		.loc 1 1039 3 discriminator 6 view .LVU713
1039:Lib/AI_Runtime/Npu/ll_aton/ll_aton.c **** 
 2480              		.loc 1 1039 3 discriminator 6 view .LVU714
1041:Lib/AI_Runtime/Npu/ll_aton/ll_aton.c **** }
 2481              		.loc 1 1041 3 view .LVU715
1041:Lib/AI_Runtime/Npu/ll_aton/ll_aton.c **** }
 2482              		.loc 1 1041 10 is_stmt 0 view .LVU716
 2483 0018 FFF7FEBF 		b	LL_Switch_Init_NoReset
 2484              	.LVL276:
 2485              	.L214:
1041:Lib/AI_Runtime/Npu/ll_aton/ll_aton.c **** }
 2486              		.loc 1 1041 10 view .LVU717
 2487              		.align	2
 2488              	.L213:
 2489 001c 00400E58 		.word	1477328896
 2490              		.cfi_endproc
 2491              	.LFE4837:
 2493              		.section	.text.LL_Switch_Deinit,"ax",%progbits
 2494              		.align	1
 2495              		.global	LL_Switch_Deinit
 2496              		.syntax unified
 2497              		.thumb
 2498              		.thumb_func
 2500              	LL_Switch_Deinit:
 2501              	.LVL277:
 2502              	.LFB4838:
1051:Lib/AI_Runtime/Npu/ll_aton/ll_aton.c ****   int i;
 2503              		.loc 1 1051 1 is_stmt 1 view -0
 2504              		.cfi_startproc
 2505              		@ args = 0, pretend = 0, frame = 0
 2506              		@ frame_needed = 0, uses_anonymous_args = 0
1052:Lib/AI_Runtime/Npu/ll_aton/ll_aton.c ****   volatile uint32_t *reg;
 2507              		.loc 1 1052 3 view .LVU719
1053:Lib/AI_Runtime/Npu/ll_aton/ll_aton.c **** 
 2508              		.loc 1 1053 3 view .LVU720
1055:Lib/AI_Runtime/Npu/ll_aton/ll_aton.c ****   {
 2509              		.loc 1 1055 3 view .LVU721
1051:Lib/AI_Runtime/Npu/ll_aton/ll_aton.c ****   int i;
 2510              		.loc 1 1051 1 is_stmt 0 view .LVU722
 2511 0000 30B5     		push	{r4, r5, lr}
ARM GAS  /tmp/ccgbPSBw.s 			page 79


 2512              		.cfi_def_cfa_offset 12
 2513              		.cfi_offset 4, -12
 2514              		.cfi_offset 5, -8
 2515              		.cfi_offset 14, -4
1055:Lib/AI_Runtime/Npu/ll_aton/ll_aton.c ****   {
 2516              		.loc 1 1055 10 view .LVU723
 2517 0002 0024     		movs	r4, #0
 2518 0004 A142     		cmp	r1, r4
 2519 0006 01F10103 		add	r3, r1, #1
1061:Lib/AI_Runtime/Npu/ll_aton/ll_aton.c ****   }
 2520              		.loc 1 1061 5 view .LVU724
 2521 000a 2546     		mov	r5, r4
 2522 000c B8BF     		it	lt
 2523 000e 0123     		movlt	r3, #1
1058:Lib/AI_Runtime/Npu/ll_aton/ll_aton.c **** 
 2524              		.loc 1 1058 49 view .LVU725
 2525 0010 0830     		adds	r0, r0, #8
 2526              	.LVL278:
 2527              	.L216:
1055:Lib/AI_Runtime/Npu/ll_aton/ll_aton.c ****   {
 2528              		.loc 1 1055 17 is_stmt 1 discriminator 1 view .LVU726
 2529 0012 013B     		subs	r3, r3, #1
 2530 0014 01D1     		bne	.L217
1064:Lib/AI_Runtime/Npu/ll_aton/ll_aton.c **** }
 2531              		.loc 1 1064 3 view .LVU727
1065:Lib/AI_Runtime/Npu/ll_aton/ll_aton.c **** 
 2532              		.loc 1 1065 1 is_stmt 0 view .LVU728
 2533 0016 0020     		movs	r0, #0
 2534              	.LVL279:
1065:Lib/AI_Runtime/Npu/ll_aton/ll_aton.c **** 
 2535              		.loc 1 1065 1 view .LVU729
 2536 0018 30BD     		pop	{r4, r5, pc}
 2537              	.LVL280:
 2538              	.L217:
1058:Lib/AI_Runtime/Npu/ll_aton/ll_aton.c **** 
 2539              		.loc 1 1058 5 is_stmt 1 view .LVU730
1058:Lib/AI_Runtime/Npu/ll_aton/ll_aton.c **** 
 2540              		.loc 1 1058 49 is_stmt 0 view .LVU731
 2541 001a 2201     		lsls	r2, r4, #4
1058:Lib/AI_Runtime/Npu/ll_aton/ll_aton.c **** 
 2542              		.loc 1 1058 47 view .LVU732
 2543 001c 8258     		ldr	r2, [r0, r2]
1055:Lib/AI_Runtime/Npu/ll_aton/ll_aton.c ****   {
 2544              		.loc 1 1055 23 discriminator 3 view .LVU733
 2545 001e 0134     		adds	r4, r4, #1
 2546              	.LVL281:
1058:Lib/AI_Runtime/Npu/ll_aton/ll_aton.c **** 
 2547              		.loc 1 1058 47 view .LVU734
 2548 0020 02F1B042 		add	r2, r2, #1476395008
 2549 0024 02F56422 		add	r2, r2, #933888
 2550              	.LVL282:
1061:Lib/AI_Runtime/Npu/ll_aton/ll_aton.c ****   }
 2551              		.loc 1 1061 5 is_stmt 1 view .LVU735
1061:Lib/AI_Runtime/Npu/ll_aton/ll_aton.c ****   }
 2552              		.loc 1 1061 5 view .LVU736
 2553 0028 1560     		str	r5, [r2]
1061:Lib/AI_Runtime/Npu/ll_aton/ll_aton.c ****   }
ARM GAS  /tmp/ccgbPSBw.s 			page 80


 2554              		.loc 1 1061 5 view .LVU737
1055:Lib/AI_Runtime/Npu/ll_aton/ll_aton.c ****   {
 2555              		.loc 1 1055 23 discriminator 3 view .LVU738
 2556              	.LVL283:
1055:Lib/AI_Runtime/Npu/ll_aton/ll_aton.c ****   {
 2557              		.loc 1 1055 23 is_stmt 0 discriminator 3 view .LVU739
 2558 002a F2E7     		b	.L216
 2559              		.cfi_endproc
 2560              	.LFE4838:
 2562              		.section	.text.LL_Switch_Deinit_Fine_Grained,"ax",%progbits
 2563              		.align	1
 2564              		.global	LL_Switch_Deinit_Fine_Grained
 2565              		.syntax unified
 2566              		.thumb
 2567              		.thumb_func
 2569              	LL_Switch_Deinit_Fine_Grained:
 2570              	.LVL284:
 2571              	.LFB4839:
1074:Lib/AI_Runtime/Npu/ll_aton/ll_aton.c ****   int i;
 2572              		.loc 1 1074 1 is_stmt 1 view -0
 2573              		.cfi_startproc
 2574              		@ args = 0, pretend = 0, frame = 0
 2575              		@ frame_needed = 0, uses_anonymous_args = 0
1075:Lib/AI_Runtime/Npu/ll_aton/ll_aton.c ****   volatile uint32_t *reg;
 2576              		.loc 1 1075 3 view .LVU741
1076:Lib/AI_Runtime/Npu/ll_aton/ll_aton.c ****   unsigned int en_shift[ATON_SWITCH_CONTEXT_NUM] = {ATON_STRSWITCH_DST_EN0_LSB, ATON_STRSWITCH_DST_
 2577              		.loc 1 1076 3 view .LVU742
1077:Lib/AI_Runtime/Npu/ll_aton/ll_aton.c **** 
 2578              		.loc 1 1077 3 view .LVU743
1079:Lib/AI_Runtime/Npu/ll_aton/ll_aton.c ****   {
 2579              		.loc 1 1079 3 view .LVU744
1079:Lib/AI_Runtime/Npu/ll_aton/ll_aton.c ****   {
 2580              		.loc 1 1079 3 is_stmt 0 view .LVU745
 2581 0000 0029     		cmp	r1, #0
 2582 0002 01F10103 		add	r3, r1, #1
 2583 0006 B8BF     		it	lt
 2584 0008 0123     		movlt	r3, #1
1074:Lib/AI_Runtime/Npu/ll_aton/ll_aton.c ****   int i;
 2585              		.loc 1 1074 1 view .LVU746
 2586 000a 30B5     		push	{r4, r5, lr}
 2587              		.cfi_def_cfa_offset 12
 2588              		.cfi_offset 4, -12
