ARM GAS  /tmp/ccbDofGn.s 			page 1


   1              		.arch armv8.1-m.main
   2              		.fpu fpv5-d16
   3              		.arch_extension dsp
   4              		.arch_extension fp
   5              		.arch_extension fp.dp
   6              		.arch_extension mve
   7              		.arch_extension mve.fp
   8              		.eabi_attribute 5, "cortex-m55"
   9              		.eabi_attribute 28, 1
  10              		.eabi_attribute 20, 1
  11              		.eabi_attribute 21, 1
  12              		.eabi_attribute 23, 3
  13              		.eabi_attribute 24, 1
  14              		.eabi_attribute 25, 1
  15              		.eabi_attribute 26, 1
  16              		.eabi_attribute 30, 4
  17              		.eabi_attribute 34, 1
  18              		.eabi_attribute 38, 1
  19              		.eabi_attribute 18, 4
  20              		.file	"ll_aton_rt_main.c"
  21              		.text
  22              	.Ltext0:
  23              		.cfi_sections	.debug_frame
  24              		.file 1 "Lib/AI_Runtime/Npu/ll_aton/ll_aton_rt_main.c"
  25              		.section	.rodata.LL_ATON_RT_Main.str1.1,"aMS",%progbits,1
  26              	.LC0:
  27 0000 6E657477 		.ascii	"network_instance != ((void *)0)\000"
  27      6F726B5F 
  27      696E7374 
  27      616E6365 
  27      20213D20 
  28              	.LC1:
  29 0020 4C69622F 		.ascii	"Lib/AI_Runtime/Npu/ll_aton/ll_aton_rt_main.c\000"
  29      41495F52 
  29      756E7469 
  29      6D652F4E 
  29      70752F6C 
  30              	.LC2:
  31 004d 6E657477 		.ascii	"network_instance->network != ((void *)0)\000"
  31      6F726B5F 
  31      696E7374 
  31      616E6365 
  31      2D3E6E65 
  32              		.section	.text.LL_ATON_RT_Main,"ax",%progbits
  33              		.align	1
  34              		.global	LL_ATON_RT_Main
  35              		.syntax unified
  36              		.thumb
  37              		.thumb_func
  39              	LL_ATON_RT_Main:
  40              	.LVL0:
  41              	.LFB4835:
   1:Lib/AI_Runtime/Npu/ll_aton/ll_aton_rt_main.c **** /**
   2:Lib/AI_Runtime/Npu/ll_aton/ll_aton_rt_main.c ****  ******************************************************************************
   3:Lib/AI_Runtime/Npu/ll_aton/ll_aton_rt_main.c ****  * @file    ll_aton_rt_main.c
   4:Lib/AI_Runtime/Npu/ll_aton/ll_aton_rt_main.c ****  * @author  SRA Artificial Intelligence & Embedded Architectures
   5:Lib/AI_Runtime/Npu/ll_aton/ll_aton_rt_main.c ****  * @brief   Template `main()` function (named `LL_ATON_RT_Main()`) for
ARM GAS  /tmp/ccbDofGn.s 			page 2


   6:Lib/AI_Runtime/Npu/ll_aton/ll_aton_rt_main.c ****  *          Cube.AI/ATON integration in a RTOS-less application.
   7:Lib/AI_Runtime/Npu/ll_aton/ll_aton_rt_main.c ****  * @note    This file is intended to be just a template and is limited to run the
   8:Lib/AI_Runtime/Npu/ll_aton/ll_aton_rt_main.c ****  *          ATON LL runtime with a single network instance for a single inference!
   9:Lib/AI_Runtime/Npu/ll_aton/ll_aton_rt_main.c ****  *          Please, generate your own embodiment of this file and customize it
  10:Lib/AI_Runtime/Npu/ll_aton/ll_aton_rt_main.c ****  *          so to fit the needs of your application.
  11:Lib/AI_Runtime/Npu/ll_aton/ll_aton_rt_main.c ****  ******************************************************************************
  12:Lib/AI_Runtime/Npu/ll_aton/ll_aton_rt_main.c ****  * @attention
  13:Lib/AI_Runtime/Npu/ll_aton/ll_aton_rt_main.c ****  *
  14:Lib/AI_Runtime/Npu/ll_aton/ll_aton_rt_main.c ****  * Copyright (c) 2024 STMicroelectronics.
  15:Lib/AI_Runtime/Npu/ll_aton/ll_aton_rt_main.c ****  * All rights reserved.
  16:Lib/AI_Runtime/Npu/ll_aton/ll_aton_rt_main.c ****  *
  17:Lib/AI_Runtime/Npu/ll_aton/ll_aton_rt_main.c ****  * This software is licensed under terms that can be found in the LICENSE file
  18:Lib/AI_Runtime/Npu/ll_aton/ll_aton_rt_main.c ****  * in the root directory of this software component.
  19:Lib/AI_Runtime/Npu/ll_aton/ll_aton_rt_main.c ****  * If no LICENSE file comes with this software, it is provided AS-IS.
  20:Lib/AI_Runtime/Npu/ll_aton/ll_aton_rt_main.c ****  *
  21:Lib/AI_Runtime/Npu/ll_aton/ll_aton_rt_main.c ****  ******************************************************************************
  22:Lib/AI_Runtime/Npu/ll_aton/ll_aton_rt_main.c ****  */
  23:Lib/AI_Runtime/Npu/ll_aton/ll_aton_rt_main.c **** 
  24:Lib/AI_Runtime/Npu/ll_aton/ll_aton_rt_main.c **** #include "ll_aton_runtime.h"
  25:Lib/AI_Runtime/Npu/ll_aton/ll_aton_rt_main.c **** #include "ll_aton_util.h"
  26:Lib/AI_Runtime/Npu/ll_aton/ll_aton_rt_main.c **** 
  27:Lib/AI_Runtime/Npu/ll_aton/ll_aton_rt_main.c **** /*** Main Template ***/
  28:Lib/AI_Runtime/Npu/ll_aton/ll_aton_rt_main.c **** 
  29:Lib/AI_Runtime/Npu/ll_aton/ll_aton_rt_main.c **** /**
  30:Lib/AI_Runtime/Npu/ll_aton/ll_aton_rt_main.c ****  * @brief Template for synchronously executing a single inference of a single network instance (e.g
  31:Lib/AI_Runtime/Npu/ll_aton/ll_aton_rt_main.c ****  * @param network_instance pointer to the network instance representing the network and execution i
  32:Lib/AI_Runtime/Npu/ll_aton/ll_aton_rt_main.c ****  *                         The instance object MUST have already set a valid link to a network inte
  33:Lib/AI_Runtime/Npu/ll_aton/ll_aton_rt_main.c ****  *                         The user may declare/instantiate such an object by using either macro
  34:Lib/AI_Runtime/Npu/ll_aton/ll_aton_rt_main.c ****  *                          `LL_ATON_DECLARE_NAMED_NN_INSTANCE_AND_INTERFACE()` to create both the 
  35:Lib/AI_Runtime/Npu/ll_aton/ll_aton_rt_main.c ****  *                         and the network interface, or macros
  36:Lib/AI_Runtime/Npu/ll_aton/ll_aton_rt_main.c ****  *                         `LL_ATON_DECLARE_NAMED_NN_INTERFACE()` & `LL_ATON_DECLARE_NAMED_NN_INSTA
  37:Lib/AI_Runtime/Npu/ll_aton/ll_aton_rt_main.c ****  *                         create/instantiate the objects separately.
  38:Lib/AI_Runtime/Npu/ll_aton/ll_aton_rt_main.c ****  */
  39:Lib/AI_Runtime/Npu/ll_aton/ll_aton_rt_main.c **** void LL_ATON_RT_Main(NN_Instance_TypeDef *network_instance)
  40:Lib/AI_Runtime/Npu/ll_aton/ll_aton_rt_main.c **** {
  42              		.loc 1 40 1 view -0
  43              		.cfi_startproc
  44              		@ args = 0, pretend = 0, frame = 0
  45              		@ frame_needed = 0, uses_anonymous_args = 0
  41:Lib/AI_Runtime/Npu/ll_aton/ll_aton_rt_main.c ****   LL_ATON_RT_RetValues_t ll_aton_rt_ret;
  46              		.loc 1 41 3 view .LVU1
  42:Lib/AI_Runtime/Npu/ll_aton/ll_aton_rt_main.c **** 
  43:Lib/AI_Runtime/Npu/ll_aton/ll_aton_rt_main.c ****   /*** Start of user initialization code ***/
  44:Lib/AI_Runtime/Npu/ll_aton/ll_aton_rt_main.c **** 
  45:Lib/AI_Runtime/Npu/ll_aton/ll_aton_rt_main.c ****   /*** End of user initialization code ***/
  46:Lib/AI_Runtime/Npu/ll_aton/ll_aton_rt_main.c **** 
  47:Lib/AI_Runtime/Npu/ll_aton/ll_aton_rt_main.c ****   LL_ATON_ASSERT(network_instance != NULL);
  47              		.loc 1 47 3 view .LVU2
  40:Lib/AI_Runtime/Npu/ll_aton/ll_aton_rt_main.c ****   LL_ATON_RT_RetValues_t ll_aton_rt_ret;
  48              		.loc 1 40 1 is_stmt 0 view .LVU3
  49 0000 10B5     		push	{r4, lr}
  50              		.cfi_def_cfa_offset 8
  51              		.cfi_offset 4, -8
  52              		.cfi_offset 14, -4
  53              		.loc 1 47 3 view .LVU4
  54 0002 0446     		mov	r4, r0
  55 0004 28B9     		cbnz	r0, .L2
ARM GAS  /tmp/ccbDofGn.s 			page 3


  56              		.loc 1 47 3 discriminator 1 view .LVU5
  57 0006 2F21     		movs	r1, #47
  58 0008 104B     		ldr	r3, .L9
  59 000a 114A     		ldr	r2, .L9+4
  60              	.L8:
  48:Lib/AI_Runtime/Npu/ll_aton/ll_aton_rt_main.c ****   LL_ATON_ASSERT(network_instance->network != NULL);
  61              		.loc 1 48 3 discriminator 1 view .LVU6
  62 000c 1148     		ldr	r0, .L9+8
  63              	.LVL1:
  64              		.loc 1 48 3 discriminator 1 view .LVU7
  65 000e FFF7FEFF 		bl	__assert_func
  66              	.LVL2:
  67              	.L2:
  68              		.loc 1 48 3 is_stmt 1 view .LVU8
  69 0012 0368     		ldr	r3, [r0]
  70 0014 1BB9     		cbnz	r3, .L3
  71              		.loc 1 48 3 is_stmt 0 discriminator 1 view .LVU9
  72 0016 3021     		movs	r1, #48
  73 0018 0F4B     		ldr	r3, .L9+12
  74 001a 0D4A     		ldr	r2, .L9+4
  75 001c F6E7     		b	.L8
  76              	.L3:
  49:Lib/AI_Runtime/Npu/ll_aton/ll_aton_rt_main.c ****   LL_ATON_RT_RuntimeInit();                  // Initialize runtime
  77              		.loc 1 49 3 is_stmt 1 view .LVU10
  78 001e FFF7FEFF 		bl	LL_ATON_RT_RuntimeInit
  79              	.LVL3:
  50:Lib/AI_Runtime/Npu/ll_aton/ll_aton_rt_main.c ****   LL_ATON_RT_Init_Network(network_instance); // Initialize passed network instance object
  80              		.loc 1 50 3 view .LVU11
  81 0022 2046     		mov	r0, r4
  82 0024 FFF7FEFF 		bl	LL_ATON_RT_Init_Network
  83              	.LVL4:
  84              	.L7:
  51:Lib/AI_Runtime/Npu/ll_aton/ll_aton_rt_main.c **** 
  52:Lib/AI_Runtime/Npu/ll_aton/ll_aton_rt_main.c ****   do
  85              		.loc 1 52 3 view .LVU12
  53:Lib/AI_Runtime/Npu/ll_aton/ll_aton_rt_main.c ****   {
  54:Lib/AI_Runtime/Npu/ll_aton/ll_aton_rt_main.c ****     /* Execute first/next step of Cube.AI/ATON runtime */
  55:Lib/AI_Runtime/Npu/ll_aton/ll_aton_rt_main.c ****     ll_aton_rt_ret = LL_ATON_RT_RunEpochBlock(network_instance);
  86              		.loc 1 55 5 view .LVU13
  87              		.loc 1 55 22 is_stmt 0 view .LVU14
  88 0028 2046     		mov	r0, r4
  89 002a FFF7FEFF 		bl	LL_ATON_RT_RunEpochBlock
  90              	.LVL5:
  56:Lib/AI_Runtime/Npu/ll_aton/ll_aton_rt_main.c **** 
  57:Lib/AI_Runtime/Npu/ll_aton/ll_aton_rt_main.c ****     /*** Start of user event handling code ***/
  58:Lib/AI_Runtime/Npu/ll_aton/ll_aton_rt_main.c **** 
  59:Lib/AI_Runtime/Npu/ll_aton/ll_aton_rt_main.c ****     /*** End of user event handling code ***/
  60:Lib/AI_Runtime/Npu/ll_aton/ll_aton_rt_main.c **** 
  61:Lib/AI_Runtime/Npu/ll_aton/ll_aton_rt_main.c ****     /* Wait for next event */
  62:Lib/AI_Runtime/Npu/ll_aton/ll_aton_rt_main.c ****     if (ll_aton_rt_ret == LL_ATON_RT_WFE)
  91              		.loc 1 62 5 is_stmt 1 view .LVU15
  92              		.loc 1 62 8 is_stmt 0 view .LVU16
  93 002e 0128     		cmp	r0, #1
  94 0030 02D1     		bne	.L4
  63:Lib/AI_Runtime/Npu/ll_aton/ll_aton_rt_main.c ****     { /*** subject to change to fit also user code requirements ***/
  64:Lib/AI_Runtime/Npu/ll_aton/ll_aton_rt_main.c ****       LL_ATON_OSAL_WFE();
  95              		.loc 1 64 7 is_stmt 1 view .LVU17
ARM GAS  /tmp/ccbDofGn.s 			page 4


  96 0032 FFF7FEFF 		bl	aton_osal_freertos_wfe
  97              	.LVL6:
  65:Lib/AI_Runtime/Npu/ll_aton/ll_aton_rt_main.c ****     }
  66:Lib/AI_Runtime/Npu/ll_aton/ll_aton_rt_main.c ****   } while (ll_aton_rt_ret != LL_ATON_RT_DONE); /*** subject to change to fit also user code require
  98              		.loc 1 66 27 view .LVU18
  99 0036 F7E7     		b	.L7
 100              	.LVL7:
 101              	.L4:
 102              		.loc 1 66 27 view .LVU19
 103 0038 0228     		cmp	r0, #2
 104 003a F5D1     		bne	.L7
  67:Lib/AI_Runtime/Npu/ll_aton/ll_aton_rt_main.c **** 
  68:Lib/AI_Runtime/Npu/ll_aton/ll_aton_rt_main.c ****   LL_ATON_RT_DeInit_Network(network_instance); // De-initialize the network instance object
 105              		.loc 1 68 3 view .LVU20
 106 003c 2046     		mov	r0, r4
 107              	.LVL8:
 108              		.loc 1 68 3 is_stmt 0 view .LVU21
 109 003e FFF7FEFF 		bl	LL_ATON_RT_DeInit_Network
 110              	.LVL9:
  69:Lib/AI_Runtime/Npu/ll_aton/ll_aton_rt_main.c ****   LL_ATON_RT_RuntimeDeInit();                  // De-initialize runtime
 111              		.loc 1 69 3 is_stmt 1 view .LVU22
  70:Lib/AI_Runtime/Npu/ll_aton/ll_aton_rt_main.c **** 
  71:Lib/AI_Runtime/Npu/ll_aton/ll_aton_rt_main.c ****   /*** Start of user de-initialization code ***/
  72:Lib/AI_Runtime/Npu/ll_aton/ll_aton_rt_main.c **** 
  73:Lib/AI_Runtime/Npu/ll_aton/ll_aton_rt_main.c ****   /*** End of user de-initialization code ***/
  74:Lib/AI_Runtime/Npu/ll_aton/ll_aton_rt_main.c **** }
 112              		.loc 1 74 1 is_stmt 0 view .LVU23
 113 0042 BDE81040 		pop	{r4, lr}
 114              		.cfi_restore 14
 115              		.cfi_restore 4
 116              		.cfi_def_cfa_offset 0
 117              	.LVL10:
  69:Lib/AI_Runtime/Npu/ll_aton/ll_aton_rt_main.c ****   LL_ATON_RT_RuntimeDeInit();                  // De-initialize runtime
 118              		.loc 1 69 3 view .LVU24
 119 0046 FFF7FEBF 		b	LL_ATON_RT_RuntimeDeInit
 120              	.LVL11:
 121              	.L10:
 122 004a 00BF     		.align	2
 123              	.L9:
 124 004c 00000000 		.word	.LC0
 125 0050 00000000 		.word	__func__.0
 126 0054 20000000 		.word	.LC1
 127 0058 4D000000 		.word	.LC2
 128              		.cfi_endproc
 129              	.LFE4835:
 131              		.section	.rodata.__func__.0,"a"
 134              	__func__.0:
 135 0000 4C4C5F41 		.ascii	"LL_ATON_RT_Main\000"
 135      544F4E5F 
 135      52545F4D 
 135      61696E00 
 136              		.text
 137              	.Letext0:
 138              		.file 2 "/home/tanjiajun2002/renesas/rzv/e2studio_v2025-01_fsp_v3.1.0/toolchains/gcc_arm/arm-gnu-t
 139              		.file 3 "/home/tanjiajun2002/renesas/rzv/e2studio_v2025-01_fsp_v3.1.0/toolchains/gcc_arm/arm-gnu-t
 140              		.file 4 "Lib/AI_Runtime/Npu/ll_aton/ll_aton_NN_interface.h"
 141              		.file 5 "Lib/AI_Runtime/Npu/ll_aton/ll_aton_runtime.h"
ARM GAS  /tmp/ccbDofGn.s 			page 5


 142              		.file 6 "Lib/AI_Runtime/Npu/ll_aton/ll_aton_osal_freertos.h"
 143              		.file 7 "/home/tanjiajun2002/renesas/rzv/e2studio_v2025-01_fsp_v3.1.0/toolchains/gcc_arm/arm-gnu-t
ARM GAS  /tmp/ccbDofGn.s 			page 6

