ARM GAS  /tmp/ccgbPSBw.s 			page 1


   1              		.arch armv8.1-m.main
   2              		.fpu fpv5-d16
   3              		.arch_extension dsp
   4              		.arch_extension fp
   5              		.arch_extension fp.dp
   6              		.arch_extension mve
   7              		.arch_extension mve.fp
   8              		.eabi_attribute 5, "cortex-m55"
   9              		.eabi_attribute 28, 1
  10              		.eabi_attribute 20, 1
  11              		.eabi_attribute 21, 1
  12              		.eabi_attribute 23, 3
  13              		.eabi_attribute 24, 1
  14              		.eabi_attribute 25, 1
  15              		.eabi_attribute 26, 1
  16              		.eabi_attribute 30, 4
  17              		.eabi_attribute 34, 1
  18              		.eabi_attribute 38, 1
  19              		.eabi_attribute 18, 4
  20              		.file	"ll_aton.c"
  21              		.text
  22              	.Ltext0:
  23              		.cfi_sections	.debug_frame
  24              		.file 1 "Lib/AI_Runtime/Npu/ll_aton/ll_aton.c"
  25              		.section	.text.decun_inc_page_addr,"ax",%progbits
  26              		.align	1
  27              		.syntax unified
  28              		.thumb
  29              		.thumb_func
  31              	decun_inc_page_addr:
  32              	.LVL0:
  33              	.LFB4840:
   1:Lib/AI_Runtime/Npu/ll_aton/ll_aton.c **** /**
   2:Lib/AI_Runtime/Npu/ll_aton/ll_aton.c ****  ******************************************************************************
   3:Lib/AI_Runtime/Npu/ll_aton/ll_aton.c ****  * @file    ll_aton.c
   4:Lib/AI_Runtime/Npu/ll_aton/ll_aton.c ****  * @author  SRA Artificial Intelligence & Embedded Architectures
   5:Lib/AI_Runtime/Npu/ll_aton/ll_aton.c ****  * @brief   ATON LL module driver.
   6:Lib/AI_Runtime/Npu/ll_aton/ll_aton.c ****  ******************************************************************************
   7:Lib/AI_Runtime/Npu/ll_aton/ll_aton.c ****  * @attention
   8:Lib/AI_Runtime/Npu/ll_aton/ll_aton.c ****  *
   9:Lib/AI_Runtime/Npu/ll_aton/ll_aton.c ****  * Copyright (c) 2024 STMicroelectronics.
  10:Lib/AI_Runtime/Npu/ll_aton/ll_aton.c ****  * All rights reserved.
  11:Lib/AI_Runtime/Npu/ll_aton/ll_aton.c ****  *
  12:Lib/AI_Runtime/Npu/ll_aton/ll_aton.c ****  * This software is licensed under terms that can be found in the LICENSE file
  13:Lib/AI_Runtime/Npu/ll_aton/ll_aton.c ****  * in the root directory of this software component.
  14:Lib/AI_Runtime/Npu/ll_aton/ll_aton.c ****  * If no LICENSE file comes with this software, it is provided AS-IS.
  15:Lib/AI_Runtime/Npu/ll_aton/ll_aton.c ****  *
  16:Lib/AI_Runtime/Npu/ll_aton/ll_aton.c ****  ******************************************************************************
  17:Lib/AI_Runtime/Npu/ll_aton/ll_aton.c ****  */
  18:Lib/AI_Runtime/Npu/ll_aton/ll_aton.c **** 
  19:Lib/AI_Runtime/Npu/ll_aton/ll_aton.c **** #include <assert.h>
  20:Lib/AI_Runtime/Npu/ll_aton/ll_aton.c **** #include <inttypes.h>
  21:Lib/AI_Runtime/Npu/ll_aton/ll_aton.c **** #include <stddef.h>
  22:Lib/AI_Runtime/Npu/ll_aton/ll_aton.c **** #include <stdint.h>
  23:Lib/AI_Runtime/Npu/ll_aton/ll_aton.c **** #include <stdlib.h>
  24:Lib/AI_Runtime/Npu/ll_aton/ll_aton.c **** 
  25:Lib/AI_Runtime/Npu/ll_aton/ll_aton.c **** #include "ll_aton.h"
ARM GAS  /tmp/ccgbPSBw.s 			page 2


  26:Lib/AI_Runtime/Npu/ll_aton/ll_aton.c **** #include "ll_aton_caches_interface.h"
  27:Lib/AI_Runtime/Npu/ll_aton/ll_aton.c **** #include "ll_aton_util.h"
  28:Lib/AI_Runtime/Npu/ll_aton/ll_aton.c **** 
  29:Lib/AI_Runtime/Npu/ll_aton/ll_aton.c **** #define ATONN_CONST_SRCPORT(S, J, U, I, P) ATON_##S##_##J##_LINK_##U##_##I##_##P
  30:Lib/AI_Runtime/Npu/ll_aton/ll_aton.c **** #define ATONN_CONST_DSTPORT(S, J, U, I, P) ATON_##S##_DST_OFFSET(J, ATON_##S##_##J##_DST##U##_##I##
  31:Lib/AI_Runtime/Npu/ll_aton/ll_aton.c **** 
  32:Lib/AI_Runtime/Npu/ll_aton/ll_aton.c **** #ifdef ATON_CONVACC_NUM
  33:Lib/AI_Runtime/Npu/ll_aton/ll_aton.c **** static uint32_t Conv_ctrl_bits[ATON_CONVACC_NUM]; // this is an hack FIXME !!!
  34:Lib/AI_Runtime/Npu/ll_aton/ll_aton.c **** #endif
  35:Lib/AI_Runtime/Npu/ll_aton/ll_aton.c **** 
  36:Lib/AI_Runtime/Npu/ll_aton/ll_aton.c **** #if (ATON_POOL_VERSION_MAJOR_DT < 1) || ((ATON_POOL_VERSION_MAJOR_DT == 1) && (ATON_POOL_VERSION_MI
  37:Lib/AI_Runtime/Npu/ll_aton/ll_aton.c **** #define POOL_RC14    /* Pooling unit is not yet patched with respect to auto-clearing of `CLR` bit 
  38:Lib/AI_Runtime/Npu/ll_aton/ll_aton.c ****                         reset values */
  39:Lib/AI_Runtime/Npu/ll_aton/ll_aton.c **** #endif
  40:Lib/AI_Runtime/Npu/ll_aton/ll_aton.c **** 
  41:Lib/AI_Runtime/Npu/ll_aton/ll_aton.c **** #define ASSERT_UNITS_VERS_W_MSG(unitname, rtl_unitver)                                             
  42:Lib/AI_Runtime/Npu/ll_aton/ll_aton.c ****   do                                                                                               
  43:Lib/AI_Runtime/Npu/ll_aton/ll_aton.c ****   {                                                                                                
  44:Lib/AI_Runtime/Npu/ll_aton/ll_aton.c ****     rtl_unitver = ATON_##unitname##_VERSION_GET(0);                                                
  45:Lib/AI_Runtime/Npu/ll_aton/ll_aton.c ****   } while (rtl_unitver == 0);                                                                      
  46:Lib/AI_Runtime/Npu/ll_aton/ll_aton.c ****   assertf(ATON_##unitname##_VERSION_GET_TYPE(rtl_unitver) == ATON_##unitname##_VERSION_TYPE_DT &&  
  47:Lib/AI_Runtime/Npu/ll_aton/ll_aton.c ****               ATON_##unitname##_VERSION_GET_MAJOR(rtl_unitver) == ATON_##unitname##_VERSION_MAJOR_D
  48:Lib/AI_Runtime/Npu/ll_aton/ll_aton.c ****               ATON_##unitname##_VERSION_GET_MINOR(rtl_unitver) == ATON_##unitname##_VERSION_MINOR_D
  49:Lib/AI_Runtime/Npu/ll_aton/ll_aton.c ****           0,                                                                                       
  50:Lib/AI_Runtime/Npu/ll_aton/ll_aton.c ****           "%s unit ver mismatch: RTL:t=%" PRIu32 ",ver=%" PRIu32 ".%" PRIu32 "  ATON.h:t=%" PRIu32 
  51:Lib/AI_Runtime/Npu/ll_aton/ll_aton.c ****           ".%" PRIu32 "\n\r",                                                                      
  52:Lib/AI_Runtime/Npu/ll_aton/ll_aton.c ****           #unitname, ATON_##unitname##_VERSION_GET_TYPE(rtl_unitver),                              
  53:Lib/AI_Runtime/Npu/ll_aton/ll_aton.c ****           ATON_##unitname##_VERSION_GET_MAJOR(rtl_unitver), ATON_##unitname##_VERSION_GET_MINOR(rtl
  54:Lib/AI_Runtime/Npu/ll_aton/ll_aton.c ****           (uint32_t)ATON_##unitname##_VERSION_TYPE_DT, (uint32_t)ATON_##unitname##_VERSION_MAJOR_DT
  55:Lib/AI_Runtime/Npu/ll_aton/ll_aton.c ****           (uint32_t)ATON_##unitname##_VERSION_MINOR_DT)
  56:Lib/AI_Runtime/Npu/ll_aton/ll_aton.c **** 
  57:Lib/AI_Runtime/Npu/ll_aton/ll_aton.c **** /** @defgroup Simple watchdog management functions.
  58:Lib/AI_Runtime/Npu/ll_aton/ll_aton.c ****  *  Used to exit from LL_Streng_Wait() in case epoch locks
  59:Lib/AI_Runtime/Npu/ll_aton/ll_aton.c ****  * @{
  60:Lib/AI_Runtime/Npu/ll_aton/ll_aton.c ****  */
  61:Lib/AI_Runtime/Npu/ll_aton/ll_aton.c **** 
  62:Lib/AI_Runtime/Npu/ll_aton/ll_aton.c **** static inline void ll_aton_static_checks(void)
  63:Lib/AI_Runtime/Npu/ll_aton/ll_aton.c **** {
  64:Lib/AI_Runtime/Npu/ll_aton/ll_aton.c ****   static char done = 0;
  65:Lib/AI_Runtime/Npu/ll_aton/ll_aton.c **** 
  66:Lib/AI_Runtime/Npu/ll_aton/ll_aton.c ****   if (done != 0)
  67:Lib/AI_Runtime/Npu/ll_aton/ll_aton.c ****     return;
  68:Lib/AI_Runtime/Npu/ll_aton/ll_aton.c ****   done = 1;
  69:Lib/AI_Runtime/Npu/ll_aton/ll_aton.c **** 
  70:Lib/AI_Runtime/Npu/ll_aton/ll_aton.c **** #define ASSERT_ATONN_SRCPORT(S, J, U, I, P)                                                        
  71:Lib/AI_Runtime/Npu/ll_aton/ll_aton.c ****   LL_ATON_ASSERT(ATONN_CONST_SRCPORT(S, J, U, I, P) == __atonn_getSrcPortID(S, J, U, I, P))
  72:Lib/AI_Runtime/Npu/ll_aton/ll_aton.c **** #define ASSERT_ATONN_DSTPORT(S, J, U, I, P)                                                        
  73:Lib/AI_Runtime/Npu/ll_aton/ll_aton.c ****   LL_ATON_ASSERT(ATONN_CONST_DSTPORT(S, J, U, I, P) == __atonn_getDstPortID(S, J, U, I, P))
  74:Lib/AI_Runtime/Npu/ll_aton/ll_aton.c **** 
  75:Lib/AI_Runtime/Npu/ll_aton/ll_aton.c **** #if ATON_STRENG_NUM > 1
  76:Lib/AI_Runtime/Npu/ll_aton/ll_aton.c ****   ASSERT_ATONN_SRCPORT(STRSWITCH, 0, STRENG, 1, 0);
  77:Lib/AI_Runtime/Npu/ll_aton/ll_aton.c ****   ASSERT_ATONN_DSTPORT(STRSWITCH, 0, STRENG, 1, 0);
  78:Lib/AI_Runtime/Npu/ll_aton/ll_aton.c **** #endif
  79:Lib/AI_Runtime/Npu/ll_aton/ll_aton.c **** #if ATON_STRENG_NUM > 2
  80:Lib/AI_Runtime/Npu/ll_aton/ll_aton.c ****   ASSERT_ATONN_SRCPORT(STRSWITCH, 0, STRENG, 2, 0);
  81:Lib/AI_Runtime/Npu/ll_aton/ll_aton.c ****   ASSERT_ATONN_DSTPORT(STRSWITCH, 0, STRENG, 2, 0);
  82:Lib/AI_Runtime/Npu/ll_aton/ll_aton.c **** #endif
ARM GAS  /tmp/ccgbPSBw.s 			page 3


  83:Lib/AI_Runtime/Npu/ll_aton/ll_aton.c **** 
  84:Lib/AI_Runtime/Npu/ll_aton/ll_aton.c **** #if (LL_ATON_PLATFORM == LL_ATON_PLAT_EC_TRACE)
  85:Lib/AI_Runtime/Npu/ll_aton/ll_aton.c **** 
  86:Lib/AI_Runtime/Npu/ll_aton/ll_aton.c **** #if ATON_CONVACC_NUM > 1
  87:Lib/AI_Runtime/Npu/ll_aton/ll_aton.c ****   ASSERT_ATONN_SRCPORT(STRSWITCH, 0, CONVACC, 1, 0);
  88:Lib/AI_Runtime/Npu/ll_aton/ll_aton.c ****   ASSERT_ATONN_DSTPORT(STRSWITCH, 0, CONVACC, 1, 0);
  89:Lib/AI_Runtime/Npu/ll_aton/ll_aton.c ****   ASSERT_ATONN_DSTPORT(STRSWITCH, 0, CONVACC, 1, 1);
  90:Lib/AI_Runtime/Npu/ll_aton/ll_aton.c ****   ASSERT_ATONN_DSTPORT(STRSWITCH, 0, CONVACC, 1, 2);
  91:Lib/AI_Runtime/Npu/ll_aton/ll_aton.c **** #endif
  92:Lib/AI_Runtime/Npu/ll_aton/ll_aton.c **** 
  93:Lib/AI_Runtime/Npu/ll_aton/ll_aton.c **** #if ATON_CONVACC_NUM > 2
  94:Lib/AI_Runtime/Npu/ll_aton/ll_aton.c ****   ASSERT_ATONN_SRCPORT(STRSWITCH, 0, CONVACC, 2, 0);
  95:Lib/AI_Runtime/Npu/ll_aton/ll_aton.c ****   ASSERT_ATONN_DSTPORT(STRSWITCH, 0, CONVACC, 2, 0);
  96:Lib/AI_Runtime/Npu/ll_aton/ll_aton.c ****   ASSERT_ATONN_DSTPORT(STRSWITCH, 0, CONVACC, 2, 1);
  97:Lib/AI_Runtime/Npu/ll_aton/ll_aton.c ****   ASSERT_ATONN_DSTPORT(STRSWITCH, 0, CONVACC, 2, 2);
  98:Lib/AI_Runtime/Npu/ll_aton/ll_aton.c **** #endif
  99:Lib/AI_Runtime/Npu/ll_aton/ll_aton.c **** 
 100:Lib/AI_Runtime/Npu/ll_aton/ll_aton.c **** #if ATON_POOL_NUM > 1
 101:Lib/AI_Runtime/Npu/ll_aton/ll_aton.c ****   ASSERT_ATONN_SRCPORT(STRSWITCH, 0, POOL, 1, 0);
 102:Lib/AI_Runtime/Npu/ll_aton/ll_aton.c ****   ASSERT_ATONN_DSTPORT(STRSWITCH, 0, POOL, 1, 0);
 103:Lib/AI_Runtime/Npu/ll_aton/ll_aton.c **** #endif
 104:Lib/AI_Runtime/Npu/ll_aton/ll_aton.c **** 
 105:Lib/AI_Runtime/Npu/ll_aton/ll_aton.c **** #if ATON_ARITH_NUM > 1
 106:Lib/AI_Runtime/Npu/ll_aton/ll_aton.c ****   ASSERT_ATONN_SRCPORT(STRSWITCH, 0, ARITH, 1, 0);
 107:Lib/AI_Runtime/Npu/ll_aton/ll_aton.c ****   ASSERT_ATONN_DSTPORT(STRSWITCH, 0, ARITH, 1, 0);
 108:Lib/AI_Runtime/Npu/ll_aton/ll_aton.c ****   ASSERT_ATONN_DSTPORT(STRSWITCH, 0, ARITH, 1, 1);
 109:Lib/AI_Runtime/Npu/ll_aton/ll_aton.c **** #endif
 110:Lib/AI_Runtime/Npu/ll_aton/ll_aton.c **** 
 111:Lib/AI_Runtime/Npu/ll_aton/ll_aton.c **** #if ATON_ACTIV_NUM > 1
 112:Lib/AI_Runtime/Npu/ll_aton/ll_aton.c ****   ASSERT_ATONN_SRCPORT(STRSWITCH, 0, ACTIV, 1, 0);
 113:Lib/AI_Runtime/Npu/ll_aton/ll_aton.c ****   ASSERT_ATONN_DSTPORT(STRSWITCH, 0, ACTIV, 1, 0);
 114:Lib/AI_Runtime/Npu/ll_aton/ll_aton.c **** #endif
 115:Lib/AI_Runtime/Npu/ll_aton/ll_aton.c **** 
 116:Lib/AI_Runtime/Npu/ll_aton/ll_aton.c **** #if ATON_DECUN_NUM > 1
 117:Lib/AI_Runtime/Npu/ll_aton/ll_aton.c ****   ASSERT_ATONN_SRCPORT(STRSWITCH, 0, DECUN, 1, 0);
 118:Lib/AI_Runtime/Npu/ll_aton/ll_aton.c ****   ASSERT_ATONN_DSTPORT(STRSWITCH, 0, DECUN, 1, 0);
 119:Lib/AI_Runtime/Npu/ll_aton/ll_aton.c ****   ASSERT_ATONN_DSTPORT(STRSWITCH, 0, DECUN, 1, 1);
 120:Lib/AI_Runtime/Npu/ll_aton/ll_aton.c **** #endif
 121:Lib/AI_Runtime/Npu/ll_aton/ll_aton.c **** 
 122:Lib/AI_Runtime/Npu/ll_aton/ll_aton.c **** #endif // (LL_ATON_PLATFORM == LL_ATON_PLAT_EC_TRACE)
 123:Lib/AI_Runtime/Npu/ll_aton/ll_aton.c **** 
 124:Lib/AI_Runtime/Npu/ll_aton/ll_aton.c **** #undef ASSERT_ATONN_SRCPORT
 125:Lib/AI_Runtime/Npu/ll_aton/ll_aton.c **** #undef ASSERT_ATONN_DSTPORT
 126:Lib/AI_Runtime/Npu/ll_aton/ll_aton.c **** }
 127:Lib/AI_Runtime/Npu/ll_aton/ll_aton.c **** 
 128:Lib/AI_Runtime/Npu/ll_aton/ll_aton.c **** unsigned char *LL_Address_Physical2Virtual(unsigned char *address)
 129:Lib/AI_Runtime/Npu/ll_aton/ll_aton.c **** {
 130:Lib/AI_Runtime/Npu/ll_aton/ll_aton.c ****   return ATON_LIB_PHYSICAL_TO_VIRTUAL_ADDR(address);
 131:Lib/AI_Runtime/Npu/ll_aton/ll_aton.c **** }
 132:Lib/AI_Runtime/Npu/ll_aton/ll_aton.c **** 
 133:Lib/AI_Runtime/Npu/ll_aton/ll_aton.c **** unsigned char *LL_Address_Virtual2Physical(unsigned char *address)
 134:Lib/AI_Runtime/Npu/ll_aton/ll_aton.c **** {
 135:Lib/AI_Runtime/Npu/ll_aton/ll_aton.c ****   return ATON_LIB_VIRTUAL_TO_PHYSICAL_ADDR(address);
 136:Lib/AI_Runtime/Npu/ll_aton/ll_aton.c **** }
 137:Lib/AI_Runtime/Npu/ll_aton/ll_aton.c **** 
 138:Lib/AI_Runtime/Npu/ll_aton/ll_aton.c **** /**
 139:Lib/AI_Runtime/Npu/ll_aton/ll_aton.c ****  * @brief Starts watchdog
ARM GAS  /tmp/ccgbPSBw.s 			page 4


 140:Lib/AI_Runtime/Npu/ll_aton/ll_aton.c ****  * @param timeout Watchdog timeout in cycles
 141:Lib/AI_Runtime/Npu/ll_aton/ll_aton.c ****  * @retval ATON Error code
 142:Lib/AI_Runtime/Npu/ll_aton/ll_aton.c ****  */
 143:Lib/AI_Runtime/Npu/ll_aton/ll_aton.c **** LL_ATON_WEAK int startWatchdog(uint32_t timeout)
 144:Lib/AI_Runtime/Npu/ll_aton/ll_aton.c **** {
 145:Lib/AI_Runtime/Npu/ll_aton/ll_aton.c ****   (void)timeout;
 146:Lib/AI_Runtime/Npu/ll_aton/ll_aton.c **** 
 147:Lib/AI_Runtime/Npu/ll_aton/ll_aton.c ****   return 0;
 148:Lib/AI_Runtime/Npu/ll_aton/ll_aton.c **** }
 149:Lib/AI_Runtime/Npu/ll_aton/ll_aton.c **** 
 150:Lib/AI_Runtime/Npu/ll_aton/ll_aton.c **** /**
 151:Lib/AI_Runtime/Npu/ll_aton/ll_aton.c ****  * @brief Checkes whether watchdog has expired or not
 152:Lib/AI_Runtime/Npu/ll_aton/ll_aton.c ****  * @retval ATON Error code
 153:Lib/AI_Runtime/Npu/ll_aton/ll_aton.c ****  */
 154:Lib/AI_Runtime/Npu/ll_aton/ll_aton.c **** LL_ATON_WEAK int checkWatchdog(void)
 155:Lib/AI_Runtime/Npu/ll_aton/ll_aton.c **** {
 156:Lib/AI_Runtime/Npu/ll_aton/ll_aton.c ****   return 0;
 157:Lib/AI_Runtime/Npu/ll_aton/ll_aton.c **** }
 158:Lib/AI_Runtime/Npu/ll_aton/ll_aton.c **** 
 159:Lib/AI_Runtime/Npu/ll_aton/ll_aton.c **** /**
 160:Lib/AI_Runtime/Npu/ll_aton/ll_aton.c ****  * @}
 161:Lib/AI_Runtime/Npu/ll_aton/ll_aton.c ****  */
 162:Lib/AI_Runtime/Npu/ll_aton/ll_aton.c **** 
 163:Lib/AI_Runtime/Npu/ll_aton/ll_aton.c **** /**
 164:Lib/AI_Runtime/Npu/ll_aton/ll_aton.c ****  * @brief  ATON global initialization. Initializes clocks and bus interfaces. Must be called before
 165:Lib/AI_Runtime/Npu/ll_aton/ll_aton.c ****  * @retval Always zero
 166:Lib/AI_Runtime/Npu/ll_aton/ll_aton.c ****  */
 167:Lib/AI_Runtime/Npu/ll_aton/ll_aton.c **** int LL_ATON_Init(void)
 168:Lib/AI_Runtime/Npu/ll_aton/ll_aton.c **** {
 169:Lib/AI_Runtime/Npu/ll_aton/ll_aton.c ****   uint32_t t;
 170:Lib/AI_Runtime/Npu/ll_aton/ll_aton.c ****   int i;
 171:Lib/AI_Runtime/Npu/ll_aton/ll_aton.c **** 
 172:Lib/AI_Runtime/Npu/ll_aton/ll_aton.c ****   ll_aton_static_checks();
 173:Lib/AI_Runtime/Npu/ll_aton/ll_aton.c **** 
 174:Lib/AI_Runtime/Npu/ll_aton/ll_aton.c ****   /* Clear pipeline */
 175:Lib/AI_Runtime/Npu/ll_aton/ll_aton.c ****   t = ATON_CLKCTRL_CTRL_GET(0);
 176:Lib/AI_Runtime/Npu/ll_aton/ll_aton.c ****   t = ATON_CLKCTRL_CTRL_SET_CLR(t, 1);
 177:Lib/AI_Runtime/Npu/ll_aton/ll_aton.c ****   ATON_CLKCTRL_CTRL_SET(0, t);
 178:Lib/AI_Runtime/Npu/ll_aton/ll_aton.c **** 
 179:Lib/AI_Runtime/Npu/ll_aton/ll_aton.c ****   /* Enable all ATON clocks */
 180:Lib/AI_Runtime/Npu/ll_aton/ll_aton.c ****   ATON_CLKCTRL_CTRL_SET(0, 1);
 181:Lib/AI_Runtime/Npu/ll_aton/ll_aton.c ****   ATON_CLKCTRL_AGATES0_SET(0, 0xffffffff);
 182:Lib/AI_Runtime/Npu/ll_aton/ll_aton.c ****   ATON_CLKCTRL_AGATES1_SET(0, 0xffffffff);
 183:Lib/AI_Runtime/Npu/ll_aton/ll_aton.c **** 
 184:Lib/AI_Runtime/Npu/ll_aton/ll_aton.c **** #if (LL_ATON_ENABLE_CLOCK_GATING == 1)
 185:Lib/AI_Runtime/Npu/ll_aton/ll_aton.c **** #if (LL_ATON_PLATFORM == LL_ATON_PLAT_EC_TRACE)
 186:Lib/AI_Runtime/Npu/ll_aton/ll_aton.c ****   ATON_CLKCTRL_BGATES_SET(0, (1 << ATON_EPOCHCTRL_CLKB_CLK(0)));
 187:Lib/AI_Runtime/Npu/ll_aton/ll_aton.c **** #else
 188:Lib/AI_Runtime/Npu/ll_aton/ll_aton.c ****   ATON_CLKCTRL_BGATES_SET(0, 0x0);
 189:Lib/AI_Runtime/Npu/ll_aton/ll_aton.c **** #endif
 190:Lib/AI_Runtime/Npu/ll_aton/ll_aton.c **** #else
 191:Lib/AI_Runtime/Npu/ll_aton/ll_aton.c ****   ATON_CLKCTRL_BGATES_SET(0, 0xffffffff);
 192:Lib/AI_Runtime/Npu/ll_aton/ll_aton.c **** #endif
 193:Lib/AI_Runtime/Npu/ll_aton/ll_aton.c **** 
 194:Lib/AI_Runtime/Npu/ll_aton/ll_aton.c **** #ifdef ATON_CLKCTRL_BGATES1_OFFSET
 195:Lib/AI_Runtime/Npu/ll_aton/ll_aton.c ****   ATON_CLKCTRL_BGATES1_SET(0, 0xffffffff);
 196:Lib/AI_Runtime/Npu/ll_aton/ll_aton.c **** #endif
ARM GAS  /tmp/ccgbPSBw.s 			page 5


 197:Lib/AI_Runtime/Npu/ll_aton/ll_aton.c **** 
 198:Lib/AI_Runtime/Npu/ll_aton/ll_aton.c ****   /* Check that RTL and ATON.h match. Only check first unit */
 199:Lib/AI_Runtime/Npu/ll_aton/ll_aton.c ****   ASSERT_UNITS_VERS_W_MSG(STRENG, t);
 200:Lib/AI_Runtime/Npu/ll_aton/ll_aton.c **** 
 201:Lib/AI_Runtime/Npu/ll_aton/ll_aton.c **** #ifdef ATON_CONVACC_NUM
 202:Lib/AI_Runtime/Npu/ll_aton/ll_aton.c ****   ASSERT_UNITS_VERS_W_MSG(CONVACC, t);
 203:Lib/AI_Runtime/Npu/ll_aton/ll_aton.c **** #endif
 204:Lib/AI_Runtime/Npu/ll_aton/ll_aton.c **** 
 205:Lib/AI_Runtime/Npu/ll_aton/ll_aton.c **** #ifdef ATON_POOL_NUM
 206:Lib/AI_Runtime/Npu/ll_aton/ll_aton.c ****   ASSERT_UNITS_VERS_W_MSG(POOL, t);
 207:Lib/AI_Runtime/Npu/ll_aton/ll_aton.c **** #endif
 208:Lib/AI_Runtime/Npu/ll_aton/ll_aton.c **** 
 209:Lib/AI_Runtime/Npu/ll_aton/ll_aton.c **** #ifdef ATON_ARITH_NUM
 210:Lib/AI_Runtime/Npu/ll_aton/ll_aton.c ****   ASSERT_UNITS_VERS_W_MSG(ARITH, t);
 211:Lib/AI_Runtime/Npu/ll_aton/ll_aton.c **** #endif
 212:Lib/AI_Runtime/Npu/ll_aton/ll_aton.c **** 
 213:Lib/AI_Runtime/Npu/ll_aton/ll_aton.c **** #ifdef ATON_ACTIV_NUM
 214:Lib/AI_Runtime/Npu/ll_aton/ll_aton.c ****   ASSERT_UNITS_VERS_W_MSG(ACTIV, t);
 215:Lib/AI_Runtime/Npu/ll_aton/ll_aton.c **** #endif
 216:Lib/AI_Runtime/Npu/ll_aton/ll_aton.c **** 
 217:Lib/AI_Runtime/Npu/ll_aton/ll_aton.c **** #ifdef ATON_DECUN_NUM
 218:Lib/AI_Runtime/Npu/ll_aton/ll_aton.c ****   ASSERT_UNITS_VERS_W_MSG(DECUN, t);
 219:Lib/AI_Runtime/Npu/ll_aton/ll_aton.c **** #endif
 220:Lib/AI_Runtime/Npu/ll_aton/ll_aton.c **** 
 221:Lib/AI_Runtime/Npu/ll_aton/ll_aton.c **** #ifdef ATON_EPOCHCTRL_VERSION_TYPE_DT
 222:Lib/AI_Runtime/Npu/ll_aton/ll_aton.c ****   ASSERT_UNITS_VERS_W_MSG(EPOCHCTRL, t);
 223:Lib/AI_Runtime/Npu/ll_aton/ll_aton.c **** #endif
 224:Lib/AI_Runtime/Npu/ll_aton/ll_aton.c **** 
 225:Lib/AI_Runtime/Npu/ll_aton/ll_aton.c **** #ifdef ATON_RECBUF_VERSION_TYPE_DT
 226:Lib/AI_Runtime/Npu/ll_aton/ll_aton.c ****   ASSERT_UNITS_VERS_W_MSG(RECBUF, t);
 227:Lib/AI_Runtime/Npu/ll_aton/ll_aton.c **** #endif
 228:Lib/AI_Runtime/Npu/ll_aton/ll_aton.c **** 
 229:Lib/AI_Runtime/Npu/ll_aton/ll_aton.c **** #ifdef ATON_STRENG64_NUM
 230:Lib/AI_Runtime/Npu/ll_aton/ll_aton.c ****   ASSERT_UNITS_VERS_W_MSG(STRENG64, t);
 231:Lib/AI_Runtime/Npu/ll_aton/ll_aton.c **** #endif
 232:Lib/AI_Runtime/Npu/ll_aton/ll_aton.c **** 
 233:Lib/AI_Runtime/Npu/ll_aton/ll_aton.c **** #ifdef ATON_STRSWITCH64_NUM
 234:Lib/AI_Runtime/Npu/ll_aton/ll_aton.c ****   ASSERT_UNITS_VERS_W_MSG(STRSWITCH64, t);
 235:Lib/AI_Runtime/Npu/ll_aton/ll_aton.c **** #endif
 236:Lib/AI_Runtime/Npu/ll_aton/ll_aton.c **** 
 237:Lib/AI_Runtime/Npu/ll_aton/ll_aton.c **** #ifdef ATON_STRSWITCH_VC_NUM
 238:Lib/AI_Runtime/Npu/ll_aton/ll_aton.c ****   ASSERT_UNITS_VERS_W_MSG(STRSWITCH_VC, t);
 239:Lib/AI_Runtime/Npu/ll_aton/ll_aton.c **** #endif
 240:Lib/AI_Runtime/Npu/ll_aton/ll_aton.c **** 
 241:Lib/AI_Runtime/Npu/ll_aton/ll_aton.c **** #ifdef ATON_IMC_NUM
 242:Lib/AI_Runtime/Npu/ll_aton/ll_aton.c ****   ASSERT_UNITS_VERS_W_MSG(IMC, t);
 243:Lib/AI_Runtime/Npu/ll_aton/ll_aton.c **** #endif
 244:Lib/AI_Runtime/Npu/ll_aton/ll_aton.c **** 
 245:Lib/AI_Runtime/Npu/ll_aton/ll_aton.c ****   ASSERT_UNITS_VERS_W_MSG(CLKCTRL, t);
 246:Lib/AI_Runtime/Npu/ll_aton/ll_aton.c **** 
 247:Lib/AI_Runtime/Npu/ll_aton/ll_aton.c ****   ASSERT_UNITS_VERS_W_MSG(INTCTRL, t);
 248:Lib/AI_Runtime/Npu/ll_aton/ll_aton.c **** 
 249:Lib/AI_Runtime/Npu/ll_aton/ll_aton.c ****   ASSERT_UNITS_VERS_W_MSG(STRSWITCH, t);
 250:Lib/AI_Runtime/Npu/ll_aton/ll_aton.c **** 
 251:Lib/AI_Runtime/Npu/ll_aton/ll_aton.c ****   ASSERT_UNITS_VERS_W_MSG(BUSIF, t);
 252:Lib/AI_Runtime/Npu/ll_aton/ll_aton.c **** 
 253:Lib/AI_Runtime/Npu/ll_aton/ll_aton.c ****   /* Enable Bus Interfaces */
ARM GAS  /tmp/ccgbPSBw.s 			page 6


 254:Lib/AI_Runtime/Npu/ll_aton/ll_aton.c ****   for (i = 0; i < ATON_BUSIF_NUM; i++)
 255:Lib/AI_Runtime/Npu/ll_aton/ll_aton.c ****   {
 256:Lib/AI_Runtime/Npu/ll_aton/ll_aton.c ****     ATON_BUSIF_CTRL_SET(i, 1);
 257:Lib/AI_Runtime/Npu/ll_aton/ll_aton.c ****   }
 258:Lib/AI_Runtime/Npu/ll_aton/ll_aton.c **** 
 259:Lib/AI_Runtime/Npu/ll_aton/ll_aton.c ****   /* Enable Interrupt Controller */
 260:Lib/AI_Runtime/Npu/ll_aton/ll_aton.c ****   ATON_INTCTRL_CTRL_SET(0, 1);
 261:Lib/AI_Runtime/Npu/ll_aton/ll_aton.c **** 
 262:Lib/AI_Runtime/Npu/ll_aton/ll_aton.c ****   return 0;
 263:Lib/AI_Runtime/Npu/ll_aton/ll_aton.c **** }
 264:Lib/AI_Runtime/Npu/ll_aton/ll_aton.c **** 
 265:Lib/AI_Runtime/Npu/ll_aton/ll_aton.c **** /**
 266:Lib/AI_Runtime/Npu/ll_aton/ll_aton.c ****  * @brief  ATON global de-initialization. Must be called at the very end
 267:Lib/AI_Runtime/Npu/ll_aton/ll_aton.c ****  * @retval Always zero
 268:Lib/AI_Runtime/Npu/ll_aton/ll_aton.c ****  */
 269:Lib/AI_Runtime/Npu/ll_aton/ll_aton.c **** int LL_ATON_DeInit(void)
 270:Lib/AI_Runtime/Npu/ll_aton/ll_aton.c **** {
 271:Lib/AI_Runtime/Npu/ll_aton/ll_aton.c ****   int i;
 272:Lib/AI_Runtime/Npu/ll_aton/ll_aton.c **** 
 273:Lib/AI_Runtime/Npu/ll_aton/ll_aton.c ****   /* Disable Interrupt Controller */
 274:Lib/AI_Runtime/Npu/ll_aton/ll_aton.c ****   ATON_INTCTRL_CTRL_SET(0, 0);
 275:Lib/AI_Runtime/Npu/ll_aton/ll_aton.c **** 
 276:Lib/AI_Runtime/Npu/ll_aton/ll_aton.c ****   /* Disable Bus Interfaces */
 277:Lib/AI_Runtime/Npu/ll_aton/ll_aton.c ****   for (i = 0; i < ATON_BUSIF_NUM; i++)
 278:Lib/AI_Runtime/Npu/ll_aton/ll_aton.c ****   {
 279:Lib/AI_Runtime/Npu/ll_aton/ll_aton.c ****     ATON_BUSIF_CTRL_SET(i, 0);
 280:Lib/AI_Runtime/Npu/ll_aton/ll_aton.c ****   }
 281:Lib/AI_Runtime/Npu/ll_aton/ll_aton.c **** 
 282:Lib/AI_Runtime/Npu/ll_aton/ll_aton.c ****   /* Disable all ATON clocks */
 283:Lib/AI_Runtime/Npu/ll_aton/ll_aton.c ****   ATON_CLKCTRL_AGATES0_SET(0, 0);
 284:Lib/AI_Runtime/Npu/ll_aton/ll_aton.c ****   ATON_CLKCTRL_AGATES1_SET(0, 0);
 285:Lib/AI_Runtime/Npu/ll_aton/ll_aton.c ****   ATON_CLKCTRL_BGATES_SET(0, 0);
 286:Lib/AI_Runtime/Npu/ll_aton/ll_aton.c **** #ifdef ATON_CLKCTRL_BGATES1_OFFSET
 287:Lib/AI_Runtime/Npu/ll_aton/ll_aton.c ****   ATON_CLKCTRL_BGATES1_SET(0, 0);
 288:Lib/AI_Runtime/Npu/ll_aton/ll_aton.c **** #endif
 289:Lib/AI_Runtime/Npu/ll_aton/ll_aton.c ****   ATON_CLKCTRL_CTRL_SET(0, 0);
 290:Lib/AI_Runtime/Npu/ll_aton/ll_aton.c **** 
 291:Lib/AI_Runtime/Npu/ll_aton/ll_aton.c ****   return 0;
 292:Lib/AI_Runtime/Npu/ll_aton/ll_aton.c **** }
 293:Lib/AI_Runtime/Npu/ll_aton/ll_aton.c **** 
 294:Lib/AI_Runtime/Npu/ll_aton/ll_aton.c **** /**
 295:Lib/AI_Runtime/Npu/ll_aton/ll_aton.c ****  * @brief  Enables a set of ATON units
 296:Lib/AI_Runtime/Npu/ll_aton/ll_aton.c ****  * @param  LL_ATON_EnableUnits_InitStruct Array of units to enable
 297:Lib/AI_Runtime/Npu/ll_aton/ll_aton.c ****  * @param  n Lenght of the initialization array
 298:Lib/AI_Runtime/Npu/ll_aton/ll_aton.c ****  * @retval Error code
 299:Lib/AI_Runtime/Npu/ll_aton/ll_aton.c ****  * @todo   Add boundary checks
 300:Lib/AI_Runtime/Npu/ll_aton/ll_aton.c ****  */
 301:Lib/AI_Runtime/Npu/ll_aton/ll_aton.c **** int LL_ATON_EnableUnits_Init(const LL_ATON_EnableUnits_InitTypeDef *LL_ATON_EnableUnits_InitStruct,
 302:Lib/AI_Runtime/Npu/ll_aton/ll_aton.c **** {
 303:Lib/AI_Runtime/Npu/ll_aton/ll_aton.c ****   int i;
 304:Lib/AI_Runtime/Npu/ll_aton/ll_aton.c ****   enum AccelUnitsType unitType;
 305:Lib/AI_Runtime/Npu/ll_aton/ll_aton.c ****   uint32_t unitId;
 306:Lib/AI_Runtime/Npu/ll_aton/ll_aton.c **** 
 307:Lib/AI_Runtime/Npu/ll_aton/ll_aton.c ****   for (i = 0; i < n; i++)
 308:Lib/AI_Runtime/Npu/ll_aton/ll_aton.c ****   {
 309:Lib/AI_Runtime/Npu/ll_aton/ll_aton.c ****     unitType = LL_ATON_EnableUnits_InitStruct[i].unit.unit_type;
 310:Lib/AI_Runtime/Npu/ll_aton/ll_aton.c ****     unitId = LL_ATON_EnableUnits_InitStruct[i].unit.unit_num;
ARM GAS  /tmp/ccgbPSBw.s 			page 7


 311:Lib/AI_Runtime/Npu/ll_aton/ll_aton.c **** 
 312:Lib/AI_Runtime/Npu/ll_aton/ll_aton.c ****     switch (unitType)
 313:Lib/AI_Runtime/Npu/ll_aton/ll_aton.c ****     {
 314:Lib/AI_Runtime/Npu/ll_aton/ll_aton.c ****     case STRENG:
 315:Lib/AI_Runtime/Npu/ll_aton/ll_aton.c ****       ATON_ENABLE(STRENG, unitId);
 316:Lib/AI_Runtime/Npu/ll_aton/ll_aton.c ****       break;
 317:Lib/AI_Runtime/Npu/ll_aton/ll_aton.c **** 
 318:Lib/AI_Runtime/Npu/ll_aton/ll_aton.c **** #ifdef ATON_STRENG64_NUM
 319:Lib/AI_Runtime/Npu/ll_aton/ll_aton.c ****     case STRENG64:
 320:Lib/AI_Runtime/Npu/ll_aton/ll_aton.c ****       ATON_ENABLE(STRENG64, unitId);
 321:Lib/AI_Runtime/Npu/ll_aton/ll_aton.c ****       break;
 322:Lib/AI_Runtime/Npu/ll_aton/ll_aton.c **** #endif
 323:Lib/AI_Runtime/Npu/ll_aton/ll_aton.c **** 
 324:Lib/AI_Runtime/Npu/ll_aton/ll_aton.c **** #ifdef ATON_CONVACC_NUM
 325:Lib/AI_Runtime/Npu/ll_aton/ll_aton.c ****     case CONVACC:
 326:Lib/AI_Runtime/Npu/ll_aton/ll_aton.c **** #if 0
 327:Lib/AI_Runtime/Npu/ll_aton/ll_aton.c ****       ATON_ENABLE(CONVACC, unitId);
 328:Lib/AI_Runtime/Npu/ll_aton/ll_aton.c **** #else
 329:Lib/AI_Runtime/Npu/ll_aton/ll_aton.c ****       ATON_CONVACC_CTRL_SET(unitId, ATON_CONVACC_CTRL_SET_EN(Conv_ctrl_bits[unitId], 1));
 330:Lib/AI_Runtime/Npu/ll_aton/ll_aton.c **** #endif
 331:Lib/AI_Runtime/Npu/ll_aton/ll_aton.c ****       break;
 332:Lib/AI_Runtime/Npu/ll_aton/ll_aton.c **** #endif
 333:Lib/AI_Runtime/Npu/ll_aton/ll_aton.c **** 
 334:Lib/AI_Runtime/Npu/ll_aton/ll_aton.c **** #ifdef ATON_DECUN_NUM
 335:Lib/AI_Runtime/Npu/ll_aton/ll_aton.c ****     case DECUN:
 336:Lib/AI_Runtime/Npu/ll_aton/ll_aton.c ****       ATON_ENABLE(DECUN, unitId);
 337:Lib/AI_Runtime/Npu/ll_aton/ll_aton.c ****       break;
 338:Lib/AI_Runtime/Npu/ll_aton/ll_aton.c **** #endif
 339:Lib/AI_Runtime/Npu/ll_aton/ll_aton.c **** 
 340:Lib/AI_Runtime/Npu/ll_aton/ll_aton.c **** #ifdef ATON_ACTIV_NUM
 341:Lib/AI_Runtime/Npu/ll_aton/ll_aton.c ****     case ACTIV:
 342:Lib/AI_Runtime/Npu/ll_aton/ll_aton.c ****       ATON_ENABLE(ACTIV, unitId);
 343:Lib/AI_Runtime/Npu/ll_aton/ll_aton.c ****       break;
 344:Lib/AI_Runtime/Npu/ll_aton/ll_aton.c **** #endif
 345:Lib/AI_Runtime/Npu/ll_aton/ll_aton.c **** 
 346:Lib/AI_Runtime/Npu/ll_aton/ll_aton.c **** #ifdef ATON_ARITH_NUM
 347:Lib/AI_Runtime/Npu/ll_aton/ll_aton.c ****     case ARITH:
 348:Lib/AI_Runtime/Npu/ll_aton/ll_aton.c ****       ATON_ENABLE(ARITH, unitId);
 349:Lib/AI_Runtime/Npu/ll_aton/ll_aton.c ****       break;
 350:Lib/AI_Runtime/Npu/ll_aton/ll_aton.c **** #endif
 351:Lib/AI_Runtime/Npu/ll_aton/ll_aton.c **** 
 352:Lib/AI_Runtime/Npu/ll_aton/ll_aton.c **** #ifdef ATON_POOL_NUM
 353:Lib/AI_Runtime/Npu/ll_aton/ll_aton.c ****     case POOL:
 354:Lib/AI_Runtime/Npu/ll_aton/ll_aton.c **** #ifdef POOL_RC14
 355:Lib/AI_Runtime/Npu/ll_aton/ll_aton.c ****       ATON_POOL_CTRL_SET(unitId, ATON_POOL_CTRL_SET_EN(ATON_POOL_CTRL_GET(unitId), 1));
 356:Lib/AI_Runtime/Npu/ll_aton/ll_aton.c **** #else  // !POOL_RC14
 357:Lib/AI_Runtime/Npu/ll_aton/ll_aton.c ****       ATON_ENABLE(POOL, unitId);
 358:Lib/AI_Runtime/Npu/ll_aton/ll_aton.c **** #endif // !POOL_RC14
 359:Lib/AI_Runtime/Npu/ll_aton/ll_aton.c ****       break;
 360:Lib/AI_Runtime/Npu/ll_aton/ll_aton.c **** #endif
 361:Lib/AI_Runtime/Npu/ll_aton/ll_aton.c **** #ifdef ATON_RECBUF_NUM
 362:Lib/AI_Runtime/Npu/ll_aton/ll_aton.c ****     case RECBUF:
 363:Lib/AI_Runtime/Npu/ll_aton/ll_aton.c ****       ATON_ENABLE(RECBUF, unitId);
 364:Lib/AI_Runtime/Npu/ll_aton/ll_aton.c ****       break;
 365:Lib/AI_Runtime/Npu/ll_aton/ll_aton.c **** #endif
 366:Lib/AI_Runtime/Npu/ll_aton/ll_aton.c **** 
 367:Lib/AI_Runtime/Npu/ll_aton/ll_aton.c ****     default:
ARM GAS  /tmp/ccgbPSBw.s 			page 8


 368:Lib/AI_Runtime/Npu/ll_aton/ll_aton.c ****       break;
 369:Lib/AI_Runtime/Npu/ll_aton/ll_aton.c ****     }
 370:Lib/AI_Runtime/Npu/ll_aton/ll_aton.c ****   }
 371:Lib/AI_Runtime/Npu/ll_aton/ll_aton.c **** 
 372:Lib/AI_Runtime/Npu/ll_aton/ll_aton.c ****   return 0;
 373:Lib/AI_Runtime/Npu/ll_aton/ll_aton.c **** }
 374:Lib/AI_Runtime/Npu/ll_aton/ll_aton.c **** 
 375:Lib/AI_Runtime/Npu/ll_aton/ll_aton.c **** /**
 376:Lib/AI_Runtime/Npu/ll_aton/ll_aton.c ****  * @brief  Disables a set of ATON units
 377:Lib/AI_Runtime/Npu/ll_aton/ll_aton.c ****  * @param  LL_ATON_DisableUnits_InitTypeDef Array of units to disable
 378:Lib/AI_Runtime/Npu/ll_aton/ll_aton.c ****  * @param  n Length of the initialization array
 379:Lib/AI_Runtime/Npu/ll_aton/ll_aton.c ****  * @retval Error code
 380:Lib/AI_Runtime/Npu/ll_aton/ll_aton.c ****  */
 381:Lib/AI_Runtime/Npu/ll_aton/ll_aton.c **** int LL_ATON_DisableUnits_Init(const LL_ATON_DisableUnits_InitTypeDef *LL_ATON_DisableUnits_InitStru
 382:Lib/AI_Runtime/Npu/ll_aton/ll_aton.c **** {
 383:Lib/AI_Runtime/Npu/ll_aton/ll_aton.c ****   int i;
 384:Lib/AI_Runtime/Npu/ll_aton/ll_aton.c ****   enum AccelUnitsType unitType;
 385:Lib/AI_Runtime/Npu/ll_aton/ll_aton.c ****   uint32_t unitId;
 386:Lib/AI_Runtime/Npu/ll_aton/ll_aton.c ****   uint32_t t;
 387:Lib/AI_Runtime/Npu/ll_aton/ll_aton.c **** 
 388:Lib/AI_Runtime/Npu/ll_aton/ll_aton.c ****   for (i = 0; i < n; i++)
 389:Lib/AI_Runtime/Npu/ll_aton/ll_aton.c ****   {
 390:Lib/AI_Runtime/Npu/ll_aton/ll_aton.c ****     unitType = LL_ATON_DisableUnits_InitStruct[i].unit.unit_type;
 391:Lib/AI_Runtime/Npu/ll_aton/ll_aton.c ****     unitId = LL_ATON_DisableUnits_InitStruct[i].unit.unit_num;
 392:Lib/AI_Runtime/Npu/ll_aton/ll_aton.c **** 
 393:Lib/AI_Runtime/Npu/ll_aton/ll_aton.c ****     switch (unitType)
 394:Lib/AI_Runtime/Npu/ll_aton/ll_aton.c ****     {
 395:Lib/AI_Runtime/Npu/ll_aton/ll_aton.c **** #ifdef ATON_STRENG_NUM
 396:Lib/AI_Runtime/Npu/ll_aton/ll_aton.c ****     case STRENG:
 397:Lib/AI_Runtime/Npu/ll_aton/ll_aton.c ****       ATON_DISABLE_CLR_CONFCLR(STRENG, unitId);
 398:Lib/AI_Runtime/Npu/ll_aton/ll_aton.c ****       LL_ATON_DisableClock(ATON_STRENG_CLKB_CLK(unitId));
 399:Lib/AI_Runtime/Npu/ll_aton/ll_aton.c ****       break;
 400:Lib/AI_Runtime/Npu/ll_aton/ll_aton.c **** #endif
 401:Lib/AI_Runtime/Npu/ll_aton/ll_aton.c **** 
 402:Lib/AI_Runtime/Npu/ll_aton/ll_aton.c **** #ifdef ATON_CONVACC_NUM
 403:Lib/AI_Runtime/Npu/ll_aton/ll_aton.c ****     case CONVACC:
 404:Lib/AI_Runtime/Npu/ll_aton/ll_aton.c ****       ATON_DISABLE_CLR_CONFCLR(CONVACC, unitId);
 405:Lib/AI_Runtime/Npu/ll_aton/ll_aton.c ****       LL_ATON_DisableClock(ATON_CONVACC_CLKB_CLK(unitId));
 406:Lib/AI_Runtime/Npu/ll_aton/ll_aton.c ****       break;
 407:Lib/AI_Runtime/Npu/ll_aton/ll_aton.c **** #endif
 408:Lib/AI_Runtime/Npu/ll_aton/ll_aton.c **** 
 409:Lib/AI_Runtime/Npu/ll_aton/ll_aton.c **** #ifdef ATON_DECUN_NUM
 410:Lib/AI_Runtime/Npu/ll_aton/ll_aton.c ****     case DECUN:
 411:Lib/AI_Runtime/Npu/ll_aton/ll_aton.c ****       ATON_DISABLE_CLR_CONFCLR(DECUN, unitId);
 412:Lib/AI_Runtime/Npu/ll_aton/ll_aton.c ****       LL_ATON_DisableClock(ATON_DECUN_CLKB_CLK(unitId));
 413:Lib/AI_Runtime/Npu/ll_aton/ll_aton.c ****       break;
 414:Lib/AI_Runtime/Npu/ll_aton/ll_aton.c **** #endif
 415:Lib/AI_Runtime/Npu/ll_aton/ll_aton.c **** 
 416:Lib/AI_Runtime/Npu/ll_aton/ll_aton.c **** #ifdef ATON_ACTIV_NUM
 417:Lib/AI_Runtime/Npu/ll_aton/ll_aton.c ****     case ACTIV:
 418:Lib/AI_Runtime/Npu/ll_aton/ll_aton.c ****       ATON_DISABLE_CLR_CONFCLR(ACTIV, unitId);
 419:Lib/AI_Runtime/Npu/ll_aton/ll_aton.c ****       LL_ATON_DisableClock(ATON_ACTIV_CLKB_CLK(unitId));
 420:Lib/AI_Runtime/Npu/ll_aton/ll_aton.c ****       break;
 421:Lib/AI_Runtime/Npu/ll_aton/ll_aton.c **** #endif
 422:Lib/AI_Runtime/Npu/ll_aton/ll_aton.c **** 
 423:Lib/AI_Runtime/Npu/ll_aton/ll_aton.c **** #ifdef ATON_ARITH_NUM
 424:Lib/AI_Runtime/Npu/ll_aton/ll_aton.c ****     case ARITH:
ARM GAS  /tmp/ccgbPSBw.s 			page 9


 425:Lib/AI_Runtime/Npu/ll_aton/ll_aton.c ****       ATON_DISABLE_CLR_CONFCLR(ARITH, unitId);
 426:Lib/AI_Runtime/Npu/ll_aton/ll_aton.c ****       LL_ATON_DisableClock(ATON_ARITH_CLKB_CLK(unitId));
 427:Lib/AI_Runtime/Npu/ll_aton/ll_aton.c ****       break;
 428:Lib/AI_Runtime/Npu/ll_aton/ll_aton.c **** #endif
 429:Lib/AI_Runtime/Npu/ll_aton/ll_aton.c **** 
 430:Lib/AI_Runtime/Npu/ll_aton/ll_aton.c **** #ifdef ATON_POOL_NUM
 431:Lib/AI_Runtime/Npu/ll_aton/ll_aton.c ****     case POOL:
 432:Lib/AI_Runtime/Npu/ll_aton/ll_aton.c **** #ifdef POOL_RC14
 433:Lib/AI_Runtime/Npu/ll_aton/ll_aton.c ****       ATON_POOL_CTRL_SET(unitId, ATON_POOL_CTRL_SET_EN(ATON_POOL_CTRL_GET(unitId), 0));
 434:Lib/AI_Runtime/Npu/ll_aton/ll_aton.c **** #else  // !POOL_RC14
 435:Lib/AI_Runtime/Npu/ll_aton/ll_aton.c ****       ATON_DISABLE_CLR_CONFCLR(POOL, unitId);
 436:Lib/AI_Runtime/Npu/ll_aton/ll_aton.c **** #endif // !POOL_RC14
 437:Lib/AI_Runtime/Npu/ll_aton/ll_aton.c **** 
 438:Lib/AI_Runtime/Npu/ll_aton/ll_aton.c ****       LL_ATON_DisableClock(ATON_POOL_CLKB_CLK(unitId));
 439:Lib/AI_Runtime/Npu/ll_aton/ll_aton.c ****       break;
 440:Lib/AI_Runtime/Npu/ll_aton/ll_aton.c **** #endif
 441:Lib/AI_Runtime/Npu/ll_aton/ll_aton.c **** 
 442:Lib/AI_Runtime/Npu/ll_aton/ll_aton.c **** #ifdef ATON_RECBUF_NUM
 443:Lib/AI_Runtime/Npu/ll_aton/ll_aton.c ****     case RECBUF:
 444:Lib/AI_Runtime/Npu/ll_aton/ll_aton.c ****       ATON_DISABLE_CLR_CONFCLR(RECBUF, unitId);
 445:Lib/AI_Runtime/Npu/ll_aton/ll_aton.c ****       LL_ATON_DisableClock(ATON_RECBUF_CLKB_CLK(unitId));
 446:Lib/AI_Runtime/Npu/ll_aton/ll_aton.c ****       break;
 447:Lib/AI_Runtime/Npu/ll_aton/ll_aton.c **** #endif
 448:Lib/AI_Runtime/Npu/ll_aton/ll_aton.c **** 
 449:Lib/AI_Runtime/Npu/ll_aton/ll_aton.c ****     default:
 450:Lib/AI_Runtime/Npu/ll_aton/ll_aton.c ****       return LL_ATON_INVALID_PARAM;
 451:Lib/AI_Runtime/Npu/ll_aton/ll_aton.c ****     }
 452:Lib/AI_Runtime/Npu/ll_aton/ll_aton.c ****   }
 453:Lib/AI_Runtime/Npu/ll_aton/ll_aton.c **** 
 454:Lib/AI_Runtime/Npu/ll_aton/ll_aton.c ****   return LL_ATON_OK;
 455:Lib/AI_Runtime/Npu/ll_aton/ll_aton.c **** }
 456:Lib/AI_Runtime/Npu/ll_aton/ll_aton.c **** 
 457:Lib/AI_Runtime/Npu/ll_aton/ll_aton.c **** /**
 458:Lib/AI_Runtime/Npu/ll_aton/ll_aton.c ****  * @brief  Waits for streaming engine(s) to become idle
 459:Lib/AI_Runtime/Npu/ll_aton/ll_aton.c ****  * @param  mask Bitmask of DMA identifiers
 460:Lib/AI_Runtime/Npu/ll_aton/ll_aton.c ****  * @retval Error code
 461:Lib/AI_Runtime/Npu/ll_aton/ll_aton.c ****  */
 462:Lib/AI_Runtime/Npu/ll_aton/ll_aton.c **** int LL_Streng_Wait(uint32_t mask)
 463:Lib/AI_Runtime/Npu/ll_aton/ll_aton.c **** {
 464:Lib/AI_Runtime/Npu/ll_aton/ll_aton.c ****   int i;
 465:Lib/AI_Runtime/Npu/ll_aton/ll_aton.c ****   uint32_t enableFlags;
 466:Lib/AI_Runtime/Npu/ll_aton/ll_aton.c **** 
 467:Lib/AI_Runtime/Npu/ll_aton/ll_aton.c ****   startWatchdog(ATON_EPOCH_TIMEOUT);
 468:Lib/AI_Runtime/Npu/ll_aton/ll_aton.c **** 
 469:Lib/AI_Runtime/Npu/ll_aton/ll_aton.c ****   do
 470:Lib/AI_Runtime/Npu/ll_aton/ll_aton.c ****   {
 471:Lib/AI_Runtime/Npu/ll_aton/ll_aton.c ****     enableFlags = 0;
 472:Lib/AI_Runtime/Npu/ll_aton/ll_aton.c ****     for (i = 0; i < ATON_STRENG_NUM; i++)
 473:Lib/AI_Runtime/Npu/ll_aton/ll_aton.c ****     {
 474:Lib/AI_Runtime/Npu/ll_aton/ll_aton.c ****       if (mask & (1 << i))
 475:Lib/AI_Runtime/Npu/ll_aton/ll_aton.c ****       {
 476:Lib/AI_Runtime/Npu/ll_aton/ll_aton.c ****         enableFlags |= (ATON_STRENG_CTRL_GET(i) & (1U << ATON_STRENG_CTRL_RUNNING_LSB));
 477:Lib/AI_Runtime/Npu/ll_aton/ll_aton.c ****       }
 478:Lib/AI_Runtime/Npu/ll_aton/ll_aton.c ****     }
 479:Lib/AI_Runtime/Npu/ll_aton/ll_aton.c **** 
 480:Lib/AI_Runtime/Npu/ll_aton/ll_aton.c ****     LL_ATON_ASSERT(checkWatchdog() == 0);
 481:Lib/AI_Runtime/Npu/ll_aton/ll_aton.c **** 
ARM GAS  /tmp/ccgbPSBw.s 			page 10


 482:Lib/AI_Runtime/Npu/ll_aton/ll_aton.c ****   } while (enableFlags);
 483:Lib/AI_Runtime/Npu/ll_aton/ll_aton.c **** 
 484:Lib/AI_Runtime/Npu/ll_aton/ll_aton.c ****   return LL_ATON_OK;
 485:Lib/AI_Runtime/Npu/ll_aton/ll_aton.c **** }
 486:Lib/AI_Runtime/Npu/ll_aton/ll_aton.c **** 
 487:Lib/AI_Runtime/Npu/ll_aton/ll_aton.c **** /**
 488:Lib/AI_Runtime/Npu/ll_aton/ll_aton.c ****  * @brief  Configures streaming engine
 489:Lib/AI_Runtime/Npu/ll_aton/ll_aton.c ****  * @param  id Streaming engine identifier [0..ATON_STRENG_NUM-1]
 490:Lib/AI_Runtime/Npu/ll_aton/ll_aton.c ****  * @param  conf Pointer to structure(s) describing initialization parameters
 491:Lib/AI_Runtime/Npu/ll_aton/ll_aton.c ****  * @param  n Number of elements in initialization structure array
 492:Lib/AI_Runtime/Npu/ll_aton/ll_aton.c ****  * @retval error code. E.g.: Invalid ID, invalid parameters, not idle,..
 493:Lib/AI_Runtime/Npu/ll_aton/ll_aton.c ****  */
 494:Lib/AI_Runtime/Npu/ll_aton/ll_aton.c **** int LL_Streng_TensorInit(int id, const LL_Streng_TensorInitTypeDef *conf, int n)
 495:Lib/AI_Runtime/Npu/ll_aton/ll_aton.c **** {
 496:Lib/AI_Runtime/Npu/ll_aton/ll_aton.c ****   uint32_t t;
 497:Lib/AI_Runtime/Npu/ll_aton/ll_aton.c **** 
 498:Lib/AI_Runtime/Npu/ll_aton/ll_aton.c ****   /* deferred register values */
 499:Lib/AI_Runtime/Npu/ll_aton/ll_aton.c ****   uint32_t t_streng_strd = ATON_STRENG_STRD_DT;
 500:Lib/AI_Runtime/Npu/ll_aton/ll_aton.c ****   uint32_t t_streng_cid_cache = ATON_STRENG_CID_CACHE_DT;
 501:Lib/AI_Runtime/Npu/ll_aton/ll_aton.c ****   uint32_t t_streng_event = ATON_STRENG_EVENT_DT;
 502:Lib/AI_Runtime/Npu/ll_aton/ll_aton.c **** 
 503:Lib/AI_Runtime/Npu/ll_aton/ll_aton.c ****   if (id >= ATON_STRENG_NUM)
 504:Lib/AI_Runtime/Npu/ll_aton/ll_aton.c ****     return LL_ATON_INVALID_ID;
 505:Lib/AI_Runtime/Npu/ll_aton/ll_aton.c **** 
 506:Lib/AI_Runtime/Npu/ll_aton/ll_aton.c ****   LL_ATON_EnableClock(ATON_STRENG_CLKB_CLK(id));
 507:Lib/AI_Runtime/Npu/ll_aton/ll_aton.c **** 
 508:Lib/AI_Runtime/Npu/ll_aton/ll_aton.c **** #define _LL_min(x, y) ((x) > (y) ? (y) : (x))
 509:Lib/AI_Runtime/Npu/ll_aton/ll_aton.c **** 
 510:Lib/AI_Runtime/Npu/ll_aton/ll_aton.c ****   if (n != 1)
 511:Lib/AI_Runtime/Npu/ll_aton/ll_aton.c ****     return -1;
 512:Lib/AI_Runtime/Npu/ll_aton/ll_aton.c ****     // if (conf->dir == 0 && (conf->nbits_in > conf->nbits_out)) return -1;
 513:Lib/AI_Runtime/Npu/ll_aton/ll_aton.c **** #ifndef ATON_IMC_NUM
 514:Lib/AI_Runtime/Npu/ll_aton/ll_aton.c ****   if (conf->nbits_in > 24 || conf->nbits_out > 24)
 515:Lib/AI_Runtime/Npu/ll_aton/ll_aton.c ****     return -1;
 516:Lib/AI_Runtime/Npu/ll_aton/ll_aton.c **** #endif
 517:Lib/AI_Runtime/Npu/ll_aton/ll_aton.c **** 
 518:Lib/AI_Runtime/Npu/ll_aton/ll_aton.c ****   t = ATON_STRENG_CTRL_DT;
 519:Lib/AI_Runtime/Npu/ll_aton/ll_aton.c ****   t = ATON_STRENG_CTRL_SET_DIR(t, (conf->dir != 0));
 520:Lib/AI_Runtime/Npu/ll_aton/ll_aton.c ****   t = ATON_STRENG_CTRL_SET_RAW(t, (conf->raw != 0));
 521:Lib/AI_Runtime/Npu/ll_aton/ll_aton.c **** #ifdef ATON_STRENG_CTRL_SET_RAW_OUT
 522:Lib/AI_Runtime/Npu/ll_aton/ll_aton.c ****   t = ATON_STRENG_CTRL_SET_RAW_OUT(t, conf->raw_out);
 523:Lib/AI_Runtime/Npu/ll_aton/ll_aton.c **** #else
 524:Lib/AI_Runtime/Npu/ll_aton/ll_aton.c ****   /* Hardware feature not supported */
 525:Lib/AI_Runtime/Npu/ll_aton/ll_aton.c ****   LL_ATON_ASSERT(conf->raw_out == 0);
 526:Lib/AI_Runtime/Npu/ll_aton/ll_aton.c **** #endif
 527:Lib/AI_Runtime/Npu/ll_aton/ll_aton.c ****   t = ATON_STRENG_CTRL_SET_NOBLK(t, (conf->noblk != 0));
 528:Lib/AI_Runtime/Npu/ll_aton/ll_aton.c ****   t = ATON_STRENG_CTRL_SET_NOINC(t, (conf->noinc == 1));
 529:Lib/AI_Runtime/Npu/ll_aton/ll_aton.c ****   t = ATON_STRENG_CTRL_SET_SINGLE(t, conf->frame_tot_cnt == 1);
 530:Lib/AI_Runtime/Npu/ll_aton/ll_aton.c ****   t = ATON_STRENG_CTRL_SET_CONT(t, conf->continuous == 1);
 531:Lib/AI_Runtime/Npu/ll_aton/ll_aton.c ****   t = ATON_STRENG_CTRL_SET_LSBMODE(t, conf->align_right == 1);
 532:Lib/AI_Runtime/Npu/ll_aton/ll_aton.c ****   t = ATON_STRENG_CTRL_SET_SIGNEXT(t, conf->align_right == 1 && conf->nbits_unsigned == 0);
 533:Lib/AI_Runtime/Npu/ll_aton/ll_aton.c **** 
 534:Lib/AI_Runtime/Npu/ll_aton/ll_aton.c ****   int ch_bits[3] = {0, 0, 0};
 535:Lib/AI_Runtime/Npu/ll_aton/ll_aton.c ****   int in_bits[3];
 536:Lib/AI_Runtime/Npu/ll_aton/ll_aton.c ****   int out_bits[3];
 537:Lib/AI_Runtime/Npu/ll_aton/ll_aton.c ****   int nbits_out = conf->nbits_out;
 538:Lib/AI_Runtime/Npu/ll_aton/ll_aton.c ****   int nbits_in = conf->nbits_in;
ARM GAS  /tmp/ccgbPSBw.s 			page 11


 539:Lib/AI_Runtime/Npu/ll_aton/ll_aton.c **** 
 540:Lib/AI_Runtime/Npu/ll_aton/ll_aton.c ****   // case 0: bus -> stream --> in_bits > out_bits -> use FRONT_GAP
 541:Lib/AI_Runtime/Npu/ll_aton/ll_aton.c ****   //                      |
 542:Lib/AI_Runtime/Npu/ll_aton/ll_aton.c ****   // case 1:              --> in_bits <= out_bits -> use lanes but valid for out_bits=8,16,24 for o
 543:Lib/AI_Runtime/Npu/ll_aton/ll_aton.c ****   // is right shifted by (8,16,24) - out_bits
 544:Lib/AI_Runtime/Npu/ll_aton/ll_aton.c ****   //
 545:Lib/AI_Runtime/Npu/ll_aton/ll_aton.c ****   // case 2: stream->bus  --> in_bits >= out_bits -> use lanes but valid for in_bits=8,16,24 for ot
 546:Lib/AI_Runtime/Npu/ll_aton/ll_aton.c ****   // right shifted by (8,16,24) - out_bits
 547:Lib/AI_Runtime/Npu/ll_aton/ll_aton.c ****   //                      |
 548:Lib/AI_Runtime/Npu/ll_aton/ll_aton.c ****   // case 3:              --> in_bits < out_bits -> use FRONT_GAP
 549:Lib/AI_Runtime/Npu/ll_aton/ll_aton.c **** 
 550:Lib/AI_Runtime/Npu/ll_aton/ll_aton.c ****   int io_case = ((conf->dir != 0) << 1);
 551:Lib/AI_Runtime/Npu/ll_aton/ll_aton.c ****   io_case += (conf->dir == 0 ? (conf->nbits_in <= conf->nbits_out) : (conf->nbits_in < conf->nbits_
 552:Lib/AI_Runtime/Npu/ll_aton/ll_aton.c **** 
 553:Lib/AI_Runtime/Npu/ll_aton/ll_aton.c ****   switch (io_case)
 554:Lib/AI_Runtime/Npu/ll_aton/ll_aton.c ****   {
 555:Lib/AI_Runtime/Npu/ll_aton/ll_aton.c ****   case 0: // in_bits > out_bits && bus->stream
 556:Lib/AI_Runtime/Npu/ll_aton/ll_aton.c ****           // must use FRONT_GAP
 557:Lib/AI_Runtime/Npu/ll_aton/ll_aton.c ****   {
 558:Lib/AI_Runtime/Npu/ll_aton/ll_aton.c ****     if (conf->mem_lsb)
 559:Lib/AI_Runtime/Npu/ll_aton/ll_aton.c ****       t_streng_strd = ATON_STRENG_STRD_SET_FGAP(t_streng_strd, (nbits_in - nbits_out));
 560:Lib/AI_Runtime/Npu/ll_aton/ll_aton.c ****     else
 561:Lib/AI_Runtime/Npu/ll_aton/ll_aton.c ****       t_streng_strd = ATON_STRENG_STRD_SET_BGAP(t_streng_strd, (nbits_in - nbits_out));
 562:Lib/AI_Runtime/Npu/ll_aton/ll_aton.c ****     nbits_in = nbits_out;
 563:Lib/AI_Runtime/Npu/ll_aton/ll_aton.c ****   }
 564:Lib/AI_Runtime/Npu/ll_aton/ll_aton.c ****   // intentional fall through
 565:Lib/AI_Runtime/Npu/ll_aton/ll_aton.c ****   case 1: // in_bits <= out_bits && bus->stream
 566:Lib/AI_Runtime/Npu/ll_aton/ll_aton.c ****     in_bits[0] = _LL_min(8, nbits_in);
 567:Lib/AI_Runtime/Npu/ll_aton/ll_aton.c ****     in_bits[1] = nbits_in > 8 ? _LL_min(8, nbits_in - 8) : 0;
 568:Lib/AI_Runtime/Npu/ll_aton/ll_aton.c ****     in_bits[2] = nbits_in > 16 ? _LL_min(8, nbits_in - 16) : 0;
 569:Lib/AI_Runtime/Npu/ll_aton/ll_aton.c ****     if (conf->align_right)
 570:Lib/AI_Runtime/Npu/ll_aton/ll_aton.c ****     {
 571:Lib/AI_Runtime/Npu/ll_aton/ll_aton.c ****       ch_bits[0] = in_bits[0];
 572:Lib/AI_Runtime/Npu/ll_aton/ll_aton.c ****       ch_bits[1] = in_bits[1];
 573:Lib/AI_Runtime/Npu/ll_aton/ll_aton.c ****       ch_bits[2] = in_bits[2];
 574:Lib/AI_Runtime/Npu/ll_aton/ll_aton.c ****     }
 575:Lib/AI_Runtime/Npu/ll_aton/ll_aton.c ****     else
 576:Lib/AI_Runtime/Npu/ll_aton/ll_aton.c ****     {
 577:Lib/AI_Runtime/Npu/ll_aton/ll_aton.c ****       if (nbits_out > 16)
 578:Lib/AI_Runtime/Npu/ll_aton/ll_aton.c ****       {
 579:Lib/AI_Runtime/Npu/ll_aton/ll_aton.c ****         ch_bits[2] = in_bits[0];
 580:Lib/AI_Runtime/Npu/ll_aton/ll_aton.c ****         ch_bits[1] = in_bits[1];
 581:Lib/AI_Runtime/Npu/ll_aton/ll_aton.c ****         ch_bits[0] = in_bits[2];
 582:Lib/AI_Runtime/Npu/ll_aton/ll_aton.c ****       }
 583:Lib/AI_Runtime/Npu/ll_aton/ll_aton.c ****       else if (nbits_out > 8)
 584:Lib/AI_Runtime/Npu/ll_aton/ll_aton.c ****       {
 585:Lib/AI_Runtime/Npu/ll_aton/ll_aton.c ****         ch_bits[1] = in_bits[0];
 586:Lib/AI_Runtime/Npu/ll_aton/ll_aton.c ****         ch_bits[0] = in_bits[1];
 587:Lib/AI_Runtime/Npu/ll_aton/ll_aton.c ****       } // N.B. the DMA stuffs the bits to the left of the channel
 588:Lib/AI_Runtime/Npu/ll_aton/ll_aton.c ****       else
 589:Lib/AI_Runtime/Npu/ll_aton/ll_aton.c ****         ch_bits[0] = in_bits[0];
 590:Lib/AI_Runtime/Npu/ll_aton/ll_aton.c ****     }
 591:Lib/AI_Runtime/Npu/ll_aton/ll_aton.c ****     break;
 592:Lib/AI_Runtime/Npu/ll_aton/ll_aton.c ****   case 3: // in_bits < out_bits && stream->bus
 593:Lib/AI_Runtime/Npu/ll_aton/ll_aton.c ****   {
 594:Lib/AI_Runtime/Npu/ll_aton/ll_aton.c ****     if (conf->mem_lsb)
 595:Lib/AI_Runtime/Npu/ll_aton/ll_aton.c ****       t_streng_strd = ATON_STRENG_STRD_SET_FGAP(t_streng_strd, (nbits_out - nbits_in));
ARM GAS  /tmp/ccgbPSBw.s 			page 12


 596:Lib/AI_Runtime/Npu/ll_aton/ll_aton.c ****     else
 597:Lib/AI_Runtime/Npu/ll_aton/ll_aton.c ****       t_streng_strd = ATON_STRENG_STRD_SET_BGAP(t_streng_strd, (nbits_out - nbits_in));
 598:Lib/AI_Runtime/Npu/ll_aton/ll_aton.c ****     nbits_out = nbits_in;
 599:Lib/AI_Runtime/Npu/ll_aton/ll_aton.c ****   }
 600:Lib/AI_Runtime/Npu/ll_aton/ll_aton.c ****   // intentional fall through
 601:Lib/AI_Runtime/Npu/ll_aton/ll_aton.c ****   case 2: // in_bits >= out_bits && stream->bus
 602:Lib/AI_Runtime/Npu/ll_aton/ll_aton.c ****     out_bits[0] = _LL_min(8, nbits_out);
 603:Lib/AI_Runtime/Npu/ll_aton/ll_aton.c ****     out_bits[1] = nbits_out > 8 ? _LL_min(8, nbits_out - 8) : 0;
 604:Lib/AI_Runtime/Npu/ll_aton/ll_aton.c ****     out_bits[2] = nbits_out > 16 ? _LL_min(8, nbits_out - 16) : 0;
 605:Lib/AI_Runtime/Npu/ll_aton/ll_aton.c ****     if (conf->align_right)
 606:Lib/AI_Runtime/Npu/ll_aton/ll_aton.c ****     {
 607:Lib/AI_Runtime/Npu/ll_aton/ll_aton.c ****       ch_bits[0] = out_bits[0];
 608:Lib/AI_Runtime/Npu/ll_aton/ll_aton.c ****       ch_bits[1] = out_bits[1];
 609:Lib/AI_Runtime/Npu/ll_aton/ll_aton.c ****       ch_bits[2] = out_bits[2];
 610:Lib/AI_Runtime/Npu/ll_aton/ll_aton.c ****     }
 611:Lib/AI_Runtime/Npu/ll_aton/ll_aton.c ****     else
 612:Lib/AI_Runtime/Npu/ll_aton/ll_aton.c ****     {
 613:Lib/AI_Runtime/Npu/ll_aton/ll_aton.c ****       if (nbits_in > 16)
 614:Lib/AI_Runtime/Npu/ll_aton/ll_aton.c ****       {
 615:Lib/AI_Runtime/Npu/ll_aton/ll_aton.c ****         ch_bits[2] = out_bits[0];
 616:Lib/AI_Runtime/Npu/ll_aton/ll_aton.c ****         ch_bits[1] = out_bits[1];
 617:Lib/AI_Runtime/Npu/ll_aton/ll_aton.c ****         ch_bits[0] = out_bits[2];
 618:Lib/AI_Runtime/Npu/ll_aton/ll_aton.c ****       }
 619:Lib/AI_Runtime/Npu/ll_aton/ll_aton.c ****       else if (nbits_in > 8)
 620:Lib/AI_Runtime/Npu/ll_aton/ll_aton.c ****       {
 621:Lib/AI_Runtime/Npu/ll_aton/ll_aton.c ****         ch_bits[1] = out_bits[0];
 622:Lib/AI_Runtime/Npu/ll_aton/ll_aton.c ****         ch_bits[0] = out_bits[1];
 623:Lib/AI_Runtime/Npu/ll_aton/ll_aton.c ****       } // N.B. the DMA stuffs the bits to the left of the channel
 624:Lib/AI_Runtime/Npu/ll_aton/ll_aton.c ****       else
 625:Lib/AI_Runtime/Npu/ll_aton/ll_aton.c ****         ch_bits[0] = out_bits[0];
 626:Lib/AI_Runtime/Npu/ll_aton/ll_aton.c ****     }
 627:Lib/AI_Runtime/Npu/ll_aton/ll_aton.c ****     break;
 628:Lib/AI_Runtime/Npu/ll_aton/ll_aton.c ****   }
 629:Lib/AI_Runtime/Npu/ll_aton/ll_aton.c **** 
 630:Lib/AI_Runtime/Npu/ll_aton/ll_aton.c **** /* Take care of N64 single size register. TODO: double check this  */
 631:Lib/AI_Runtime/Npu/ll_aton/ll_aton.c **** #ifdef ATON_STRENG_CTRL_SET_SIZE1
 632:Lib/AI_Runtime/Npu/ll_aton/ll_aton.c ****   t = ATON_STRENG_CTRL_SET_SIZE0(t, ch_bits[0]);
 633:Lib/AI_Runtime/Npu/ll_aton/ll_aton.c ****   t = ATON_STRENG_CTRL_SET_SIZE1(t, ch_bits[1]);
 634:Lib/AI_Runtime/Npu/ll_aton/ll_aton.c ****   t = ATON_STRENG_CTRL_SET_SIZE2(t, ch_bits[2]);
 635:Lib/AI_Runtime/Npu/ll_aton/ll_aton.c **** #else
 636:Lib/AI_Runtime/Npu/ll_aton/ll_aton.c ****   if (conf->dir)
 637:Lib/AI_Runtime/Npu/ll_aton/ll_aton.c ****     t = ATON_STRENG_CTRL_SET_SIZE0(t, conf->nbits_out);
 638:Lib/AI_Runtime/Npu/ll_aton/ll_aton.c ****   else
 639:Lib/AI_Runtime/Npu/ll_aton/ll_aton.c ****     t = ATON_STRENG_CTRL_SET_SIZE0(t, conf->nbits_in);
 640:Lib/AI_Runtime/Npu/ll_aton/ll_aton.c **** #endif
 641:Lib/AI_Runtime/Npu/ll_aton/ll_aton.c **** 
 642:Lib/AI_Runtime/Npu/ll_aton/ll_aton.c ****   ATON_STRENG_CTRL_SET(id, t);
 643:Lib/AI_Runtime/Npu/ll_aton/ll_aton.c **** 
 644:Lib/AI_Runtime/Npu/ll_aton/ll_aton.c ****   // ATON_STRENG_ADDR_SET(id, conf->addr_start.i);
 645:Lib/AI_Runtime/Npu/ll_aton/ll_aton.c ****   ATON_REG_WRITE_RELOC(((volatile uint32_t *)(uintptr_t)ATON_STRENG_ADDR_ADDR(id)), conf->addr_base
 646:Lib/AI_Runtime/Npu/ll_aton/ll_aton.c ****                        conf->offset_start);
 647:Lib/AI_Runtime/Npu/ll_aton/ll_aton.c **** 
 648:Lib/AI_Runtime/Npu/ll_aton/ll_aton.c ****   if (conf->raw)
 649:Lib/AI_Runtime/Npu/ll_aton/ll_aton.c ****   {
 650:Lib/AI_Runtime/Npu/ll_aton/ll_aton.c ****     if (conf->frame_count)
 651:Lib/AI_Runtime/Npu/ll_aton/ll_aton.c ****       t = conf->frame_count;
 652:Lib/AI_Runtime/Npu/ll_aton/ll_aton.c ****     else
ARM GAS  /tmp/ccgbPSBw.s 			page 13


 653:Lib/AI_Runtime/Npu/ll_aton/ll_aton.c ****     {
 654:Lib/AI_Runtime/Npu/ll_aton/ll_aton.c ****       // N.B. end - start must contain padding if nbits_in is not power of two
 655:Lib/AI_Runtime/Npu/ll_aton/ll_aton.c ****       t = (LL_Streng_len(conf) * 8) / (conf->dir == 0 ? conf->nbits_in : conf->nbits_out);
 656:Lib/AI_Runtime/Npu/ll_aton/ll_aton.c ****     }
 657:Lib/AI_Runtime/Npu/ll_aton/ll_aton.c ****     ATON_STRENG_FSIZE_SET(id, t);
 658:Lib/AI_Runtime/Npu/ll_aton/ll_aton.c ****   }
 659:Lib/AI_Runtime/Npu/ll_aton/ll_aton.c ****   else
 660:Lib/AI_Runtime/Npu/ll_aton/ll_aton.c ****   {
 661:Lib/AI_Runtime/Npu/ll_aton/ll_aton.c ****     t = ATON_STRENG_FSIZE_DT;
 662:Lib/AI_Runtime/Npu/ll_aton/ll_aton.c ****     t = ATON_STRENG_FSIZE_SET_WIDTH(t, conf->fwidth);
 663:Lib/AI_Runtime/Npu/ll_aton/ll_aton.c ****     t = ATON_STRENG_FSIZE_SET_HEIGHT(t, conf->fheight);
 664:Lib/AI_Runtime/Npu/ll_aton/ll_aton.c ****     ATON_STRENG_FSIZE_SET(id, t);
 665:Lib/AI_Runtime/Npu/ll_aton/ll_aton.c **** 
 666:Lib/AI_Runtime/Npu/ll_aton/ll_aton.c ****     uint32_t line_offset = conf->line_offset == 0 ? conf->fwidth * conf->batch_offset : conf->line_
 667:Lib/AI_Runtime/Npu/ll_aton/ll_aton.c ****     // if line_offset is left=0 then it's computed from the standard geometry of lines and batch
 668:Lib/AI_Runtime/Npu/ll_aton/ll_aton.c ****     t_streng_strd = ATON_STRENG_STRD_SET_LOFF(t_streng_strd, line_offset);
 669:Lib/AI_Runtime/Npu/ll_aton/ll_aton.c **** 
 670:Lib/AI_Runtime/Npu/ll_aton/ll_aton.c **** #if defined(ATON_STRENG_CID_CACHE_SET_LOFF_MSB)
 671:Lib/AI_Runtime/Npu/ll_aton/ll_aton.c ****     t = t_streng_cid_cache;
 672:Lib/AI_Runtime/Npu/ll_aton/ll_aton.c ****     t = ATON_STRENG_CID_CACHE_SET_LOFF_MSB(t, (line_offset >> ATON_STRENG_STRD_LOFF_W));
 673:Lib/AI_Runtime/Npu/ll_aton/ll_aton.c ****     t_streng_cid_cache = t;
 674:Lib/AI_Runtime/Npu/ll_aton/ll_aton.c **** #endif
 675:Lib/AI_Runtime/Npu/ll_aton/ll_aton.c **** 
 676:Lib/AI_Runtime/Npu/ll_aton/ll_aton.c ****     t = ATON_STRENG_DEPTH_DT;
 677:Lib/AI_Runtime/Npu/ll_aton/ll_aton.c ****     t = ATON_STRENG_DEPTH_SET_SIZE(t, conf->batch_depth);
 678:Lib/AI_Runtime/Npu/ll_aton/ll_aton.c ****     t = ATON_STRENG_DEPTH_SET_OFFSET(t, conf->batch_offset);
 679:Lib/AI_Runtime/Npu/ll_aton/ll_aton.c ****     ATON_STRENG_DEPTH_SET(id, t);
 680:Lib/AI_Runtime/Npu/ll_aton/ll_aton.c ****   }
 681:Lib/AI_Runtime/Npu/ll_aton/ll_aton.c **** 
 682:Lib/AI_Runtime/Npu/ll_aton/ll_aton.c ****   ATON_STRENG_FOFFSET_SET(id, conf->frame_offset);
 683:Lib/AI_Runtime/Npu/ll_aton/ll_aton.c **** 
 684:Lib/AI_Runtime/Npu/ll_aton/ll_aton.c ****   /* Frame repetition loop configuration */
 685:Lib/AI_Runtime/Npu/ll_aton/ll_aton.c ****   ATON_STRENG_FRPTOFF_SET(id, conf->loop_offset);
 686:Lib/AI_Runtime/Npu/ll_aton/ll_aton.c ****   ATON_STRENG_FRAME_RPT_SET(id, conf->frame_loop_cnt);
 687:Lib/AI_Runtime/Npu/ll_aton/ll_aton.c **** 
 688:Lib/AI_Runtime/Npu/ll_aton/ll_aton.c ****   /* Second level frame repetition loop configuration (if available) */
 689:Lib/AI_Runtime/Npu/ll_aton/ll_aton.c **** #ifdef ATON_STRENG_FRAME_RPT2_DT
 690:Lib/AI_Runtime/Npu/ll_aton/ll_aton.c ****   if (conf->frame_loop_cnt2 != ATON_STRENG_FRAME_RPT2_DT)
 691:Lib/AI_Runtime/Npu/ll_aton/ll_aton.c ****     ATON_STRENG_FRAME_RPT2_SET(id, conf->frame_loop_cnt2);
 692:Lib/AI_Runtime/Npu/ll_aton/ll_aton.c ****   if (conf->loop_offset2 != ATON_STRENG_FRPTOFF2_DT)
 693:Lib/AI_Runtime/Npu/ll_aton/ll_aton.c ****     ATON_STRENG_FRPTOFF2_SET(id, conf->loop_offset2);
 694:Lib/AI_Runtime/Npu/ll_aton/ll_aton.c **** #endif
 695:Lib/AI_Runtime/Npu/ll_aton/ll_aton.c **** 
 696:Lib/AI_Runtime/Npu/ll_aton/ll_aton.c ****   t = ATON_STRENG_LIMITEN_DT; // all other fields set to zero
 697:Lib/AI_Runtime/Npu/ll_aton/ll_aton.c ****   t = ATON_STRENG_LIMITEN_SET_FRAMELIMIT(t, 1);
 698:Lib/AI_Runtime/Npu/ll_aton/ll_aton.c **** #if defined(ATON_STRENG_LIMITEN_SET_DOFF_MSB)
 699:Lib/AI_Runtime/Npu/ll_aton/ll_aton.c ****   t = ATON_STRENG_LIMITEN_SET_DOFF_MSB(t, conf->batch_offset >> ATON_STRENG_DEPTH_OFFSET_W);
 700:Lib/AI_Runtime/Npu/ll_aton/ll_aton.c **** #endif
 701:Lib/AI_Runtime/Npu/ll_aton/ll_aton.c ****   ATON_STRENG_LIMITEN_SET(id, t);
 702:Lib/AI_Runtime/Npu/ll_aton/ll_aton.c **** 
 703:Lib/AI_Runtime/Npu/ll_aton/ll_aton.c ****   if (/*(conf->dir == 0) && */ (conf->offset_limit != 0x0))
 704:Lib/AI_Runtime/Npu/ll_aton/ll_aton.c ****   {
 705:Lib/AI_Runtime/Npu/ll_aton/ll_aton.c ****     t = ATON_STRENG_LIMITEN_SET_ADDRLIMIT(t, 1);
 706:Lib/AI_Runtime/Npu/ll_aton/ll_aton.c ****     t = ATON_STRENG_LIMITEN_SET_STOPPREFTC(t, 1);
 707:Lib/AI_Runtime/Npu/ll_aton/ll_aton.c ****     ATON_STRENG_LIMITEN_SET(id, t);
 708:Lib/AI_Runtime/Npu/ll_aton/ll_aton.c ****     // NOTE: limiter is to be set to last accessible byte address
 709:Lib/AI_Runtime/Npu/ll_aton/ll_aton.c ****     // ATON_STRENG_LIMITADDR_SET(id, (conf->addr_limit.i - 1));
ARM GAS  /tmp/ccgbPSBw.s 			page 14


 710:Lib/AI_Runtime/Npu/ll_aton/ll_aton.c ****     ATON_REG_WRITE_RELOC(((volatile uint32_t *)(uintptr_t)ATON_STRENG_LIMITADDR_ADDR(id)), conf->ad
 711:Lib/AI_Runtime/Npu/ll_aton/ll_aton.c ****                          conf->offset_limit - 1);
 712:Lib/AI_Runtime/Npu/ll_aton/ll_aton.c ****   }
 713:Lib/AI_Runtime/Npu/ll_aton/ll_aton.c **** 
 714:Lib/AI_Runtime/Npu/ll_aton/ll_aton.c ****   ATON_STRENG_LIMIT_SET(id, conf->frame_tot_cnt);
 715:Lib/AI_Runtime/Npu/ll_aton/ll_aton.c ****   // LL_ATON_PRINTF("frame_tot_cnt=%d\n", conf->frame_tot_cnt);
 716:Lib/AI_Runtime/Npu/ll_aton/ll_aton.c **** 
 717:Lib/AI_Runtime/Npu/ll_aton/ll_aton.c **** #if defined(ATON_STRENG_CID_CACHE_SET_CID)
 718:Lib/AI_Runtime/Npu/ll_aton/ll_aton.c ****   t_streng_cid_cache = ATON_STRENG_CID_CACHE_SET_CID(t_streng_cid_cache, conf->bus_cid);
 719:Lib/AI_Runtime/Npu/ll_aton/ll_aton.c ****   t_streng_cid_cache = ATON_STRENG_CID_CACHE_SET_CACHEABLE(t_streng_cid_cache, conf->cacheable);
 720:Lib/AI_Runtime/Npu/ll_aton/ll_aton.c ****   t_streng_cid_cache = ATON_STRENG_CID_CACHE_SET_ALLOC(t_streng_cid_cache, conf->cache_allocate);
 721:Lib/AI_Runtime/Npu/ll_aton/ll_aton.c ****   t_streng_cid_cache = ATON_STRENG_CID_CACHE_SET_PFETCH(t_streng_cid_cache, conf->bus_pfetch);
 722:Lib/AI_Runtime/Npu/ll_aton/ll_aton.c ****   t_streng_cid_cache = ATON_STRENG_CID_CACHE_SET_LINESIZE(t_streng_cid_cache, conf->cache_linesize)
 723:Lib/AI_Runtime/Npu/ll_aton/ll_aton.c **** #endif
 724:Lib/AI_Runtime/Npu/ll_aton/ll_aton.c **** 
 725:Lib/AI_Runtime/Npu/ll_aton/ll_aton.c ****   /* Enable event interrupts */
 726:Lib/AI_Runtime/Npu/ll_aton/ll_aton.c ****   if (conf->dir == 1)
 727:Lib/AI_Runtime/Npu/ll_aton/ll_aton.c ****   {
 728:Lib/AI_Runtime/Npu/ll_aton/ll_aton.c **** #if LL_ATON_EN_EVENT_IRQ
 729:Lib/AI_Runtime/Npu/ll_aton/ll_aton.c ****     t_streng_event = 0;
 730:Lib/AI_Runtime/Npu/ll_aton/ll_aton.c ****     t_streng_event = ATON_STRENG_EVENT_SET_EN_OFLOW_FRM(t_streng_event, 1); // enable frame overflo
 731:Lib/AI_Runtime/Npu/ll_aton/ll_aton.c **** #if 0
 732:Lib/AI_Runtime/Npu/ll_aton/ll_aton.c ****     t_streng_event = ATON_STRENG_EVENT_SET_EN_OFLOW_ADD(t_streng_event, 1); // enable address limit
 733:Lib/AI_Runtime/Npu/ll_aton/ll_aton.c **** #endif
 734:Lib/AI_Runtime/Npu/ll_aton/ll_aton.c **** #endif // LL_ATON_EN_EVENT_IRQ
 735:Lib/AI_Runtime/Npu/ll_aton/ll_aton.c ****   }
 736:Lib/AI_Runtime/Npu/ll_aton/ll_aton.c **** 
 737:Lib/AI_Runtime/Npu/ll_aton/ll_aton.c ****   /* Enable illegal configuration interrupts */
 738:Lib/AI_Runtime/Npu/ll_aton/ll_aton.c **** #if LL_ATON_EN_ERROR_IRQ
 739:Lib/AI_Runtime/Npu/ll_aton/ll_aton.c ****   t = t_streng_event;
 740:Lib/AI_Runtime/Npu/ll_aton/ll_aton.c ****   t = ATON_STRENG_EVENT_SET_EN_ILLCFG(t, 1); // Enable Illegal Configuration interrupt
 741:Lib/AI_Runtime/Npu/ll_aton/ll_aton.c ****   // t = ATON_STRENG_EVENT_SET_EN_FMTMM(t, 1); // Enable Format Mismatch interrupt (intentionally n
 742:Lib/AI_Runtime/Npu/ll_aton/ll_aton.c ****   t_streng_event = t;
 743:Lib/AI_Runtime/Npu/ll_aton/ll_aton.c **** #endif // LL_ATON_EN_ERROR_IRQ
 744:Lib/AI_Runtime/Npu/ll_aton/ll_aton.c **** 
 745:Lib/AI_Runtime/Npu/ll_aton/ll_aton.c ****   if ((conf->dir == 0) && conf->sync_with_other)
 746:Lib/AI_Runtime/Npu/ll_aton/ll_aton.c ****   {
 747:Lib/AI_Runtime/Npu/ll_aton/ll_aton.c ****     t = t_streng_event;
 748:Lib/AI_Runtime/Npu/ll_aton/ll_aton.c ****     t = ATON_STRENG_EVENT_SET_FRMTRG_EN(t, 1);               // Enable synchronizations of frames w
 749:Lib/AI_Runtime/Npu/ll_aton/ll_aton.c ****     t = ATON_STRENG_EVENT_SET_FRMTRG_SRC(t, conf->sync_dma); // Enable synchronizations of frames w
 750:Lib/AI_Runtime/Npu/ll_aton/ll_aton.c ****     t_streng_event = t;
 751:Lib/AI_Runtime/Npu/ll_aton/ll_aton.c ****   }
 752:Lib/AI_Runtime/Npu/ll_aton/ll_aton.c **** 
 753:Lib/AI_Runtime/Npu/ll_aton/ll_aton.c **** #if 1
 754:Lib/AI_Runtime/Npu/ll_aton/ll_aton.c ****   t = ATON_STRENG_POS_DT;
 755:Lib/AI_Runtime/Npu/ll_aton/ll_aton.c ****   t = ATON_STRENG_POS_SET_GAPCYCLES(t, 0); // set interline gap cycle to 0, as it should be safe to
 756:Lib/AI_Runtime/Npu/ll_aton/ll_aton.c ****   ATON_STRENG_POS_SET(id, t);
 757:Lib/AI_Runtime/Npu/ll_aton/ll_aton.c **** #endif
 758:Lib/AI_Runtime/Npu/ll_aton/ll_aton.c **** 
 759:Lib/AI_Runtime/Npu/ll_aton/ll_aton.c ****   /* deferred register setting */
 760:Lib/AI_Runtime/Npu/ll_aton/ll_aton.c ****   ATON_STRENG_STRD_SET(id, t_streng_strd);
 761:Lib/AI_Runtime/Npu/ll_aton/ll_aton.c ****   ATON_STRENG_CID_CACHE_SET(id, t_streng_cid_cache);
 762:Lib/AI_Runtime/Npu/ll_aton/ll_aton.c ****   ATON_STRENG_EVENT_SET(id, t_streng_event);
 763:Lib/AI_Runtime/Npu/ll_aton/ll_aton.c **** 
 764:Lib/AI_Runtime/Npu/ll_aton/ll_aton.c ****   /* Ciphering settings */
 765:Lib/AI_Runtime/Npu/ll_aton/ll_aton.c **** #if (ATON_STRENG_VERSION_ENCR_DT == 1)
 766:Lib/AI_Runtime/Npu/ll_aton/ll_aton.c ****   t = ATON_STRENG_ENCR_MSB_DT;
ARM GAS  /tmp/ccgbPSBw.s 			page 15


 767:Lib/AI_Runtime/Npu/ll_aton/ll_aton.c ****   t = ATON_STRENG_ENCR_MSB_SET_EN(t, conf->cipher_en);
 768:Lib/AI_Runtime/Npu/ll_aton/ll_aton.c ****   t = ATON_STRENG_ENCR_MSB_SET_KEY_SEL(t, conf->key_sel);
 769:Lib/AI_Runtime/Npu/ll_aton/ll_aton.c ****   ATON_STRENG_ENCR_MSB_SET(id, t);
 770:Lib/AI_Runtime/Npu/ll_aton/ll_aton.c **** #endif
 771:Lib/AI_Runtime/Npu/ll_aton/ll_aton.c **** 
 772:Lib/AI_Runtime/Npu/ll_aton/ll_aton.c ****   return 0;
 773:Lib/AI_Runtime/Npu/ll_aton/ll_aton.c **** }
 774:Lib/AI_Runtime/Npu/ll_aton/ll_aton.c **** 
 775:Lib/AI_Runtime/Npu/ll_aton/ll_aton.c **** /**
 776:Lib/AI_Runtime/Npu/ll_aton/ll_aton.c ****  * @brief Configures the Streaming Engine External trigger source
 777:Lib/AI_Runtime/Npu/ll_aton/ll_aton.c ****  *        To be used, for example, for configuring synchronization with DCMIPP
 778:Lib/AI_Runtime/Npu/ll_aton/ll_aton.c ****  * @param id Streaming engine identifier [0..ATON_STRENG_NUM-1]
 779:Lib/AI_Runtime/Npu/ll_aton/ll_aton.c ****  * @param conf Pointer to structure describing External Sync configuration
 780:Lib/AI_Runtime/Npu/ll_aton/ll_aton.c ****  */
 781:Lib/AI_Runtime/Npu/ll_aton/ll_aton.c **** int LL_Streng_ExtSyncInit(int id, LL_Streng_ExtSyncTypedef *conf)
 782:Lib/AI_Runtime/Npu/ll_aton/ll_aton.c **** {
 783:Lib/AI_Runtime/Npu/ll_aton/ll_aton.c **** #ifdef ATON_STRENG_EXTSYNC_SET
 784:Lib/AI_Runtime/Npu/ll_aton/ll_aton.c ****   uint32_t t;
 785:Lib/AI_Runtime/Npu/ll_aton/ll_aton.c **** 
 786:Lib/AI_Runtime/Npu/ll_aton/ll_aton.c ****   if (id >= ATON_STRENG_NUM)
 787:Lib/AI_Runtime/Npu/ll_aton/ll_aton.c ****     return LL_ATON_INVALID_ID;
 788:Lib/AI_Runtime/Npu/ll_aton/ll_aton.c **** 
 789:Lib/AI_Runtime/Npu/ll_aton/ll_aton.c ****   LL_ATON_EnableClock(ATON_STRENG_CLKB_CLK(id));
 790:Lib/AI_Runtime/Npu/ll_aton/ll_aton.c **** 
 791:Lib/AI_Runtime/Npu/ll_aton/ll_aton.c ****   t = ATON_STRENG_EXTSYNC_DT;
 792:Lib/AI_Runtime/Npu/ll_aton/ll_aton.c ****   t = ATON_STRENG_EXTSYNC_SET_EN(t, conf->enable);
 793:Lib/AI_Runtime/Npu/ll_aton/ll_aton.c ****   t = ATON_STRENG_EXTSYNC_SET_SRC(t, conf->trig_source);
 794:Lib/AI_Runtime/Npu/ll_aton/ll_aton.c ****   t = ATON_STRENG_EXTSYNC_SET_LINES(t, conf->lines);
 795:Lib/AI_Runtime/Npu/ll_aton/ll_aton.c ****   ATON_STRENG_EXTSYNC_SET(id, t);
 796:Lib/AI_Runtime/Npu/ll_aton/ll_aton.c **** 
 797:Lib/AI_Runtime/Npu/ll_aton/ll_aton.c ****   t = ATON_STRENG_EXTSYNC2_DT;
 798:Lib/AI_Runtime/Npu/ll_aton/ll_aton.c ****   t = ATON_STRENG_EXTSYNC2_SET_LINES(t, conf->lines_offset);
 799:Lib/AI_Runtime/Npu/ll_aton/ll_aton.c ****   t = ATON_STRENG_EXTSYNC2_SET_OFF(t, conf->offset);
 800:Lib/AI_Runtime/Npu/ll_aton/ll_aton.c ****   ATON_STRENG_EXTSYNC2_SET(id, t);
 801:Lib/AI_Runtime/Npu/ll_aton/ll_aton.c **** #endif
 802:Lib/AI_Runtime/Npu/ll_aton/ll_aton.c ****   return 0;
 803:Lib/AI_Runtime/Npu/ll_aton/ll_aton.c **** }
 804:Lib/AI_Runtime/Npu/ll_aton/ll_aton.c **** 
 805:Lib/AI_Runtime/Npu/ll_aton/ll_aton.c **** #if defined(ATON_EPOCHCTRL_NUM)
 806:Lib/AI_Runtime/Npu/ll_aton/ll_aton.c **** /**
 807:Lib/AI_Runtime/Npu/ll_aton/ll_aton.c ****  * @brief Sets external trigger signal to hi. Used to synchronize with external units, e.g.: HSP
 808:Lib/AI_Runtime/Npu/ll_aton/ll_aton.c ****  * @param irq Interrupt line used as trigger signal
 809:Lib/AI_Runtime/Npu/ll_aton/ll_aton.c ****  * @note uses Epoch Controller noack interrupt as irq source
 810:Lib/AI_Runtime/Npu/ll_aton/ll_aton.c ****  */
 811:Lib/AI_Runtime/Npu/ll_aton/ll_aton.c **** int LL_TriggerHigh(int irq)
 812:Lib/AI_Runtime/Npu/ll_aton/ll_aton.c **** {
 813:Lib/AI_Runtime/Npu/ll_aton/ll_aton.c ****   if (irq >= ATON_INTCTRL_INTS(0))
 814:Lib/AI_Runtime/Npu/ll_aton/ll_aton.c ****     return LL_ATON_INVALID_PARAM;
 815:Lib/AI_Runtime/Npu/ll_aton/ll_aton.c **** 
 816:Lib/AI_Runtime/Npu/ll_aton/ll_aton.c ****   ATON_INTCTRL_INTORMSK_SET(0, irq, ~(1 << ATON_INTCTRL_0_INTORMSK_EPOCHCTRL_0_1_IDX));
 817:Lib/AI_Runtime/Npu/ll_aton/ll_aton.c ****   ATON_INTCTRL_INTSET_SET(0, (1 << ATON_INTCTRL_0_INTSET_EPOCHCTRL_0_1_IDX));
 818:Lib/AI_Runtime/Npu/ll_aton/ll_aton.c ****   return 0;
 819:Lib/AI_Runtime/Npu/ll_aton/ll_aton.c **** }
 820:Lib/AI_Runtime/Npu/ll_aton/ll_aton.c **** 
 821:Lib/AI_Runtime/Npu/ll_aton/ll_aton.c **** /**
 822:Lib/AI_Runtime/Npu/ll_aton/ll_aton.c ****  * @brief Sets external trigger signal to low. Used to synchronize with external units, e.g.: HSP
 823:Lib/AI_Runtime/Npu/ll_aton/ll_aton.c ****  * @param irq Interrupt line used as trigger signal
ARM GAS  /tmp/ccgbPSBw.s 			page 16


 824:Lib/AI_Runtime/Npu/ll_aton/ll_aton.c ****  * @note uses Epoch Controller noack interrupt as irq source
 825:Lib/AI_Runtime/Npu/ll_aton/ll_aton.c ****  */
 826:Lib/AI_Runtime/Npu/ll_aton/ll_aton.c **** int LL_TriggerLow(int irq)
 827:Lib/AI_Runtime/Npu/ll_aton/ll_aton.c **** {
 828:Lib/AI_Runtime/Npu/ll_aton/ll_aton.c ****   if (irq >= ATON_INTCTRL_INTS(0))
 829:Lib/AI_Runtime/Npu/ll_aton/ll_aton.c ****     return LL_ATON_INVALID_PARAM;
 830:Lib/AI_Runtime/Npu/ll_aton/ll_aton.c **** 
 831:Lib/AI_Runtime/Npu/ll_aton/ll_aton.c ****   ATON_INTCTRL_INTCLR_SET(0, (1 << ATON_INTCTRL_0_INTCLR_EPOCHCTRL_0_1_IDX));
 832:Lib/AI_Runtime/Npu/ll_aton/ll_aton.c ****   return 0;
 833:Lib/AI_Runtime/Npu/ll_aton/ll_aton.c **** }
 834:Lib/AI_Runtime/Npu/ll_aton/ll_aton.c **** #endif
 835:Lib/AI_Runtime/Npu/ll_aton/ll_aton.c **** 
 836:Lib/AI_Runtime/Npu/ll_aton/ll_aton.c **** unsigned __atonn_getSrcPortID(enum SwitchUnitsType sut, unsigned char su_num, enum AccelUnitsType a
 837:Lib/AI_Runtime/Npu/ll_aton/ll_aton.c ****                               unsigned char au_num, unsigned char port)
 838:Lib/AI_Runtime/Npu/ll_aton/ll_aton.c **** {
 839:Lib/AI_Runtime/Npu/ll_aton/ll_aton.c ****   // FIXME
 840:Lib/AI_Runtime/Npu/ll_aton/ll_aton.c ****   LL_ATON_ASSERT(su_num == 0);
 841:Lib/AI_Runtime/Npu/ll_aton/ll_aton.c ****   switch (sut)
 842:Lib/AI_Runtime/Npu/ll_aton/ll_aton.c ****   {
 843:Lib/AI_Runtime/Npu/ll_aton/ll_aton.c ****   case STRSWITCH:
 844:Lib/AI_Runtime/Npu/ll_aton/ll_aton.c ****     switch (aut)
 845:Lib/AI_Runtime/Npu/ll_aton/ll_aton.c ****     {
 846:Lib/AI_Runtime/Npu/ll_aton/ll_aton.c **** #if defined(ATON_STRENG_NUM)
 847:Lib/AI_Runtime/Npu/ll_aton/ll_aton.c ****     case STRENG:
 848:Lib/AI_Runtime/Npu/ll_aton/ll_aton.c ****       LL_ATON_ASSERT(port == 0);
 849:Lib/AI_Runtime/Npu/ll_aton/ll_aton.c ****       LL_ATON_ASSERT(au_num < ATON_STRENG_NUM);
 850:Lib/AI_Runtime/Npu/ll_aton/ll_aton.c ****       return ATONN_CONST_SRCPORT(STRSWITCH, 0, STRENG, 0, 0) + au_num;
 851:Lib/AI_Runtime/Npu/ll_aton/ll_aton.c ****       break;
 852:Lib/AI_Runtime/Npu/ll_aton/ll_aton.c **** #endif
 853:Lib/AI_Runtime/Npu/ll_aton/ll_aton.c **** #if defined(ATON_CONVACC_NUM)
 854:Lib/AI_Runtime/Npu/ll_aton/ll_aton.c ****     case CONVACC:
 855:Lib/AI_Runtime/Npu/ll_aton/ll_aton.c ****       LL_ATON_ASSERT(port == 0);
 856:Lib/AI_Runtime/Npu/ll_aton/ll_aton.c ****       LL_ATON_ASSERT(au_num < ATON_CONVACC_NUM);
 857:Lib/AI_Runtime/Npu/ll_aton/ll_aton.c ****       return ATONN_CONST_SRCPORT(STRSWITCH, 0, CONVACC, 0, 0) + au_num;
 858:Lib/AI_Runtime/Npu/ll_aton/ll_aton.c ****       break;
 859:Lib/AI_Runtime/Npu/ll_aton/ll_aton.c **** #endif
 860:Lib/AI_Runtime/Npu/ll_aton/ll_aton.c **** #if defined(ATON_DECUN_NUM)
 861:Lib/AI_Runtime/Npu/ll_aton/ll_aton.c ****     case DECUN:
 862:Lib/AI_Runtime/Npu/ll_aton/ll_aton.c ****       LL_ATON_ASSERT(port == 0);
 863:Lib/AI_Runtime/Npu/ll_aton/ll_aton.c ****       LL_ATON_ASSERT(au_num < ATON_DECUN_NUM);
 864:Lib/AI_Runtime/Npu/ll_aton/ll_aton.c ****       return ATONN_CONST_SRCPORT(STRSWITCH, 0, DECUN, 0, 0) + au_num;
 865:Lib/AI_Runtime/Npu/ll_aton/ll_aton.c ****       break;
 866:Lib/AI_Runtime/Npu/ll_aton/ll_aton.c **** #endif
 867:Lib/AI_Runtime/Npu/ll_aton/ll_aton.c **** #if defined(ATON_ACTIV_NUM)
 868:Lib/AI_Runtime/Npu/ll_aton/ll_aton.c ****     case ACTIV:
 869:Lib/AI_Runtime/Npu/ll_aton/ll_aton.c ****       LL_ATON_ASSERT(port == 0);
 870:Lib/AI_Runtime/Npu/ll_aton/ll_aton.c ****       LL_ATON_ASSERT(au_num < ATON_ACTIV_NUM);
 871:Lib/AI_Runtime/Npu/ll_aton/ll_aton.c ****       return ATONN_CONST_SRCPORT(STRSWITCH, 0, ACTIV, 0, 0) + au_num;
 872:Lib/AI_Runtime/Npu/ll_aton/ll_aton.c ****       break;
 873:Lib/AI_Runtime/Npu/ll_aton/ll_aton.c **** #endif
 874:Lib/AI_Runtime/Npu/ll_aton/ll_aton.c **** #if defined(ATON_ARITH_NUM)
 875:Lib/AI_Runtime/Npu/ll_aton/ll_aton.c ****     case ARITH:
 876:Lib/AI_Runtime/Npu/ll_aton/ll_aton.c ****       LL_ATON_ASSERT(port == 0);
 877:Lib/AI_Runtime/Npu/ll_aton/ll_aton.c ****       LL_ATON_ASSERT(au_num < ATON_ARITH_NUM);
 878:Lib/AI_Runtime/Npu/ll_aton/ll_aton.c ****       return ATONN_CONST_SRCPORT(STRSWITCH, 0, ARITH, 0, 0) + au_num;
 879:Lib/AI_Runtime/Npu/ll_aton/ll_aton.c ****       break;
 880:Lib/AI_Runtime/Npu/ll_aton/ll_aton.c **** #endif
ARM GAS  /tmp/ccgbPSBw.s 			page 17


 881:Lib/AI_Runtime/Npu/ll_aton/ll_aton.c **** #if defined(ATON_POOL_NUM)
 882:Lib/AI_Runtime/Npu/ll_aton/ll_aton.c ****     case POOL:
 883:Lib/AI_Runtime/Npu/ll_aton/ll_aton.c ****       LL_ATON_ASSERT(port == 0);
 884:Lib/AI_Runtime/Npu/ll_aton/ll_aton.c ****       LL_ATON_ASSERT(au_num < ATON_POOL_NUM);
 885:Lib/AI_Runtime/Npu/ll_aton/ll_aton.c ****       return ATONN_CONST_SRCPORT(STRSWITCH, 0, POOL, 0, 0) + au_num;
 886:Lib/AI_Runtime/Npu/ll_aton/ll_aton.c ****       break;
 887:Lib/AI_Runtime/Npu/ll_aton/ll_aton.c **** #endif
 888:Lib/AI_Runtime/Npu/ll_aton/ll_aton.c ****     default:
 889:Lib/AI_Runtime/Npu/ll_aton/ll_aton.c ****       LL_ATON_ASSERT(0);
 890:Lib/AI_Runtime/Npu/ll_aton/ll_aton.c ****       break;
 891:Lib/AI_Runtime/Npu/ll_aton/ll_aton.c ****     }
 892:Lib/AI_Runtime/Npu/ll_aton/ll_aton.c ****     break;
 893:Lib/AI_Runtime/Npu/ll_aton/ll_aton.c ****   case STRSWITCH64:
 894:Lib/AI_Runtime/Npu/ll_aton/ll_aton.c ****     // TODO
 895:Lib/AI_Runtime/Npu/ll_aton/ll_aton.c ****     LL_ATON_ASSERT(0);
 896:Lib/AI_Runtime/Npu/ll_aton/ll_aton.c ****     break;
 897:Lib/AI_Runtime/Npu/ll_aton/ll_aton.c ****   case STRSWITCH_VC:
 898:Lib/AI_Runtime/Npu/ll_aton/ll_aton.c ****     // TODO
 899:Lib/AI_Runtime/Npu/ll_aton/ll_aton.c ****     LL_ATON_ASSERT(0);
 900:Lib/AI_Runtime/Npu/ll_aton/ll_aton.c ****     break;
 901:Lib/AI_Runtime/Npu/ll_aton/ll_aton.c ****   }
 902:Lib/AI_Runtime/Npu/ll_aton/ll_aton.c ****   return 0;
 903:Lib/AI_Runtime/Npu/ll_aton/ll_aton.c **** }
 904:Lib/AI_Runtime/Npu/ll_aton/ll_aton.c **** 
 905:Lib/AI_Runtime/Npu/ll_aton/ll_aton.c **** unsigned __atonn_getDstPortID(enum SwitchUnitsType sut, unsigned char su_num, enum AccelUnitsType a
 906:Lib/AI_Runtime/Npu/ll_aton/ll_aton.c ****                               unsigned char au_num, unsigned char port)
 907:Lib/AI_Runtime/Npu/ll_aton/ll_aton.c **** {
 908:Lib/AI_Runtime/Npu/ll_aton/ll_aton.c ****   // FIXME
 909:Lib/AI_Runtime/Npu/ll_aton/ll_aton.c ****   LL_ATON_ASSERT(su_num == 0);
 910:Lib/AI_Runtime/Npu/ll_aton/ll_aton.c ****   switch (sut)
 911:Lib/AI_Runtime/Npu/ll_aton/ll_aton.c ****   {
 912:Lib/AI_Runtime/Npu/ll_aton/ll_aton.c ****   case STRSWITCH:
 913:Lib/AI_Runtime/Npu/ll_aton/ll_aton.c ****     switch (aut)
 914:Lib/AI_Runtime/Npu/ll_aton/ll_aton.c ****     {
 915:Lib/AI_Runtime/Npu/ll_aton/ll_aton.c **** #if defined(ATON_STRENG_NUM)
 916:Lib/AI_Runtime/Npu/ll_aton/ll_aton.c ****     case STRENG:
 917:Lib/AI_Runtime/Npu/ll_aton/ll_aton.c ****       LL_ATON_ASSERT(port == 0);
 918:Lib/AI_Runtime/Npu/ll_aton/ll_aton.c ****       LL_ATON_ASSERT(au_num < ATON_STRENG_NUM);
 919:Lib/AI_Runtime/Npu/ll_aton/ll_aton.c ****       return ATONN_CONST_DSTPORT(STRSWITCH, 0, STRENG, 0, 0) + (0x4 * au_num);
 920:Lib/AI_Runtime/Npu/ll_aton/ll_aton.c ****       break;
 921:Lib/AI_Runtime/Npu/ll_aton/ll_aton.c **** #endif
 922:Lib/AI_Runtime/Npu/ll_aton/ll_aton.c **** #if defined(ATON_CONVACC_NUM)
 923:Lib/AI_Runtime/Npu/ll_aton/ll_aton.c ****     case CONVACC:
 924:Lib/AI_Runtime/Npu/ll_aton/ll_aton.c ****       LL_ATON_ASSERT(port < 3);
 925:Lib/AI_Runtime/Npu/ll_aton/ll_aton.c ****       LL_ATON_ASSERT(au_num < ATON_CONVACC_NUM);
 926:Lib/AI_Runtime/Npu/ll_aton/ll_aton.c ****       return ATONN_CONST_DSTPORT(STRSWITCH, 0, CONVACC, 0, 0) + (0x4 * (3 * au_num + port));
 927:Lib/AI_Runtime/Npu/ll_aton/ll_aton.c ****       break;
 928:Lib/AI_Runtime/Npu/ll_aton/ll_aton.c **** #endif
 929:Lib/AI_Runtime/Npu/ll_aton/ll_aton.c **** #if defined(ATON_DECUN_NUM)
 930:Lib/AI_Runtime/Npu/ll_aton/ll_aton.c ****     case DECUN:
 931:Lib/AI_Runtime/Npu/ll_aton/ll_aton.c ****       LL_ATON_ASSERT(port < 2);
 932:Lib/AI_Runtime/Npu/ll_aton/ll_aton.c ****       LL_ATON_ASSERT(au_num < ATON_DECUN_NUM);
 933:Lib/AI_Runtime/Npu/ll_aton/ll_aton.c ****       return ATONN_CONST_DSTPORT(STRSWITCH, 0, DECUN, 0, 0) + (0x4 * (2 * au_num + port));
 934:Lib/AI_Runtime/Npu/ll_aton/ll_aton.c ****       break;
 935:Lib/AI_Runtime/Npu/ll_aton/ll_aton.c **** #endif
 936:Lib/AI_Runtime/Npu/ll_aton/ll_aton.c **** #if defined(ATON_ACTIV_NUM)
 937:Lib/AI_Runtime/Npu/ll_aton/ll_aton.c ****     case ACTIV:
ARM GAS  /tmp/ccgbPSBw.s 			page 18


 938:Lib/AI_Runtime/Npu/ll_aton/ll_aton.c ****       LL_ATON_ASSERT(port == 0);
 939:Lib/AI_Runtime/Npu/ll_aton/ll_aton.c ****       LL_ATON_ASSERT(au_num < ATON_ACTIV_NUM);
 940:Lib/AI_Runtime/Npu/ll_aton/ll_aton.c ****       return ATONN_CONST_DSTPORT(STRSWITCH, 0, ACTIV, 0, 0) + (0x4 * au_num);
 941:Lib/AI_Runtime/Npu/ll_aton/ll_aton.c ****       break;
 942:Lib/AI_Runtime/Npu/ll_aton/ll_aton.c **** #endif
 943:Lib/AI_Runtime/Npu/ll_aton/ll_aton.c **** #if defined(ATON_ARITH_NUM)
 944:Lib/AI_Runtime/Npu/ll_aton/ll_aton.c ****     case ARITH:
 945:Lib/AI_Runtime/Npu/ll_aton/ll_aton.c ****       LL_ATON_ASSERT(port < 2);
 946:Lib/AI_Runtime/Npu/ll_aton/ll_aton.c ****       LL_ATON_ASSERT(au_num < ATON_ARITH_NUM);
 947:Lib/AI_Runtime/Npu/ll_aton/ll_aton.c ****       return ATONN_CONST_DSTPORT(STRSWITCH, 0, ARITH, 0, 0) + (0x4 * (2 * au_num + port));
 948:Lib/AI_Runtime/Npu/ll_aton/ll_aton.c ****       break;
 949:Lib/AI_Runtime/Npu/ll_aton/ll_aton.c **** #endif
 950:Lib/AI_Runtime/Npu/ll_aton/ll_aton.c **** #if defined(ATON_POOL_NUM)
 951:Lib/AI_Runtime/Npu/ll_aton/ll_aton.c ****     case POOL:
 952:Lib/AI_Runtime/Npu/ll_aton/ll_aton.c ****       LL_ATON_ASSERT(port == 0);
 953:Lib/AI_Runtime/Npu/ll_aton/ll_aton.c ****       LL_ATON_ASSERT(au_num < ATON_POOL_NUM);
 954:Lib/AI_Runtime/Npu/ll_aton/ll_aton.c ****       return ATONN_CONST_DSTPORT(STRSWITCH, 0, POOL, 0, 0) + (0x4 * au_num);
 955:Lib/AI_Runtime/Npu/ll_aton/ll_aton.c ****       break;
 956:Lib/AI_Runtime/Npu/ll_aton/ll_aton.c **** #endif
 957:Lib/AI_Runtime/Npu/ll_aton/ll_aton.c ****     default:
 958:Lib/AI_Runtime/Npu/ll_aton/ll_aton.c ****       LL_ATON_ASSERT(0);
 959:Lib/AI_Runtime/Npu/ll_aton/ll_aton.c ****       break;
 960:Lib/AI_Runtime/Npu/ll_aton/ll_aton.c ****     }
 961:Lib/AI_Runtime/Npu/ll_aton/ll_aton.c ****     break;
 962:Lib/AI_Runtime/Npu/ll_aton/ll_aton.c ****   case STRSWITCH64:
 963:Lib/AI_Runtime/Npu/ll_aton/ll_aton.c ****     // TODO
 964:Lib/AI_Runtime/Npu/ll_aton/ll_aton.c ****     LL_ATON_ASSERT(0);
 965:Lib/AI_Runtime/Npu/ll_aton/ll_aton.c ****     break;
 966:Lib/AI_Runtime/Npu/ll_aton/ll_aton.c ****   case STRSWITCH_VC:
 967:Lib/AI_Runtime/Npu/ll_aton/ll_aton.c ****     // TODO
 968:Lib/AI_Runtime/Npu/ll_aton/ll_aton.c ****     LL_ATON_ASSERT(0);
 969:Lib/AI_Runtime/Npu/ll_aton/ll_aton.c ****     break;
 970:Lib/AI_Runtime/Npu/ll_aton/ll_aton.c ****   }
 971:Lib/AI_Runtime/Npu/ll_aton/ll_aton.c ****   return 0;
 972:Lib/AI_Runtime/Npu/ll_aton/ll_aton.c **** }
 973:Lib/AI_Runtime/Npu/ll_aton/ll_aton.c **** 
 974:Lib/AI_Runtime/Npu/ll_aton/ll_aton.c **** /**
 975:Lib/AI_Runtime/Npu/ll_aton/ll_aton.c ****  * @brief  Connects input and output port(s) on the streaming switch (without clearing configuratio
 976:Lib/AI_Runtime/Npu/ll_aton/ll_aton.c ****  * @param  LL_Switch_InitStruct Pointer to structure(s) describing ports to be connected
 977:Lib/AI_Runtime/Npu/ll_aton/ll_aton.c ****  * @param  n Number of entries in configuration array
 978:Lib/AI_Runtime/Npu/ll_aton/ll_aton.c ****  * @retval Error code
 979:Lib/AI_Runtime/Npu/ll_aton/ll_aton.c ****  */
 980:Lib/AI_Runtime/Npu/ll_aton/ll_aton.c **** int LL_Switch_Init_NoReset(const LL_Switch_InitTypeDef *LL_Switch_InitStruct, int n)
 981:Lib/AI_Runtime/Npu/ll_aton/ll_aton.c **** {
 982:Lib/AI_Runtime/Npu/ll_aton/ll_aton.c ****   int i;
 983:Lib/AI_Runtime/Npu/ll_aton/ll_aton.c ****   volatile uint32_t *reg;
 984:Lib/AI_Runtime/Npu/ll_aton/ll_aton.c ****   uint32_t t;
 985:Lib/AI_Runtime/Npu/ll_aton/ll_aton.c ****   unsigned int en_shift[ATON_SWITCH_CONTEXT_NUM] = {ATON_STRSWITCH_DST_EN0_LSB, ATON_STRSWITCH_DST_
 986:Lib/AI_Runtime/Npu/ll_aton/ll_aton.c ****   unsigned int link_shift[ATON_SWITCH_CONTEXT_NUM] = {ATON_STRSWITCH_DST_LINK0_LSB, ATON_STRSWITCH_
 987:Lib/AI_Runtime/Npu/ll_aton/ll_aton.c ****   unsigned int fnr_shift[ATON_SWITCH_CONTEXT_NUM] = {ATON_STRSWITCH_DST_FNR0_LSB, ATON_STRSWITCH_DS
 988:Lib/AI_Runtime/Npu/ll_aton/ll_aton.c ****   unsigned int fnr_mask[ATON_SWITCH_CONTEXT_NUM] = {ATON_STRSWITCH_DST_FNR0_MASK, ATON_STRSWITCH_DS
 989:Lib/AI_Runtime/Npu/ll_aton/ll_aton.c **** 
 990:Lib/AI_Runtime/Npu/ll_aton/ll_aton.c ****   /* Enable Switch */
 991:Lib/AI_Runtime/Npu/ll_aton/ll_aton.c ****   t = ATON_STRSWITCH_CTRL_DT;
 992:Lib/AI_Runtime/Npu/ll_aton/ll_aton.c ****   t = ATON_STRSWITCH_CTRL_SET_EN(t, 1);
 993:Lib/AI_Runtime/Npu/ll_aton/ll_aton.c ****   ATON_STRSWITCH_CTRL_SET(0, t);
 994:Lib/AI_Runtime/Npu/ll_aton/ll_aton.c **** 
ARM GAS  /tmp/ccgbPSBw.s 			page 19


 995:Lib/AI_Runtime/Npu/ll_aton/ll_aton.c ****   for (i = 0; i < n; i++)
 996:Lib/AI_Runtime/Npu/ll_aton/ll_aton.c ****   {
 997:Lib/AI_Runtime/Npu/ll_aton/ll_aton.c ****     /* Compute target destination configuration register */
 998:Lib/AI_Runtime/Npu/ll_aton/ll_aton.c ****     reg = (uint32_t *)(ATON_STRSWITCH_BASE(0) + ATONN_DSTPORT_ID(LL_Switch_InitStruct[i].dest));
 999:Lib/AI_Runtime/Npu/ll_aton/ll_aton.c ****     t = 0;
1000:Lib/AI_Runtime/Npu/ll_aton/ll_aton.c ****     /* Enable Context and create link */
1001:Lib/AI_Runtime/Npu/ll_aton/ll_aton.c **** #if ATON_SWITCH_CONTEXT_NUM == 2
1002:Lib/AI_Runtime/Npu/ll_aton/ll_aton.c ****     t |= ((LL_Switch_InitStruct[i].context0 != 0) << en_shift[0]);
1003:Lib/AI_Runtime/Npu/ll_aton/ll_aton.c ****     t |= (ATONN_SRCPORT_ID(LL_Switch_InitStruct[i].source0) << link_shift[0]);
1004:Lib/AI_Runtime/Npu/ll_aton/ll_aton.c ****     t |= ((LL_Switch_InitStruct[i].frames0 << fnr_shift[0]) & fnr_mask[0]);
1005:Lib/AI_Runtime/Npu/ll_aton/ll_aton.c ****     t |= ((LL_Switch_InitStruct[i].context1 != 0) << en_shift[1]);
1006:Lib/AI_Runtime/Npu/ll_aton/ll_aton.c ****     t |= (ATONN_SRCPORT_ID(LL_Switch_InitStruct[i].source1) << link_shift[1]);
1007:Lib/AI_Runtime/Npu/ll_aton/ll_aton.c ****     t |= ((LL_Switch_InitStruct[i].frames1 << fnr_shift[1]) & fnr_mask[1]);
1008:Lib/AI_Runtime/Npu/ll_aton/ll_aton.c **** #else
1009:Lib/AI_Runtime/Npu/ll_aton/ll_aton.c ****     int c;
1010:Lib/AI_Runtime/Npu/ll_aton/ll_aton.c ****     for (c = 0; c < ATON_SWITCH_CONTEXT_NUM; c++)
1011:Lib/AI_Runtime/Npu/ll_aton/ll_aton.c ****     {
1012:Lib/AI_Runtime/Npu/ll_aton/ll_aton.c ****       t |= ((LL_Switch_InitStruct[i].context[c] != 0) << en_shift[c]);
1013:Lib/AI_Runtime/Npu/ll_aton/ll_aton.c ****       t |= (ATONN_SRCPORT_ID(LL_Switch_InitStruct[i].source[c]) << link_shift[c]);
1014:Lib/AI_Runtime/Npu/ll_aton/ll_aton.c ****       t |= ((LL_Switch_InitStruct[i].frames[c] << fnr_shift[c]) & fnr_mask[c]);
1015:Lib/AI_Runtime/Npu/ll_aton/ll_aton.c ****     }
1016:Lib/AI_Runtime/Npu/ll_aton/ll_aton.c **** #endif
1017:Lib/AI_Runtime/Npu/ll_aton/ll_aton.c **** 
1018:Lib/AI_Runtime/Npu/ll_aton/ll_aton.c ****     ATON_REG_WRITE(reg, t);
1019:Lib/AI_Runtime/Npu/ll_aton/ll_aton.c ****   }
1020:Lib/AI_Runtime/Npu/ll_aton/ll_aton.c **** 
1021:Lib/AI_Runtime/Npu/ll_aton/ll_aton.c ****   return 0;
1022:Lib/AI_Runtime/Npu/ll_aton/ll_aton.c **** }
1023:Lib/AI_Runtime/Npu/ll_aton/ll_aton.c **** 
1024:Lib/AI_Runtime/Npu/ll_aton/ll_aton.c **** /**
1025:Lib/AI_Runtime/Npu/ll_aton/ll_aton.c ****  * @brief  Connects input and output port(s) on the streaming switch (clearing configuration at the
1026:Lib/AI_Runtime/Npu/ll_aton/ll_aton.c ****  * @param  LL_Switch_InitStruct Pointer to structure(s) describing ports to be connected
1027:Lib/AI_Runtime/Npu/ll_aton/ll_aton.c ****  * @param  n Number of entries in configuration array
1028:Lib/AI_Runtime/Npu/ll_aton/ll_aton.c ****  * @retval Error code
1029:Lib/AI_Runtime/Npu/ll_aton/ll_aton.c ****  */
1030:Lib/AI_Runtime/Npu/ll_aton/ll_aton.c **** int LL_Switch_Init(const LL_Switch_InitTypeDef *LL_Switch_InitStruct, int n)
1031:Lib/AI_Runtime/Npu/ll_aton/ll_aton.c **** {
1032:Lib/AI_Runtime/Npu/ll_aton/ll_aton.c ****   uint32_t t;
1033:Lib/AI_Runtime/Npu/ll_aton/ll_aton.c **** 
1034:Lib/AI_Runtime/Npu/ll_aton/ll_aton.c **** #if (LL_ATON_PLATFORM == LL_ATON_PLAT_EC_TRACE)
1035:Lib/AI_Runtime/Npu/ll_aton/ll_aton.c ****   ll_aton_static_checks();
1036:Lib/AI_Runtime/Npu/ll_aton/ll_aton.c **** #endif
1037:Lib/AI_Runtime/Npu/ll_aton/ll_aton.c **** 
1038:Lib/AI_Runtime/Npu/ll_aton/ll_aton.c ****   /* Clear Configuration */
1039:Lib/AI_Runtime/Npu/ll_aton/ll_aton.c ****   ATON_DISABLE_CLR_CONFCLR(STRSWITCH, 0);
1040:Lib/AI_Runtime/Npu/ll_aton/ll_aton.c **** 
1041:Lib/AI_Runtime/Npu/ll_aton/ll_aton.c ****   return LL_Switch_Init_NoReset(LL_Switch_InitStruct, n);
1042:Lib/AI_Runtime/Npu/ll_aton/ll_aton.c **** }
1043:Lib/AI_Runtime/Npu/ll_aton/ll_aton.c **** 
1044:Lib/AI_Runtime/Npu/ll_aton/ll_aton.c **** /**
1045:Lib/AI_Runtime/Npu/ll_aton/ll_aton.c ****  * @brief  Fully disconnect a destination port from source ports on the streaming switch
1046:Lib/AI_Runtime/Npu/ll_aton/ll_aton.c ****  * @param  LL_Switch_InitStruct Pointer to structure(s) describing ports to be disconnected
1047:Lib/AI_Runtime/Npu/ll_aton/ll_aton.c ****  * @param  n Number of entries in configuration array
1048:Lib/AI_Runtime/Npu/ll_aton/ll_aton.c ****  * @retval Error code
1049:Lib/AI_Runtime/Npu/ll_aton/ll_aton.c ****  */
1050:Lib/AI_Runtime/Npu/ll_aton/ll_aton.c **** int LL_Switch_Deinit(const LL_Switch_InitTypeDef *LL_Switch_InitStruct, int n)
1051:Lib/AI_Runtime/Npu/ll_aton/ll_aton.c **** {
ARM GAS  /tmp/ccgbPSBw.s 			page 20


1052:Lib/AI_Runtime/Npu/ll_aton/ll_aton.c ****   int i;
1053:Lib/AI_Runtime/Npu/ll_aton/ll_aton.c ****   volatile uint32_t *reg;
1054:Lib/AI_Runtime/Npu/ll_aton/ll_aton.c **** 
1055:Lib/AI_Runtime/Npu/ll_aton/ll_aton.c ****   for (i = 0; i < n; i++)
1056:Lib/AI_Runtime/Npu/ll_aton/ll_aton.c ****   {
1057:Lib/AI_Runtime/Npu/ll_aton/ll_aton.c ****     /* Compute target destination configuration register */
1058:Lib/AI_Runtime/Npu/ll_aton/ll_aton.c ****     reg = (uint32_t *)(ATON_STRSWITCH_BASE(0) + ATONN_DSTPORT_ID(LL_Switch_InitStruct[i].dest));
1059:Lib/AI_Runtime/Npu/ll_aton/ll_aton.c **** 
1060:Lib/AI_Runtime/Npu/ll_aton/ll_aton.c ****     /* Disable contexts */
1061:Lib/AI_Runtime/Npu/ll_aton/ll_aton.c ****     ATON_REG_WRITE(reg, 0);
1062:Lib/AI_Runtime/Npu/ll_aton/ll_aton.c ****   }
1063:Lib/AI_Runtime/Npu/ll_aton/ll_aton.c **** 
1064:Lib/AI_Runtime/Npu/ll_aton/ll_aton.c ****   return 0;
1065:Lib/AI_Runtime/Npu/ll_aton/ll_aton.c **** }
1066:Lib/AI_Runtime/Npu/ll_aton/ll_aton.c **** 
1067:Lib/AI_Runtime/Npu/ll_aton/ll_aton.c **** /**
1068:Lib/AI_Runtime/Npu/ll_aton/ll_aton.c ****  * @brief  Disconnects destination and source port(s) on the streaming switch
1069:Lib/AI_Runtime/Npu/ll_aton/ll_aton.c ****  * @param  LL_Switch_InitStruct Pointer to structure(s) describing ports to be disconnected
1070:Lib/AI_Runtime/Npu/ll_aton/ll_aton.c ****  * @param  n Number of entries in configuration array
1071:Lib/AI_Runtime/Npu/ll_aton/ll_aton.c ****  * @retval Error code
1072:Lib/AI_Runtime/Npu/ll_aton/ll_aton.c ****  */
1073:Lib/AI_Runtime/Npu/ll_aton/ll_aton.c **** int LL_Switch_Deinit_Fine_Grained(const LL_Switch_InitTypeDef *LL_Switch_InitStruct, int n)
1074:Lib/AI_Runtime/Npu/ll_aton/ll_aton.c **** {
1075:Lib/AI_Runtime/Npu/ll_aton/ll_aton.c ****   int i;
1076:Lib/AI_Runtime/Npu/ll_aton/ll_aton.c ****   volatile uint32_t *reg;
1077:Lib/AI_Runtime/Npu/ll_aton/ll_aton.c ****   unsigned int en_shift[ATON_SWITCH_CONTEXT_NUM] = {ATON_STRSWITCH_DST_EN0_LSB, ATON_STRSWITCH_DST_
1078:Lib/AI_Runtime/Npu/ll_aton/ll_aton.c **** 
1079:Lib/AI_Runtime/Npu/ll_aton/ll_aton.c ****   for (i = 0; i < n; i++)
1080:Lib/AI_Runtime/Npu/ll_aton/ll_aton.c ****   {
1081:Lib/AI_Runtime/Npu/ll_aton/ll_aton.c ****     /* Compute target destination configuration register */
1082:Lib/AI_Runtime/Npu/ll_aton/ll_aton.c ****     reg = (uint32_t *)(ATON_STRSWITCH_BASE(0) + ATONN_DSTPORT_ID(LL_Switch_InitStruct[i].dest));
1083:Lib/AI_Runtime/Npu/ll_aton/ll_aton.c **** 
1084:Lib/AI_Runtime/Npu/ll_aton/ll_aton.c ****     /* Disable context */
1085:Lib/AI_Runtime/Npu/ll_aton/ll_aton.c ****     uint32_t t = *reg;
1086:Lib/AI_Runtime/Npu/ll_aton/ll_aton.c **** #if ATON_SWITCH_CONTEXT_NUM == 2
1087:Lib/AI_Runtime/Npu/ll_aton/ll_aton.c ****     t &= ~((LL_Switch_InitStruct[i].context0 != 0) << en_shift[0]);
1088:Lib/AI_Runtime/Npu/ll_aton/ll_aton.c ****     t &= ~((LL_Switch_InitStruct[i].context1 != 0) << en_shift[1]);
1089:Lib/AI_Runtime/Npu/ll_aton/ll_aton.c **** #else
1090:Lib/AI_Runtime/Npu/ll_aton/ll_aton.c ****     int c;
1091:Lib/AI_Runtime/Npu/ll_aton/ll_aton.c ****     for (c = 0; c < ATON_SWITCH_CONTEXT_NUM; c++)
1092:Lib/AI_Runtime/Npu/ll_aton/ll_aton.c ****       t &= ~((LL_Switch_InitStruct[i].context[c] != 0) << en_shift[c]);
1093:Lib/AI_Runtime/Npu/ll_aton/ll_aton.c **** #endif
1094:Lib/AI_Runtime/Npu/ll_aton/ll_aton.c ****     ATON_REG_WRITE(reg, t);
1095:Lib/AI_Runtime/Npu/ll_aton/ll_aton.c ****   }
1096:Lib/AI_Runtime/Npu/ll_aton/ll_aton.c **** 
1097:Lib/AI_Runtime/Npu/ll_aton/ll_aton.c ****   return 0;
1098:Lib/AI_Runtime/Npu/ll_aton/ll_aton.c **** }
1099:Lib/AI_Runtime/Npu/ll_aton/ll_aton.c **** 
1100:Lib/AI_Runtime/Npu/ll_aton/ll_aton.c **** #ifdef ATON_STRSWITCH_VC_NUM
1101:Lib/AI_Runtime/Npu/ll_aton/ll_aton.c **** 
1102:Lib/AI_Runtime/Npu/ll_aton/ll_aton.c **** /**
1103:Lib/AI_Runtime/Npu/ll_aton/ll_aton.c ****  * @brief  Connects input and output port(s) on the streaming switch with virtual channels (without
1104:Lib/AI_Runtime/Npu/ll_aton/ll_aton.c ****  * configuration)
1105:Lib/AI_Runtime/Npu/ll_aton/ll_aton.c ****  * @param  LL_SwitchVC_InitStruct Pointer to structure(s) describing ports to be connected
1106:Lib/AI_Runtime/Npu/ll_aton/ll_aton.c ****  * @param  n Number of entries in configuration array
1107:Lib/AI_Runtime/Npu/ll_aton/ll_aton.c ****  * @retval Error code
1108:Lib/AI_Runtime/Npu/ll_aton/ll_aton.c ****  */
ARM GAS  /tmp/ccgbPSBw.s 			page 21


1109:Lib/AI_Runtime/Npu/ll_aton/ll_aton.c **** int LL_SwitchVC_Init_NoReset(const LL_SwitchVC_InitTypeDef *LL_SwitchVC_InitStruct, int n)
1110:Lib/AI_Runtime/Npu/ll_aton/ll_aton.c **** {
1111:Lib/AI_Runtime/Npu/ll_aton/ll_aton.c ****   int i;
1112:Lib/AI_Runtime/Npu/ll_aton/ll_aton.c ****   volatile uint32_t *reg;
1113:Lib/AI_Runtime/Npu/ll_aton/ll_aton.c ****   uint32_t t;
1114:Lib/AI_Runtime/Npu/ll_aton/ll_aton.c ****   unsigned int en_shift = ATON_STRSWITCH_VC_DST_EN_LSB;
1115:Lib/AI_Runtime/Npu/ll_aton/ll_aton.c ****   unsigned int src_shift = ATON_STRSWITCH_VC_DST_SRC_LSB;
1116:Lib/AI_Runtime/Npu/ll_aton/ll_aton.c **** 
1117:Lib/AI_Runtime/Npu/ll_aton/ll_aton.c ****   /* Enable Switch */
1118:Lib/AI_Runtime/Npu/ll_aton/ll_aton.c ****   t = ATON_STRSWITCH_VC_CTRL_DT;
1119:Lib/AI_Runtime/Npu/ll_aton/ll_aton.c ****   t = ATON_STRSWITCH_VC_CTRL_SET_EN(t, 1);
1120:Lib/AI_Runtime/Npu/ll_aton/ll_aton.c ****   ATON_STRSWITCH_VC_CTRL_SET(0, t);
1121:Lib/AI_Runtime/Npu/ll_aton/ll_aton.c **** 
1122:Lib/AI_Runtime/Npu/ll_aton/ll_aton.c ****   for (i = 0; i < n; i++)
1123:Lib/AI_Runtime/Npu/ll_aton/ll_aton.c ****   {
1124:Lib/AI_Runtime/Npu/ll_aton/ll_aton.c ****     /* Compute target destination configuration register */
1125:Lib/AI_Runtime/Npu/ll_aton/ll_aton.c ****     reg = (uint32_t *)(ATON_STRSWITCH_VC_BASE(0) + ATONN_DSTPORT_ID(LL_SwitchVC_InitStruct[i].dest)
1126:Lib/AI_Runtime/Npu/ll_aton/ll_aton.c ****     t = 0;
1127:Lib/AI_Runtime/Npu/ll_aton/ll_aton.c ****     /* Enable Context and create link */
1128:Lib/AI_Runtime/Npu/ll_aton/ll_aton.c ****     t |= (1 << en_shift);
1129:Lib/AI_Runtime/Npu/ll_aton/ll_aton.c ****     t |= (ATONN_SRCPORT_ID(LL_SwitchVC_InitStruct[i].source) << src_shift);
1130:Lib/AI_Runtime/Npu/ll_aton/ll_aton.c ****     ATON_REG_WRITE(reg, t);
1131:Lib/AI_Runtime/Npu/ll_aton/ll_aton.c ****   }
1132:Lib/AI_Runtime/Npu/ll_aton/ll_aton.c **** 
1133:Lib/AI_Runtime/Npu/ll_aton/ll_aton.c ****   return 0;
1134:Lib/AI_Runtime/Npu/ll_aton/ll_aton.c **** }
1135:Lib/AI_Runtime/Npu/ll_aton/ll_aton.c **** 
1136:Lib/AI_Runtime/Npu/ll_aton/ll_aton.c **** /**
1137:Lib/AI_Runtime/Npu/ll_aton/ll_aton.c ****  * @brief  Connects input and output port(s) on the streaming switch with virtual channels (clearin
1138:Lib/AI_Runtime/Npu/ll_aton/ll_aton.c ****  * the beginning)
1139:Lib/AI_Runtime/Npu/ll_aton/ll_aton.c ****  * @param  LL_SwitchVC_InitStruct Pointer to structure(s) describing ports to be connected
1140:Lib/AI_Runtime/Npu/ll_aton/ll_aton.c ****  * @param  n Number of entries in configuration array
1141:Lib/AI_Runtime/Npu/ll_aton/ll_aton.c ****  * @retval Error code
1142:Lib/AI_Runtime/Npu/ll_aton/ll_aton.c ****  */
1143:Lib/AI_Runtime/Npu/ll_aton/ll_aton.c **** int LL_SwitchVC_Init(const LL_SwitchVC_InitTypeDef *LL_SwitchVC_InitStruct, int n)
1144:Lib/AI_Runtime/Npu/ll_aton/ll_aton.c **** {
1145:Lib/AI_Runtime/Npu/ll_aton/ll_aton.c ****   uint32_t t;
1146:Lib/AI_Runtime/Npu/ll_aton/ll_aton.c **** 
1147:Lib/AI_Runtime/Npu/ll_aton/ll_aton.c ****   /* Clear Configuration */
1148:Lib/AI_Runtime/Npu/ll_aton/ll_aton.c ****   ATON_DISABLE_CLR_CONFCLR(STRSWITCH_VC, 0);
1149:Lib/AI_Runtime/Npu/ll_aton/ll_aton.c **** 
1150:Lib/AI_Runtime/Npu/ll_aton/ll_aton.c ****   return LL_SwitchVC_Init_NoReset(LL_SwitchVC_InitStruct, n);
1151:Lib/AI_Runtime/Npu/ll_aton/ll_aton.c **** }
1152:Lib/AI_Runtime/Npu/ll_aton/ll_aton.c **** 
1153:Lib/AI_Runtime/Npu/ll_aton/ll_aton.c **** /**
1154:Lib/AI_Runtime/Npu/ll_aton/ll_aton.c ****  * @brief  Fully disconnect a destination port from source ports on the streaming switch with virtu
1155:Lib/AI_Runtime/Npu/ll_aton/ll_aton.c ****  * @param  LL_SwitchVC_InitStruct Pointer to structure(s) describing ports to be disconnected
1156:Lib/AI_Runtime/Npu/ll_aton/ll_aton.c ****  * @param  n Number of entries in configuration array
1157:Lib/AI_Runtime/Npu/ll_aton/ll_aton.c ****  * @retval Error code
1158:Lib/AI_Runtime/Npu/ll_aton/ll_aton.c ****  */
1159:Lib/AI_Runtime/Npu/ll_aton/ll_aton.c **** int LL_SwitchVC_Deinit(const LL_SwitchVC_InitTypeDef *LL_SwitchVC_InitStruct, int n)
1160:Lib/AI_Runtime/Npu/ll_aton/ll_aton.c **** {
1161:Lib/AI_Runtime/Npu/ll_aton/ll_aton.c ****   int i;
1162:Lib/AI_Runtime/Npu/ll_aton/ll_aton.c ****   volatile uint32_t *reg;
1163:Lib/AI_Runtime/Npu/ll_aton/ll_aton.c **** 
1164:Lib/AI_Runtime/Npu/ll_aton/ll_aton.c ****   for (i = 0; i < n; i++)
1165:Lib/AI_Runtime/Npu/ll_aton/ll_aton.c ****   {
ARM GAS  /tmp/ccgbPSBw.s 			page 22


1166:Lib/AI_Runtime/Npu/ll_aton/ll_aton.c ****     /* Compute target destination configuration register */
1167:Lib/AI_Runtime/Npu/ll_aton/ll_aton.c ****     reg = (uint32_t *)(ATON_STRSWITCH_VC_BASE(0) + ATONN_DSTPORT_ID(LL_SwitchVC_InitStruct[i].dest)
1168:Lib/AI_Runtime/Npu/ll_aton/ll_aton.c **** 
1169:Lib/AI_Runtime/Npu/ll_aton/ll_aton.c ****     /* Disable contexts */
1170:Lib/AI_Runtime/Npu/ll_aton/ll_aton.c ****     ATON_REG_WRITE(reg, 0);
1171:Lib/AI_Runtime/Npu/ll_aton/ll_aton.c ****   }
1172:Lib/AI_Runtime/Npu/ll_aton/ll_aton.c **** 
1173:Lib/AI_Runtime/Npu/ll_aton/ll_aton.c ****   return 0;
1174:Lib/AI_Runtime/Npu/ll_aton/ll_aton.c **** }
1175:Lib/AI_Runtime/Npu/ll_aton/ll_aton.c **** 
1176:Lib/AI_Runtime/Npu/ll_aton/ll_aton.c **** /**
1177:Lib/AI_Runtime/Npu/ll_aton/ll_aton.c ****  * @brief  Disconnects destination and source port(s) on the streaming switch with virtual channels
1178:Lib/AI_Runtime/Npu/ll_aton/ll_aton.c ****  * @param  LL_SwitchVC_InitStruct Pointer to structure(s) describing ports to be disconnected
1179:Lib/AI_Runtime/Npu/ll_aton/ll_aton.c ****  * @param  n Number of entries in configuration array
1180:Lib/AI_Runtime/Npu/ll_aton/ll_aton.c ****  * @retval Error code
1181:Lib/AI_Runtime/Npu/ll_aton/ll_aton.c ****  */
1182:Lib/AI_Runtime/Npu/ll_aton/ll_aton.c **** int LL_SwitchVC_Deinit_Fine_Grained(const LL_SwitchVC_InitTypeDef *LL_SwitchVC_InitStruct, int n)
1183:Lib/AI_Runtime/Npu/ll_aton/ll_aton.c **** {
1184:Lib/AI_Runtime/Npu/ll_aton/ll_aton.c ****   int i;
1185:Lib/AI_Runtime/Npu/ll_aton/ll_aton.c ****   volatile uint32_t *reg;
1186:Lib/AI_Runtime/Npu/ll_aton/ll_aton.c ****   unsigned int en_shift = ATON_STRSWITCH_VC_DST_EN_LSB;
1187:Lib/AI_Runtime/Npu/ll_aton/ll_aton.c **** 
1188:Lib/AI_Runtime/Npu/ll_aton/ll_aton.c ****   for (i = 0; i < n; i++)
1189:Lib/AI_Runtime/Npu/ll_aton/ll_aton.c ****   {
1190:Lib/AI_Runtime/Npu/ll_aton/ll_aton.c ****     /* Compute target destination configuration register */
1191:Lib/AI_Runtime/Npu/ll_aton/ll_aton.c ****     reg = (uint32_t *)(ATON_STRSWITCH_VC_BASE(0) + ATONN_DSTPORT_ID(LL_SwitchVC_InitStruct[i].dest)
1192:Lib/AI_Runtime/Npu/ll_aton/ll_aton.c **** 
1193:Lib/AI_Runtime/Npu/ll_aton/ll_aton.c ****     /* Disable context */
1194:Lib/AI_Runtime/Npu/ll_aton/ll_aton.c ****     uint32_t t = *reg;
1195:Lib/AI_Runtime/Npu/ll_aton/ll_aton.c ****     t &= ~(1 << en_shift);
1196:Lib/AI_Runtime/Npu/ll_aton/ll_aton.c ****     ATON_REG_WRITE(reg, t);
1197:Lib/AI_Runtime/Npu/ll_aton/ll_aton.c ****   }
1198:Lib/AI_Runtime/Npu/ll_aton/ll_aton.c **** 
1199:Lib/AI_Runtime/Npu/ll_aton/ll_aton.c ****   return 0;
1200:Lib/AI_Runtime/Npu/ll_aton/ll_aton.c **** }
1201:Lib/AI_Runtime/Npu/ll_aton/ll_aton.c **** #endif // ATON_STRSWITCH_VC_NUM
1202:Lib/AI_Runtime/Npu/ll_aton/ll_aton.c **** 
1203:Lib/AI_Runtime/Npu/ll_aton/ll_aton.c **** #ifdef ATON_DECUN_NUM
1204:Lib/AI_Runtime/Npu/ll_aton/ll_aton.c **** 
1205:Lib/AI_Runtime/Npu/ll_aton/ll_aton.c **** static inline uint32_t decun_inc_page_addr(int id, uint32_t ctrl_val)
1206:Lib/AI_Runtime/Npu/ll_aton/ll_aton.c **** {
  34              		.loc 1 1206 1 view -0
  35              		.cfi_startproc
  36              		@ args = 0, pretend = 0, frame = 0
  37              		@ frame_needed = 0, uses_anonymous_args = 0
  38              		@ link register save eliminated.
1207:Lib/AI_Runtime/Npu/ll_aton/ll_aton.c ****   uint32_t page_addr = ATON_DECUN_CTRL_GET_PAGEADDR(ctrl_val);
  39              		.loc 1 1207 3 view .LVU1
1208:Lib/AI_Runtime/Npu/ll_aton/ll_aton.c ****   page_addr++;
  40              		.loc 1 1208 3 view .LVU2
1209:Lib/AI_Runtime/Npu/ll_aton/ll_aton.c ****   ctrl_val = ATON_DECUN_CTRL_SET_PAGEADDR(ctrl_val, page_addr);
  41              		.loc 1 1209 3 view .LVU3
1208:Lib/AI_Runtime/Npu/ll_aton/ll_aton.c ****   page_addr++;
  42              		.loc 1 1208 12 is_stmt 0 view .LVU4
  43 0000 01F03003 		and	r3, r1, #48
  44              		.loc 1 1209 14 view .LVU5
  45 0004 1033     		adds	r3, r3, #16
ARM GAS  /tmp/ccgbPSBw.s 			page 23


1210:Lib/AI_Runtime/Npu/ll_aton/ll_aton.c ****   ATON_DECUN_CTRL_SET(id, ctrl_val);
  46              		.loc 1 1210 3 view .LVU6
  47 0006 00F5B020 		add	r0, r0, #360448
  48              	.LVL1:
1209:Lib/AI_Runtime/Npu/ll_aton/ll_aton.c ****   ctrl_val = ATON_DECUN_CTRL_SET_PAGEADDR(ctrl_val, page_addr);
  49              		.loc 1 1209 14 view .LVU7
  50 000a 21F03002 		bic	r2, r1, #48
  51 000e 03F03003 		and	r3, r3, #48
  52              		.loc 1 1210 3 view .LVU8
  53 0012 F330     		adds	r0, r0, #243
  54              	.LVL2:
1209:Lib/AI_Runtime/Npu/ll_aton/ll_aton.c ****   ctrl_val = ATON_DECUN_CTRL_SET_PAGEADDR(ctrl_val, page_addr);
  55              		.loc 1 1209 12 view .LVU9
  56 0014 1343     		orrs	r3, r3, r2
  57              	.LVL3:
  58              		.loc 1 1210 3 is_stmt 1 view .LVU10
  59              		.loc 1 1210 3 view .LVU11
  60 0016 0003     		lsls	r0, r0, #12
  61              	.LVL4:
  62              		.loc 1 1210 3 is_stmt 0 view .LVU12
  63 0018 0360     		str	r3, [r0]
  64              		.loc 1 1210 3 is_stmt 1 view .LVU13
  65              		.loc 1 1210 36 view .LVU14
1211:Lib/AI_Runtime/Npu/ll_aton/ll_aton.c ****   return ctrl_val;
  66              		.loc 1 1211 3 view .LVU15
1212:Lib/AI_Runtime/Npu/ll_aton/ll_aton.c **** }
  67              		.loc 1 1212 1 is_stmt 0 view .LVU16
  68 001a 1846     		mov	r0, r3
  69 001c 7047     		bx	lr
  70              		.cfi_endproc
  71              	.LFE4840:
  73              		.section	.text.LL_Address_Physical2Virtual,"ax",%progbits
  74              		.align	1
  75              		.global	LL_Address_Physical2Virtual
  76              		.syntax unified
  77              		.thumb
  78              		.thumb_func
  80              	LL_Address_Physical2Virtual:
  81              	.LVL5:
  82              	.LFB4821:
 129:Lib/AI_Runtime/Npu/ll_aton/ll_aton.c ****   return ATON_LIB_PHYSICAL_TO_VIRTUAL_ADDR(address);
  83              		.loc 1 129 1 is_stmt 1 view -0
  84              		.cfi_startproc
  85              		@ args = 0, pretend = 0, frame = 0
  86              		@ frame_needed = 0, uses_anonymous_args = 0
  87              		@ link register save eliminated.
 130:Lib/AI_Runtime/Npu/ll_aton/ll_aton.c **** }
  88              		.loc 1 130 3 view .LVU18
 131:Lib/AI_Runtime/Npu/ll_aton/ll_aton.c **** 
  89              		.loc 1 131 1 is_stmt 0 view .LVU19
  90 0000 7047     		bx	lr
  91              		.cfi_endproc
  92              	.LFE4821:
  94              		.section	.text.LL_Address_Virtual2Physical,"ax",%progbits
  95              		.align	1
  96              		.global	LL_Address_Virtual2Physical
  97              		.syntax unified
ARM GAS  /tmp/ccgbPSBw.s 			page 24


  98              		.thumb
  99              		.thumb_func
 101              	LL_Address_Virtual2Physical:
 102              	.LFB4860:
 103              		.cfi_startproc
 133:Lib/AI_Runtime/Npu/ll_aton/ll_aton.c **** {
 104              		.loc 1 133 16 is_stmt 1 view -0
 105              		@ args = 0, pretend = 0, frame = 0
 106              		@ frame_needed = 0, uses_anonymous_args = 0
 107              		@ link register save eliminated.
 108 0000 7047     		bx	lr
 109              		.cfi_endproc
 110              	.LFE4860:
 112              		.section	.text.startWatchdog,"ax",%progbits
 113              		.align	1
 114              		.weak	startWatchdog
 115              		.syntax unified
 116              		.thumb
 117              		.thumb_func
 119              	startWatchdog:
 120              	.LVL6:
 121              	.LFB4823:
 144:Lib/AI_Runtime/Npu/ll_aton/ll_aton.c ****   (void)timeout;
 122              		.loc 1 144 1 view -0
 123              		.cfi_startproc
 124              		@ args = 0, pretend = 0, frame = 0
 125              		@ frame_needed = 0, uses_anonymous_args = 0
 126              		@ link register save eliminated.
 145:Lib/AI_Runtime/Npu/ll_aton/ll_aton.c **** 
 127              		.loc 1 145 3 view .LVU22
 147:Lib/AI_Runtime/Npu/ll_aton/ll_aton.c **** }
 128              		.loc 1 147 3 view .LVU23
 148:Lib/AI_Runtime/Npu/ll_aton/ll_aton.c **** 
 129              		.loc 1 148 1 is_stmt 0 view .LVU24
 130 0000 0020     		movs	r0, #0
 131              	.LVL7:
 148:Lib/AI_Runtime/Npu/ll_aton/ll_aton.c **** 
 132              		.loc 1 148 1 view .LVU25
 133 0002 7047     		bx	lr
 134              		.cfi_endproc
 135              	.LFE4823:
 137              		.section	.text.checkWatchdog,"ax",%progbits
 138              		.align	1
 139              		.weak	checkWatchdog
 140              		.syntax unified
 141              		.thumb
 142              		.thumb_func
 144              	checkWatchdog:
 145              	.LFB4824:
 155:Lib/AI_Runtime/Npu/ll_aton/ll_aton.c ****   return 0;
 146              		.loc 1 155 1 is_stmt 1 view -0
 147              		.cfi_startproc
 148              		@ args = 0, pretend = 0, frame = 0
 149              		@ frame_needed = 0, uses_anonymous_args = 0
 150              		@ link register save eliminated.
 156:Lib/AI_Runtime/Npu/ll_aton/ll_aton.c **** }
 151              		.loc 1 156 3 view .LVU27
ARM GAS  /tmp/ccgbPSBw.s 			page 25


 157:Lib/AI_Runtime/Npu/ll_aton/ll_aton.c **** 
 152              		.loc 1 157 1 is_stmt 0 view .LVU28
 153 0000 0020     		movs	r0, #0
 154 0002 7047     		bx	lr
 155              		.cfi_endproc
 156              	.LFE4824:
 158              		.section	.rodata.LL_ATON_Init.str1.1,"aMS",%progbits,1
 159              	.LC3:
 160 0000 4E6F6E65 		.ascii	"None\000"
 160      00
 161              	.LC4:
 162 0005 4C69622F 		.ascii	"Lib/AI_Runtime/Npu/ll_aton/ll_aton.c\000"
 162      41495F52 
 162      756E7469 
 162      6D652F4E 
 162      70752F6C 
 163              	.LC5:
 164 002a 5B455252 		.ascii	"[ERROR] (%s:%d: errno: %s) %s unit ver mismatch: RT"
 164      4F525D20 
 164      2825733A 
 164      25643A20 
 164      6572726E 
 165 005d 4C3A743D 		.ascii	"L:t=%lu,ver=%lu.%lu  ATON.h:t=%lu,ver=%lu.%lu\012\015"
 165      256C752C 
 165      7665723D 
 165      256C752E 
 165      256C7520 
 166 008c 0A00     		.ascii	"\012\000"
 167              	.LC6:
 168 008e 53545245 		.ascii	"STRENG\000"
 168      4E4700
 169              	.LC7:
 170 0095 3000     		.ascii	"0\000"
 171              	.LC8:
 172 0097 434F4E56 		.ascii	"CONVACC\000"
 172      41434300 
 173              	.LC9:
 174 009f 504F4F4C 		.ascii	"POOL\000"
 174      00
 175              	.LC10:
 176 00a4 41524954 		.ascii	"ARITH\000"
 176      4800
 177              	.LC11:
 178 00aa 41435449 		.ascii	"ACTIV\000"
 178      5600
 179              	.LC12:
 180 00b0 44454355 		.ascii	"DECUN\000"
 180      4E00
 181              	.LC13:
 182 00b6 45504F43 		.ascii	"EPOCHCTRL\000"
 182      48435452 
 182      4C00
 183              	.LC14:
 184 00c0 52454342 		.ascii	"RECBUF\000"
 184      554600
 185              	.LC15:
 186 00c7 434C4B43 		.ascii	"CLKCTRL\000"
ARM GAS  /tmp/ccgbPSBw.s 			page 26


 186      54524C00 
 187              	.LC16:
 188 00cf 494E5443 		.ascii	"INTCTRL\000"
 188      54524C00 
 189              	.LC17:
 190 00d7 53545253 		.ascii	"STRSWITCH\000"
 190      57495443 
 190      4800
 191              	.LC18:
 192 00e1 42555349 		.ascii	"BUSIF\000"
 192      4600
 193              		.section	.text.LL_ATON_Init,"ax",%progbits
 194              		.align	1
 195              		.global	LL_ATON_Init
 196              		.syntax unified
 197              		.thumb
 198              		.thumb_func
 200              	LL_ATON_Init:
 201              	.LFB4825:
 168:Lib/AI_Runtime/Npu/ll_aton/ll_aton.c ****   uint32_t t;
 202              		.loc 1 168 1 is_stmt 1 view -0
 203              		.cfi_startproc
 204              		@ args = 0, pretend = 0, frame = 0
 205              		@ frame_needed = 0, uses_anonymous_args = 0
 169:Lib/AI_Runtime/Npu/ll_aton/ll_aton.c ****   int i;
 206              		.loc 1 169 3 view .LVU30
 170:Lib/AI_Runtime/Npu/ll_aton/ll_aton.c **** 
 207              		.loc 1 170 3 view .LVU31
 172:Lib/AI_Runtime/Npu/ll_aton/ll_aton.c **** 
 208              		.loc 1 172 3 view .LVU32
 209              	.LBB15:
 210              	.LBI15:
  62:Lib/AI_Runtime/Npu/ll_aton/ll_aton.c **** {
 211              		.loc 1 62 20 view .LVU33
 212              	.LBB16:
  64:Lib/AI_Runtime/Npu/ll_aton/ll_aton.c **** 
 213              		.loc 1 64 3 view .LVU34
  66:Lib/AI_Runtime/Npu/ll_aton/ll_aton.c ****     return;
 214              		.loc 1 66 3 view .LVU35
 215              	.LBE16:
 216              	.LBE15:
 168:Lib/AI_Runtime/Npu/ll_aton/ll_aton.c ****   uint32_t t;
 217              		.loc 1 168 1 is_stmt 0 view .LVU36
 218 0000 10B5     		push	{r4, lr}
 219              		.cfi_def_cfa_offset 8
 220              		.cfi_offset 4, -8
 221              		.cfi_offset 14, -4
 222              	.LBB19:
 223              	.LBB17:
  66:Lib/AI_Runtime/Npu/ll_aton/ll_aton.c ****     return;
 224              		.loc 1 66 12 view .LVU37
 225 0002 A34B     		ldr	r3, .L95
 226              	.LBE17:
 227              	.LBE19:
 168:Lib/AI_Runtime/Npu/ll_aton/ll_aton.c ****   uint32_t t;
 228              		.loc 1 168 1 view .LVU38
 229 0004 88B0     		sub	sp, sp, #32
ARM GAS  /tmp/ccgbPSBw.s 			page 27


 230              		.cfi_def_cfa_offset 40
 231              	.LBB20:
 232              	.LBB18:
  66:Lib/AI_Runtime/Npu/ll_aton/ll_aton.c ****     return;
 233              		.loc 1 66 6 view .LVU39
 234 0006 1A78     		ldrb	r2, [r3]	@ zero_extendqisi2
 235 0008 0AB9     		cbnz	r2, .L7
  68:Lib/AI_Runtime/Npu/ll_aton/ll_aton.c **** 
 236              		.loc 1 68 3 is_stmt 1 view .LVU40
  68:Lib/AI_Runtime/Npu/ll_aton/ll_aton.c **** 
 237              		.loc 1 68 8 is_stmt 0 view .LVU41
 238 000a 0122     		movs	r2, #1
 239 000c 1A70     		strb	r2, [r3]
  76:Lib/AI_Runtime/Npu/ll_aton/ll_aton.c ****   ASSERT_ATONN_DSTPORT(STRSWITCH, 0, STRENG, 1, 0);
 240              		.loc 1 76 3 is_stmt 1 view .LVU42
  77:Lib/AI_Runtime/Npu/ll_aton/ll_aton.c **** #endif
 241              		.loc 1 77 3 view .LVU43
  80:Lib/AI_Runtime/Npu/ll_aton/ll_aton.c ****   ASSERT_ATONN_DSTPORT(STRSWITCH, 0, STRENG, 2, 0);
 242              		.loc 1 80 3 view .LVU44
  81:Lib/AI_Runtime/Npu/ll_aton/ll_aton.c **** #endif
 243              		.loc 1 81 3 view .LVU45
 244              	.L7:
 245              	.LBE18:
 246              	.LBE20:
 175:Lib/AI_Runtime/Npu/ll_aton/ll_aton.c ****   t = ATON_CLKCTRL_CTRL_SET_CLR(t, 1);
 247              		.loc 1 175 3 view .LVU46
 175:Lib/AI_Runtime/Npu/ll_aton/ll_aton.c ****   t = ATON_CLKCTRL_CTRL_SET_CLR(t, 1);
 248              		.loc 1 175 5 is_stmt 0 view .LVU47
 249 000e A14B     		ldr	r3, .L95+4
 250 0010 1A68     		ldr	r2, [r3]
 251              	.LVL8:
 176:Lib/AI_Runtime/Npu/ll_aton/ll_aton.c ****   ATON_CLKCTRL_CTRL_SET(0, t);
 252              		.loc 1 176 3 is_stmt 1 view .LVU48
 176:Lib/AI_Runtime/Npu/ll_aton/ll_aton.c ****   ATON_CLKCTRL_CTRL_SET(0, t);
 253              		.loc 1 176 5 is_stmt 0 view .LVU49
 254 0012 42F00202 		orr	r2, r2, #2
 255              	.LVL9:
 177:Lib/AI_Runtime/Npu/ll_aton/ll_aton.c **** 
 256              		.loc 1 177 3 is_stmt 1 view .LVU50
 177:Lib/AI_Runtime/Npu/ll_aton/ll_aton.c **** 
 257              		.loc 1 177 3 view .LVU51
 258 0016 1A60     		str	r2, [r3]
 177:Lib/AI_Runtime/Npu/ll_aton/ll_aton.c **** 
 259              		.loc 1 177 3 view .LVU52
 177:Lib/AI_Runtime/Npu/ll_aton/ll_aton.c **** 
 260              		.loc 1 177 30 view .LVU53
 180:Lib/AI_Runtime/Npu/ll_aton/ll_aton.c ****   ATON_CLKCTRL_AGATES0_SET(0, 0xffffffff);
 261              		.loc 1 180 3 view .LVU54
 180:Lib/AI_Runtime/Npu/ll_aton/ll_aton.c ****   ATON_CLKCTRL_AGATES0_SET(0, 0xffffffff);
 262              		.loc 1 180 3 view .LVU55
 263 0018 0122     		movs	r2, #1
 264              	.LVL10:
 180:Lib/AI_Runtime/Npu/ll_aton/ll_aton.c ****   ATON_CLKCTRL_AGATES0_SET(0, 0xffffffff);
 265              		.loc 1 180 3 is_stmt 0 view .LVU56
 266 001a 1A60     		str	r2, [r3]
 267              	.LVL11:
 180:Lib/AI_Runtime/Npu/ll_aton/ll_aton.c ****   ATON_CLKCTRL_AGATES0_SET(0, 0xffffffff);
ARM GAS  /tmp/ccgbPSBw.s 			page 28


 268              		.loc 1 180 3 is_stmt 1 view .LVU57
 180:Lib/AI_Runtime/Npu/ll_aton/ll_aton.c ****   ATON_CLKCTRL_AGATES0_SET(0, 0xffffffff);
 269              		.loc 1 180 30 view .LVU58
 181:Lib/AI_Runtime/Npu/ll_aton/ll_aton.c ****   ATON_CLKCTRL_AGATES1_SET(0, 0xffffffff);
 270              		.loc 1 181 3 view .LVU59
 181:Lib/AI_Runtime/Npu/ll_aton/ll_aton.c ****   ATON_CLKCTRL_AGATES1_SET(0, 0xffffffff);
 271              		.loc 1 181 3 view .LVU60
 272 001c 4FF0FF32 		mov	r2, #-1
 273 0020 9A60     		str	r2, [r3, #8]
 181:Lib/AI_Runtime/Npu/ll_aton/ll_aton.c ****   ATON_CLKCTRL_AGATES1_SET(0, 0xffffffff);
 274              		.loc 1 181 3 view .LVU61
 181:Lib/AI_Runtime/Npu/ll_aton/ll_aton.c ****   ATON_CLKCTRL_AGATES1_SET(0, 0xffffffff);
 275              		.loc 1 181 42 view .LVU62
 182:Lib/AI_Runtime/Npu/ll_aton/ll_aton.c **** 
 276              		.loc 1 182 3 view .LVU63
 182:Lib/AI_Runtime/Npu/ll_aton/ll_aton.c **** 
 277              		.loc 1 182 3 view .LVU64
 278 0022 DA60     		str	r2, [r3, #12]
 182:Lib/AI_Runtime/Npu/ll_aton/ll_aton.c **** 
 279              		.loc 1 182 3 view .LVU65
 182:Lib/AI_Runtime/Npu/ll_aton/ll_aton.c **** 
 280              		.loc 1 182 42 view .LVU66
 188:Lib/AI_Runtime/Npu/ll_aton/ll_aton.c **** #endif
 281              		.loc 1 188 3 view .LVU67
 188:Lib/AI_Runtime/Npu/ll_aton/ll_aton.c **** #endif
 282              		.loc 1 188 3 view .LVU68
 283 0024 0022     		movs	r2, #0
 284 0026 1A61     		str	r2, [r3, #16]
 199:Lib/AI_Runtime/Npu/ll_aton/ll_aton.c **** 
 285              		.loc 1 199 3 is_stmt 0 discriminator 1 view .LVU69
 286 0028 03F5A043 		add	r3, r3, #20480
 287              	.LVL12:
 288              	.L8:
 188:Lib/AI_Runtime/Npu/ll_aton/ll_aton.c **** #endif
 289              		.loc 1 188 3 is_stmt 1 discriminator 1 view .LVU70
 188:Lib/AI_Runtime/Npu/ll_aton/ll_aton.c **** #endif
 290              		.loc 1 188 34 discriminator 1 view .LVU71
 199:Lib/AI_Runtime/Npu/ll_aton/ll_aton.c **** 
 291              		.loc 1 199 3 discriminator 1 view .LVU72
 199:Lib/AI_Runtime/Npu/ll_aton/ll_aton.c **** 
 292              		.loc 1 199 3 discriminator 1 view .LVU73
 293 002c 5C68     		ldr	r4, [r3, #4]
 294              	.LVL13:
 199:Lib/AI_Runtime/Npu/ll_aton/ll_aton.c **** 
 295              		.loc 1 199 3 discriminator 1 view .LVU74
 296 002e 002C     		cmp	r4, #0
 297 0030 FCD0     		beq	.L8
 199:Lib/AI_Runtime/Npu/ll_aton/ll_aton.c **** 
 298              		.loc 1 199 3 discriminator 2 view .LVU75
 299 0032 45F20103 		movw	r3, #20481
 300 0036 A2B2     		uxth	r2, r4
 301 0038 9A42     		cmp	r2, r3
 302 003a 40F09280 		bne	.L81
 202:Lib/AI_Runtime/Npu/ll_aton/ll_aton.c **** #endif
 303              		.loc 1 202 3 is_stmt 0 discriminator 1 view .LVU76
 304 003e 964B     		ldr	r3, .L95+8
 305              	.L9:
ARM GAS  /tmp/ccgbPSBw.s 			page 29


 199:Lib/AI_Runtime/Npu/ll_aton/ll_aton.c **** 
 306              		.loc 1 199 37 is_stmt 1 discriminator 4 view .LVU77
 202:Lib/AI_Runtime/Npu/ll_aton/ll_aton.c **** #endif
 307              		.loc 1 202 3 discriminator 1 view .LVU78
 202:Lib/AI_Runtime/Npu/ll_aton/ll_aton.c **** #endif
 308              		.loc 1 202 3 discriminator 1 view .LVU79
 309 0040 5C68     		ldr	r4, [r3, #4]
 310              	.LVL14:
 202:Lib/AI_Runtime/Npu/ll_aton/ll_aton.c **** #endif
 311              		.loc 1 202 3 discriminator 1 view .LVU80
 312 0042 002C     		cmp	r4, #0
 313 0044 FCD0     		beq	.L9
 202:Lib/AI_Runtime/Npu/ll_aton/ll_aton.c **** #endif
 314              		.loc 1 202 3 discriminator 2 view .LVU81
 315 0046 45F21713 		movw	r3, #20759
 316 004a A2B2     		uxth	r2, r4
 317 004c 9A42     		cmp	r2, r3
 318 004e 40F0B080 		bne	.L82
 206:Lib/AI_Runtime/Npu/ll_aton/ll_aton.c **** #endif
 319              		.loc 1 206 3 is_stmt 0 discriminator 1 view .LVU82
 320 0052 924B     		ldr	r3, .L95+12
 321              	.L11:
 202:Lib/AI_Runtime/Npu/ll_aton/ll_aton.c **** #endif
 322              		.loc 1 202 38 is_stmt 1 discriminator 4 view .LVU83
 206:Lib/AI_Runtime/Npu/ll_aton/ll_aton.c **** #endif
 323              		.loc 1 206 3 discriminator 1 view .LVU84
 206:Lib/AI_Runtime/Npu/ll_aton/ll_aton.c **** #endif
 324              		.loc 1 206 3 discriminator 1 view .LVU85
 325 0054 5C68     		ldr	r4, [r3, #4]
 326              	.LVL15:
 206:Lib/AI_Runtime/Npu/ll_aton/ll_aton.c **** #endif
 327              		.loc 1 206 3 discriminator 1 view .LVU86
 328 0056 002C     		cmp	r4, #0
 329 0058 FCD0     		beq	.L11
 206:Lib/AI_Runtime/Npu/ll_aton/ll_aton.c **** #endif
 330              		.loc 1 206 3 discriminator 2 view .LVU87
 331 005a 41F21C13 		movw	r3, #4380
 332 005e A2B2     		uxth	r2, r4
 333 0060 9A42     		cmp	r2, r3
 334 0062 40F0CC80 		bne	.L83
 210:Lib/AI_Runtime/Npu/ll_aton/ll_aton.c **** #endif
 335              		.loc 1 210 3 is_stmt 0 discriminator 1 view .LVU88
 336 0066 8E4B     		ldr	r3, .L95+16
 337              	.L13:
 206:Lib/AI_Runtime/Npu/ll_aton/ll_aton.c **** #endif
 338              		.loc 1 206 35 is_stmt 1 discriminator 4 view .LVU89
 210:Lib/AI_Runtime/Npu/ll_aton/ll_aton.c **** #endif
 339              		.loc 1 210 3 discriminator 1 view .LVU90
 210:Lib/AI_Runtime/Npu/ll_aton/ll_aton.c **** #endif
 340              		.loc 1 210 3 discriminator 1 view .LVU91
 341 0068 5C68     		ldr	r4, [r3, #4]
 342              	.LVL16:
 210:Lib/AI_Runtime/Npu/ll_aton/ll_aton.c **** #endif
 343              		.loc 1 210 3 discriminator 1 view .LVU92
 344 006a 002C     		cmp	r4, #0
 345 006c FCD0     		beq	.L13
 210:Lib/AI_Runtime/Npu/ll_aton/ll_aton.c **** #endif
ARM GAS  /tmp/ccgbPSBw.s 			page 30


 346              		.loc 1 210 3 discriminator 2 view .LVU93
 347 006e 41F21A03 		movw	r3, #4122
 348 0072 A2B2     		uxth	r2, r4
 349 0074 9A42     		cmp	r2, r3
 350 0076 40F0E680 		bne	.L84
 214:Lib/AI_Runtime/Npu/ll_aton/ll_aton.c **** #endif
 351              		.loc 1 214 3 is_stmt 0 discriminator 1 view .LVU94
 352 007a 8A4B     		ldr	r3, .L95+20
 353              	.L15:
 210:Lib/AI_Runtime/Npu/ll_aton/ll_aton.c **** #endif
 354              		.loc 1 210 36 is_stmt 1 discriminator 4 view .LVU95
 214:Lib/AI_Runtime/Npu/ll_aton/ll_aton.c **** #endif
 355              		.loc 1 214 3 discriminator 1 view .LVU96
 214:Lib/AI_Runtime/Npu/ll_aton/ll_aton.c **** #endif
 356              		.loc 1 214 3 discriminator 1 view .LVU97
 357 007c 5C68     		ldr	r4, [r3, #4]
 358              	.LVL17:
 214:Lib/AI_Runtime/Npu/ll_aton/ll_aton.c **** #endif
 359              		.loc 1 214 3 discriminator 1 view .LVU98
 360 007e 002C     		cmp	r4, #0
 361 0080 FCD0     		beq	.L15
 214:Lib/AI_Runtime/Npu/ll_aton/ll_aton.c **** #endif
 362              		.loc 1 214 3 discriminator 2 view .LVU99
 363 0082 41F21B13 		movw	r3, #4379
 364 0086 A2B2     		uxth	r2, r4
 365 0088 9A42     		cmp	r2, r3
 366 008a 40F02D81 		bne	.L85
 218:Lib/AI_Runtime/Npu/ll_aton/ll_aton.c **** #endif
 367              		.loc 1 218 3 is_stmt 0 discriminator 1 view .LVU100
 368 008e 864B     		ldr	r3, .L95+24
 369              	.L17:
 214:Lib/AI_Runtime/Npu/ll_aton/ll_aton.c **** #endif
 370              		.loc 1 214 36 is_stmt 1 discriminator 4 view .LVU101
 218:Lib/AI_Runtime/Npu/ll_aton/ll_aton.c **** #endif
 371              		.loc 1 218 3 discriminator 1 view .LVU102
 218:Lib/AI_Runtime/Npu/ll_aton/ll_aton.c **** #endif
 372              		.loc 1 218 3 discriminator 1 view .LVU103
 373 0090 5C68     		ldr	r4, [r3, #4]
 374              	.LVL18:
 218:Lib/AI_Runtime/Npu/ll_aton/ll_aton.c **** #endif
 375              		.loc 1 218 3 discriminator 1 view .LVU104
 376 0092 002C     		cmp	r4, #0
 377 0094 FCD0     		beq	.L17
 218:Lib/AI_Runtime/Npu/ll_aton/ll_aton.c **** #endif
 378              		.loc 1 218 3 discriminator 2 view .LVU105
 379 0096 41F61923 		movw	r3, #6681
 380 009a A2B2     		uxth	r2, r4
 381 009c 9A42     		cmp	r2, r3
 382 009e 40F04781 		bne	.L86
 222:Lib/AI_Runtime/Npu/ll_aton/ll_aton.c **** #endif
 383              		.loc 1 222 3 is_stmt 0 discriminator 1 view .LVU106
 384 00a2 824B     		ldr	r3, .L95+28
 385              	.L19:
 218:Lib/AI_Runtime/Npu/ll_aton/ll_aton.c **** #endif
 386              		.loc 1 218 36 is_stmt 1 discriminator 4 view .LVU107
 222:Lib/AI_Runtime/Npu/ll_aton/ll_aton.c **** #endif
 387              		.loc 1 222 3 discriminator 1 view .LVU108
ARM GAS  /tmp/ccgbPSBw.s 			page 31


 222:Lib/AI_Runtime/Npu/ll_aton/ll_aton.c **** #endif
 388              		.loc 1 222 3 discriminator 1 view .LVU109
 389 00a4 5C68     		ldr	r4, [r3, #4]
 390              	.LVL19:
 222:Lib/AI_Runtime/Npu/ll_aton/ll_aton.c **** #endif
 391              		.loc 1 222 3 discriminator 1 view .LVU110
 392 00a6 002C     		cmp	r4, #0
 393 00a8 FCD0     		beq	.L19
 222:Lib/AI_Runtime/Npu/ll_aton/ll_aton.c **** #endif
 394              		.loc 1 222 3 discriminator 2 view .LVU111
 395 00aa 41F22113 		movw	r3, #4385
 396 00ae A2B2     		uxth	r2, r4
 397 00b0 9A42     		cmp	r2, r3
 398 00b2 40F06281 		bne	.L87
 226:Lib/AI_Runtime/Npu/ll_aton/ll_aton.c **** #endif
 399              		.loc 1 226 3 is_stmt 0 discriminator 1 view .LVU112
 400 00b6 7E4B     		ldr	r3, .L95+32
 401              	.L21:
 222:Lib/AI_Runtime/Npu/ll_aton/ll_aton.c **** #endif
 402              		.loc 1 222 40 is_stmt 1 discriminator 4 view .LVU113
 226:Lib/AI_Runtime/Npu/ll_aton/ll_aton.c **** #endif
 403              		.loc 1 226 3 discriminator 1 view .LVU114
 226:Lib/AI_Runtime/Npu/ll_aton/ll_aton.c **** #endif
 404              		.loc 1 226 3 discriminator 1 view .LVU115
 405 00b8 5C68     		ldr	r4, [r3, #4]
 406              	.LVL20:
 226:Lib/AI_Runtime/Npu/ll_aton/ll_aton.c **** #endif
 407              		.loc 1 226 3 discriminator 1 view .LVU116
 408 00ba 002C     		cmp	r4, #0
 409 00bc FCD0     		beq	.L21
 226:Lib/AI_Runtime/Npu/ll_aton/ll_aton.c **** #endif
 410              		.loc 1 226 3 discriminator 2 view .LVU117
 411 00be 43F22023 		movw	r3, #12832
 412 00c2 A2B2     		uxth	r2, r4
 413 00c4 9A42     		cmp	r2, r3
 414 00c6 40F07C81 		bne	.L88
 245:Lib/AI_Runtime/Npu/ll_aton/ll_aton.c **** 
 415              		.loc 1 245 3 is_stmt 0 discriminator 1 view .LVU118
 416 00ca 724B     		ldr	r3, .L95+4
 417              	.L23:
 226:Lib/AI_Runtime/Npu/ll_aton/ll_aton.c **** #endif
 418              		.loc 1 226 37 is_stmt 1 discriminator 4 view .LVU119
 245:Lib/AI_Runtime/Npu/ll_aton/ll_aton.c **** 
 419              		.loc 1 245 3 discriminator 1 view .LVU120
 245:Lib/AI_Runtime/Npu/ll_aton/ll_aton.c **** 
 420              		.loc 1 245 3 discriminator 1 view .LVU121
 421 00cc 5C68     		ldr	r4, [r3, #4]
 422              	.LVL21:
 245:Lib/AI_Runtime/Npu/ll_aton/ll_aton.c **** 
 423              		.loc 1 245 3 discriminator 1 view .LVU122
 424 00ce 002C     		cmp	r4, #0
 425 00d0 FCD0     		beq	.L23
 245:Lib/AI_Runtime/Npu/ll_aton/ll_aton.c **** 
 426              		.loc 1 245 3 discriminator 2 view .LVU123
 427 00d2 41F21F23 		movw	r3, #4639
 428 00d6 A2B2     		uxth	r2, r4
 429 00d8 9A42     		cmp	r2, r3
ARM GAS  /tmp/ccgbPSBw.s 			page 32


 430 00da 40F09881 		bne	.L89
 247:Lib/AI_Runtime/Npu/ll_aton/ll_aton.c **** 
 431              		.loc 1 247 3 is_stmt 0 discriminator 1 view .LVU124
 432 00de 754B     		ldr	r3, .L95+36
 433              	.L25:
 245:Lib/AI_Runtime/Npu/ll_aton/ll_aton.c **** 
 434              		.loc 1 245 38 is_stmt 1 discriminator 4 view .LVU125
 247:Lib/AI_Runtime/Npu/ll_aton/ll_aton.c **** 
 435              		.loc 1 247 3 discriminator 1 view .LVU126
 247:Lib/AI_Runtime/Npu/ll_aton/ll_aton.c **** 
 436              		.loc 1 247 3 discriminator 1 view .LVU127
 437 00e0 5C68     		ldr	r4, [r3, #4]
 438              	.LVL22:
 247:Lib/AI_Runtime/Npu/ll_aton/ll_aton.c **** 
 439              		.loc 1 247 3 discriminator 1 view .LVU128
 440 00e2 002C     		cmp	r4, #0
 441 00e4 FCD0     		beq	.L25
 247:Lib/AI_Runtime/Npu/ll_aton/ll_aton.c **** 
 442              		.loc 1 247 3 discriminator 2 view .LVU129
 443 00e6 41F21E13 		movw	r3, #4382
 444 00ea A2B2     		uxth	r2, r4
 445 00ec 9A42     		cmp	r2, r3
 446 00ee 40F0B481 		bne	.L90
 249:Lib/AI_Runtime/Npu/ll_aton/ll_aton.c **** 
 447              		.loc 1 249 3 is_stmt 0 discriminator 1 view .LVU130
 448 00f2 714B     		ldr	r3, .L95+40
 449              	.L27:
 247:Lib/AI_Runtime/Npu/ll_aton/ll_aton.c **** 
 450              		.loc 1 247 38 is_stmt 1 discriminator 4 view .LVU131
 249:Lib/AI_Runtime/Npu/ll_aton/ll_aton.c **** 
 451              		.loc 1 249 3 discriminator 1 view .LVU132
 249:Lib/AI_Runtime/Npu/ll_aton/ll_aton.c **** 
 452              		.loc 1 249 3 discriminator 1 view .LVU133
 453 00f4 5C68     		ldr	r4, [r3, #4]
 454              	.LVL23:
 249:Lib/AI_Runtime/Npu/ll_aton/ll_aton.c **** 
 455              		.loc 1 249 3 discriminator 1 view .LVU134
 456 00f6 002C     		cmp	r4, #0
 457 00f8 FCD0     		beq	.L27
 249:Lib/AI_Runtime/Npu/ll_aton/ll_aton.c **** 
 458              		.loc 1 249 3 discriminator 2 view .LVU135
 459 00fa A3B2     		uxth	r3, r4
 460 00fc B3F5B05F 		cmp	r3, #5632
 461 0100 40F0CF81 		bne	.L91
 251:Lib/AI_Runtime/Npu/ll_aton/ll_aton.c **** 
 462              		.loc 1 251 3 is_stmt 0 discriminator 1 view .LVU136
 463 0104 6D4A     		ldr	r2, .L95+44
 464              	.L29:
 249:Lib/AI_Runtime/Npu/ll_aton/ll_aton.c **** 
 465              		.loc 1 249 40 is_stmt 1 discriminator 4 view .LVU137
 251:Lib/AI_Runtime/Npu/ll_aton/ll_aton.c **** 
 466              		.loc 1 251 3 discriminator 1 view .LVU138
 251:Lib/AI_Runtime/Npu/ll_aton/ll_aton.c **** 
 467              		.loc 1 251 3 discriminator 1 view .LVU139
 468 0106 5468     		ldr	r4, [r2, #4]
 469              	.LVL24:
 251:Lib/AI_Runtime/Npu/ll_aton/ll_aton.c **** 
ARM GAS  /tmp/ccgbPSBw.s 			page 33


 470              		.loc 1 251 3 discriminator 1 view .LVU140
 471 0108 002C     		cmp	r4, #0
 472 010a FCD0     		beq	.L29
 251:Lib/AI_Runtime/Npu/ll_aton/ll_aton.c **** 
 473              		.loc 1 251 3 discriminator 2 view .LVU141
 474 010c 45F21D03 		movw	r3, #20509
 475 0110 A1B2     		uxth	r1, r4
 476 0112 9942     		cmp	r1, r3
 477 0114 00F0EC81 		beq	.L93
 251:Lib/AI_Runtime/Npu/ll_aton/ll_aton.c **** 
 478              		.loc 1 251 3 discriminator 3 view .LVU142
 479 0118 FFF7FEFF 		bl	__errno
 480              	.LVL25:
 251:Lib/AI_Runtime/Npu/ll_aton/ll_aton.c **** 
 481              		.loc 1 251 3 is_stmt 0 discriminator 1 view .LVU143
 482 011c 0368     		ldr	r3, [r0]
 483 011e 002B     		cmp	r3, #0
 484 0120 00F0E481 		beq	.L44
 251:Lib/AI_Runtime/Npu/ll_aton/ll_aton.c **** 
 485              		.loc 1 251 3 discriminator 5 view .LVU144
 486 0124 FFF7FEFF 		bl	__errno
 487              	.LVL26:
 251:Lib/AI_Runtime/Npu/ll_aton/ll_aton.c **** 
 488              		.loc 1 251 3 discriminator 1 view .LVU145
 489 0128 0068     		ldr	r0, [r0]
 490 012a FFF7FEFF 		bl	strerror
 491              	.LVL27:
 492 012e 0346     		mov	r3, r0
 493              	.L32:
 251:Lib/AI_Runtime/Npu/ll_aton/ll_aton.c **** 
 494              		.loc 1 251 3 discriminator 8 view .LVU146
 495 0130 0522     		movs	r2, #5
 496 0132 0021     		movs	r1, #0
 497 0134 CDE90521 		strd	r2, r1, [sp, #20]
 498 0138 1D22     		movs	r2, #29
 499 013a 0492     		str	r2, [sp, #16]
 500 013c C4F30322 		ubfx	r2, r4, #8, #4
 501 0140 0392     		str	r2, [sp, #12]
 502 0142 C4F30332 		ubfx	r2, r4, #12, #4
 503 0146 0292     		str	r2, [sp, #8]
 504 0148 5D4A     		ldr	r2, .L95+48
 505 014a E4B2     		uxtb	r4, r4
 506              	.LVL28:
 251:Lib/AI_Runtime/Npu/ll_aton/ll_aton.c **** 
 507              		.loc 1 251 3 discriminator 8 view .LVU147
 508 014c 5D49     		ldr	r1, .L95+52
 509 014e 0092     		str	r2, [sp]
 510 0150 5D48     		ldr	r0, .L95+56
 511 0152 FB22     		movs	r2, #251
 512 0154 0194     		str	r4, [sp, #4]
 513 0156 FFF7FEFF 		bl	printf
 514              	.LVL29:
 251:Lib/AI_Runtime/Npu/ll_aton/ll_aton.c **** 
 515              		.loc 1 251 3 is_stmt 1 discriminator 1 view .LVU148
 251:Lib/AI_Runtime/Npu/ll_aton/ll_aton.c **** 
 516              		.loc 1 251 3 discriminator 10 view .LVU149
 517 015a FB21     		movs	r1, #251
ARM GAS  /tmp/ccgbPSBw.s 			page 34


 518 015c 5B4B     		ldr	r3, .L95+60
 519 015e 5C4A     		ldr	r2, .L95+64
 520 0160 22E0     		b	.L94
 521              	.LVL30:
 522              	.L81:
 199:Lib/AI_Runtime/Npu/ll_aton/ll_aton.c **** 
 523              		.loc 1 199 3 discriminator 3 view .LVU150
 524 0162 FFF7FEFF 		bl	__errno
 525              	.LVL31:
 199:Lib/AI_Runtime/Npu/ll_aton/ll_aton.c **** 
 526              		.loc 1 199 3 is_stmt 0 discriminator 1 view .LVU151
 527 0166 0368     		ldr	r3, [r0]
 528 0168 0BB3     		cbz	r3, .L33
 199:Lib/AI_Runtime/Npu/ll_aton/ll_aton.c **** 
 529              		.loc 1 199 3 discriminator 5 view .LVU152
 530 016a FFF7FEFF 		bl	__errno
 531              	.LVL32:
 199:Lib/AI_Runtime/Npu/ll_aton/ll_aton.c **** 
 532              		.loc 1 199 3 discriminator 1 view .LVU153
 533 016e 0068     		ldr	r0, [r0]
 534 0170 FFF7FEFF 		bl	strerror
 535              	.LVL33:
 536 0174 0346     		mov	r3, r0
 537              	.L10:
 199:Lib/AI_Runtime/Npu/ll_aton/ll_aton.c **** 
 538              		.loc 1 199 3 discriminator 8 view .LVU154
 539 0176 0522     		movs	r2, #5
 540 0178 4FF0000E 		mov	lr, #0
 541 017c CDE9052E 		strd	r2, lr, [sp, #20]
 542 0180 0122     		movs	r2, #1
 543 0182 0492     		str	r2, [sp, #16]
 544 0184 C4F30322 		ubfx	r2, r4, #8, #4
 545 0188 0392     		str	r2, [sp, #12]
 546 018a C4F30332 		ubfx	r2, r4, #12, #4
 547 018e 0292     		str	r2, [sp, #8]
 548 0190 504A     		ldr	r2, .L95+68
 549 0192 E4B2     		uxtb	r4, r4
 550              	.LVL34:
 199:Lib/AI_Runtime/Npu/ll_aton/ll_aton.c **** 
 551              		.loc 1 199 3 discriminator 8 view .LVU155
 552 0194 4B49     		ldr	r1, .L95+52
 553 0196 0092     		str	r2, [sp]
 554 0198 4B48     		ldr	r0, .L95+56
 555 019a C722     		movs	r2, #199
 556 019c 0194     		str	r4, [sp, #4]
 557 019e FFF7FEFF 		bl	printf
 558              	.LVL35:
 199:Lib/AI_Runtime/Npu/ll_aton/ll_aton.c **** 
 559              		.loc 1 199 3 is_stmt 1 discriminator 1 view .LVU156
 199:Lib/AI_Runtime/Npu/ll_aton/ll_aton.c **** 
 560              		.loc 1 199 3 discriminator 10 view .LVU157
 561 01a2 C721     		movs	r1, #199
 562 01a4 494B     		ldr	r3, .L95+60
 563 01a6 4A4A     		ldr	r2, .L95+64
 564              	.LVL36:
 565              	.L94:
 202:Lib/AI_Runtime/Npu/ll_aton/ll_aton.c **** #endif
ARM GAS  /tmp/ccgbPSBw.s 			page 35


 566              		.loc 1 202 3 is_stmt 0 discriminator 10 view .LVU158
 567 01a8 4648     		ldr	r0, .L95+52
 568 01aa FFF7FEFF 		bl	__assert_func
 569              	.LVL37:
 570              	.L33:
 199:Lib/AI_Runtime/Npu/ll_aton/ll_aton.c **** 
 571              		.loc 1 199 3 discriminator 6 view .LVU159
 572 01ae 4A4B     		ldr	r3, .L95+72
 573 01b0 E1E7     		b	.L10
 574              	.L82:
 202:Lib/AI_Runtime/Npu/ll_aton/ll_aton.c **** #endif
 575              		.loc 1 202 3 is_stmt 1 discriminator 3 view .LVU160
 576 01b2 FFF7FEFF 		bl	__errno
 577              	.LVL38:
 202:Lib/AI_Runtime/Npu/ll_aton/ll_aton.c **** #endif
 578              		.loc 1 202 3 is_stmt 0 discriminator 1 view .LVU161
 579 01b6 0368     		ldr	r3, [r0]
 580 01b8 FBB1     		cbz	r3, .L34
 202:Lib/AI_Runtime/Npu/ll_aton/ll_aton.c **** #endif
 581              		.loc 1 202 3 discriminator 5 view .LVU162
 582 01ba FFF7FEFF 		bl	__errno
 583              	.LVL39:
 202:Lib/AI_Runtime/Npu/ll_aton/ll_aton.c **** #endif
 584              		.loc 1 202 3 discriminator 1 view .LVU163
 585 01be 0068     		ldr	r0, [r0]
 586 01c0 FFF7FEFF 		bl	strerror
 587              	.LVL40:
 588 01c4 0346     		mov	r3, r0
 589              	.L12:
 202:Lib/AI_Runtime/Npu/ll_aton/ll_aton.c **** #endif
 590              		.loc 1 202 3 discriminator 8 view .LVU164
 591 01c6 0522     		movs	r2, #5
 592 01c8 4FF0010C 		mov	ip, #1
 593 01cc CDE9052C 		strd	r2, ip, [sp, #20]
 594 01d0 1722     		movs	r2, #23
 595 01d2 0492     		str	r2, [sp, #16]
 596 01d4 C4F30322 		ubfx	r2, r4, #8, #4
 597 01d8 0392     		str	r2, [sp, #12]
 598 01da C4F30332 		ubfx	r2, r4, #12, #4
 599 01de 0292     		str	r2, [sp, #8]
 600 01e0 3E4A     		ldr	r2, .L95+76
 601 01e2 E4B2     		uxtb	r4, r4
 602              	.LVL41:
 202:Lib/AI_Runtime/Npu/ll_aton/ll_aton.c **** #endif
 603              		.loc 1 202 3 discriminator 8 view .LVU165
 604 01e4 3749     		ldr	r1, .L95+52
 605 01e6 0092     		str	r2, [sp]
 606 01e8 3748     		ldr	r0, .L95+56
 607 01ea CA22     		movs	r2, #202
 608 01ec 0194     		str	r4, [sp, #4]
 609 01ee FFF7FEFF 		bl	printf
 610              	.LVL42:
 202:Lib/AI_Runtime/Npu/ll_aton/ll_aton.c **** #endif
 611              		.loc 1 202 3 is_stmt 1 discriminator 1 view .LVU166
 202:Lib/AI_Runtime/Npu/ll_aton/ll_aton.c **** #endif
 612              		.loc 1 202 3 discriminator 10 view .LVU167
 613 01f2 CA21     		movs	r1, #202
ARM GAS  /tmp/ccgbPSBw.s 			page 36


 614 01f4 354B     		ldr	r3, .L95+60
 615 01f6 364A     		ldr	r2, .L95+64
 616 01f8 D6E7     		b	.L94
 617              	.LVL43:
 618              	.L34:
 202:Lib/AI_Runtime/Npu/ll_aton/ll_aton.c **** #endif
 619              		.loc 1 202 3 is_stmt 0 discriminator 6 view .LVU168
 620 01fa 374B     		ldr	r3, .L95+72
 621 01fc E3E7     		b	.L12
 622              	.L83:
 206:Lib/AI_Runtime/Npu/ll_aton/ll_aton.c **** #endif
 623              		.loc 1 206 3 is_stmt 1 discriminator 3 view .LVU169
 624 01fe FFF7FEFF 		bl	__errno
 625              	.LVL44:
 206:Lib/AI_Runtime/Npu/ll_aton/ll_aton.c **** #endif
 626              		.loc 1 206 3 is_stmt 0 discriminator 1 view .LVU170
 627 0202 0368     		ldr	r3, [r0]
 628 0204 EBB1     		cbz	r3, .L35
 206:Lib/AI_Runtime/Npu/ll_aton/ll_aton.c **** #endif
 629              		.loc 1 206 3 discriminator 5 view .LVU171
 630 0206 FFF7FEFF 		bl	__errno
 631              	.LVL45:
 206:Lib/AI_Runtime/Npu/ll_aton/ll_aton.c **** #endif
 632              		.loc 1 206 3 discriminator 1 view .LVU172
 633 020a 0068     		ldr	r0, [r0]
 634 020c FFF7FEFF 		bl	strerror
 635              	.LVL46:
 636 0210 0346     		mov	r3, r0
 637              	.L14:
 206:Lib/AI_Runtime/Npu/ll_aton/ll_aton.c **** #endif
 638              		.loc 1 206 3 discriminator 8 view .LVU173
 639 0212 0122     		movs	r2, #1
 640 0214 CDE90522 		strd	r2, r2, [sp, #20]
 641 0218 1C22     		movs	r2, #28
 642 021a 0492     		str	r2, [sp, #16]
 643 021c C4F30322 		ubfx	r2, r4, #8, #4
 644 0220 0392     		str	r2, [sp, #12]
 645 0222 C4F30332 		ubfx	r2, r4, #12, #4
 646 0226 0292     		str	r2, [sp, #8]
 647 0228 2D4A     		ldr	r2, .L95+80
 648 022a E4B2     		uxtb	r4, r4
 649              	.LVL47:
 206:Lib/AI_Runtime/Npu/ll_aton/ll_aton.c **** #endif
 650              		.loc 1 206 3 discriminator 8 view .LVU174
 651 022c 2549     		ldr	r1, .L95+52
 652 022e 0092     		str	r2, [sp]
 653 0230 2548     		ldr	r0, .L95+56
 654 0232 CE22     		movs	r2, #206
 655 0234 0194     		str	r4, [sp, #4]
 656 0236 FFF7FEFF 		bl	printf
 657              	.LVL48:
 206:Lib/AI_Runtime/Npu/ll_aton/ll_aton.c **** #endif
 658              		.loc 1 206 3 is_stmt 1 discriminator 1 view .LVU175
 206:Lib/AI_Runtime/Npu/ll_aton/ll_aton.c **** #endif
 659              		.loc 1 206 3 discriminator 10 view .LVU176
 660 023a CE21     		movs	r1, #206
 661 023c 234B     		ldr	r3, .L95+60
ARM GAS  /tmp/ccgbPSBw.s 			page 37


 662 023e 244A     		ldr	r2, .L95+64
 663 0240 B2E7     		b	.L94
 664              	.LVL49:
 665              	.L35:
 206:Lib/AI_Runtime/Npu/ll_aton/ll_aton.c **** #endif
 666              		.loc 1 206 3 is_stmt 0 discriminator 6 view .LVU177
 667 0242 254B     		ldr	r3, .L95+72
 668 0244 E5E7     		b	.L14
 669              	.L84:
 210:Lib/AI_Runtime/Npu/ll_aton/ll_aton.c **** #endif
 670              		.loc 1 210 3 is_stmt 1 discriminator 3 view .LVU178
 671 0246 FFF7FEFF 		bl	__errno
 672              	.LVL50:
 210:Lib/AI_Runtime/Npu/ll_aton/ll_aton.c **** #endif
 673              		.loc 1 210 3 is_stmt 0 discriminator 1 view .LVU179
 674 024a 0368     		ldr	r3, [r0]
 675 024c F3B1     		cbz	r3, .L36
 210:Lib/AI_Runtime/Npu/ll_aton/ll_aton.c **** #endif
 676              		.loc 1 210 3 discriminator 5 view .LVU180
 677 024e FFF7FEFF 		bl	__errno
 678              	.LVL51:
 210:Lib/AI_Runtime/Npu/ll_aton/ll_aton.c **** #endif
 679              		.loc 1 210 3 discriminator 1 view .LVU181
 680 0252 0068     		ldr	r0, [r0]
 681 0254 FFF7FEFF 		bl	strerror
 682              	.LVL52:
 683 0258 0346     		mov	r3, r0
 684              	.L16:
 210:Lib/AI_Runtime/Npu/ll_aton/ll_aton.c **** #endif
 685              		.loc 1 210 3 discriminator 8 view .LVU182
 686 025a 0122     		movs	r2, #1
 687 025c 0020     		movs	r0, #0
 688 025e CDE90520 		strd	r2, r0, [sp, #20]
 689 0262 1A22     		movs	r2, #26
 690 0264 0492     		str	r2, [sp, #16]
 691 0266 C4F30322 		ubfx	r2, r4, #8, #4
 692 026a 0392     		str	r2, [sp, #12]
 693 026c C4F30332 		ubfx	r2, r4, #12, #4
 694 0270 0292     		str	r2, [sp, #8]
 695 0272 1C4A     		ldr	r2, .L95+84
 696 0274 E4B2     		uxtb	r4, r4
 697              	.LVL53:
 210:Lib/AI_Runtime/Npu/ll_aton/ll_aton.c **** #endif
 698              		.loc 1 210 3 discriminator 8 view .LVU183
 699 0276 1349     		ldr	r1, .L95+52
 700 0278 0092     		str	r2, [sp]
 701 027a 1348     		ldr	r0, .L95+56
 702 027c D222     		movs	r2, #210
 703 027e 0194     		str	r4, [sp, #4]
 704 0280 FFF7FEFF 		bl	printf
 705              	.LVL54:
 210:Lib/AI_Runtime/Npu/ll_aton/ll_aton.c **** #endif
 706              		.loc 1 210 3 is_stmt 1 discriminator 1 view .LVU184
 210:Lib/AI_Runtime/Npu/ll_aton/ll_aton.c **** #endif
 707              		.loc 1 210 3 discriminator 10 view .LVU185
 708 0284 D221     		movs	r1, #210
 709 0286 114B     		ldr	r3, .L95+60
ARM GAS  /tmp/ccgbPSBw.s 			page 38


 710 0288 114A     		ldr	r2, .L95+64
 711 028a 8DE7     		b	.L94
 712              	.LVL55:
 713              	.L36:
 210:Lib/AI_Runtime/Npu/ll_aton/ll_aton.c **** #endif
 714              		.loc 1 210 3 is_stmt 0 discriminator 6 view .LVU186
 715 028c 124B     		ldr	r3, .L95+72
 716 028e E4E7     		b	.L16
 717              	.L96:
 718              		.align	2
 719              	.L95:
 720 0290 00000000 		.word	done.9
 721 0294 00000E58 		.word	1477312512
 722 0298 00F00E58 		.word	1477373952
 723 029c 00B00F58 		.word	1477423104
 724 02a0 00700F58 		.word	1477406720
 725 02a4 00500F58 		.word	1477398528
 726 02a8 00300F58 		.word	1477390336
 727 02ac 00E00F58 		.word	1477435392
 728 02b0 00D00F58 		.word	1477431296
 729 02b4 00100E58 		.word	1477316608
 730 02b8 00400E58 		.word	1477328896
 731 02bc 00200E58 		.word	1477320704
 732 02c0 E1000000 		.word	.LC18
 733 02c4 05000000 		.word	.LC4
 734 02c8 2A000000 		.word	.LC5
 735 02cc 95000000 		.word	.LC7
 736 02d0 00000000 		.word	__func__.10
 737 02d4 8E000000 		.word	.LC6
 738 02d8 00000000 		.word	.LC3
 739 02dc 97000000 		.word	.LC8
 740 02e0 9F000000 		.word	.LC9
 741 02e4 A4000000 		.word	.LC10
 742              	.L85:
 214:Lib/AI_Runtime/Npu/ll_aton/ll_aton.c **** #endif
 743              		.loc 1 214 3 is_stmt 1 discriminator 3 view .LVU187
 744 02e8 FFF7FEFF 		bl	__errno
 745              	.LVL56:
 214:Lib/AI_Runtime/Npu/ll_aton/ll_aton.c **** #endif
 746              		.loc 1 214 3 is_stmt 0 discriminator 1 view .LVU188
 747 02ec 0368     		ldr	r3, [r0]
 748 02ee EBB1     		cbz	r3, .L37
 214:Lib/AI_Runtime/Npu/ll_aton/ll_aton.c **** #endif
 749              		.loc 1 214 3 discriminator 5 view .LVU189
 750 02f0 FFF7FEFF 		bl	__errno
 751              	.LVL57:
 214:Lib/AI_Runtime/Npu/ll_aton/ll_aton.c **** #endif
 752              		.loc 1 214 3 discriminator 1 view .LVU190
 753 02f4 0068     		ldr	r0, [r0]
 754 02f6 FFF7FEFF 		bl	strerror
 755              	.LVL58:
 756 02fa 0346     		mov	r3, r0
 757              	.L18:
 214:Lib/AI_Runtime/Npu/ll_aton/ll_aton.c **** #endif
 758              		.loc 1 214 3 discriminator 8 view .LVU191
 759 02fc 0122     		movs	r2, #1
 760 02fe CDE90522 		strd	r2, r2, [sp, #20]
ARM GAS  /tmp/ccgbPSBw.s 			page 39


 761 0302 1B22     		movs	r2, #27
 762 0304 0492     		str	r2, [sp, #16]
 763 0306 C4F30322 		ubfx	r2, r4, #8, #4
 764 030a 0392     		str	r2, [sp, #12]
 765 030c C4F30332 		ubfx	r2, r4, #12, #4
 766 0310 0292     		str	r2, [sp, #8]
 767 0312 7C4A     		ldr	r2, .L97
 768 0314 E4B2     		uxtb	r4, r4
 769              	.LVL59:
 214:Lib/AI_Runtime/Npu/ll_aton/ll_aton.c **** #endif
 770              		.loc 1 214 3 discriminator 8 view .LVU192
 771 0316 7C49     		ldr	r1, .L97+4
 772 0318 0092     		str	r2, [sp]
 773 031a 7C48     		ldr	r0, .L97+8
 774 031c D622     		movs	r2, #214
 775 031e 0194     		str	r4, [sp, #4]
 776 0320 FFF7FEFF 		bl	printf
 777              	.LVL60:
 214:Lib/AI_Runtime/Npu/ll_aton/ll_aton.c **** #endif
 778              		.loc 1 214 3 is_stmt 1 discriminator 1 view .LVU193
 214:Lib/AI_Runtime/Npu/ll_aton/ll_aton.c **** #endif
 779              		.loc 1 214 3 discriminator 10 view .LVU194
 780 0324 D621     		movs	r1, #214
 781 0326 7A4B     		ldr	r3, .L97+12
 782 0328 7A4A     		ldr	r2, .L97+16
 783 032a 3DE7     		b	.L94
 784              	.LVL61:
 785              	.L37:
 214:Lib/AI_Runtime/Npu/ll_aton/ll_aton.c **** #endif
 786              		.loc 1 214 3 is_stmt 0 discriminator 6 view .LVU195
 787 032c 7A4B     		ldr	r3, .L97+20
 788 032e E5E7     		b	.L18
 789              	.L86:
 218:Lib/AI_Runtime/Npu/ll_aton/ll_aton.c **** #endif
 790              		.loc 1 218 3 is_stmt 1 discriminator 3 view .LVU196
 791 0330 FFF7FEFF 		bl	__errno
 792              	.LVL62:
 218:Lib/AI_Runtime/Npu/ll_aton/ll_aton.c **** #endif
 793              		.loc 1 218 3 is_stmt 0 discriminator 1 view .LVU197
 794 0334 0368     		ldr	r3, [r0]
 795 0336 F3B1     		cbz	r3, .L38
 218:Lib/AI_Runtime/Npu/ll_aton/ll_aton.c **** #endif
 796              		.loc 1 218 3 discriminator 5 view .LVU198
 797 0338 FFF7FEFF 		bl	__errno
 798              	.LVL63:
 218:Lib/AI_Runtime/Npu/ll_aton/ll_aton.c **** #endif
 799              		.loc 1 218 3 discriminator 1 view .LVU199
 800 033c 0068     		ldr	r0, [r0]
 801 033e FFF7FEFF 		bl	strerror
 802              	.LVL64:
 803 0342 0346     		mov	r3, r0
 804              	.L20:
 218:Lib/AI_Runtime/Npu/ll_aton/ll_aton.c **** #endif
 805              		.loc 1 218 3 discriminator 8 view .LVU200
 806 0344 0122     		movs	r2, #1
 807 0346 0A21     		movs	r1, #10
 808 0348 CDE90521 		strd	r2, r1, [sp, #20]
ARM GAS  /tmp/ccgbPSBw.s 			page 40


 809 034c 1922     		movs	r2, #25
 810 034e 0492     		str	r2, [sp, #16]
 811 0350 C4F30322 		ubfx	r2, r4, #8, #4
 812 0354 0392     		str	r2, [sp, #12]
 813 0356 C4F30332 		ubfx	r2, r4, #12, #4
 814 035a 0292     		str	r2, [sp, #8]
 815 035c 6F4A     		ldr	r2, .L97+24
 816 035e E4B2     		uxtb	r4, r4
 817              	.LVL65:
 218:Lib/AI_Runtime/Npu/ll_aton/ll_aton.c **** #endif
 818              		.loc 1 218 3 discriminator 8 view .LVU201
 819 0360 6949     		ldr	r1, .L97+4
 820 0362 0092     		str	r2, [sp]
 821 0364 6948     		ldr	r0, .L97+8
 822 0366 DA22     		movs	r2, #218
 823 0368 0194     		str	r4, [sp, #4]
 824 036a FFF7FEFF 		bl	printf
 825              	.LVL66:
 218:Lib/AI_Runtime/Npu/ll_aton/ll_aton.c **** #endif
 826              		.loc 1 218 3 is_stmt 1 discriminator 1 view .LVU202
 218:Lib/AI_Runtime/Npu/ll_aton/ll_aton.c **** #endif
 827              		.loc 1 218 3 discriminator 10 view .LVU203
 828 036e DA21     		movs	r1, #218
 829 0370 674B     		ldr	r3, .L97+12
 830 0372 684A     		ldr	r2, .L97+16
 831 0374 18E7     		b	.L94
 832              	.LVL67:
 833              	.L38:
 218:Lib/AI_Runtime/Npu/ll_aton/ll_aton.c **** #endif
 834              		.loc 1 218 3 is_stmt 0 discriminator 6 view .LVU204
 835 0376 684B     		ldr	r3, .L97+20
 836 0378 E4E7     		b	.L20
 837              	.L87:
 222:Lib/AI_Runtime/Npu/ll_aton/ll_aton.c **** #endif
 838              		.loc 1 222 3 is_stmt 1 discriminator 3 view .LVU205
 839 037a FFF7FEFF 		bl	__errno
 840              	.LVL68:
 222:Lib/AI_Runtime/Npu/ll_aton/ll_aton.c **** #endif
 841              		.loc 1 222 3 is_stmt 0 discriminator 1 view .LVU206
 842 037e 0368     		ldr	r3, [r0]
 843 0380 EBB1     		cbz	r3, .L39
 222:Lib/AI_Runtime/Npu/ll_aton/ll_aton.c **** #endif
 844              		.loc 1 222 3 discriminator 5 view .LVU207
 845 0382 FFF7FEFF 		bl	__errno
 846              	.LVL69:
 222:Lib/AI_Runtime/Npu/ll_aton/ll_aton.c **** #endif
 847              		.loc 1 222 3 discriminator 1 view .LVU208
 848 0386 0068     		ldr	r0, [r0]
 849 0388 FFF7FEFF 		bl	strerror
 850              	.LVL70:
 851 038c 0346     		mov	r3, r0
 852              	.L22:
 222:Lib/AI_Runtime/Npu/ll_aton/ll_aton.c **** #endif
 853              		.loc 1 222 3 discriminator 8 view .LVU209
 854 038e 0122     		movs	r2, #1
 855 0390 CDE90522 		strd	r2, r2, [sp, #20]
 856 0394 2122     		movs	r2, #33
ARM GAS  /tmp/ccgbPSBw.s 			page 41


 857 0396 0492     		str	r2, [sp, #16]
 858 0398 C4F30322 		ubfx	r2, r4, #8, #4
 859 039c 0392     		str	r2, [sp, #12]
 860 039e C4F30332 		ubfx	r2, r4, #12, #4
 861 03a2 0292     		str	r2, [sp, #8]
 862 03a4 5E4A     		ldr	r2, .L97+28
 863 03a6 E4B2     		uxtb	r4, r4
 864              	.LVL71:
 222:Lib/AI_Runtime/Npu/ll_aton/ll_aton.c **** #endif
 865              		.loc 1 222 3 discriminator 8 view .LVU210
 866 03a8 5749     		ldr	r1, .L97+4
 867 03aa 0092     		str	r2, [sp]
 868 03ac 5748     		ldr	r0, .L97+8
 869 03ae DE22     		movs	r2, #222
 870 03b0 0194     		str	r4, [sp, #4]
 871 03b2 FFF7FEFF 		bl	printf
 872              	.LVL72:
 222:Lib/AI_Runtime/Npu/ll_aton/ll_aton.c **** #endif
 873              		.loc 1 222 3 is_stmt 1 discriminator 1 view .LVU211
 222:Lib/AI_Runtime/Npu/ll_aton/ll_aton.c **** #endif
 874              		.loc 1 222 3 discriminator 10 view .LVU212
 875 03b6 DE21     		movs	r1, #222
 876 03b8 554B     		ldr	r3, .L97+12
 877 03ba 564A     		ldr	r2, .L97+16
 878 03bc F4E6     		b	.L94
 879              	.LVL73:
 880              	.L39:
 222:Lib/AI_Runtime/Npu/ll_aton/ll_aton.c **** #endif
 881              		.loc 1 222 3 is_stmt 0 discriminator 6 view .LVU213
 882 03be 564B     		ldr	r3, .L97+20
 883 03c0 E5E7     		b	.L22
 884              	.L88:
 226:Lib/AI_Runtime/Npu/ll_aton/ll_aton.c **** #endif
 885              		.loc 1 226 3 is_stmt 1 discriminator 3 view .LVU214
 886 03c2 FFF7FEFF 		bl	__errno
 887              	.LVL74:
 226:Lib/AI_Runtime/Npu/ll_aton/ll_aton.c **** #endif
 888              		.loc 1 226 3 is_stmt 0 discriminator 1 view .LVU215
 889 03c6 0368     		ldr	r3, [r0]
 890 03c8 FBB1     		cbz	r3, .L40
 226:Lib/AI_Runtime/Npu/ll_aton/ll_aton.c **** #endif
 891              		.loc 1 226 3 discriminator 5 view .LVU216
 892 03ca FFF7FEFF 		bl	__errno
 893              	.LVL75:
 226:Lib/AI_Runtime/Npu/ll_aton/ll_aton.c **** #endif
 894              		.loc 1 226 3 discriminator 1 view .LVU217
 895 03ce 0068     		ldr	r0, [r0]
 896 03d0 FFF7FEFF 		bl	strerror
 897              	.LVL76:
 898 03d4 0346     		mov	r3, r0
 899              	.L24:
 226:Lib/AI_Runtime/Npu/ll_aton/ll_aton.c **** #endif
 900              		.loc 1 226 3 discriminator 8 view .LVU218
 901 03d6 0322     		movs	r2, #3
 902 03d8 4FF0020E 		mov	lr, #2
 903 03dc CDE9052E 		strd	r2, lr, [sp, #20]
 904 03e0 2022     		movs	r2, #32
ARM GAS  /tmp/ccgbPSBw.s 			page 42


 905 03e2 0492     		str	r2, [sp, #16]
 906 03e4 C4F30322 		ubfx	r2, r4, #8, #4
 907 03e8 0392     		str	r2, [sp, #12]
 908 03ea C4F30332 		ubfx	r2, r4, #12, #4
 909 03ee 0292     		str	r2, [sp, #8]
 910 03f0 4C4A     		ldr	r2, .L97+32
 911 03f2 E4B2     		uxtb	r4, r4
 912              	.LVL77:
 226:Lib/AI_Runtime/Npu/ll_aton/ll_aton.c **** #endif
 913              		.loc 1 226 3 discriminator 8 view .LVU219
 914 03f4 4449     		ldr	r1, .L97+4
 915 03f6 0092     		str	r2, [sp]
 916 03f8 4448     		ldr	r0, .L97+8
 917 03fa E222     		movs	r2, #226
 918 03fc 0194     		str	r4, [sp, #4]
 919 03fe FFF7FEFF 		bl	printf
 920              	.LVL78:
 226:Lib/AI_Runtime/Npu/ll_aton/ll_aton.c **** #endif
 921              		.loc 1 226 3 is_stmt 1 discriminator 1 view .LVU220
 226:Lib/AI_Runtime/Npu/ll_aton/ll_aton.c **** #endif
 922              		.loc 1 226 3 discriminator 10 view .LVU221
 923 0402 E221     		movs	r1, #226
 924 0404 424B     		ldr	r3, .L97+12
 925 0406 434A     		ldr	r2, .L97+16
 926 0408 CEE6     		b	.L94
 927              	.LVL79:
 928              	.L40:
 226:Lib/AI_Runtime/Npu/ll_aton/ll_aton.c **** #endif
 929              		.loc 1 226 3 is_stmt 0 discriminator 6 view .LVU222
 930 040a 434B     		ldr	r3, .L97+20
 931 040c E3E7     		b	.L24
 932              	.L89:
 245:Lib/AI_Runtime/Npu/ll_aton/ll_aton.c **** 
 933              		.loc 1 245 3 is_stmt 1 discriminator 3 view .LVU223
 934 040e FFF7FEFF 		bl	__errno
 935              	.LVL80:
 245:Lib/AI_Runtime/Npu/ll_aton/ll_aton.c **** 
 936              		.loc 1 245 3 is_stmt 0 discriminator 1 view .LVU224
 937 0412 0368     		ldr	r3, [r0]
 938 0414 FBB1     		cbz	r3, .L41
 245:Lib/AI_Runtime/Npu/ll_aton/ll_aton.c **** 
 939              		.loc 1 245 3 discriminator 5 view .LVU225
 940 0416 FFF7FEFF 		bl	__errno
 941              	.LVL81:
 245:Lib/AI_Runtime/Npu/ll_aton/ll_aton.c **** 
 942              		.loc 1 245 3 discriminator 1 view .LVU226
 943 041a 0068     		ldr	r0, [r0]
 944 041c FFF7FEFF 		bl	strerror
 945              	.LVL82:
 946 0420 0346     		mov	r3, r0
 947              	.L26:
 245:Lib/AI_Runtime/Npu/ll_aton/ll_aton.c **** 
 948              		.loc 1 245 3 discriminator 8 view .LVU227
 949 0422 0122     		movs	r2, #1
 950 0424 4FF0020C 		mov	ip, #2
 951 0428 CDE9052C 		strd	r2, ip, [sp, #20]
 952 042c 1F22     		movs	r2, #31
ARM GAS  /tmp/ccgbPSBw.s 			page 43


 953 042e 0492     		str	r2, [sp, #16]
 954 0430 C4F30322 		ubfx	r2, r4, #8, #4
 955 0434 0392     		str	r2, [sp, #12]
 956 0436 C4F30332 		ubfx	r2, r4, #12, #4
 957 043a 0292     		str	r2, [sp, #8]
 958 043c 3A4A     		ldr	r2, .L97+36
 959 043e E4B2     		uxtb	r4, r4
 960              	.LVL83:
 245:Lib/AI_Runtime/Npu/ll_aton/ll_aton.c **** 
 961              		.loc 1 245 3 discriminator 8 view .LVU228
 962 0440 3149     		ldr	r1, .L97+4
 963 0442 0092     		str	r2, [sp]
 964 0444 3148     		ldr	r0, .L97+8
 965 0446 F522     		movs	r2, #245
 966 0448 0194     		str	r4, [sp, #4]
 967 044a FFF7FEFF 		bl	printf
 968              	.LVL84:
 245:Lib/AI_Runtime/Npu/ll_aton/ll_aton.c **** 
 969              		.loc 1 245 3 is_stmt 1 discriminator 1 view .LVU229
 245:Lib/AI_Runtime/Npu/ll_aton/ll_aton.c **** 
 970              		.loc 1 245 3 discriminator 10 view .LVU230
 971 044e F521     		movs	r1, #245
 972 0450 2F4B     		ldr	r3, .L97+12
 973 0452 304A     		ldr	r2, .L97+16
 974 0454 A8E6     		b	.L94
 975              	.LVL85:
 976              	.L41:
 245:Lib/AI_Runtime/Npu/ll_aton/ll_aton.c **** 
 977              		.loc 1 245 3 is_stmt 0 discriminator 6 view .LVU231
 978 0456 304B     		ldr	r3, .L97+20
 979 0458 E3E7     		b	.L26
 980              	.L90:
 247:Lib/AI_Runtime/Npu/ll_aton/ll_aton.c **** 
 981              		.loc 1 247 3 is_stmt 1 discriminator 3 view .LVU232
 982 045a FFF7FEFF 		bl	__errno
 983              	.LVL86:
 247:Lib/AI_Runtime/Npu/ll_aton/ll_aton.c **** 
 984              		.loc 1 247 3 is_stmt 0 discriminator 1 view .LVU233
 985 045e 0368     		ldr	r3, [r0]
 986 0460 EBB1     		cbz	r3, .L42
 247:Lib/AI_Runtime/Npu/ll_aton/ll_aton.c **** 
 987              		.loc 1 247 3 discriminator 5 view .LVU234
 988 0462 FFF7FEFF 		bl	__errno
 989              	.LVL87:
 247:Lib/AI_Runtime/Npu/ll_aton/ll_aton.c **** 
 990              		.loc 1 247 3 discriminator 1 view .LVU235
 991 0466 0068     		ldr	r0, [r0]
 992 0468 FFF7FEFF 		bl	strerror
 993              	.LVL88:
 994 046c 0346     		mov	r3, r0
 995              	.L28:
 247:Lib/AI_Runtime/Npu/ll_aton/ll_aton.c **** 
 996              		.loc 1 247 3 discriminator 8 view .LVU236
 997 046e 0122     		movs	r2, #1
 998 0470 CDE90522 		strd	r2, r2, [sp, #20]
 999 0474 1E22     		movs	r2, #30
 1000 0476 0492     		str	r2, [sp, #16]
ARM GAS  /tmp/ccgbPSBw.s 			page 44


 1001 0478 C4F30322 		ubfx	r2, r4, #8, #4
 1002 047c 0392     		str	r2, [sp, #12]
 1003 047e C4F30332 		ubfx	r2, r4, #12, #4
 1004 0482 0292     		str	r2, [sp, #8]
 1005 0484 294A     		ldr	r2, .L97+40
 1006 0486 E4B2     		uxtb	r4, r4
 1007              	.LVL89:
 247:Lib/AI_Runtime/Npu/ll_aton/ll_aton.c **** 
 1008              		.loc 1 247 3 discriminator 8 view .LVU237
 1009 0488 1F49     		ldr	r1, .L97+4
 1010 048a 0092     		str	r2, [sp]
 1011 048c 1F48     		ldr	r0, .L97+8
 1012 048e F722     		movs	r2, #247
 1013 0490 0194     		str	r4, [sp, #4]
 1014 0492 FFF7FEFF 		bl	printf
 1015              	.LVL90:
 247:Lib/AI_Runtime/Npu/ll_aton/ll_aton.c **** 
 1016              		.loc 1 247 3 is_stmt 1 discriminator 1 view .LVU238
 247:Lib/AI_Runtime/Npu/ll_aton/ll_aton.c **** 
 1017              		.loc 1 247 3 discriminator 10 view .LVU239
 1018 0496 F721     		movs	r1, #247
 1019 0498 1D4B     		ldr	r3, .L97+12
 1020 049a 1E4A     		ldr	r2, .L97+16
 1021 049c 84E6     		b	.L94
 1022              	.LVL91:
 1023              	.L42:
 247:Lib/AI_Runtime/Npu/ll_aton/ll_aton.c **** 
 1024              		.loc 1 247 3 is_stmt 0 discriminator 6 view .LVU240
 1025 049e 1E4B     		ldr	r3, .L97+20
 1026 04a0 E5E7     		b	.L28
 1027              	.L91:
 249:Lib/AI_Runtime/Npu/ll_aton/ll_aton.c **** 
 1028              		.loc 1 249 3 is_stmt 1 discriminator 3 view .LVU241
 1029 04a2 FFF7FEFF 		bl	__errno
 1030              	.LVL92:
 249:Lib/AI_Runtime/Npu/ll_aton/ll_aton.c **** 
 1031              		.loc 1 249 3 is_stmt 0 discriminator 1 view .LVU242
 1032 04a6 0368     		ldr	r3, [r0]
 1033 04a8 F3B1     		cbz	r3, .L43
 249:Lib/AI_Runtime/Npu/ll_aton/ll_aton.c **** 
 1034              		.loc 1 249 3 discriminator 5 view .LVU243
 1035 04aa FFF7FEFF 		bl	__errno
 1036              	.LVL93:
 249:Lib/AI_Runtime/Npu/ll_aton/ll_aton.c **** 
 1037              		.loc 1 249 3 discriminator 1 view .LVU244
 1038 04ae 0068     		ldr	r0, [r0]
 1039 04b0 FFF7FEFF 		bl	strerror
 1040              	.LVL94:
 1041 04b4 0346     		mov	r3, r0
 1042              	.L30:
 249:Lib/AI_Runtime/Npu/ll_aton/ll_aton.c **** 
 1043              		.loc 1 249 3 discriminator 8 view .LVU245
 1044 04b6 0122     		movs	r2, #1
 1045 04b8 0620     		movs	r0, #6
 1046 04ba CDE90520 		strd	r2, r0, [sp, #20]
 1047 04be 0022     		movs	r2, #0
 1048 04c0 0492     		str	r2, [sp, #16]
ARM GAS  /tmp/ccgbPSBw.s 			page 45


 1049 04c2 C4F30322 		ubfx	r2, r4, #8, #4
 1050 04c6 0392     		str	r2, [sp, #12]
 1051 04c8 C4F30332 		ubfx	r2, r4, #12, #4
 1052 04cc 0292     		str	r2, [sp, #8]
 1053 04ce 184A     		ldr	r2, .L97+44
 1054 04d0 E4B2     		uxtb	r4, r4
 1055              	.LVL95:
 249:Lib/AI_Runtime/Npu/ll_aton/ll_aton.c **** 
 1056              		.loc 1 249 3 discriminator 8 view .LVU246
 1057 04d2 0D49     		ldr	r1, .L97+4
 1058 04d4 0092     		str	r2, [sp]
 1059 04d6 0D48     		ldr	r0, .L97+8
 1060 04d8 F922     		movs	r2, #249
 1061 04da 0194     		str	r4, [sp, #4]
 1062 04dc FFF7FEFF 		bl	printf
 1063              	.LVL96:
 249:Lib/AI_Runtime/Npu/ll_aton/ll_aton.c **** 
 1064              		.loc 1 249 3 is_stmt 1 discriminator 1 view .LVU247
 249:Lib/AI_Runtime/Npu/ll_aton/ll_aton.c **** 
 1065              		.loc 1 249 3 discriminator 10 view .LVU248
 1066 04e0 F921     		movs	r1, #249
 1067 04e2 0B4B     		ldr	r3, .L97+12
 1068 04e4 0B4A     		ldr	r2, .L97+16
 1069 04e6 5FE6     		b	.L94
 1070              	.LVL97:
 1071              	.L43:
 249:Lib/AI_Runtime/Npu/ll_aton/ll_aton.c **** 
 1072              		.loc 1 249 3 is_stmt 0 discriminator 6 view .LVU249
 1073 04e8 0B4B     		ldr	r3, .L97+20
 1074 04ea E4E7     		b	.L30
 1075              	.L44:
 251:Lib/AI_Runtime/Npu/ll_aton/ll_aton.c **** 
 1076              		.loc 1 251 3 discriminator 6 view .LVU250
 1077 04ec 0A4B     		ldr	r3, .L97+20
 1078 04ee 1FE6     		b	.L32
 1079              	.L93:
 1080              	.LVL98:
 254:Lib/AI_Runtime/Npu/ll_aton/ll_aton.c ****   {
 1081              		.loc 1 254 17 is_stmt 1 discriminator 1 view .LVU251
 256:Lib/AI_Runtime/Npu/ll_aton/ll_aton.c ****   }
 1082              		.loc 1 256 5 view .LVU252
 256:Lib/AI_Runtime/Npu/ll_aton/ll_aton.c ****   }
 1083              		.loc 1 256 5 view .LVU253
 1084 04f0 0123     		movs	r3, #1
 263:Lib/AI_Runtime/Npu/ll_aton/ll_aton.c **** 
 1085              		.loc 1 263 1 is_stmt 0 view .LVU254
 1086 04f2 0020     		movs	r0, #0
 256:Lib/AI_Runtime/Npu/ll_aton/ll_aton.c ****   }
 1087              		.loc 1 256 5 view .LVU255
 1088 04f4 1360     		str	r3, [r2]
 256:Lib/AI_Runtime/Npu/ll_aton/ll_aton.c ****   }
 1089              		.loc 1 256 5 is_stmt 1 view .LVU256
 256:Lib/AI_Runtime/Npu/ll_aton/ll_aton.c ****   }
 1090              		.loc 1 256 30 view .LVU257
 254:Lib/AI_Runtime/Npu/ll_aton/ll_aton.c ****   {
 1091              		.loc 1 254 36 discriminator 3 view .LVU258
 1092              	.LVL99:
ARM GAS  /tmp/ccgbPSBw.s 			page 46


 254:Lib/AI_Runtime/Npu/ll_aton/ll_aton.c ****   {
 1093              		.loc 1 254 17 discriminator 1 view .LVU259
 256:Lib/AI_Runtime/Npu/ll_aton/ll_aton.c ****   }
 1094              		.loc 1 256 5 view .LVU260
 256:Lib/AI_Runtime/Npu/ll_aton/ll_aton.c ****   }
 1095              		.loc 1 256 5 view .LVU261
 1096 04f6 0F4A     		ldr	r2, .L97+48
 1097 04f8 1360     		str	r3, [r2]
 256:Lib/AI_Runtime/Npu/ll_aton/ll_aton.c ****   }
 1098              		.loc 1 256 5 view .LVU262
 256:Lib/AI_Runtime/Npu/ll_aton/ll_aton.c ****   }
 1099              		.loc 1 256 30 view .LVU263
 254:Lib/AI_Runtime/Npu/ll_aton/ll_aton.c ****   {
 1100              		.loc 1 254 36 discriminator 3 view .LVU264
 1101              	.LVL100:
 254:Lib/AI_Runtime/Npu/ll_aton/ll_aton.c ****   {
 1102              		.loc 1 254 17 discriminator 1 view .LVU265
 260:Lib/AI_Runtime/Npu/ll_aton/ll_aton.c **** 
 1103              		.loc 1 260 3 view .LVU266
 260:Lib/AI_Runtime/Npu/ll_aton/ll_aton.c **** 
 1104              		.loc 1 260 3 view .LVU267
 1105 04fa A2F50052 		sub	r2, r2, #8192
 1106 04fe 1360     		str	r3, [r2]
 260:Lib/AI_Runtime/Npu/ll_aton/ll_aton.c **** 
 1107              		.loc 1 260 3 view .LVU268
 260:Lib/AI_Runtime/Npu/ll_aton/ll_aton.c **** 
 1108              		.loc 1 260 30 view .LVU269
 262:Lib/AI_Runtime/Npu/ll_aton/ll_aton.c **** }
 1109              		.loc 1 262 3 view .LVU270
 263:Lib/AI_Runtime/Npu/ll_aton/ll_aton.c **** 
 1110              		.loc 1 263 1 is_stmt 0 view .LVU271
 1111 0500 08B0     		add	sp, sp, #32
 1112              		.cfi_def_cfa_offset 8
 1113              		@ sp needed
 1114 0502 10BD     		pop	{r4, pc}
 1115              	.LVL101:
 1116              	.L98:
 263:Lib/AI_Runtime/Npu/ll_aton/ll_aton.c **** 
 1117              		.loc 1 263 1 view .LVU272
 1118              		.align	2
 1119              	.L97:
 1120 0504 AA000000 		.word	.LC11
 1121 0508 05000000 		.word	.LC4
 1122 050c 2A000000 		.word	.LC5
 1123 0510 95000000 		.word	.LC7
 1124 0514 00000000 		.word	__func__.10
 1125 0518 00000000 		.word	.LC3
 1126 051c B0000000 		.word	.LC12
 1127 0520 B6000000 		.word	.LC13
 1128 0524 C0000000 		.word	.LC14
 1129 0528 C7000000 		.word	.LC15
 1130 052c CF000000 		.word	.LC16
 1131 0530 D7000000 		.word	.LC17
 1132 0534 00300E58 		.word	1477324800
 1133              		.cfi_endproc
 1134              	.LFE4825:
 1136              		.section	.text.LL_ATON_DeInit,"ax",%progbits
ARM GAS  /tmp/ccgbPSBw.s 			page 47


 1137              		.align	1
 1138              		.global	LL_ATON_DeInit
 1139              		.syntax unified
 1140              		.thumb
 1141              		.thumb_func
 1143              	LL_ATON_DeInit:
 1144              	.LFB4826:
 270:Lib/AI_Runtime/Npu/ll_aton/ll_aton.c ****   int i;
 1145              		.loc 1 270 1 is_stmt 1 view -0
 1146              		.cfi_startproc
 1147              		@ args = 0, pretend = 0, frame = 0
 1148              		@ frame_needed = 0, uses_anonymous_args = 0
 1149              		@ link register save eliminated.
 271:Lib/AI_Runtime/Npu/ll_aton/ll_aton.c **** 
 1150              		.loc 1 271 3 view .LVU274
 274:Lib/AI_Runtime/Npu/ll_aton/ll_aton.c **** 
 1151              		.loc 1 274 3 view .LVU275
 274:Lib/AI_Runtime/Npu/ll_aton/ll_aton.c **** 
 1152              		.loc 1 274 3 view .LVU276
 1153 0000 0020     		movs	r0, #0
 1154 0002 074B     		ldr	r3, .L100
 1155 0004 1860     		str	r0, [r3]
 274:Lib/AI_Runtime/Npu/ll_aton/ll_aton.c **** 
 1156              		.loc 1 274 3 view .LVU277
 274:Lib/AI_Runtime/Npu/ll_aton/ll_aton.c **** 
 1157              		.loc 1 274 30 view .LVU278
 277:Lib/AI_Runtime/Npu/ll_aton/ll_aton.c ****   {
 1158              		.loc 1 277 3 view .LVU279
 1159              	.LVL102:
 277:Lib/AI_Runtime/Npu/ll_aton/ll_aton.c ****   {
 1160              		.loc 1 277 17 discriminator 1 view .LVU280
 279:Lib/AI_Runtime/Npu/ll_aton/ll_aton.c ****   }
 1161              		.loc 1 279 5 view .LVU281
 279:Lib/AI_Runtime/Npu/ll_aton/ll_aton.c ****   }
 1162              		.loc 1 279 5 view .LVU282
 1163 0006 03F58053 		add	r3, r3, #4096
 1164 000a 1860     		str	r0, [r3]
 279:Lib/AI_Runtime/Npu/ll_aton/ll_aton.c ****   }
 1165              		.loc 1 279 5 view .LVU283
 279:Lib/AI_Runtime/Npu/ll_aton/ll_aton.c ****   }
 1166              		.loc 1 279 30 view .LVU284
 277:Lib/AI_Runtime/Npu/ll_aton/ll_aton.c ****   {
 1167              		.loc 1 277 36 discriminator 3 view .LVU285
 1168              	.LVL103:
 277:Lib/AI_Runtime/Npu/ll_aton/ll_aton.c ****   {
 1169              		.loc 1 277 17 discriminator 1 view .LVU286
 279:Lib/AI_Runtime/Npu/ll_aton/ll_aton.c ****   }
 1170              		.loc 1 279 5 view .LVU287
 279:Lib/AI_Runtime/Npu/ll_aton/ll_aton.c ****   }
 1171              		.loc 1 279 5 view .LVU288
 1172 000c 03F58053 		add	r3, r3, #4096
 1173 0010 1860     		str	r0, [r3]
 279:Lib/AI_Runtime/Npu/ll_aton/ll_aton.c ****   }
 1174              		.loc 1 279 5 view .LVU289
 279:Lib/AI_Runtime/Npu/ll_aton/ll_aton.c ****   }
 1175              		.loc 1 279 30 view .LVU290
 277:Lib/AI_Runtime/Npu/ll_aton/ll_aton.c ****   {
ARM GAS  /tmp/ccgbPSBw.s 			page 48


 1176              		.loc 1 277 36 discriminator 3 view .LVU291
 1177              	.LVL104:
 277:Lib/AI_Runtime/Npu/ll_aton/ll_aton.c ****   {
 1178              		.loc 1 277 17 discriminator 1 view .LVU292
 283:Lib/AI_Runtime/Npu/ll_aton/ll_aton.c ****   ATON_CLKCTRL_AGATES1_SET(0, 0);
 1179              		.loc 1 283 3 view .LVU293
 283:Lib/AI_Runtime/Npu/ll_aton/ll_aton.c ****   ATON_CLKCTRL_AGATES1_SET(0, 0);
 1180              		.loc 1 283 3 view .LVU294
 1181 0012 A3F54053 		sub	r3, r3, #12288
 1182 0016 9860     		str	r0, [r3, #8]
 283:Lib/AI_Runtime/Npu/ll_aton/ll_aton.c ****   ATON_CLKCTRL_AGATES1_SET(0, 0);
 1183              		.loc 1 283 3 view .LVU295
 283:Lib/AI_Runtime/Npu/ll_aton/ll_aton.c ****   ATON_CLKCTRL_AGATES1_SET(0, 0);
 1184              		.loc 1 283 33 view .LVU296
 284:Lib/AI_Runtime/Npu/ll_aton/ll_aton.c ****   ATON_CLKCTRL_BGATES_SET(0, 0);
 1185              		.loc 1 284 3 view .LVU297
 284:Lib/AI_Runtime/Npu/ll_aton/ll_aton.c ****   ATON_CLKCTRL_BGATES_SET(0, 0);
 1186              		.loc 1 284 3 view .LVU298
 1187 0018 D860     		str	r0, [r3, #12]
 284:Lib/AI_Runtime/Npu/ll_aton/ll_aton.c ****   ATON_CLKCTRL_BGATES_SET(0, 0);
 1188              		.loc 1 284 3 view .LVU299
 284:Lib/AI_Runtime/Npu/ll_aton/ll_aton.c ****   ATON_CLKCTRL_BGATES_SET(0, 0);
 1189              		.loc 1 284 33 view .LVU300
 285:Lib/AI_Runtime/Npu/ll_aton/ll_aton.c **** #ifdef ATON_CLKCTRL_BGATES1_OFFSET
 1190              		.loc 1 285 3 view .LVU301
 285:Lib/AI_Runtime/Npu/ll_aton/ll_aton.c **** #ifdef ATON_CLKCTRL_BGATES1_OFFSET
 1191              		.loc 1 285 3 view .LVU302
 1192 001a 1861     		str	r0, [r3, #16]
 285:Lib/AI_Runtime/Npu/ll_aton/ll_aton.c **** #ifdef ATON_CLKCTRL_BGATES1_OFFSET
 1193              		.loc 1 285 3 view .LVU303
 285:Lib/AI_Runtime/Npu/ll_aton/ll_aton.c **** #ifdef ATON_CLKCTRL_BGATES1_OFFSET
 1194              		.loc 1 285 32 view .LVU304
 289:Lib/AI_Runtime/Npu/ll_aton/ll_aton.c **** 
 1195              		.loc 1 289 3 view .LVU305
 289:Lib/AI_Runtime/Npu/ll_aton/ll_aton.c **** 
 1196              		.loc 1 289 3 view .LVU306
 1197 001c 1860     		str	r0, [r3]
 289:Lib/AI_Runtime/Npu/ll_aton/ll_aton.c **** 
 1198              		.loc 1 289 3 view .LVU307
 289:Lib/AI_Runtime/Npu/ll_aton/ll_aton.c **** 
 1199              		.loc 1 289 30 view .LVU308
 291:Lib/AI_Runtime/Npu/ll_aton/ll_aton.c **** }
 1200              		.loc 1 291 3 view .LVU309
 292:Lib/AI_Runtime/Npu/ll_aton/ll_aton.c **** 
 1201              		.loc 1 292 1 is_stmt 0 view .LVU310
 1202 001e 7047     		bx	lr
 1203              	.L101:
 1204              		.align	2
 1205              	.L100:
 1206 0020 00100E58 		.word	1477316608
 1207              		.cfi_endproc
 1208              	.LFE4826:
 1210              		.section	.text.LL_ATON_EnableUnits_Init,"ax",%progbits
 1211              		.align	1
 1212              		.global	LL_ATON_EnableUnits_Init
 1213              		.syntax unified
 1214              		.thumb
ARM GAS  /tmp/ccgbPSBw.s 			page 49


 1215              		.thumb_func
 1217              	LL_ATON_EnableUnits_Init:
 1218              	.LVL105:
 1219              	.LFB4827:
 302:Lib/AI_Runtime/Npu/ll_aton/ll_aton.c ****   int i;
 1220              		.loc 1 302 1 is_stmt 1 view -0
 1221              		.cfi_startproc
 1222              		@ args = 0, pretend = 0, frame = 0
 1223              		@ frame_needed = 0, uses_anonymous_args = 0
 303:Lib/AI_Runtime/Npu/ll_aton/ll_aton.c ****   enum AccelUnitsType unitType;
 1224              		.loc 1 303 3 view .LVU312
 304:Lib/AI_Runtime/Npu/ll_aton/ll_aton.c ****   uint32_t unitId;
 1225              		.loc 1 304 3 view .LVU313
 305:Lib/AI_Runtime/Npu/ll_aton/ll_aton.c **** 
 1226              		.loc 1 305 3 view .LVU314
 307:Lib/AI_Runtime/Npu/ll_aton/ll_aton.c ****   {
 1227              		.loc 1 307 3 view .LVU315
 302:Lib/AI_Runtime/Npu/ll_aton/ll_aton.c ****   int i;
 1228              		.loc 1 302 1 is_stmt 0 view .LVU316
 1229 0000 F0B5     		push	{r4, r5, r6, r7, lr}
 1230              		.cfi_def_cfa_offset 20
 1231              		.cfi_offset 4, -20
 1232              		.cfi_offset 5, -16
 1233              		.cfi_offset 6, -12
 1234              		.cfi_offset 7, -8
 1235              		.cfi_offset 14, -4
 307:Lib/AI_Runtime/Npu/ll_aton/ll_aton.c ****   {
 1236              		.loc 1 307 10 view .LVU317
 1237 0002 0024     		movs	r4, #0
 1238 0004 A142     		cmp	r1, r4
 1239 0006 01F10102 		add	r2, r1, #1
 1240 000a B8BF     		it	lt
 1241 000c 0122     		movlt	r2, #1
 1242              	.LBB21:
 363:Lib/AI_Runtime/Npu/ll_aton/ll_aton.c ****       break;
 1243              		.loc 1 363 7 view .LVU318
 1244 000e 1E4D     		ldr	r5, .L117
 1245              	.LBE21:
 329:Lib/AI_Runtime/Npu/ll_aton/ll_aton.c **** #endif
 1246              		.loc 1 329 7 view .LVU319
 1247 0010 1E4F     		ldr	r7, .L117+4
 310:Lib/AI_Runtime/Npu/ll_aton/ll_aton.c **** 
 1248              		.loc 1 310 52 view .LVU320
 1249 0012 861C     		adds	r6, r0, #2
 1250              	.LVL106:
 1251              	.L103:
 307:Lib/AI_Runtime/Npu/ll_aton/ll_aton.c ****   {
 1252              		.loc 1 307 17 is_stmt 1 discriminator 1 view .LVU321
 1253 0014 013A     		subs	r2, r2, #1
 1254 0016 01D1     		bne	.L113
 372:Lib/AI_Runtime/Npu/ll_aton/ll_aton.c **** }
 1255              		.loc 1 372 3 view .LVU322
 373:Lib/AI_Runtime/Npu/ll_aton/ll_aton.c **** 
 1256              		.loc 1 373 1 is_stmt 0 view .LVU323
 1257 0018 0020     		movs	r0, #0
 1258              	.LVL107:
 373:Lib/AI_Runtime/Npu/ll_aton/ll_aton.c **** 
ARM GAS  /tmp/ccgbPSBw.s 			page 50


 1259              		.loc 1 373 1 view .LVU324
 1260 001a F0BD     		pop	{r4, r5, r6, r7, pc}
 1261              	.LVL108:
 1262              	.L113:
 309:Lib/AI_Runtime/Npu/ll_aton/ll_aton.c ****     unitId = LL_ATON_EnableUnits_InitStruct[i].unit.unit_num;
 1263              		.loc 1 309 5 is_stmt 1 view .LVU325
 310:Lib/AI_Runtime/Npu/ll_aton/ll_aton.c **** 
 1264              		.loc 1 310 5 view .LVU326
 312:Lib/AI_Runtime/Npu/ll_aton/ll_aton.c ****     {
 1265              		.loc 1 312 5 is_stmt 0 view .LVU327
 1266 001c 10F82410 		ldrb	r1, [r0, r4, lsl #2]	@ zero_extendqisi2
 310:Lib/AI_Runtime/Npu/ll_aton/ll_aton.c **** 
 1267              		.loc 1 310 12 view .LVU328
 1268 0020 36F82430 		ldrh	r3, [r6, r4, lsl #2]
 1269              	.LVL109:
 312:Lib/AI_Runtime/Npu/ll_aton/ll_aton.c ****     {
 1270              		.loc 1 312 5 is_stmt 1 view .LVU329
 1271 0024 0829     		cmp	r1, #8
 1272 0026 18D8     		bhi	.L104
 1273 0028 DFE801F0 		tbb	[pc, r1]
 1274              	.L106:
 1275 002c 05       		.byte	(.L112-.L106)/2
 1276 002d 17       		.byte	(.L104-.L106)/2
 1277 002e 0E       		.byte	(.L111-.L106)/2
 1278 002f 19       		.byte	(.L110-.L106)/2
 1279 0030 1D       		.byte	(.L109-.L106)/2
 1280 0031 21       		.byte	(.L108-.L106)/2
 1281 0032 25       		.byte	(.L107-.L106)/2
 1282 0033 17       		.byte	(.L104-.L106)/2
 1283 0034 29       		.byte	(.L105-.L106)/2
 1284 0035 00       		.p2align 1
 1285              	.L112:
 315:Lib/AI_Runtime/Npu/ll_aton/ll_aton.c ****       break;
 1286              		.loc 1 315 7 view .LVU330
 1287              	.LBB22:
 315:Lib/AI_Runtime/Npu/ll_aton/ll_aton.c ****       break;
 1288              		.loc 1 315 7 view .LVU331
 1289 0036 03F5B023 		add	r3, r3, #360448
 1290              	.LVL110:
 315:Lib/AI_Runtime/Npu/ll_aton/ll_aton.c ****       break;
 1291              		.loc 1 315 7 is_stmt 0 view .LVU332
 1292 003a E533     		adds	r3, r3, #229
 1293              	.LVL111:
 1294              	.L116:
 315:Lib/AI_Runtime/Npu/ll_aton/ll_aton.c ****       break;
 1295              		.loc 1 315 7 view .LVU333
 1296              	.LBE22:
 1297              	.LBB23:
 336:Lib/AI_Runtime/Npu/ll_aton/ll_aton.c ****       break;
 1298              		.loc 1 336 7 view .LVU334
 1299 003c 1B03     		lsls	r3, r3, #12
 1300 003e 1968     		ldr	r1, [r3]
 1301              	.LVL112:
 336:Lib/AI_Runtime/Npu/ll_aton/ll_aton.c ****       break;
 1302              		.loc 1 336 7 is_stmt 1 view .LVU335
 1303 0040 41F00101 		orr	r1, r1, #1
 1304              	.LVL113:
ARM GAS  /tmp/ccgbPSBw.s 			page 51


 336:Lib/AI_Runtime/Npu/ll_aton/ll_aton.c ****       break;
 1305              		.loc 1 336 7 view .LVU336
 336:Lib/AI_Runtime/Npu/ll_aton/ll_aton.c ****       break;
 1306              		.loc 1 336 7 view .LVU337
 1307 0044 1960     		str	r1, [r3]
 1308              	.LVL114:
 336:Lib/AI_Runtime/Npu/ll_aton/ll_aton.c ****       break;
 1309              		.loc 1 336 7 view .LVU338
 336:Lib/AI_Runtime/Npu/ll_aton/ll_aton.c ****       break;
 1310              		.loc 1 336 7 view .LVU339
 1311              	.LBE23:
 336:Lib/AI_Runtime/Npu/ll_aton/ll_aton.c ****       break;
 1312              		.loc 1 336 7 view .LVU340
 337:Lib/AI_Runtime/Npu/ll_aton/ll_aton.c **** #endif
 1313              		.loc 1 337 7 view .LVU341
 1314 0046 08E0     		b	.L104
 1315              	.LVL115:
 1316              	.L111:
 329:Lib/AI_Runtime/Npu/ll_aton/ll_aton.c **** #endif
 1317              		.loc 1 329 7 view .LVU342
 329:Lib/AI_Runtime/Npu/ll_aton/ll_aton.c **** #endif
 1318              		.loc 1 329 7 view .LVU343
 1319 0048 03F5B021 		add	r1, r3, #360448
 1320 004c 57F82330 		ldr	r3, [r7, r3, lsl #2]
 1321              	.LVL116:
 329:Lib/AI_Runtime/Npu/ll_aton/ll_aton.c **** #endif
 1322              		.loc 1 329 7 is_stmt 0 view .LVU344
 1323 0050 EF31     		adds	r1, r1, #239
 1324              	.LVL117:
 329:Lib/AI_Runtime/Npu/ll_aton/ll_aton.c **** #endif
 1325              		.loc 1 329 7 view .LVU345
 1326 0052 0903     		lsls	r1, r1, #12
 1327              	.LVL118:
 329:Lib/AI_Runtime/Npu/ll_aton/ll_aton.c **** #endif
 1328              		.loc 1 329 7 view .LVU346
 1329 0054 43F00103 		orr	r3, r3, #1
 1330 0058 0B60     		str	r3, [r1]
 1331              	.LVL119:
 329:Lib/AI_Runtime/Npu/ll_aton/ll_aton.c **** #endif
 1332              		.loc 1 329 7 is_stmt 1 view .LVU347
 329:Lib/AI_Runtime/Npu/ll_aton/ll_aton.c **** #endif
 1333              		.loc 1 329 89 view .LVU348
 331:Lib/AI_Runtime/Npu/ll_aton/ll_aton.c **** #endif
 1334              		.loc 1 331 7 view .LVU349
 1335              	.L104:
 307:Lib/AI_Runtime/Npu/ll_aton/ll_aton.c ****   {
 1336              		.loc 1 307 23 discriminator 2 view .LVU350
 1337 005a 0134     		adds	r4, r4, #1
 1338              	.LVL120:
 307:Lib/AI_Runtime/Npu/ll_aton/ll_aton.c ****   {
 1339              		.loc 1 307 23 is_stmt 0 discriminator 2 view .LVU351
 1340 005c DAE7     		b	.L103
 1341              	.LVL121:
 1342              	.L110:
 336:Lib/AI_Runtime/Npu/ll_aton/ll_aton.c ****       break;
 1343              		.loc 1 336 7 is_stmt 1 view .LVU352
 1344              	.LBB24:
ARM GAS  /tmp/ccgbPSBw.s 			page 52


 336:Lib/AI_Runtime/Npu/ll_aton/ll_aton.c ****       break;
 1345              		.loc 1 336 7 view .LVU353
 1346 005e 03F5B023 		add	r3, r3, #360448
 1347              	.LVL122:
 336:Lib/AI_Runtime/Npu/ll_aton/ll_aton.c ****       break;
 1348              		.loc 1 336 7 is_stmt 0 view .LVU354
 1349 0062 F333     		adds	r3, r3, #243
 1350              	.LVL123:
 336:Lib/AI_Runtime/Npu/ll_aton/ll_aton.c ****       break;
 1351              		.loc 1 336 7 view .LVU355
 1352 0064 EAE7     		b	.L116
 1353              	.LVL124:
 1354              	.L109:
 336:Lib/AI_Runtime/Npu/ll_aton/ll_aton.c ****       break;
 1355              		.loc 1 336 7 view .LVU356
 1356              	.LBE24:
 342:Lib/AI_Runtime/Npu/ll_aton/ll_aton.c ****       break;
 1357              		.loc 1 342 7 is_stmt 1 view .LVU357
 1358              	.LBB25:
 342:Lib/AI_Runtime/Npu/ll_aton/ll_aton.c ****       break;
 1359              		.loc 1 342 7 view .LVU358
 1360 0066 03F5B023 		add	r3, r3, #360448
 1361              	.LVL125:
 342:Lib/AI_Runtime/Npu/ll_aton/ll_aton.c ****       break;
 1362              		.loc 1 342 7 is_stmt 0 view .LVU359
 1363 006a F533     		adds	r3, r3, #245
 1364              	.LVL126:
 342:Lib/AI_Runtime/Npu/ll_aton/ll_aton.c ****       break;
 1365              		.loc 1 342 7 view .LVU360
 1366 006c E6E7     		b	.L116
 1367              	.LVL127:
 1368              	.L108:
 342:Lib/AI_Runtime/Npu/ll_aton/ll_aton.c ****       break;
 1369              		.loc 1 342 7 view .LVU361
 1370              	.LBE25:
 348:Lib/AI_Runtime/Npu/ll_aton/ll_aton.c ****       break;
 1371              		.loc 1 348 7 is_stmt 1 view .LVU362
 1372              	.LBB26:
 348:Lib/AI_Runtime/Npu/ll_aton/ll_aton.c ****       break;
 1373              		.loc 1 348 7 view .LVU363
 1374 006e 03F5B023 		add	r3, r3, #360448
 1375              	.LVL128:
 348:Lib/AI_Runtime/Npu/ll_aton/ll_aton.c ****       break;
 1376              		.loc 1 348 7 is_stmt 0 view .LVU364
 1377 0072 F733     		adds	r3, r3, #247
 1378              	.LVL129:
 348:Lib/AI_Runtime/Npu/ll_aton/ll_aton.c ****       break;
 1379              		.loc 1 348 7 view .LVU365
 1380 0074 E2E7     		b	.L116
 1381              	.LVL130:
 1382              	.L107:
 348:Lib/AI_Runtime/Npu/ll_aton/ll_aton.c ****       break;
 1383              		.loc 1 348 7 view .LVU366
 1384              	.LBE26:
 357:Lib/AI_Runtime/Npu/ll_aton/ll_aton.c **** #endif // !POOL_RC14
 1385              		.loc 1 357 7 is_stmt 1 view .LVU367
 1386              	.LBB27:
ARM GAS  /tmp/ccgbPSBw.s 			page 53


 357:Lib/AI_Runtime/Npu/ll_aton/ll_aton.c **** #endif // !POOL_RC14
 1387              		.loc 1 357 7 view .LVU368
 1388 0076 03F5B023 		add	r3, r3, #360448
 1389              	.LVL131:
 357:Lib/AI_Runtime/Npu/ll_aton/ll_aton.c **** #endif // !POOL_RC14
 1390              		.loc 1 357 7 is_stmt 0 view .LVU369
 1391 007a FB33     		adds	r3, r3, #251
 1392              	.LVL132:
 357:Lib/AI_Runtime/Npu/ll_aton/ll_aton.c **** #endif // !POOL_RC14
 1393              		.loc 1 357 7 view .LVU370
 1394 007c DEE7     		b	.L116
 1395              	.LVL133:
 1396              	.L105:
 357:Lib/AI_Runtime/Npu/ll_aton/ll_aton.c **** #endif // !POOL_RC14
 1397              		.loc 1 357 7 view .LVU371
 1398              	.LBE27:
 363:Lib/AI_Runtime/Npu/ll_aton/ll_aton.c ****       break;
 1399              		.loc 1 363 7 is_stmt 1 view .LVU372
 1400              	.LBB28:
 363:Lib/AI_Runtime/Npu/ll_aton/ll_aton.c ****       break;
 1401              		.loc 1 363 7 view .LVU373
 1402 007e 2B68     		ldr	r3, [r5]
 1403              	.LVL134:
 363:Lib/AI_Runtime/Npu/ll_aton/ll_aton.c ****       break;
 1404              		.loc 1 363 7 view .LVU374
 1405 0080 43F00103 		orr	r3, r3, #1
 1406              	.LVL135:
 363:Lib/AI_Runtime/Npu/ll_aton/ll_aton.c ****       break;
 1407              		.loc 1 363 7 view .LVU375
 363:Lib/AI_Runtime/Npu/ll_aton/ll_aton.c ****       break;
 1408              		.loc 1 363 7 view .LVU376
 1409 0084 2B60     		str	r3, [r5]
 1410              	.LVL136:
 363:Lib/AI_Runtime/Npu/ll_aton/ll_aton.c ****       break;
 1411              		.loc 1 363 7 view .LVU377
 363:Lib/AI_Runtime/Npu/ll_aton/ll_aton.c ****       break;
 1412              		.loc 1 363 7 view .LVU378
 1413              	.LBE28:
 363:Lib/AI_Runtime/Npu/ll_aton/ll_aton.c ****       break;
 1414              		.loc 1 363 7 view .LVU379
 364:Lib/AI_Runtime/Npu/ll_aton/ll_aton.c **** #endif
 1415              		.loc 1 364 7 view .LVU380
 1416 0086 E8E7     		b	.L104
 1417              	.L118:
 1418              		.align	2
 1419              	.L117:
 1420 0088 00D00F58 		.word	1477431296
 1421 008c 00000000 		.word	Conv_ctrl_bits
 1422              		.cfi_endproc
 1423              	.LFE4827:
 1425              		.section	.rodata.LL_Streng_Wait.str1.1,"aMS",%progbits,1
 1426              	.LC19:
 1427 0000 63686563 		.ascii	"checkWatchdog() == 0\000"
 1427      6B576174 
 1427      6368646F 
 1427      67282920 
 1427      3D3D2030 
ARM GAS  /tmp/ccgbPSBw.s 			page 54


 1428              		.section	.text.LL_Streng_Wait,"ax",%progbits
 1429              		.align	1
 1430              		.global	LL_Streng_Wait
 1431              		.syntax unified
 1432              		.thumb
 1433              		.thumb_func
 1435              	LL_Streng_Wait:
 1436              	.LVL137:
 1437              	.LFB4829:
 463:Lib/AI_Runtime/Npu/ll_aton/ll_aton.c ****   int i;
 1438              		.loc 1 463 1 view -0
 1439              		.cfi_startproc
 1440              		@ args = 0, pretend = 0, frame = 0
 1441              		@ frame_needed = 0, uses_anonymous_args = 0
 464:Lib/AI_Runtime/Npu/ll_aton/ll_aton.c ****   uint32_t enableFlags;
 1442              		.loc 1 464 3 view .LVU382
 465:Lib/AI_Runtime/Npu/ll_aton/ll_aton.c **** 
 1443              		.loc 1 465 3 view .LVU383
 467:Lib/AI_Runtime/Npu/ll_aton/ll_aton.c **** 
 1444              		.loc 1 467 3 view .LVU384
 463:Lib/AI_Runtime/Npu/ll_aton/ll_aton.c ****   int i;
 1445              		.loc 1 463 1 is_stmt 0 view .LVU385
 1446 0000 70B5     		push	{r4, r5, r6, lr}
 1447              		.cfi_def_cfa_offset 16
 1448              		.cfi_offset 4, -16
 1449              		.cfi_offset 5, -12
 1450              		.cfi_offset 6, -8
 1451              		.cfi_offset 14, -4
 463:Lib/AI_Runtime/Npu/ll_aton/ll_aton.c ****   int i;
 1452              		.loc 1 463 1 view .LVU386
 1453 0002 0546     		mov	r5, r0
 467:Lib/AI_Runtime/Npu/ll_aton/ll_aton.c **** 
 1454              		.loc 1 467 3 view .LVU387
 1455 0004 1248     		ldr	r0, .L129
 1456              	.LVL138:
 467:Lib/AI_Runtime/Npu/ll_aton/ll_aton.c **** 
 1457              		.loc 1 467 3 view .LVU388
 1458 0006 FFF7FEFF 		bl	startWatchdog
 1459              	.LVL139:
 474:Lib/AI_Runtime/Npu/ll_aton/ll_aton.c ****       {
 1460              		.loc 1 474 21 view .LVU389
 1461 000a 0126     		movs	r6, #1
 1462              	.L123:
 469:Lib/AI_Runtime/Npu/ll_aton/ll_aton.c ****   {
 1463              		.loc 1 469 3 is_stmt 1 view .LVU390
 471:Lib/AI_Runtime/Npu/ll_aton/ll_aton.c ****     for (i = 0; i < ATON_STRENG_NUM; i++)
 1464              		.loc 1 471 5 view .LVU391
 1465              	.LVL140:
 472:Lib/AI_Runtime/Npu/ll_aton/ll_aton.c ****     {
 1466              		.loc 1 472 5 view .LVU392
 472:Lib/AI_Runtime/Npu/ll_aton/ll_aton.c ****     {
 1467              		.loc 1 472 19 discriminator 1 view .LVU393
 471:Lib/AI_Runtime/Npu/ll_aton/ll_aton.c ****     for (i = 0; i < ATON_STRENG_NUM; i++)
 1468              		.loc 1 471 17 is_stmt 0 view .LVU394
 1469 000c 0024     		movs	r4, #0
 472:Lib/AI_Runtime/Npu/ll_aton/ll_aton.c ****     {
 1470              		.loc 1 472 12 view .LVU395
ARM GAS  /tmp/ccgbPSBw.s 			page 55


 1471 000e 0A21     		movs	r1, #10
 1472 0010 2246     		mov	r2, r4
 1473              	.LVL141:
 1474              	.L121:
 474:Lib/AI_Runtime/Npu/ll_aton/ll_aton.c ****       {
 1475              		.loc 1 474 7 is_stmt 1 view .LVU396
 474:Lib/AI_Runtime/Npu/ll_aton/ll_aton.c ****       {
 1476              		.loc 1 474 21 is_stmt 0 view .LVU397
 1477 0012 06FA02F3 		lsl	r3, r6, r2
 474:Lib/AI_Runtime/Npu/ll_aton/ll_aton.c ****       {
 1478              		.loc 1 474 10 view .LVU398
 1479 0016 2B42     		tst	r3, r5
 1480 0018 08D0     		beq	.L120
 476:Lib/AI_Runtime/Npu/ll_aton/ll_aton.c ****       }
 1481              		.loc 1 476 9 is_stmt 1 view .LVU399
 476:Lib/AI_Runtime/Npu/ll_aton/ll_aton.c ****       }
 1482              		.loc 1 476 25 is_stmt 0 view .LVU400
 1483 001a 1303     		lsls	r3, r2, #12
 1484 001c 03F1B043 		add	r3, r3, #1476395008
 1485 0020 03F56523 		add	r3, r3, #937984
 1486 0024 1B68     		ldr	r3, [r3]
 476:Lib/AI_Runtime/Npu/ll_aton/ll_aton.c ****       }
 1487              		.loc 1 476 49 view .LVU401
 1488 0026 03F00043 		and	r3, r3, #-2147483648
 476:Lib/AI_Runtime/Npu/ll_aton/ll_aton.c ****       }
 1489              		.loc 1 476 21 view .LVU402
 1490 002a 1C43     		orrs	r4, r4, r3
 1491              	.LVL142:
 1492              	.L120:
 472:Lib/AI_Runtime/Npu/ll_aton/ll_aton.c ****     {
 1493              		.loc 1 472 39 is_stmt 1 discriminator 2 view .LVU403
 472:Lib/AI_Runtime/Npu/ll_aton/ll_aton.c ****     {
 1494              		.loc 1 472 19 is_stmt 0 discriminator 1 view .LVU404
 1495 002c 0139     		subs	r1, r1, #1
 472:Lib/AI_Runtime/Npu/ll_aton/ll_aton.c ****     {
 1496              		.loc 1 472 39 discriminator 2 view .LVU405
 1497 002e 02F10102 		add	r2, r2, #1
 1498              	.LVL143:
 472:Lib/AI_Runtime/Npu/ll_aton/ll_aton.c ****     {
 1499              		.loc 1 472 19 is_stmt 1 discriminator 1 view .LVU406
 1500 0032 EED1     		bne	.L121
 480:Lib/AI_Runtime/Npu/ll_aton/ll_aton.c **** 
 1501              		.loc 1 480 5 view .LVU407
 1502 0034 FFF7FEFF 		bl	checkWatchdog
 1503              	.LVL144:
 480:Lib/AI_Runtime/Npu/ll_aton/ll_aton.c **** 
 1504              		.loc 1 480 5 is_stmt 0 discriminator 1 view .LVU408
 1505 0038 30B1     		cbz	r0, .L122
 1506              	.LBB31:
 1507              	.LBI31:
 462:Lib/AI_Runtime/Npu/ll_aton/ll_aton.c **** {
 1508              		.loc 1 462 5 is_stmt 1 view .LVU409
 1509              	.LVL145:
 1510              	.LBB32:
 480:Lib/AI_Runtime/Npu/ll_aton/ll_aton.c **** 
 1511              		.loc 1 480 5 is_stmt 0 discriminator 1 view .LVU410
 1512 003a 4FF4F071 		mov	r1, #480
ARM GAS  /tmp/ccgbPSBw.s 			page 56


 1513 003e 054B     		ldr	r3, .L129+4
 1514 0040 054A     		ldr	r2, .L129+8
 1515 0042 0648     		ldr	r0, .L129+12
 1516 0044 FFF7FEFF 		bl	__assert_func
 1517              	.LVL146:
 1518              	.L122:
 480:Lib/AI_Runtime/Npu/ll_aton/ll_aton.c **** 
 1519              		.loc 1 480 5 discriminator 1 view .LVU411
 1520              	.LBE32:
 1521              	.LBE31:
 482:Lib/AI_Runtime/Npu/ll_aton/ll_aton.c **** 
 1522              		.loc 1 482 12 is_stmt 1 view .LVU412
 1523 0048 002C     		cmp	r4, #0
 1524 004a DFD1     		bne	.L123
 484:Lib/AI_Runtime/Npu/ll_aton/ll_aton.c **** }
 1525              		.loc 1 484 3 view .LVU413
 485:Lib/AI_Runtime/Npu/ll_aton/ll_aton.c **** 
 1526              		.loc 1 485 1 is_stmt 0 view .LVU414
 1527 004c 70BD     		pop	{r4, r5, r6, pc}
 1528              	.LVL147:
 1529              	.L130:
 485:Lib/AI_Runtime/Npu/ll_aton/ll_aton.c **** 
 1530              		.loc 1 485 1 view .LVU415
 1531 004e 00BF     		.align	2
 1532              	.L129:
 1533 0050 80969800 		.word	10000000
 1534 0054 00000000 		.word	.LC19
 1535 0058 00000000 		.word	__func__.7
 1536 005c 05000000 		.word	.LC4
 1537              		.cfi_endproc
 1538              	.LFE4829:
 1540              		.section	.text.LL_TriggerHigh,"ax",%progbits
 1541              		.align	1
 1542              		.global	LL_TriggerHigh
 1543              		.syntax unified
 1544              		.thumb
 1545              		.thumb_func
 1547              	LL_TriggerHigh:
 1548              	.LVL148:
 1549              	.LFB4832:
 812:Lib/AI_Runtime/Npu/ll_aton/ll_aton.c ****   if (irq >= ATON_INTCTRL_INTS(0))
 1550              		.loc 1 812 1 is_stmt 1 view -0
 1551              		.cfi_startproc
 1552              		@ args = 0, pretend = 0, frame = 0
 1553              		@ frame_needed = 0, uses_anonymous_args = 0
 1554              		@ link register save eliminated.
 813:Lib/AI_Runtime/Npu/ll_aton/ll_aton.c ****     return LL_ATON_INVALID_PARAM;
 1555              		.loc 1 813 3 view .LVU417
 813:Lib/AI_Runtime/Npu/ll_aton/ll_aton.c ****     return LL_ATON_INVALID_PARAM;
 1556              		.loc 1 813 6 is_stmt 0 view .LVU418
 1557 0000 1F28     		cmp	r0, #31
 1558 0002 0EDC     		bgt	.L134
 816:Lib/AI_Runtime/Npu/ll_aton/ll_aton.c ****   ATON_INTCTRL_INTSET_SET(0, (1 << ATON_INTCTRL_0_INTSET_EPOCHCTRL_0_1_IDX));
 1559              		.loc 1 816 3 is_stmt 1 view .LVU419
 816:Lib/AI_Runtime/Npu/ll_aton/ll_aton.c ****   ATON_INTCTRL_INTSET_SET(0, (1 << ATON_INTCTRL_0_INTSET_EPOCHCTRL_0_1_IDX));
 1560              		.loc 1 816 3 view .LVU420
 816:Lib/AI_Runtime/Npu/ll_aton/ll_aton.c ****   ATON_INTCTRL_INTSET_SET(0, (1 << ATON_INTCTRL_0_INTSET_EPOCHCTRL_0_1_IDX));
ARM GAS  /tmp/ccgbPSBw.s 			page 57


 1561              		.loc 1 816 3 view .LVU421
 1562 0004 084A     		ldr	r2, .L136
 816:Lib/AI_Runtime/Npu/ll_aton/ll_aton.c ****   ATON_INTCTRL_INTSET_SET(0, (1 << ATON_INTCTRL_0_INTSET_EPOCHCTRL_0_1_IDX));
 1563              		.loc 1 816 3 is_stmt 0 discriminator 1 view .LVU422
 1564 0006 094B     		ldr	r3, .L136+4
 1565 0008 0428     		cmp	r0, #4
 1566 000a 03EB8003 		add	r3, r3, r0, lsl #2
 816:Lib/AI_Runtime/Npu/ll_aton/ll_aton.c ****   ATON_INTCTRL_INTSET_SET(0, (1 << ATON_INTCTRL_0_INTSET_EPOCHCTRL_0_1_IDX));
 1567              		.loc 1 816 3 discriminator 4 view .LVU423
 1568 000e 6FF00051 		mvn	r1, #536870912
 816:Lib/AI_Runtime/Npu/ll_aton/ll_aton.c ****   ATON_INTCTRL_INTSET_SET(0, (1 << ATON_INTCTRL_0_INTSET_EPOCHCTRL_0_1_IDX));
 1569              		.loc 1 816 3 discriminator 1 view .LVU424
 1570 0012 28BF     		it	cs
 1571 0014 1346     		movcs	r3, r2
 816:Lib/AI_Runtime/Npu/ll_aton/ll_aton.c ****   ATON_INTCTRL_INTSET_SET(0, (1 << ATON_INTCTRL_0_INTSET_EPOCHCTRL_0_1_IDX));
 1572              		.loc 1 816 3 discriminator 4 view .LVU425
 1573 0016 1960     		str	r1, [r3]
 816:Lib/AI_Runtime/Npu/ll_aton/ll_aton.c ****   ATON_INTCTRL_INTSET_SET(0, (1 << ATON_INTCTRL_0_INTSET_EPOCHCTRL_0_1_IDX));
 1574              		.loc 1 816 3 is_stmt 1 discriminator 4 view .LVU426
 816:Lib/AI_Runtime/Npu/ll_aton/ll_aton.c ****   ATON_INTCTRL_INTSET_SET(0, (1 << ATON_INTCTRL_0_INTSET_EPOCHCTRL_0_1_IDX));
 1575              		.loc 1 816 3 discriminator 4 view .LVU427
 816:Lib/AI_Runtime/Npu/ll_aton/ll_aton.c ****   ATON_INTCTRL_INTSET_SET(0, (1 << ATON_INTCTRL_0_INTSET_EPOCHCTRL_0_1_IDX));
 1576              		.loc 1 816 3 discriminator 4 view .LVU428
 817:Lib/AI_Runtime/Npu/ll_aton/ll_aton.c ****   return 0;
 1577              		.loc 1 817 3 view .LVU429
 817:Lib/AI_Runtime/Npu/ll_aton/ll_aton.c ****   return 0;
 1578              		.loc 1 817 3 view .LVU430
 1579 0018 4FF00053 		mov	r3, #536870912
 818:Lib/AI_Runtime/Npu/ll_aton/ll_aton.c **** }
 1580              		.loc 1 818 10 is_stmt 0 view .LVU431
 1581 001c 0020     		movs	r0, #0
 1582              	.LVL149:
 817:Lib/AI_Runtime/Npu/ll_aton/ll_aton.c ****   return 0;
 1583              		.loc 1 817 3 view .LVU432
 1584 001e D360     		str	r3, [r2, #12]
 817:Lib/AI_Runtime/Npu/ll_aton/ll_aton.c ****   return 0;
 1585              		.loc 1 817 3 is_stmt 1 view .LVU433
 817:Lib/AI_Runtime/Npu/ll_aton/ll_aton.c ****   return 0;
 1586              		.loc 1 817 77 view .LVU434
 818:Lib/AI_Runtime/Npu/ll_aton/ll_aton.c **** }
 1587              		.loc 1 818 3 view .LVU435
 818:Lib/AI_Runtime/Npu/ll_aton/ll_aton.c **** }
 1588              		.loc 1 818 10 is_stmt 0 view .LVU436
 1589 0020 7047     		bx	lr
 1590              	.LVL150:
 1591              	.L134:
 814:Lib/AI_Runtime/Npu/ll_aton/ll_aton.c **** 
 1592              		.loc 1 814 12 view .LVU437
 1593 0022 6FF00100 		mvn	r0, #1
 1594              	.LVL151:
 819:Lib/AI_Runtime/Npu/ll_aton/ll_aton.c **** 
 1595              		.loc 1 819 1 view .LVU438
 1596 0026 7047     		bx	lr
 1597              	.L137:
 1598              		.align	2
 1599              	.L136:
 1600 0028 00100E58 		.word	1477316608
ARM GAS  /tmp/ccgbPSBw.s 			page 58


 1601 002c 14100E58 		.word	1477316628
 1602              		.cfi_endproc
 1603              	.LFE4832:
 1605              		.section	.text.LL_TriggerLow,"ax",%progbits
 1606              		.align	1
 1607              		.global	LL_TriggerLow
 1608              		.syntax unified
 1609              		.thumb
 1610              		.thumb_func
 1612              	LL_TriggerLow:
 1613              	.LVL152:
 1614              	.LFB4833:
 827:Lib/AI_Runtime/Npu/ll_aton/ll_aton.c ****   if (irq >= ATON_INTCTRL_INTS(0))
 1615              		.loc 1 827 1 is_stmt 1 view -0
 1616              		.cfi_startproc
 1617              		@ args = 0, pretend = 0, frame = 0
 1618              		@ frame_needed = 0, uses_anonymous_args = 0
 1619              		@ link register save eliminated.
 828:Lib/AI_Runtime/Npu/ll_aton/ll_aton.c ****     return LL_ATON_INVALID_PARAM;
 1620              		.loc 1 828 3 view .LVU440
 828:Lib/AI_Runtime/Npu/ll_aton/ll_aton.c ****     return LL_ATON_INVALID_PARAM;
 1621              		.loc 1 828 6 is_stmt 0 view .LVU441
 1622 0000 1F28     		cmp	r0, #31
 831:Lib/AI_Runtime/Npu/ll_aton/ll_aton.c ****   return 0;
 1623              		.loc 1 831 3 is_stmt 1 view .LVU442
 831:Lib/AI_Runtime/Npu/ll_aton/ll_aton.c ****   return 0;
 1624              		.loc 1 831 3 view .LVU443
 1625 0002 DFBF     		itttt	le
 1626 0004 4FF00052 		movle	r2, #536870912
 1627 0008 034B     		ldrle	r3, .L141
 832:Lib/AI_Runtime/Npu/ll_aton/ll_aton.c **** }
 1628              		.loc 1 832 10 is_stmt 0 view .LVU444
 1629 000a 0020     		movle	r0, #0
 1630              	.LVL153:
 831:Lib/AI_Runtime/Npu/ll_aton/ll_aton.c ****   return 0;
 1631              		.loc 1 831 3 view .LVU445
 1632 000c 1A61     		strle	r2, [r3, #16]
 831:Lib/AI_Runtime/Npu/ll_aton/ll_aton.c ****   return 0;
 1633              		.loc 1 831 3 is_stmt 1 view .LVU446
 831:Lib/AI_Runtime/Npu/ll_aton/ll_aton.c ****   return 0;
 1634              		.loc 1 831 77 view .LVU447
 832:Lib/AI_Runtime/Npu/ll_aton/ll_aton.c **** }
 1635              		.loc 1 832 3 view .LVU448
 829:Lib/AI_Runtime/Npu/ll_aton/ll_aton.c **** 
 1636              		.loc 1 829 12 is_stmt 0 view .LVU449
 1637 000e C8BF     		it	gt
 1638 0010 6FF00100 		mvngt	r0, #1
 833:Lib/AI_Runtime/Npu/ll_aton/ll_aton.c **** #endif
 1639              		.loc 1 833 1 view .LVU450
 1640 0014 7047     		bx	lr
 1641              	.L142:
 1642 0016 00BF     		.align	2
 1643              	.L141:
 1644 0018 00100E58 		.word	1477316608
 1645              		.cfi_endproc
 1646              	.LFE4833:
 1648              		.section	.rodata.__atonn_getSrcPortID.str1.1,"aMS",%progbits,1
ARM GAS  /tmp/ccgbPSBw.s 			page 59


 1649              	.LC20:
 1650 0000 73755F6E 		.ascii	"su_num == 0\000"
 1650      756D203D 
 1650      3D203000 
 1651              	.LC21:
 1652 000c 706F7274 		.ascii	"port == 0\000"
 1652      203D3D20 
 1652      3000
 1653              	.LC22:
 1654 0016 61755F6E 		.ascii	"au_num < 10\000"
 1654      756D203C 
 1654      20313000 
 1655              	.LC23:
 1656 0022 61755F6E 		.ascii	"au_num < 4\000"
 1656      756D203C 
 1656      203400
 1657              	.LC24:
 1658 002d 61755F6E 		.ascii	"au_num < 2\000"
 1658      756D203C 
 1658      203200
 1659              		.section	.text.__atonn_getSrcPortID,"ax",%progbits
 1660              		.align	1
 1661              		.global	__atonn_getSrcPortID
 1662              		.syntax unified
 1663              		.thumb
 1664              		.thumb_func
 1666              	__atonn_getSrcPortID:
 1667              	.LVL154:
 1668              	.LFB4834:
 838:Lib/AI_Runtime/Npu/ll_aton/ll_aton.c ****   // FIXME
 1669              		.loc 1 838 1 is_stmt 1 view -0
 1670              		.cfi_startproc
 1671              		@ args = 4, pretend = 0, frame = 0
 1672              		@ frame_needed = 0, uses_anonymous_args = 0
 840:Lib/AI_Runtime/Npu/ll_aton/ll_aton.c ****   switch (sut)
 1673              		.loc 1 840 3 view .LVU452
 838:Lib/AI_Runtime/Npu/ll_aton/ll_aton.c ****   // FIXME
 1674              		.loc 1 838 1 is_stmt 0 view .LVU453
 1675 0000 38B5     		push	{r3, r4, r5, lr}
 1676              		.cfi_def_cfa_offset 16
 1677              		.cfi_offset 3, -16
 1678              		.cfi_offset 4, -12
 1679              		.cfi_offset 5, -8
 1680              		.cfi_offset 14, -4
 838:Lib/AI_Runtime/Npu/ll_aton/ll_aton.c ****   // FIXME
 1681              		.loc 1 838 1 view .LVU454
 1682 0002 0546     		mov	r5, r0
 1683 0004 9DF81040 		ldrb	r4, [sp, #16]	@ zero_extendqisi2
 840:Lib/AI_Runtime/Npu/ll_aton/ll_aton.c ****   switch (sut)
 1684              		.loc 1 840 3 view .LVU455
 1685 0008 0846     		mov	r0, r1
 1686              	.LVL155:
 840:Lib/AI_Runtime/Npu/ll_aton/ll_aton.c ****   switch (sut)
 1687              		.loc 1 840 3 view .LVU456
 1688 000a 31B1     		cbz	r1, .L144
 840:Lib/AI_Runtime/Npu/ll_aton/ll_aton.c ****   switch (sut)
 1689              		.loc 1 840 3 discriminator 1 view .LVU457
ARM GAS  /tmp/ccgbPSBw.s 			page 60


 1690 000c 4FF45271 		mov	r1, #840
 1691              	.LVL156:
 840:Lib/AI_Runtime/Npu/ll_aton/ll_aton.c ****   switch (sut)
 1692              		.loc 1 840 3 discriminator 1 view .LVU458
 1693 0010 3D4B     		ldr	r3, .L170
 1694              	.LVL157:
 840:Lib/AI_Runtime/Npu/ll_aton/ll_aton.c ****   switch (sut)
 1695              		.loc 1 840 3 discriminator 1 view .LVU459
 1696 0012 3E4A     		ldr	r2, .L170+4
 1697              	.LVL158:
 1698              	.L169:
 848:Lib/AI_Runtime/Npu/ll_aton/ll_aton.c ****       LL_ATON_ASSERT(au_num < ATON_STRENG_NUM);
 1699              		.loc 1 848 7 discriminator 1 view .LVU460
 1700 0014 3E48     		ldr	r0, .L170+8
 1701 0016 FFF7FEFF 		bl	__assert_func
 1702              	.LVL159:
 1703              	.L144:
 841:Lib/AI_Runtime/Npu/ll_aton/ll_aton.c ****   {
 1704              		.loc 1 841 3 is_stmt 1 view .LVU461
 1705 001a 25B1     		cbz	r5, .L145
 1706 001c 012D     		cmp	r5, #1
 1707 001e 68D0     		beq	.L146
 1708 0020 022D     		cmp	r5, #2
 1709 0022 6BD0     		beq	.L147
 1710              	.LVL160:
 1711              	.L143:
 903:Lib/AI_Runtime/Npu/ll_aton/ll_aton.c **** 
 1712              		.loc 1 903 1 is_stmt 0 view .LVU462
 1713 0024 38BD     		pop	{r3, r4, r5, pc}
 1714              	.LVL161:
 1715              	.L145:
 844:Lib/AI_Runtime/Npu/ll_aton/ll_aton.c ****     {
 1716              		.loc 1 844 5 is_stmt 1 view .LVU463
 1717 0026 062A     		cmp	r2, #6
 1718 0028 5ED8     		bhi	.L149
 1719 002a DFE802F0 		tbb	[pc, r2]
 1720              	.LVL162:
 1721              	.L151:
 1722 002e 04       		.byte	(.L156-.L151)/2
 1723 002f 5D       		.byte	(.L149-.L151)/2
 1724 0030 12       		.byte	(.L155-.L151)/2
 1725 0031 21       		.byte	(.L154-.L151)/2
 1726 0032 30       		.byte	(.L153-.L151)/2
 1727 0033 3F       		.byte	(.L152-.L151)/2
 1728 0034 4E       		.byte	(.L150-.L151)/2
 1729 0035 00       		.p2align 1
 1730              	.L156:
 848:Lib/AI_Runtime/Npu/ll_aton/ll_aton.c ****       LL_ATON_ASSERT(au_num < ATON_STRENG_NUM);
 1731              		.loc 1 848 7 view .LVU464
 1732 0036 24B1     		cbz	r4, .L157
 848:Lib/AI_Runtime/Npu/ll_aton/ll_aton.c ****       LL_ATON_ASSERT(au_num < ATON_STRENG_NUM);
 1733              		.loc 1 848 7 is_stmt 0 discriminator 1 view .LVU465
 1734 0038 4FF45471 		mov	r1, #848
 1735 003c 354B     		ldr	r3, .L170+12
 1736              	.LVL163:
 848:Lib/AI_Runtime/Npu/ll_aton/ll_aton.c ****       LL_ATON_ASSERT(au_num < ATON_STRENG_NUM);
 1737              		.loc 1 848 7 discriminator 1 view .LVU466
ARM GAS  /tmp/ccgbPSBw.s 			page 61


 1738 003e 334A     		ldr	r2, .L170+4
 1739              	.LVL164:
 848:Lib/AI_Runtime/Npu/ll_aton/ll_aton.c ****       LL_ATON_ASSERT(au_num < ATON_STRENG_NUM);
 1740              		.loc 1 848 7 discriminator 1 view .LVU467
 1741 0040 E8E7     		b	.L169
 1742              	.LVL165:
 1743              	.L157:
 849:Lib/AI_Runtime/Npu/ll_aton/ll_aton.c ****       return ATONN_CONST_SRCPORT(STRSWITCH, 0, STRENG, 0, 0) + au_num;
 1744              		.loc 1 849 7 is_stmt 1 view .LVU468
 1745 0042 092B     		cmp	r3, #9
 850:Lib/AI_Runtime/Npu/ll_aton/ll_aton.c ****       break;
 1746              		.loc 1 850 62 is_stmt 0 view .LVU469
 1747 0044 1846     		mov	r0, r3
 1748              	.LVL166:
 849:Lib/AI_Runtime/Npu/ll_aton/ll_aton.c ****       return ATONN_CONST_SRCPORT(STRSWITCH, 0, STRENG, 0, 0) + au_num;
 1749              		.loc 1 849 7 view .LVU470
 1750 0046 EDD9     		bls	.L143
 849:Lib/AI_Runtime/Npu/ll_aton/ll_aton.c ****       return ATONN_CONST_SRCPORT(STRSWITCH, 0, STRENG, 0, 0) + au_num;
 1751              		.loc 1 849 7 discriminator 1 view .LVU471
 1752 0048 40F25131 		movw	r1, #849
 1753 004c 324B     		ldr	r3, .L170+16
 1754              	.LVL167:
 849:Lib/AI_Runtime/Npu/ll_aton/ll_aton.c ****       return ATONN_CONST_SRCPORT(STRSWITCH, 0, STRENG, 0, 0) + au_num;
 1755              		.loc 1 849 7 discriminator 1 view .LVU472
 1756 004e 2F4A     		ldr	r2, .L170+4
 1757              	.LVL168:
 849:Lib/AI_Runtime/Npu/ll_aton/ll_aton.c ****       return ATONN_CONST_SRCPORT(STRSWITCH, 0, STRENG, 0, 0) + au_num;
 1758              		.loc 1 849 7 discriminator 1 view .LVU473
 1759 0050 E0E7     		b	.L169
 1760              	.LVL169:
 1761              	.L155:
 851:Lib/AI_Runtime/Npu/ll_aton/ll_aton.c **** #endif
 1762              		.loc 1 851 7 is_stmt 1 view .LVU474
 855:Lib/AI_Runtime/Npu/ll_aton/ll_aton.c ****       LL_ATON_ASSERT(au_num < ATON_CONVACC_NUM);
 1763              		.loc 1 855 7 view .LVU475
 1764 0052 24B1     		cbz	r4, .L159
 855:Lib/AI_Runtime/Npu/ll_aton/ll_aton.c ****       LL_ATON_ASSERT(au_num < ATON_CONVACC_NUM);
 1765              		.loc 1 855 7 is_stmt 0 discriminator 1 view .LVU476
 1766 0054 40F25731 		movw	r1, #855
 1767 0058 2E4B     		ldr	r3, .L170+12
 1768              	.LVL170:
 855:Lib/AI_Runtime/Npu/ll_aton/ll_aton.c ****       LL_ATON_ASSERT(au_num < ATON_CONVACC_NUM);
 1769              		.loc 1 855 7 discriminator 1 view .LVU477
 1770 005a 2C4A     		ldr	r2, .L170+4
 1771              	.LVL171:
 855:Lib/AI_Runtime/Npu/ll_aton/ll_aton.c ****       LL_ATON_ASSERT(au_num < ATON_CONVACC_NUM);
 1772              		.loc 1 855 7 discriminator 1 view .LVU478
 1773 005c DAE7     		b	.L169
 1774              	.LVL172:
 1775              	.L159:
 856:Lib/AI_Runtime/Npu/ll_aton/ll_aton.c ****       return ATONN_CONST_SRCPORT(STRSWITCH, 0, CONVACC, 0, 0) + au_num;
 1776              		.loc 1 856 7 is_stmt 1 view .LVU479
 1777 005e 032B     		cmp	r3, #3
 857:Lib/AI_Runtime/Npu/ll_aton/ll_aton.c ****       break;
 1778              		.loc 1 857 63 is_stmt 0 view .LVU480
 1779 0060 03F10A00 		add	r0, r3, #10
 856:Lib/AI_Runtime/Npu/ll_aton/ll_aton.c ****       return ATONN_CONST_SRCPORT(STRSWITCH, 0, CONVACC, 0, 0) + au_num;
ARM GAS  /tmp/ccgbPSBw.s 			page 62


 1780              		.loc 1 856 7 view .LVU481
 1781 0064 DED9     		bls	.L143
 856:Lib/AI_Runtime/Npu/ll_aton/ll_aton.c ****       return ATONN_CONST_SRCPORT(STRSWITCH, 0, CONVACC, 0, 0) + au_num;
 1782              		.loc 1 856 7 discriminator 1 view .LVU482
 1783 0066 4FF45671 		mov	r1, #856
 1784 006a 2C4B     		ldr	r3, .L170+20
 1785              	.LVL173:
 856:Lib/AI_Runtime/Npu/ll_aton/ll_aton.c ****       return ATONN_CONST_SRCPORT(STRSWITCH, 0, CONVACC, 0, 0) + au_num;
 1786              		.loc 1 856 7 discriminator 1 view .LVU483
 1787 006c 274A     		ldr	r2, .L170+4
 1788              	.LVL174:
 856:Lib/AI_Runtime/Npu/ll_aton/ll_aton.c ****       return ATONN_CONST_SRCPORT(STRSWITCH, 0, CONVACC, 0, 0) + au_num;
 1789              		.loc 1 856 7 discriminator 1 view .LVU484
 1790 006e D1E7     		b	.L169
 1791              	.LVL175:
 1792              	.L154:
 858:Lib/AI_Runtime/Npu/ll_aton/ll_aton.c **** #endif
 1793              		.loc 1 858 7 is_stmt 1 view .LVU485
 862:Lib/AI_Runtime/Npu/ll_aton/ll_aton.c ****       LL_ATON_ASSERT(au_num < ATON_DECUN_NUM);
 1794              		.loc 1 862 7 view .LVU486
 1795 0070 24B1     		cbz	r4, .L161
 862:Lib/AI_Runtime/Npu/ll_aton/ll_aton.c ****       LL_ATON_ASSERT(au_num < ATON_DECUN_NUM);
 1796              		.loc 1 862 7 is_stmt 0 discriminator 1 view .LVU487
 1797 0072 40F25E31 		movw	r1, #862
 1798 0076 274B     		ldr	r3, .L170+12
 1799              	.LVL176:
 862:Lib/AI_Runtime/Npu/ll_aton/ll_aton.c ****       LL_ATON_ASSERT(au_num < ATON_DECUN_NUM);
 1800              		.loc 1 862 7 discriminator 1 view .LVU488
 1801 0078 244A     		ldr	r2, .L170+4
 1802              	.LVL177:
 862:Lib/AI_Runtime/Npu/ll_aton/ll_aton.c ****       LL_ATON_ASSERT(au_num < ATON_DECUN_NUM);
 1803              		.loc 1 862 7 discriminator 1 view .LVU489
 1804 007a CBE7     		b	.L169
 1805              	.LVL178:
 1806              	.L161:
 863:Lib/AI_Runtime/Npu/ll_aton/ll_aton.c ****       return ATONN_CONST_SRCPORT(STRSWITCH, 0, DECUN, 0, 0) + au_num;
 1807              		.loc 1 863 7 is_stmt 1 view .LVU490
 1808 007c 012B     		cmp	r3, #1
 864:Lib/AI_Runtime/Npu/ll_aton/ll_aton.c ****       break;
 1809              		.loc 1 864 61 is_stmt 0 view .LVU491
 1810 007e 03F10E00 		add	r0, r3, #14
 863:Lib/AI_Runtime/Npu/ll_aton/ll_aton.c ****       return ATONN_CONST_SRCPORT(STRSWITCH, 0, DECUN, 0, 0) + au_num;
 1811              		.loc 1 863 7 view .LVU492
 1812 0082 CFD9     		bls	.L143
 863:Lib/AI_Runtime/Npu/ll_aton/ll_aton.c ****       return ATONN_CONST_SRCPORT(STRSWITCH, 0, DECUN, 0, 0) + au_num;
 1813              		.loc 1 863 7 discriminator 1 view .LVU493
 1814 0084 40F25F31 		movw	r1, #863
 1815 0088 254B     		ldr	r3, .L170+24
 1816              	.LVL179:
 863:Lib/AI_Runtime/Npu/ll_aton/ll_aton.c ****       return ATONN_CONST_SRCPORT(STRSWITCH, 0, DECUN, 0, 0) + au_num;
 1817              		.loc 1 863 7 discriminator 1 view .LVU494
 1818 008a 204A     		ldr	r2, .L170+4
 1819              	.LVL180:
 863:Lib/AI_Runtime/Npu/ll_aton/ll_aton.c ****       return ATONN_CONST_SRCPORT(STRSWITCH, 0, DECUN, 0, 0) + au_num;
 1820              		.loc 1 863 7 discriminator 1 view .LVU495
 1821 008c C2E7     		b	.L169
 1822              	.LVL181:
ARM GAS  /tmp/ccgbPSBw.s 			page 63


 1823              	.L153:
 865:Lib/AI_Runtime/Npu/ll_aton/ll_aton.c **** #endif
 1824              		.loc 1 865 7 is_stmt 1 view .LVU496
 869:Lib/AI_Runtime/Npu/ll_aton/ll_aton.c ****       LL_ATON_ASSERT(au_num < ATON_ACTIV_NUM);
 1825              		.loc 1 869 7 view .LVU497
 1826 008e 24B1     		cbz	r4, .L163
 869:Lib/AI_Runtime/Npu/ll_aton/ll_aton.c ****       LL_ATON_ASSERT(au_num < ATON_ACTIV_NUM);
 1827              		.loc 1 869 7 is_stmt 0 discriminator 1 view .LVU498
 1828 0090 40F26531 		movw	r1, #869
 1829 0094 1F4B     		ldr	r3, .L170+12
 1830              	.LVL182:
 869:Lib/AI_Runtime/Npu/ll_aton/ll_aton.c ****       LL_ATON_ASSERT(au_num < ATON_ACTIV_NUM);
 1831              		.loc 1 869 7 discriminator 1 view .LVU499
 1832 0096 1D4A     		ldr	r2, .L170+4
 1833              	.LVL183:
 869:Lib/AI_Runtime/Npu/ll_aton/ll_aton.c ****       LL_ATON_ASSERT(au_num < ATON_ACTIV_NUM);
 1834              		.loc 1 869 7 discriminator 1 view .LVU500
 1835 0098 BCE7     		b	.L169
 1836              	.LVL184:
 1837              	.L163:
 870:Lib/AI_Runtime/Npu/ll_aton/ll_aton.c ****       return ATONN_CONST_SRCPORT(STRSWITCH, 0, ACTIV, 0, 0) + au_num;
 1838              		.loc 1 870 7 is_stmt 1 view .LVU501
 1839 009a 012B     		cmp	r3, #1
 871:Lib/AI_Runtime/Npu/ll_aton/ll_aton.c ****       break;
 1840              		.loc 1 871 61 is_stmt 0 view .LVU502
 1841 009c 03F11000 		add	r0, r3, #16
 870:Lib/AI_Runtime/Npu/ll_aton/ll_aton.c ****       return ATONN_CONST_SRCPORT(STRSWITCH, 0, ACTIV, 0, 0) + au_num;
 1842              		.loc 1 870 7 view .LVU503
 1843 00a0 C0D9     		bls	.L143
 870:Lib/AI_Runtime/Npu/ll_aton/ll_aton.c ****       return ATONN_CONST_SRCPORT(STRSWITCH, 0, ACTIV, 0, 0) + au_num;
 1844              		.loc 1 870 7 discriminator 1 view .LVU504
 1845 00a2 40F26631 		movw	r1, #870
 1846 00a6 1E4B     		ldr	r3, .L170+24
 1847              	.LVL185:
 870:Lib/AI_Runtime/Npu/ll_aton/ll_aton.c ****       return ATONN_CONST_SRCPORT(STRSWITCH, 0, ACTIV, 0, 0) + au_num;
 1848              		.loc 1 870 7 discriminator 1 view .LVU505
 1849 00a8 184A     		ldr	r2, .L170+4
 1850              	.LVL186:
 870:Lib/AI_Runtime/Npu/ll_aton/ll_aton.c ****       return ATONN_CONST_SRCPORT(STRSWITCH, 0, ACTIV, 0, 0) + au_num;
 1851              		.loc 1 870 7 discriminator 1 view .LVU506
 1852 00aa B3E7     		b	.L169
 1853              	.LVL187:
 1854              	.L152:
 872:Lib/AI_Runtime/Npu/ll_aton/ll_aton.c **** #endif
 1855              		.loc 1 872 7 is_stmt 1 view .LVU507
 876:Lib/AI_Runtime/Npu/ll_aton/ll_aton.c ****       LL_ATON_ASSERT(au_num < ATON_ARITH_NUM);
 1856              		.loc 1 876 7 view .LVU508
 1857 00ac 24B1     		cbz	r4, .L165
 876:Lib/AI_Runtime/Npu/ll_aton/ll_aton.c ****       LL_ATON_ASSERT(au_num < ATON_ARITH_NUM);
 1858              		.loc 1 876 7 is_stmt 0 discriminator 1 view .LVU509
 1859 00ae 4FF45B71 		mov	r1, #876
 1860 00b2 184B     		ldr	r3, .L170+12
 1861              	.LVL188:
 876:Lib/AI_Runtime/Npu/ll_aton/ll_aton.c ****       LL_ATON_ASSERT(au_num < ATON_ARITH_NUM);
 1862              		.loc 1 876 7 discriminator 1 view .LVU510
 1863 00b4 154A     		ldr	r2, .L170+4
 1864              	.LVL189:
ARM GAS  /tmp/ccgbPSBw.s 			page 64


 876:Lib/AI_Runtime/Npu/ll_aton/ll_aton.c ****       LL_ATON_ASSERT(au_num < ATON_ARITH_NUM);
 1865              		.loc 1 876 7 discriminator 1 view .LVU511
 1866 00b6 ADE7     		b	.L169
 1867              	.LVL190:
 1868              	.L165:
 877:Lib/AI_Runtime/Npu/ll_aton/ll_aton.c ****       return ATONN_CONST_SRCPORT(STRSWITCH, 0, ARITH, 0, 0) + au_num;
 1869              		.loc 1 877 7 is_stmt 1 view .LVU512
 1870 00b8 032B     		cmp	r3, #3
 878:Lib/AI_Runtime/Npu/ll_aton/ll_aton.c ****       break;
 1871              		.loc 1 878 61 is_stmt 0 view .LVU513
 1872 00ba 03F11200 		add	r0, r3, #18
 877:Lib/AI_Runtime/Npu/ll_aton/ll_aton.c ****       return ATONN_CONST_SRCPORT(STRSWITCH, 0, ARITH, 0, 0) + au_num;
 1873              		.loc 1 877 7 view .LVU514
 1874 00be B1D9     		bls	.L143
 877:Lib/AI_Runtime/Npu/ll_aton/ll_aton.c ****       return ATONN_CONST_SRCPORT(STRSWITCH, 0, ARITH, 0, 0) + au_num;
 1875              		.loc 1 877 7 discriminator 1 view .LVU515
 1876 00c0 40F26D31 		movw	r1, #877
 1877 00c4 154B     		ldr	r3, .L170+20
 1878              	.LVL191:
 877:Lib/AI_Runtime/Npu/ll_aton/ll_aton.c ****       return ATONN_CONST_SRCPORT(STRSWITCH, 0, ARITH, 0, 0) + au_num;
 1879              		.loc 1 877 7 discriminator 1 view .LVU516
 1880 00c6 114A     		ldr	r2, .L170+4
 1881              	.LVL192:
 877:Lib/AI_Runtime/Npu/ll_aton/ll_aton.c ****       return ATONN_CONST_SRCPORT(STRSWITCH, 0, ARITH, 0, 0) + au_num;
 1882              		.loc 1 877 7 discriminator 1 view .LVU517
 1883 00c8 A4E7     		b	.L169
 1884              	.LVL193:
 1885              	.L150:
 879:Lib/AI_Runtime/Npu/ll_aton/ll_aton.c **** #endif
 1886              		.loc 1 879 7 is_stmt 1 view .LVU518
 883:Lib/AI_Runtime/Npu/ll_aton/ll_aton.c ****       LL_ATON_ASSERT(au_num < ATON_POOL_NUM);
 1887              		.loc 1 883 7 view .LVU519
 1888 00ca 24B1     		cbz	r4, .L167
 883:Lib/AI_Runtime/Npu/ll_aton/ll_aton.c ****       LL_ATON_ASSERT(au_num < ATON_POOL_NUM);
 1889              		.loc 1 883 7 is_stmt 0 discriminator 1 view .LVU520
 1890 00cc 40F27331 		movw	r1, #883
 1891 00d0 104B     		ldr	r3, .L170+12
 1892              	.LVL194:
 883:Lib/AI_Runtime/Npu/ll_aton/ll_aton.c ****       LL_ATON_ASSERT(au_num < ATON_POOL_NUM);
 1893              		.loc 1 883 7 discriminator 1 view .LVU521
 1894 00d2 0E4A     		ldr	r2, .L170+4
 1895              	.LVL195:
 883:Lib/AI_Runtime/Npu/ll_aton/ll_aton.c ****       LL_ATON_ASSERT(au_num < ATON_POOL_NUM);
 1896              		.loc 1 883 7 discriminator 1 view .LVU522
 1897 00d4 9EE7     		b	.L169
 1898              	.LVL196:
 1899              	.L167:
 884:Lib/AI_Runtime/Npu/ll_aton/ll_aton.c ****       return ATONN_CONST_SRCPORT(STRSWITCH, 0, POOL, 0, 0) + au_num;
 1900              		.loc 1 884 7 is_stmt 1 view .LVU523
 1901 00d6 012B     		cmp	r3, #1
 885:Lib/AI_Runtime/Npu/ll_aton/ll_aton.c ****       break;
 1902              		.loc 1 885 60 is_stmt 0 view .LVU524
 1903 00d8 03F11600 		add	r0, r3, #22
 884:Lib/AI_Runtime/Npu/ll_aton/ll_aton.c ****       return ATONN_CONST_SRCPORT(STRSWITCH, 0, POOL, 0, 0) + au_num;
 1904              		.loc 1 884 7 view .LVU525
 1905 00dc A2D9     		bls	.L143
 884:Lib/AI_Runtime/Npu/ll_aton/ll_aton.c ****       return ATONN_CONST_SRCPORT(STRSWITCH, 0, POOL, 0, 0) + au_num;
ARM GAS  /tmp/ccgbPSBw.s 			page 65


 1906              		.loc 1 884 7 discriminator 1 view .LVU526
 1907 00de 4FF45D71 		mov	r1, #884
 1908 00e2 0F4B     		ldr	r3, .L170+24
 1909              	.LVL197:
 884:Lib/AI_Runtime/Npu/ll_aton/ll_aton.c ****       return ATONN_CONST_SRCPORT(STRSWITCH, 0, POOL, 0, 0) + au_num;
 1910              		.loc 1 884 7 discriminator 1 view .LVU527
 1911 00e4 094A     		ldr	r2, .L170+4
 1912              	.LVL198:
 884:Lib/AI_Runtime/Npu/ll_aton/ll_aton.c ****       return ATONN_CONST_SRCPORT(STRSWITCH, 0, POOL, 0, 0) + au_num;
 1913              		.loc 1 884 7 discriminator 1 view .LVU528
 1914 00e6 95E7     		b	.L169
 1915              	.LVL199:
 1916              	.L149:
 886:Lib/AI_Runtime/Npu/ll_aton/ll_aton.c **** #endif
 1917              		.loc 1 886 7 is_stmt 1 view .LVU529
 889:Lib/AI_Runtime/Npu/ll_aton/ll_aton.c ****       break;
 1918              		.loc 1 889 7 view .LVU530
 1919 00e8 40F27931 		movw	r1, #889
 1920 00ec 0D4B     		ldr	r3, .L170+28
 1921              	.LVL200:
 889:Lib/AI_Runtime/Npu/ll_aton/ll_aton.c ****       break;
 1922              		.loc 1 889 7 is_stmt 0 view .LVU531
 1923 00ee 074A     		ldr	r2, .L170+4
 1924              	.LVL201:
 889:Lib/AI_Runtime/Npu/ll_aton/ll_aton.c ****       break;
 1925              		.loc 1 889 7 view .LVU532
 1926 00f0 90E7     		b	.L169
 1927              	.LVL202:
 1928              	.L146:
 895:Lib/AI_Runtime/Npu/ll_aton/ll_aton.c ****     break;
 1929              		.loc 1 895 5 is_stmt 1 view .LVU533
 1930 00f2 40F27F31 		movw	r1, #895
 1931              	.LVL203:
 895:Lib/AI_Runtime/Npu/ll_aton/ll_aton.c ****     break;
 1932              		.loc 1 895 5 is_stmt 0 view .LVU534
 1933 00f6 0B4B     		ldr	r3, .L170+28
 1934              	.LVL204:
 895:Lib/AI_Runtime/Npu/ll_aton/ll_aton.c ****     break;
 1935              		.loc 1 895 5 view .LVU535
 1936 00f8 044A     		ldr	r2, .L170+4
 1937              	.LVL205:
 895:Lib/AI_Runtime/Npu/ll_aton/ll_aton.c ****     break;
 1938              		.loc 1 895 5 view .LVU536
 1939 00fa 8BE7     		b	.L169
 1940              	.LVL206:
 1941              	.L147:
 896:Lib/AI_Runtime/Npu/ll_aton/ll_aton.c ****   case STRSWITCH_VC:
 1942              		.loc 1 896 5 is_stmt 1 view .LVU537
 899:Lib/AI_Runtime/Npu/ll_aton/ll_aton.c ****     break;
 1943              		.loc 1 899 5 view .LVU538
 1944 00fc 40F28331 		movw	r1, #899
 1945              	.LVL207:
 899:Lib/AI_Runtime/Npu/ll_aton/ll_aton.c ****     break;
 1946              		.loc 1 899 5 is_stmt 0 view .LVU539
 1947 0100 084B     		ldr	r3, .L170+28
 1948              	.LVL208:
 899:Lib/AI_Runtime/Npu/ll_aton/ll_aton.c ****     break;
ARM GAS  /tmp/ccgbPSBw.s 			page 66


 1949              		.loc 1 899 5 view .LVU540
 1950 0102 024A     		ldr	r2, .L170+4
 1951              	.LVL209:
 899:Lib/AI_Runtime/Npu/ll_aton/ll_aton.c ****     break;
 1952              		.loc 1 899 5 view .LVU541
 1953 0104 86E7     		b	.L169
 1954              	.L171:
 1955 0106 00BF     		.align	2
 1956              	.L170:
 1957 0108 00000000 		.word	.LC20
 1958 010c 00000000 		.word	__func__.6
 1959 0110 05000000 		.word	.LC4
 1960 0114 0C000000 		.word	.LC21
 1961 0118 16000000 		.word	.LC22
 1962 011c 22000000 		.word	.LC23
 1963 0120 2D000000 		.word	.LC24
 1964 0124 95000000 		.word	.LC7
 1965              		.cfi_endproc
 1966              	.LFE4834:
 1968              		.section	.rodata.__atonn_getDstPortID.str1.1,"aMS",%progbits,1
 1969              	.LC25:
 1970 0000 706F7274 		.ascii	"port < 3\000"
 1970      203C2033 
 1970      00
 1971              	.LC26:
 1972 0009 706F7274 		.ascii	"port < 2\000"
 1972      203C2032 
 1972      00
 1973              		.section	.text.__atonn_getDstPortID,"ax",%progbits
 1974              		.align	1
 1975              		.global	__atonn_getDstPortID
 1976              		.syntax unified
 1977              		.thumb
 1978              		.thumb_func
 1980              	__atonn_getDstPortID:
 1981              	.LVL210:
 1982              	.LFB4835:
 907:Lib/AI_Runtime/Npu/ll_aton/ll_aton.c ****   // FIXME
 1983              		.loc 1 907 1 is_stmt 1 view -0
 1984              		.cfi_startproc
 1985              		@ args = 4, pretend = 0, frame = 0
 1986              		@ frame_needed = 0, uses_anonymous_args = 0
 909:Lib/AI_Runtime/Npu/ll_aton/ll_aton.c ****   switch (sut)
 1987              		.loc 1 909 3 view .LVU543
 907:Lib/AI_Runtime/Npu/ll_aton/ll_aton.c ****   // FIXME
 1988              		.loc 1 907 1 is_stmt 0 view .LVU544
 1989 0000 38B5     		push	{r3, r4, r5, lr}
 1990              		.cfi_def_cfa_offset 16
 1991              		.cfi_offset 3, -16
 1992              		.cfi_offset 4, -12
 1993              		.cfi_offset 5, -8
 1994              		.cfi_offset 14, -4
 907:Lib/AI_Runtime/Npu/ll_aton/ll_aton.c ****   // FIXME
 1995              		.loc 1 907 1 view .LVU545
 1996 0002 0546     		mov	r5, r0
 1997 0004 9DF81040 		ldrb	r4, [sp, #16]	@ zero_extendqisi2
 909:Lib/AI_Runtime/Npu/ll_aton/ll_aton.c ****   switch (sut)
ARM GAS  /tmp/ccgbPSBw.s 			page 67


 1998              		.loc 1 909 3 view .LVU546
 1999 0008 0846     		mov	r0, r1
 2000              	.LVL211:
 909:Lib/AI_Runtime/Npu/ll_aton/ll_aton.c ****   switch (sut)
 2001              		.loc 1 909 3 view .LVU547
 2002 000a 31B1     		cbz	r1, .L173
 909:Lib/AI_Runtime/Npu/ll_aton/ll_aton.c ****   switch (sut)
 2003              		.loc 1 909 3 discriminator 1 view .LVU548
 2004 000c 40F28D31 		movw	r1, #909
 2005              	.LVL212:
 909:Lib/AI_Runtime/Npu/ll_aton/ll_aton.c ****   switch (sut)
 2006              		.loc 1 909 3 discriminator 1 view .LVU549
 2007 0010 464B     		ldr	r3, .L200
 2008              	.LVL213:
 909:Lib/AI_Runtime/Npu/ll_aton/ll_aton.c ****   switch (sut)
 2009              		.loc 1 909 3 discriminator 1 view .LVU550
 2010 0012 474A     		ldr	r2, .L200+4
 2011              	.LVL214:
 2012              	.L199:
 917:Lib/AI_Runtime/Npu/ll_aton/ll_aton.c ****       LL_ATON_ASSERT(au_num < ATON_STRENG_NUM);
 2013              		.loc 1 917 7 discriminator 1 view .LVU551
 2014 0014 4748     		ldr	r0, .L200+8
 2015              	.LVL215:
 917:Lib/AI_Runtime/Npu/ll_aton/ll_aton.c ****       LL_ATON_ASSERT(au_num < ATON_STRENG_NUM);
 2016              		.loc 1 917 7 discriminator 1 view .LVU552
 2017 0016 FFF7FEFF 		bl	__assert_func
 2018              	.LVL216:
 2019              	.L173:
 910:Lib/AI_Runtime/Npu/ll_aton/ll_aton.c ****   {
 2020              		.loc 1 910 3 is_stmt 1 view .LVU553
 2021 001a 25B1     		cbz	r5, .L174
 2022 001c 012D     		cmp	r5, #1
 2023 001e 7AD0     		beq	.L175
 2024 0020 022D     		cmp	r5, #2
 2025 0022 7DD0     		beq	.L176
 2026              	.LVL217:
 2027              	.L172:
 972:Lib/AI_Runtime/Npu/ll_aton/ll_aton.c **** 
 2028              		.loc 1 972 1 is_stmt 0 view .LVU554
 2029 0024 38BD     		pop	{r3, r4, r5, pc}
 2030              	.LVL218:
 2031              	.L174:
 913:Lib/AI_Runtime/Npu/ll_aton/ll_aton.c ****     {
 2032              		.loc 1 913 5 is_stmt 1 view .LVU555
 2033 0026 062A     		cmp	r2, #6
 2034 0028 70D8     		bhi	.L178
 2035 002a DFE802F0 		tbb	[pc, r2]
 2036              	.LVL219:
 2037              	.L180:
 2038 002e 04       		.byte	(.L185-.L180)/2
 2039 002f 6F       		.byte	(.L178-.L180)/2
 2040 0030 15       		.byte	(.L184-.L180)/2
 2041 0031 29       		.byte	(.L183-.L180)/2
 2042 0032 3D       		.byte	(.L182-.L180)/2
 2043 0033 4C       		.byte	(.L181-.L180)/2
 2044 0034 60       		.byte	(.L179-.L180)/2
 2045 0035 00       		.p2align 1
ARM GAS  /tmp/ccgbPSBw.s 			page 68


 2046              	.L185:
 917:Lib/AI_Runtime/Npu/ll_aton/ll_aton.c ****       LL_ATON_ASSERT(au_num < ATON_STRENG_NUM);
 2047              		.loc 1 917 7 view .LVU556
 2048 0036 24B1     		cbz	r4, .L186
 917:Lib/AI_Runtime/Npu/ll_aton/ll_aton.c ****       LL_ATON_ASSERT(au_num < ATON_STRENG_NUM);
 2049              		.loc 1 917 7 is_stmt 0 discriminator 1 view .LVU557
 2050 0038 40F29531 		movw	r1, #917
 2051 003c 3E4B     		ldr	r3, .L200+12
 2052              	.LVL220:
 917:Lib/AI_Runtime/Npu/ll_aton/ll_aton.c ****       LL_ATON_ASSERT(au_num < ATON_STRENG_NUM);
 2053              		.loc 1 917 7 discriminator 1 view .LVU558
 2054 003e 3C4A     		ldr	r2, .L200+4
 2055              	.LVL221:
 917:Lib/AI_Runtime/Npu/ll_aton/ll_aton.c ****       LL_ATON_ASSERT(au_num < ATON_STRENG_NUM);
 2056              		.loc 1 917 7 discriminator 1 view .LVU559
 2057 0040 E8E7     		b	.L199
 2058              	.LVL222:
 2059              	.L186:
 918:Lib/AI_Runtime/Npu/ll_aton/ll_aton.c ****       return ATONN_CONST_DSTPORT(STRSWITCH, 0, STRENG, 0, 0) + (0x4 * au_num);
 2060              		.loc 1 918 7 is_stmt 1 view .LVU560
 2061 0042 092B     		cmp	r3, #9
 2062 0044 04D9     		bls	.L187
 918:Lib/AI_Runtime/Npu/ll_aton/ll_aton.c ****       return ATONN_CONST_DSTPORT(STRSWITCH, 0, STRENG, 0, 0) + (0x4 * au_num);
 2063              		.loc 1 918 7 is_stmt 0 discriminator 1 view .LVU561
 2064 0046 40F29631 		movw	r1, #918
 2065 004a 3C4B     		ldr	r3, .L200+16
 2066              	.LVL223:
 918:Lib/AI_Runtime/Npu/ll_aton/ll_aton.c ****       return ATONN_CONST_DSTPORT(STRSWITCH, 0, STRENG, 0, 0) + (0x4 * au_num);
 2067              		.loc 1 918 7 discriminator 1 view .LVU562
 2068 004c 384A     		ldr	r2, .L200+4
 2069              	.LVL224:
 918:Lib/AI_Runtime/Npu/ll_aton/ll_aton.c ****       return ATONN_CONST_DSTPORT(STRSWITCH, 0, STRENG, 0, 0) + (0x4 * au_num);
 2070              		.loc 1 918 7 discriminator 1 view .LVU563
 2071 004e E1E7     		b	.L199
 2072              	.LVL225:
 2073              	.L187:
 919:Lib/AI_Runtime/Npu/ll_aton/ll_aton.c ****       break;
 2074              		.loc 1 919 7 is_stmt 1 view .LVU564
 919:Lib/AI_Runtime/Npu/ll_aton/ll_aton.c ****       break;
 2075              		.loc 1 919 62 is_stmt 0 view .LVU565
 2076 0050 0820     		movs	r0, #8
 2077              	.LVL226:
 2078              	.L198:
 954:Lib/AI_Runtime/Npu/ll_aton/ll_aton.c ****       break;
 2079              		.loc 1 954 60 view .LVU566
 2080 0052 00EB8300 		add	r0, r0, r3, lsl #2
 2081 0056 E5E7     		b	.L172
 2082              	.L184:
 920:Lib/AI_Runtime/Npu/ll_aton/ll_aton.c **** #endif
 2083              		.loc 1 920 7 is_stmt 1 view .LVU567
 924:Lib/AI_Runtime/Npu/ll_aton/ll_aton.c ****       LL_ATON_ASSERT(au_num < ATON_CONVACC_NUM);
 2084              		.loc 1 924 7 view .LVU568
 2085 0058 022C     		cmp	r4, #2
 2086 005a 04D9     		bls	.L188
 924:Lib/AI_Runtime/Npu/ll_aton/ll_aton.c ****       LL_ATON_ASSERT(au_num < ATON_CONVACC_NUM);
 2087              		.loc 1 924 7 is_stmt 0 discriminator 1 view .LVU569
 2088 005c 4FF46771 		mov	r1, #924
ARM GAS  /tmp/ccgbPSBw.s 			page 69


 2089 0060 374B     		ldr	r3, .L200+20
 2090              	.LVL227:
 924:Lib/AI_Runtime/Npu/ll_aton/ll_aton.c ****       LL_ATON_ASSERT(au_num < ATON_CONVACC_NUM);
 2091              		.loc 1 924 7 discriminator 1 view .LVU570
 2092 0062 334A     		ldr	r2, .L200+4
 2093              	.LVL228:
 924:Lib/AI_Runtime/Npu/ll_aton/ll_aton.c ****       LL_ATON_ASSERT(au_num < ATON_CONVACC_NUM);
 2094              		.loc 1 924 7 discriminator 1 view .LVU571
 2095 0064 D6E7     		b	.L199
 2096              	.LVL229:
 2097              	.L188:
 925:Lib/AI_Runtime/Npu/ll_aton/ll_aton.c ****       return ATONN_CONST_DSTPORT(STRSWITCH, 0, CONVACC, 0, 0) + (0x4 * (3 * au_num + port));
 2098              		.loc 1 925 7 is_stmt 1 view .LVU572
 2099 0066 032B     		cmp	r3, #3
 2100 0068 04D9     		bls	.L189
 925:Lib/AI_Runtime/Npu/ll_aton/ll_aton.c ****       return ATONN_CONST_DSTPORT(STRSWITCH, 0, CONVACC, 0, 0) + (0x4 * (3 * au_num + port));
 2101              		.loc 1 925 7 is_stmt 0 discriminator 1 view .LVU573
 2102 006a 40F29D31 		movw	r1, #925
 2103 006e 354B     		ldr	r3, .L200+24
 2104              	.LVL230:
 925:Lib/AI_Runtime/Npu/ll_aton/ll_aton.c ****       return ATONN_CONST_DSTPORT(STRSWITCH, 0, CONVACC, 0, 0) + (0x4 * (3 * au_num + port));
 2105              		.loc 1 925 7 discriminator 1 view .LVU574
 2106 0070 2F4A     		ldr	r2, .L200+4
 2107              	.LVL231:
 925:Lib/AI_Runtime/Npu/ll_aton/ll_aton.c ****       return ATONN_CONST_DSTPORT(STRSWITCH, 0, CONVACC, 0, 0) + (0x4 * (3 * au_num + port));
 2108              		.loc 1 925 7 discriminator 1 view .LVU575
 2109 0072 CFE7     		b	.L199
 2110              	.LVL232:
 2111              	.L189:
 926:Lib/AI_Runtime/Npu/ll_aton/ll_aton.c ****       break;
 2112              		.loc 1 926 7 is_stmt 1 view .LVU576
 926:Lib/AI_Runtime/Npu/ll_aton/ll_aton.c ****       break;
 2113              		.loc 1 926 84 is_stmt 0 view .LVU577
 2114 0074 0320     		movs	r0, #3
 2115 0076 10FB0340 		smlabb	r0, r0, r3, r4
 926:Lib/AI_Runtime/Npu/ll_aton/ll_aton.c ****       break;
 2116              		.loc 1 926 70 view .LVU578
 2117 007a 8000     		lsls	r0, r0, #2
 926:Lib/AI_Runtime/Npu/ll_aton/ll_aton.c ****       break;
 2118              		.loc 1 926 63 view .LVU579
 2119 007c 3030     		adds	r0, r0, #48
 2120 007e D1E7     		b	.L172
 2121              	.L183:
 927:Lib/AI_Runtime/Npu/ll_aton/ll_aton.c **** #endif
 2122              		.loc 1 927 7 is_stmt 1 view .LVU580
 931:Lib/AI_Runtime/Npu/ll_aton/ll_aton.c ****       LL_ATON_ASSERT(au_num < ATON_DECUN_NUM);
 2123              		.loc 1 931 7 view .LVU581
 2124 0080 012C     		cmp	r4, #1
 2125 0082 04D9     		bls	.L190
 931:Lib/AI_Runtime/Npu/ll_aton/ll_aton.c ****       LL_ATON_ASSERT(au_num < ATON_DECUN_NUM);
 2126              		.loc 1 931 7 is_stmt 0 discriminator 1 view .LVU582
 2127 0084 40F2A331 		movw	r1, #931
 2128 0088 2F4B     		ldr	r3, .L200+28
 2129              	.LVL233:
 931:Lib/AI_Runtime/Npu/ll_aton/ll_aton.c ****       LL_ATON_ASSERT(au_num < ATON_DECUN_NUM);
 2130              		.loc 1 931 7 discriminator 1 view .LVU583
 2131 008a 294A     		ldr	r2, .L200+4
ARM GAS  /tmp/ccgbPSBw.s 			page 70


 2132              	.LVL234:
 931:Lib/AI_Runtime/Npu/ll_aton/ll_aton.c ****       LL_ATON_ASSERT(au_num < ATON_DECUN_NUM);
 2133              		.loc 1 931 7 discriminator 1 view .LVU584
 2134 008c C2E7     		b	.L199
 2135              	.LVL235:
 2136              	.L190:
 932:Lib/AI_Runtime/Npu/ll_aton/ll_aton.c ****       return ATONN_CONST_DSTPORT(STRSWITCH, 0, DECUN, 0, 0) + (0x4 * (2 * au_num + port));
 2137              		.loc 1 932 7 is_stmt 1 view .LVU585
 2138 008e 012B     		cmp	r3, #1
 2139 0090 04D9     		bls	.L191
 932:Lib/AI_Runtime/Npu/ll_aton/ll_aton.c ****       return ATONN_CONST_DSTPORT(STRSWITCH, 0, DECUN, 0, 0) + (0x4 * (2 * au_num + port));
 2140              		.loc 1 932 7 is_stmt 0 discriminator 1 view .LVU586
 2141 0092 4FF46971 		mov	r1, #932
 2142 0096 2D4B     		ldr	r3, .L200+32
 2143              	.LVL236:
 932:Lib/AI_Runtime/Npu/ll_aton/ll_aton.c ****       return ATONN_CONST_DSTPORT(STRSWITCH, 0, DECUN, 0, 0) + (0x4 * (2 * au_num + port));
 2144              		.loc 1 932 7 discriminator 1 view .LVU587
 2145 0098 254A     		ldr	r2, .L200+4
 2146              	.LVL237:
 932:Lib/AI_Runtime/Npu/ll_aton/ll_aton.c ****       return ATONN_CONST_DSTPORT(STRSWITCH, 0, DECUN, 0, 0) + (0x4 * (2 * au_num + port));
 2147              		.loc 1 932 7 discriminator 1 view .LVU588
 2148 009a BBE7     		b	.L199
 2149              	.LVL238:
 2150              	.L191:
 933:Lib/AI_Runtime/Npu/ll_aton/ll_aton.c ****       break;
 2151              		.loc 1 933 7 is_stmt 1 view .LVU589
 933:Lib/AI_Runtime/Npu/ll_aton/ll_aton.c ****       break;
 2152              		.loc 1 933 82 is_stmt 0 view .LVU590
 2153 009c 04EB4304 		add	r4, r4, r3, lsl #1
 933:Lib/AI_Runtime/Npu/ll_aton/ll_aton.c ****       break;
 2154              		.loc 1 933 68 view .LVU591
 2155 00a0 A400     		lsls	r4, r4, #2
 933:Lib/AI_Runtime/Npu/ll_aton/ll_aton.c ****       break;
 2156              		.loc 1 933 61 view .LVU592
 2157 00a2 04F16000 		add	r0, r4, #96
 2158 00a6 BDE7     		b	.L172
 2159              	.L182:
 934:Lib/AI_Runtime/Npu/ll_aton/ll_aton.c **** #endif
 2160              		.loc 1 934 7 is_stmt 1 view .LVU593
 938:Lib/AI_Runtime/Npu/ll_aton/ll_aton.c ****       LL_ATON_ASSERT(au_num < ATON_ACTIV_NUM);
 2161              		.loc 1 938 7 view .LVU594
 2162 00a8 24B1     		cbz	r4, .L192
 938:Lib/AI_Runtime/Npu/ll_aton/ll_aton.c ****       LL_ATON_ASSERT(au_num < ATON_ACTIV_NUM);
 2163              		.loc 1 938 7 is_stmt 0 discriminator 1 view .LVU595
 2164 00aa 40F2AA31 		movw	r1, #938
 2165 00ae 224B     		ldr	r3, .L200+12
 2166              	.LVL239:
 938:Lib/AI_Runtime/Npu/ll_aton/ll_aton.c ****       LL_ATON_ASSERT(au_num < ATON_ACTIV_NUM);
 2167              		.loc 1 938 7 discriminator 1 view .LVU596
 2168 00b0 1F4A     		ldr	r2, .L200+4
 2169              	.LVL240:
 938:Lib/AI_Runtime/Npu/ll_aton/ll_aton.c ****       LL_ATON_ASSERT(au_num < ATON_ACTIV_NUM);
 2170              		.loc 1 938 7 discriminator 1 view .LVU597
 2171 00b2 AFE7     		b	.L199
 2172              	.LVL241:
 2173              	.L192:
 939:Lib/AI_Runtime/Npu/ll_aton/ll_aton.c ****       return ATONN_CONST_DSTPORT(STRSWITCH, 0, ACTIV, 0, 0) + (0x4 * au_num);
ARM GAS  /tmp/ccgbPSBw.s 			page 71


 2174              		.loc 1 939 7 is_stmt 1 view .LVU598
 2175 00b4 012B     		cmp	r3, #1
 2176 00b6 04D9     		bls	.L193
 939:Lib/AI_Runtime/Npu/ll_aton/ll_aton.c ****       return ATONN_CONST_DSTPORT(STRSWITCH, 0, ACTIV, 0, 0) + (0x4 * au_num);
 2177              		.loc 1 939 7 is_stmt 0 discriminator 1 view .LVU599
 2178 00b8 40F2AB31 		movw	r1, #939
 2179 00bc 234B     		ldr	r3, .L200+32
 2180              	.LVL242:
 939:Lib/AI_Runtime/Npu/ll_aton/ll_aton.c ****       return ATONN_CONST_DSTPORT(STRSWITCH, 0, ACTIV, 0, 0) + (0x4 * au_num);
 2181              		.loc 1 939 7 discriminator 1 view .LVU600
 2182 00be 1C4A     		ldr	r2, .L200+4
 2183              	.LVL243:
 939:Lib/AI_Runtime/Npu/ll_aton/ll_aton.c ****       return ATONN_CONST_DSTPORT(STRSWITCH, 0, ACTIV, 0, 0) + (0x4 * au_num);
 2184              		.loc 1 939 7 discriminator 1 view .LVU601
 2185 00c0 A8E7     		b	.L199
 2186              	.LVL244:
 2187              	.L193:
 940:Lib/AI_Runtime/Npu/ll_aton/ll_aton.c ****       break;
 2188              		.loc 1 940 7 is_stmt 1 view .LVU602
 940:Lib/AI_Runtime/Npu/ll_aton/ll_aton.c ****       break;
 2189              		.loc 1 940 61 is_stmt 0 view .LVU603
 2190 00c2 7020     		movs	r0, #112
 2191 00c4 C5E7     		b	.L198
 2192              	.L181:
 941:Lib/AI_Runtime/Npu/ll_aton/ll_aton.c **** #endif
 2193              		.loc 1 941 7 is_stmt 1 view .LVU604
 945:Lib/AI_Runtime/Npu/ll_aton/ll_aton.c ****       LL_ATON_ASSERT(au_num < ATON_ARITH_NUM);
 2194              		.loc 1 945 7 view .LVU605
 2195 00c6 012C     		cmp	r4, #1
 2196 00c8 04D9     		bls	.L194
 945:Lib/AI_Runtime/Npu/ll_aton/ll_aton.c ****       LL_ATON_ASSERT(au_num < ATON_ARITH_NUM);
 2197              		.loc 1 945 7 is_stmt 0 discriminator 1 view .LVU606
 2198 00ca 40F2B131 		movw	r1, #945
 2199 00ce 1E4B     		ldr	r3, .L200+28
 2200              	.LVL245:
 945:Lib/AI_Runtime/Npu/ll_aton/ll_aton.c ****       LL_ATON_ASSERT(au_num < ATON_ARITH_NUM);
 2201              		.loc 1 945 7 discriminator 1 view .LVU607
 2202 00d0 174A     		ldr	r2, .L200+4
 2203              	.LVL246:
 945:Lib/AI_Runtime/Npu/ll_aton/ll_aton.c ****       LL_ATON_ASSERT(au_num < ATON_ARITH_NUM);
 2204              		.loc 1 945 7 discriminator 1 view .LVU608
 2205 00d2 9FE7     		b	.L199
 2206              	.LVL247:
 2207              	.L194:
 946:Lib/AI_Runtime/Npu/ll_aton/ll_aton.c ****       return ATONN_CONST_DSTPORT(STRSWITCH, 0, ARITH, 0, 0) + (0x4 * (2 * au_num + port));
 2208              		.loc 1 946 7 is_stmt 1 view .LVU609
 2209 00d4 032B     		cmp	r3, #3
 2210 00d6 04D9     		bls	.L195
 946:Lib/AI_Runtime/Npu/ll_aton/ll_aton.c ****       return ATONN_CONST_DSTPORT(STRSWITCH, 0, ARITH, 0, 0) + (0x4 * (2 * au_num + port));
 2211              		.loc 1 946 7 is_stmt 0 discriminator 1 view .LVU610
 2212 00d8 40F2B231 		movw	r1, #946
 2213 00dc 194B     		ldr	r3, .L200+24
 2214              	.LVL248:
 946:Lib/AI_Runtime/Npu/ll_aton/ll_aton.c ****       return ATONN_CONST_DSTPORT(STRSWITCH, 0, ARITH, 0, 0) + (0x4 * (2 * au_num + port));
 2215              		.loc 1 946 7 discriminator 1 view .LVU611
 2216 00de 144A     		ldr	r2, .L200+4
 2217              	.LVL249:
ARM GAS  /tmp/ccgbPSBw.s 			page 72


 946:Lib/AI_Runtime/Npu/ll_aton/ll_aton.c ****       return ATONN_CONST_DSTPORT(STRSWITCH, 0, ARITH, 0, 0) + (0x4 * (2 * au_num + port));
 2218              		.loc 1 946 7 discriminator 1 view .LVU612
 2219 00e0 98E7     		b	.L199
 2220              	.LVL250:
 2221              	.L195:
 947:Lib/AI_Runtime/Npu/ll_aton/ll_aton.c ****       break;
 2222              		.loc 1 947 7 is_stmt 1 view .LVU613
 947:Lib/AI_Runtime/Npu/ll_aton/ll_aton.c ****       break;
 2223              		.loc 1 947 82 is_stmt 0 view .LVU614
 2224 00e2 04EB4304 		add	r4, r4, r3, lsl #1
 947:Lib/AI_Runtime/Npu/ll_aton/ll_aton.c ****       break;
 2225              		.loc 1 947 68 view .LVU615
 2226 00e6 A400     		lsls	r4, r4, #2
 947:Lib/AI_Runtime/Npu/ll_aton/ll_aton.c ****       break;
 2227              		.loc 1 947 61 view .LVU616
 2228 00e8 04F17800 		add	r0, r4, #120
 2229 00ec 9AE7     		b	.L172
 2230              	.L179:
 948:Lib/AI_Runtime/Npu/ll_aton/ll_aton.c **** #endif
 2231              		.loc 1 948 7 is_stmt 1 view .LVU617
 952:Lib/AI_Runtime/Npu/ll_aton/ll_aton.c ****       LL_ATON_ASSERT(au_num < ATON_POOL_NUM);
 2232              		.loc 1 952 7 view .LVU618
 2233 00ee 24B1     		cbz	r4, .L196
 952:Lib/AI_Runtime/Npu/ll_aton/ll_aton.c ****       LL_ATON_ASSERT(au_num < ATON_POOL_NUM);
 2234              		.loc 1 952 7 is_stmt 0 discriminator 1 view .LVU619
 2235 00f0 4FF46E71 		mov	r1, #952
 2236 00f4 104B     		ldr	r3, .L200+12
 2237              	.LVL251:
 952:Lib/AI_Runtime/Npu/ll_aton/ll_aton.c ****       LL_ATON_ASSERT(au_num < ATON_POOL_NUM);
 2238              		.loc 1 952 7 discriminator 1 view .LVU620
 2239 00f6 0E4A     		ldr	r2, .L200+4
 2240              	.LVL252:
 952:Lib/AI_Runtime/Npu/ll_aton/ll_aton.c ****       LL_ATON_ASSERT(au_num < ATON_POOL_NUM);
 2241              		.loc 1 952 7 discriminator 1 view .LVU621
 2242 00f8 8CE7     		b	.L199
 2243              	.LVL253:
 2244              	.L196:
 953:Lib/AI_Runtime/Npu/ll_aton/ll_aton.c ****       return ATONN_CONST_DSTPORT(STRSWITCH, 0, POOL, 0, 0) + (0x4 * au_num);
 2245              		.loc 1 953 7 is_stmt 1 view .LVU622
 2246 00fa 012B     		cmp	r3, #1
 2247 00fc 04D9     		bls	.L197
 953:Lib/AI_Runtime/Npu/ll_aton/ll_aton.c ****       return ATONN_CONST_DSTPORT(STRSWITCH, 0, POOL, 0, 0) + (0x4 * au_num);
 2248              		.loc 1 953 7 is_stmt 0 discriminator 1 view .LVU623
 2249 00fe 40F2B931 		movw	r1, #953
 2250 0102 124B     		ldr	r3, .L200+32
 2251              	.LVL254:
 953:Lib/AI_Runtime/Npu/ll_aton/ll_aton.c ****       return ATONN_CONST_DSTPORT(STRSWITCH, 0, POOL, 0, 0) + (0x4 * au_num);
 2252              		.loc 1 953 7 discriminator 1 view .LVU624
 2253 0104 0A4A     		ldr	r2, .L200+4
 2254              	.LVL255:
 953:Lib/AI_Runtime/Npu/ll_aton/ll_aton.c ****       return ATONN_CONST_DSTPORT(STRSWITCH, 0, POOL, 0, 0) + (0x4 * au_num);
 2255              		.loc 1 953 7 discriminator 1 view .LVU625
 2256 0106 85E7     		b	.L199
 2257              	.LVL256:
 2258              	.L197:
 954:Lib/AI_Runtime/Npu/ll_aton/ll_aton.c ****       break;
 2259              		.loc 1 954 7 is_stmt 1 view .LVU626
ARM GAS  /tmp/ccgbPSBw.s 			page 73


 954:Lib/AI_Runtime/Npu/ll_aton/ll_aton.c ****       break;
 2260              		.loc 1 954 60 is_stmt 0 view .LVU627
 2261 0108 9820     		movs	r0, #152
 2262 010a A2E7     		b	.L198
 2263              	.L178:
 955:Lib/AI_Runtime/Npu/ll_aton/ll_aton.c **** #endif
 2264              		.loc 1 955 7 is_stmt 1 view .LVU628
 958:Lib/AI_Runtime/Npu/ll_aton/ll_aton.c ****       break;
 2265              		.loc 1 958 7 view .LVU629
 2266 010c 40F2BE31 		movw	r1, #958
 2267 0110 0F4B     		ldr	r3, .L200+36
 2268              	.LVL257:
 958:Lib/AI_Runtime/Npu/ll_aton/ll_aton.c ****       break;
 2269              		.loc 1 958 7 is_stmt 0 view .LVU630
 2270 0112 074A     		ldr	r2, .L200+4
 2271              	.LVL258:
 958:Lib/AI_Runtime/Npu/ll_aton/ll_aton.c ****       break;
 2272              		.loc 1 958 7 view .LVU631
 2273 0114 7EE7     		b	.L199
 2274              	.LVL259:
 2275              	.L175:
 964:Lib/AI_Runtime/Npu/ll_aton/ll_aton.c ****     break;
 2276              		.loc 1 964 5 is_stmt 1 view .LVU632
 2277 0116 4FF47171 		mov	r1, #964
 2278              	.LVL260:
 964:Lib/AI_Runtime/Npu/ll_aton/ll_aton.c ****     break;
 2279              		.loc 1 964 5 is_stmt 0 view .LVU633
 2280 011a 0D4B     		ldr	r3, .L200+36
 2281              	.LVL261:
 964:Lib/AI_Runtime/Npu/ll_aton/ll_aton.c ****     break;
 2282              		.loc 1 964 5 view .LVU634
 2283 011c 044A     		ldr	r2, .L200+4
 2284              	.LVL262:
 964:Lib/AI_Runtime/Npu/ll_aton/ll_aton.c ****     break;
 2285              		.loc 1 964 5 view .LVU635
 2286 011e 79E7     		b	.L199
 2287              	.LVL263:
 2288              	.L176:
 965:Lib/AI_Runtime/Npu/ll_aton/ll_aton.c ****   case STRSWITCH_VC:
 2289              		.loc 1 965 5 is_stmt 1 view .LVU636
 968:Lib/AI_Runtime/Npu/ll_aton/ll_aton.c ****     break;
 2290              		.loc 1 968 5 view .LVU637
 2291 0120 4FF47271 		mov	r1, #968
 2292              	.LVL264:
 968:Lib/AI_Runtime/Npu/ll_aton/ll_aton.c ****     break;
 2293              		.loc 1 968 5 is_stmt 0 view .LVU638
 2294 0124 0A4B     		ldr	r3, .L200+36
 2295              	.LVL265:
 968:Lib/AI_Runtime/Npu/ll_aton/ll_aton.c ****     break;
 2296              		.loc 1 968 5 view .LVU639
 2297 0126 024A     		ldr	r2, .L200+4
 2298              	.LVL266:
 968:Lib/AI_Runtime/Npu/ll_aton/ll_aton.c ****     break;
 2299              		.loc 1 968 5 view .LVU640
 2300 0128 74E7     		b	.L199
 2301              	.L201:
 2302 012a 00BF     		.align	2
ARM GAS  /tmp/ccgbPSBw.s 			page 74


 2303              	.L200:
 2304 012c 00000000 		.word	.LC20
 2305 0130 00000000 		.word	__func__.5
 2306 0134 05000000 		.word	.LC4
 2307 0138 0C000000 		.word	.LC21
 2308 013c 16000000 		.word	.LC22
 2309 0140 00000000 		.word	.LC25
 2310 0144 22000000 		.word	.LC23
 2311 0148 09000000 		.word	.LC26
 2312 014c 2D000000 		.word	.LC24
 2313 0150 95000000 		.word	.LC7
 2314              		.cfi_endproc
 2315              	.LFE4835:
 2317              		.section	.text.LL_Switch_Init_NoReset,"ax",%progbits
 2318              		.align	1
 2319              		.global	LL_Switch_Init_NoReset
 2320              		.syntax unified
 2321              		.thumb
 2322              		.thumb_func
 2324              	LL_Switch_Init_NoReset:
 2325              	.LVL267:
 2326              	.LFB4836:
 981:Lib/AI_Runtime/Npu/ll_aton/ll_aton.c ****   int i;
 2327              		.loc 1 981 1 is_stmt 1 view -0
 2328              		.cfi_startproc
 2329              		@ args = 0, pretend = 0, frame = 0
 2330              		@ frame_needed = 0, uses_anonymous_args = 0
 982:Lib/AI_Runtime/Npu/ll_aton/ll_aton.c ****   volatile uint32_t *reg;
 2331              		.loc 1 982 3 view .LVU642
 983:Lib/AI_Runtime/Npu/ll_aton/ll_aton.c ****   uint32_t t;
 2332              		.loc 1 983 3 view .LVU643
 984:Lib/AI_Runtime/Npu/ll_aton/ll_aton.c ****   unsigned int en_shift[ATON_SWITCH_CONTEXT_NUM] = {ATON_STRSWITCH_DST_EN0_LSB, ATON_STRSWITCH_DST_
 2333              		.loc 1 984 3 view .LVU644
 985:Lib/AI_Runtime/Npu/ll_aton/ll_aton.c ****   unsigned int link_shift[ATON_SWITCH_CONTEXT_NUM] = {ATON_STRSWITCH_DST_LINK0_LSB, ATON_STRSWITCH_
 2334              		.loc 1 985 3 view .LVU645
 986:Lib/AI_Runtime/Npu/ll_aton/ll_aton.c ****   unsigned int fnr_shift[ATON_SWITCH_CONTEXT_NUM] = {ATON_STRSWITCH_DST_FNR0_LSB, ATON_STRSWITCH_DS
 2335              		.loc 1 986 3 view .LVU646
 987:Lib/AI_Runtime/Npu/ll_aton/ll_aton.c ****   unsigned int fnr_mask[ATON_SWITCH_CONTEXT_NUM] = {ATON_STRSWITCH_DST_FNR0_MASK, ATON_STRSWITCH_DS
 2336              		.loc 1 987 3 view .LVU647
 988:Lib/AI_Runtime/Npu/ll_aton/ll_aton.c **** 
 2337              		.loc 1 988 3 view .LVU648
 991:Lib/AI_Runtime/Npu/ll_aton/ll_aton.c ****   t = ATON_STRSWITCH_CTRL_SET_EN(t, 1);
 2338              		.loc 1 991 3 view .LVU649
 992:Lib/AI_Runtime/Npu/ll_aton/ll_aton.c ****   ATON_STRSWITCH_CTRL_SET(0, t);
 2339              		.loc 1 992 3 view .LVU650
 993:Lib/AI_Runtime/Npu/ll_aton/ll_aton.c **** 
 2340              		.loc 1 993 3 view .LVU651
 993:Lib/AI_Runtime/Npu/ll_aton/ll_aton.c **** 
 2341              		.loc 1 993 3 view .LVU652
 2342 0000 0123     		movs	r3, #1
 2343 0002 134A     		ldr	r2, .L206
 2344 0004 0029     		cmp	r1, #0
 981:Lib/AI_Runtime/Npu/ll_aton/ll_aton.c ****   int i;
 2345              		.loc 1 981 1 is_stmt 0 view .LVU653
 2346 0006 30B5     		push	{r4, r5, lr}
 2347              		.cfi_def_cfa_offset 12
 2348              		.cfi_offset 4, -12
ARM GAS  /tmp/ccgbPSBw.s 			page 75


 2349              		.cfi_offset 5, -8
 2350              		.cfi_offset 14, -4
 993:Lib/AI_Runtime/Npu/ll_aton/ll_aton.c **** 
 2351              		.loc 1 993 3 view .LVU654
 2352 0008 1360     		str	r3, [r2]
 993:Lib/AI_Runtime/Npu/ll_aton/ll_aton.c **** 
 2353              		.loc 1 993 3 is_stmt 1 view .LVU655
 993:Lib/AI_Runtime/Npu/ll_aton/ll_aton.c **** 
 2354              		.loc 1 993 32 view .LVU656
 995:Lib/AI_Runtime/Npu/ll_aton/ll_aton.c ****   {
 2355              		.loc 1 995 3 view .LVU657
 2356              	.LVL268:
 995:Lib/AI_Runtime/Npu/ll_aton/ll_aton.c ****   {
 2357              		.loc 1 995 3 is_stmt 0 view .LVU658
 2358 000a 01EB0302 		add	r2, r1, r3
 2359 000e B8BF     		it	lt
 2360 0010 1A46     		movlt	r2, r3
 2361              	.LVL269:
 2362              	.L203:
 995:Lib/AI_Runtime/Npu/ll_aton/ll_aton.c ****   {
 2363              		.loc 1 995 17 is_stmt 1 discriminator 1 view .LVU659
 2364 0012 013A     		subs	r2, r2, #1
 2365 0014 01D1     		bne	.L204
1021:Lib/AI_Runtime/Npu/ll_aton/ll_aton.c **** }
 2366              		.loc 1 1021 3 view .LVU660
 2367              	.LVL270:
1022:Lib/AI_Runtime/Npu/ll_aton/ll_aton.c **** 
 2368              		.loc 1 1022 1 is_stmt 0 view .LVU661
 2369 0016 0020     		movs	r0, #0
 2370 0018 30BD     		pop	{r4, r5, pc}
 2371              	.LVL271:
 2372              	.L204:
 998:Lib/AI_Runtime/Npu/ll_aton/ll_aton.c ****     t = 0;
 2373              		.loc 1 998 5 is_stmt 1 view .LVU662
1002:Lib/AI_Runtime/Npu/ll_aton/ll_aton.c ****     t |= (ATONN_SRCPORT_ID(LL_Switch_InitStruct[i].source0) << link_shift[0]);
 2374              		.loc 1 1002 45 is_stmt 0 view .LVU663
 2375 001a 847B     		ldrb	r4, [r0, #14]	@ zero_extendqisi2
1006:Lib/AI_Runtime/Npu/ll_aton/ll_aton.c ****     t |= ((LL_Switch_InitStruct[i].frames1 << fnr_shift[1]) & fnr_mask[1]);
 2376              		.loc 1 1006 61 view .LVU664
 2377 001c D0E90053 		ldrd	r5, r3, [r0]
 2378 0020 5B04     		lsls	r3, r3, #17
1007:Lib/AI_Runtime/Npu/ll_aton/ll_aton.c **** #else
 2379              		.loc 1 1007 7 view .LVU665
 2380 0022 43EA4503 		orr	r3, r3, r5, lsl #1
1002:Lib/AI_Runtime/Npu/ll_aton/ll_aton.c ****     t |= (ATONN_SRCPORT_ID(LL_Switch_InitStruct[i].source0) << link_shift[0]);
 2381              		.loc 1 1002 51 view .LVU666
 2382 0026 04F00105 		and	r5, r4, #1
1007:Lib/AI_Runtime/Npu/ll_aton/ll_aton.c **** #else
 2383              		.loc 1 1007 7 view .LVU667
 2384 002a 2B43     		orrs	r3, r3, r5
1004:Lib/AI_Runtime/Npu/ll_aton/ll_aton.c ****     t |= ((LL_Switch_InitStruct[i].context1 != 0) << en_shift[1]);
 2385              		.loc 1 1004 61 view .LVU668
 2386 002c 057B     		ldrb	r5, [r0, #12]	@ zero_extendqisi2
 998:Lib/AI_Runtime/Npu/ll_aton/ll_aton.c ****     t = 0;
 2387              		.loc 1 998 47 view .LVU669
 2388 002e 8168     		ldr	r1, [r0, #8]
1007:Lib/AI_Runtime/Npu/ll_aton/ll_aton.c **** #else
ARM GAS  /tmp/ccgbPSBw.s 			page 76


 2389              		.loc 1 1007 7 view .LVU670
 2390 0030 43EA0523 		orr	r3, r3, r5, lsl #8
1007:Lib/AI_Runtime/Npu/ll_aton/ll_aton.c **** #else
 2391              		.loc 1 1007 44 view .LVU671
 2392 0034 457B     		ldrb	r5, [r0, #13]	@ zero_extendqisi2
 998:Lib/AI_Runtime/Npu/ll_aton/ll_aton.c ****     t = 0;
 2393              		.loc 1 998 47 view .LVU672
 2394 0036 01F1B041 		add	r1, r1, #1476395008
1007:Lib/AI_Runtime/Npu/ll_aton/ll_aton.c **** #else
 2395              		.loc 1 1007 7 view .LVU673
 2396 003a 43EA0563 		orr	r3, r3, r5, lsl #24
1005:Lib/AI_Runtime/Npu/ll_aton/ll_aton.c ****     t |= (ATONN_SRCPORT_ID(LL_Switch_InitStruct[i].source1) << link_shift[1]);
 2397              		.loc 1 1005 45 view .LVU674
 2398 003e C4F34004 		ubfx	r4, r4, #1, #1
 998:Lib/AI_Runtime/Npu/ll_aton/ll_aton.c ****     t = 0;
 2399              		.loc 1 998 47 view .LVU675
 2400 0042 01F56421 		add	r1, r1, #933888
 2401              	.LVL272:
 999:Lib/AI_Runtime/Npu/ll_aton/ll_aton.c ****     /* Enable Context and create link */
 2402              		.loc 1 999 5 is_stmt 1 view .LVU676
1002:Lib/AI_Runtime/Npu/ll_aton/ll_aton.c ****     t |= (ATONN_SRCPORT_ID(LL_Switch_InitStruct[i].source0) << link_shift[0]);
 2403              		.loc 1 1002 5 view .LVU677
1003:Lib/AI_Runtime/Npu/ll_aton/ll_aton.c ****     t |= ((LL_Switch_InitStruct[i].frames0 << fnr_shift[0]) & fnr_mask[0]);
 2404              		.loc 1 1003 5 view .LVU678
1004:Lib/AI_Runtime/Npu/ll_aton/ll_aton.c ****     t |= ((LL_Switch_InitStruct[i].context1 != 0) << en_shift[1]);
 2405              		.loc 1 1004 5 view .LVU679
1005:Lib/AI_Runtime/Npu/ll_aton/ll_aton.c ****     t |= (ATONN_SRCPORT_ID(LL_Switch_InitStruct[i].source1) << link_shift[1]);
 2406              		.loc 1 1005 5 view .LVU680
1006:Lib/AI_Runtime/Npu/ll_aton/ll_aton.c ****     t |= ((LL_Switch_InitStruct[i].frames1 << fnr_shift[1]) & fnr_mask[1]);
 2407              		.loc 1 1006 5 view .LVU681
1007:Lib/AI_Runtime/Npu/ll_aton/ll_aton.c **** #else
 2408              		.loc 1 1007 5 view .LVU682
1007:Lib/AI_Runtime/Npu/ll_aton/ll_aton.c **** #else
 2409              		.loc 1 1007 7 is_stmt 0 view .LVU683
 2410 0046 43EA0443 		orr	r3, r3, r4, lsl #16
 2411              	.LVL273:
1018:Lib/AI_Runtime/Npu/ll_aton/ll_aton.c ****   }
 2412              		.loc 1 1018 5 is_stmt 1 view .LVU684
1018:Lib/AI_Runtime/Npu/ll_aton/ll_aton.c ****   }
 2413              		.loc 1 1018 5 view .LVU685
 2414 004a 0B60     		str	r3, [r1]
1018:Lib/AI_Runtime/Npu/ll_aton/ll_aton.c ****   }
 2415              		.loc 1 1018 5 view .LVU686
 995:Lib/AI_Runtime/Npu/ll_aton/ll_aton.c ****   {
 2416              		.loc 1 995 23 discriminator 3 view .LVU687
 2417 004c 1030     		adds	r0, r0, #16
 2418 004e E0E7     		b	.L203
 2419              	.L207:
 2420              		.align	2
 2421              	.L206:
 2422 0050 00400E58 		.word	1477328896
 2423              		.cfi_endproc
 2424              	.LFE4836:
 2426              		.section	.text.LL_Switch_Init,"ax",%progbits
 2427              		.align	1
 2428              		.global	LL_Switch_Init
 2429              		.syntax unified
ARM GAS  /tmp/ccgbPSBw.s 			page 77


 2430              		.thumb
 2431              		.thumb_func
 2433              	LL_Switch_Init:
 2434              	.LVL274:
 2435              	.LFB4837:
1031:Lib/AI_Runtime/Npu/ll_aton/ll_aton.c ****   uint32_t t;
 2436              		.loc 1 1031 1 view -0
 2437              		.cfi_startproc
 2438              		@ args = 0, pretend = 0, frame = 0
 2439              		@ frame_needed = 0, uses_anonymous_args = 0
 2440              		@ link register save eliminated.
1032:Lib/AI_Runtime/Npu/ll_aton/ll_aton.c **** 
 2441              		.loc 1 1032 3 view .LVU689
1039:Lib/AI_Runtime/Npu/ll_aton/ll_aton.c **** 
 2442              		.loc 1 1039 3 view .LVU690
1039:Lib/AI_Runtime/Npu/ll_aton/ll_aton.c **** 
 2443              		.loc 1 1039 3 view .LVU691
1039:Lib/AI_Runtime/Npu/ll_aton/ll_aton.c **** 
 2444              		.loc 1 1039 3 view .LVU692
1039:Lib/AI_Runtime/Npu/ll_aton/ll_aton.c **** 
 2445              		.loc 1 1039 3 view .LVU693
1039:Lib/AI_Runtime/Npu/ll_aton/ll_aton.c **** 
 2446              		.loc 1 1039 3 view .LVU694
1039:Lib/AI_Runtime/Npu/ll_aton/ll_aton.c **** 
 2447              		.loc 1 1039 3 view .LVU695
 2448 0000 0222     		movs	r2, #2
 2449 0002 064B     		ldr	r3, .L213
 2450 0004 1A60     		str	r2, [r3]
1039:Lib/AI_Runtime/Npu/ll_aton/ll_aton.c **** 
 2451              		.loc 1 1039 3 view .LVU696
1039:Lib/AI_Runtime/Npu/ll_aton/ll_aton.c **** 
 2452              		.loc 1 1039 3 view .LVU697
1039:Lib/AI_Runtime/Npu/ll_aton/ll_aton.c **** 
 2453              		.loc 1 1039 3 view .LVU698
1039:Lib/AI_Runtime/Npu/ll_aton/ll_aton.c **** 
 2454              		.loc 1 1039 3 view .LVU699
 2455              	.L209:
1039:Lib/AI_Runtime/Npu/ll_aton/ll_aton.c **** 
 2456              		.loc 1 1039 3 discriminator 2 view .LVU700
1039:Lib/AI_Runtime/Npu/ll_aton/ll_aton.c **** 
 2457              		.loc 1 1039 3 discriminator 2 view .LVU701
 2458 0006 1A68     		ldr	r2, [r3]
 2459 0008 9207     		lsls	r2, r2, #30
 2460 000a FCD4     		bmi	.L209
1039:Lib/AI_Runtime/Npu/ll_aton/ll_aton.c **** 
 2461              		.loc 1 1039 3 discriminator 3 view .LVU702
1039:Lib/AI_Runtime/Npu/ll_aton/ll_aton.c **** 
 2462              		.loc 1 1039 3 discriminator 3 view .LVU703
 2463              	.LVL275:
1039:Lib/AI_Runtime/Npu/ll_aton/ll_aton.c **** 
 2464              		.loc 1 1039 3 discriminator 3 view .LVU704
1039:Lib/AI_Runtime/Npu/ll_aton/ll_aton.c **** 
 2465              		.loc 1 1039 3 discriminator 3 view .LVU705
1039:Lib/AI_Runtime/Npu/ll_aton/ll_aton.c **** 
 2466              		.loc 1 1039 3 discriminator 3 view .LVU706
 2467 000c 4FF08042 		mov	r2, #1073741824
 2468 0010 1A60     		str	r2, [r3]
ARM GAS  /tmp/ccgbPSBw.s 			page 78


1039:Lib/AI_Runtime/Npu/ll_aton/ll_aton.c **** 
 2469              		.loc 1 1039 3 discriminator 3 view .LVU707
1039:Lib/AI_Runtime/Npu/ll_aton/ll_aton.c **** 
 2470              		.loc 1 1039 3 discriminator 3 view .LVU708
1039:Lib/AI_Runtime/Npu/ll_aton/ll_aton.c **** 
 2471              		.loc 1 1039 3 discriminator 3 view .LVU709
1039:Lib/AI_Runtime/Npu/ll_aton/ll_aton.c **** 
 2472              		.loc 1 1039 3 discriminator 3 view .LVU710
 2473              	.L210:
1039:Lib/AI_Runtime/Npu/ll_aton/ll_aton.c **** 
 2474              		.loc 1 1039 3 discriminator 5 view .LVU711
1039:Lib/AI_Runtime/Npu/ll_aton/ll_aton.c **** 
 2475              		.loc 1 1039 3 discriminator 5 view .LVU712
 2476 0012 1A68     		ldr	r2, [r3]
 2477 0014 5200     		lsls	r2, r2, #1
 2478 0016 FCD4     		bmi	.L210
1039:Lib/AI_Runtime/Npu/ll_aton/ll_aton.c **** 
 2479              		.loc 1 1039 3 discriminator 6 view .LVU713
1039:Lib/AI_Runtime/Npu/ll_aton/ll_aton.c **** 
 2480              		.loc 1 1039 3 discriminator 6 view .LVU714
1041:Lib/AI_Runtime/Npu/ll_aton/ll_aton.c **** }
 2481              		.loc 1 1041 3 view .LVU715
1041:Lib/AI_Runtime/Npu/ll_aton/ll_aton.c **** }
 2482              		.loc 1 1041 10 is_stmt 0 view .LVU716
 2483 0018 FFF7FEBF 		b	LL_Switch_Init_NoReset
 2484              	.LVL276:
 2485              	.L214:
1041:Lib/AI_Runtime/Npu/ll_aton/ll_aton.c **** }
 2486              		.loc 1 1041 10 view .LVU717
 2487              		.align	2
 2488              	.L213:
 2489 001c 00400E58 		.word	1477328896
 2490              		.cfi_endproc
 2491              	.LFE4837:
 2493              		.section	.text.LL_Switch_Deinit,"ax",%progbits
 2494              		.align	1
 2495              		.global	LL_Switch_Deinit
 2496              		.syntax unified
 2497              		.thumb
 2498              		.thumb_func
 2500              	LL_Switch_Deinit:
 2501              	.LVL277:
 2502              	.LFB4838:
1051:Lib/AI_Runtime/Npu/ll_aton/ll_aton.c ****   int i;
 2503              		.loc 1 1051 1 is_stmt 1 view -0
 2504              		.cfi_startproc
 2505              		@ args = 0, pretend = 0, frame = 0
 2506              		@ frame_needed = 0, uses_anonymous_args = 0
1052:Lib/AI_Runtime/Npu/ll_aton/ll_aton.c ****   volatile uint32_t *reg;
 2507              		.loc 1 1052 3 view .LVU719
1053:Lib/AI_Runtime/Npu/ll_aton/ll_aton.c **** 
 2508              		.loc 1 1053 3 view .LVU720
1055:Lib/AI_Runtime/Npu/ll_aton/ll_aton.c ****   {
 2509              		.loc 1 1055 3 view .LVU721
1051:Lib/AI_Runtime/Npu/ll_aton/ll_aton.c ****   int i;
 2510              		.loc 1 1051 1 is_stmt 0 view .LVU722
 2511 0000 30B5     		push	{r4, r5, lr}
ARM GAS  /tmp/ccgbPSBw.s 			page 79


 2512              		.cfi_def_cfa_offset 12
 2513              		.cfi_offset 4, -12
 2514              		.cfi_offset 5, -8
 2515              		.cfi_offset 14, -4
1055:Lib/AI_Runtime/Npu/ll_aton/ll_aton.c ****   {
 2516              		.loc 1 1055 10 view .LVU723
 2517 0002 0024     		movs	r4, #0
 2518 0004 A142     		cmp	r1, r4
 2519 0006 01F10103 		add	r3, r1, #1
1061:Lib/AI_Runtime/Npu/ll_aton/ll_aton.c ****   }
 2520              		.loc 1 1061 5 view .LVU724
 2521 000a 2546     		mov	r5, r4
 2522 000c B8BF     		it	lt
 2523 000e 0123     		movlt	r3, #1
1058:Lib/AI_Runtime/Npu/ll_aton/ll_aton.c **** 
 2524              		.loc 1 1058 49 view .LVU725
 2525 0010 0830     		adds	r0, r0, #8
 2526              	.LVL278:
 2527              	.L216:
1055:Lib/AI_Runtime/Npu/ll_aton/ll_aton.c ****   {
 2528              		.loc 1 1055 17 is_stmt 1 discriminator 1 view .LVU726
 2529 0012 013B     		subs	r3, r3, #1
 2530 0014 01D1     		bne	.L217
1064:Lib/AI_Runtime/Npu/ll_aton/ll_aton.c **** }
 2531              		.loc 1 1064 3 view .LVU727
1065:Lib/AI_Runtime/Npu/ll_aton/ll_aton.c **** 
 2532              		.loc 1 1065 1 is_stmt 0 view .LVU728
 2533 0016 0020     		movs	r0, #0
 2534              	.LVL279:
1065:Lib/AI_Runtime/Npu/ll_aton/ll_aton.c **** 
 2535              		.loc 1 1065 1 view .LVU729
 2536 0018 30BD     		pop	{r4, r5, pc}
 2537              	.LVL280:
 2538              	.L217:
1058:Lib/AI_Runtime/Npu/ll_aton/ll_aton.c **** 
 2539              		.loc 1 1058 5 is_stmt 1 view .LVU730
1058:Lib/AI_Runtime/Npu/ll_aton/ll_aton.c **** 
 2540              		.loc 1 1058 49 is_stmt 0 view .LVU731
 2541 001a 2201     		lsls	r2, r4, #4
1058:Lib/AI_Runtime/Npu/ll_aton/ll_aton.c **** 
 2542              		.loc 1 1058 47 view .LVU732
 2543 001c 8258     		ldr	r2, [r0, r2]
1055:Lib/AI_Runtime/Npu/ll_aton/ll_aton.c ****   {
 2544              		.loc 1 1055 23 discriminator 3 view .LVU733
 2545 001e 0134     		adds	r4, r4, #1
 2546              	.LVL281:
1058:Lib/AI_Runtime/Npu/ll_aton/ll_aton.c **** 
 2547              		.loc 1 1058 47 view .LVU734
 2548 0020 02F1B042 		add	r2, r2, #1476395008
 2549 0024 02F56422 		add	r2, r2, #933888
 2550              	.LVL282:
1061:Lib/AI_Runtime/Npu/ll_aton/ll_aton.c ****   }
 2551              		.loc 1 1061 5 is_stmt 1 view .LVU735
1061:Lib/AI_Runtime/Npu/ll_aton/ll_aton.c ****   }
 2552              		.loc 1 1061 5 view .LVU736
 2553 0028 1560     		str	r5, [r2]
1061:Lib/AI_Runtime/Npu/ll_aton/ll_aton.c ****   }
ARM GAS  /tmp/ccgbPSBw.s 			page 80


 2554              		.loc 1 1061 5 view .LVU737
1055:Lib/AI_Runtime/Npu/ll_aton/ll_aton.c ****   {
 2555              		.loc 1 1055 23 discriminator 3 view .LVU738
 2556              	.LVL283:
1055:Lib/AI_Runtime/Npu/ll_aton/ll_aton.c ****   {
 2557              		.loc 1 1055 23 is_stmt 0 discriminator 3 view .LVU739
 2558 002a F2E7     		b	.L216
 2559              		.cfi_endproc
 2560              	.LFE4838:
 2562              		.section	.text.LL_Switch_Deinit_Fine_Grained,"ax",%progbits
 2563              		.align	1
 2564              		.global	LL_Switch_Deinit_Fine_Grained
 2565              		.syntax unified
 2566              		.thumb
 2567              		.thumb_func
 2569              	LL_Switch_Deinit_Fine_Grained:
 2570              	.LVL284:
 2571              	.LFB4839:
1074:Lib/AI_Runtime/Npu/ll_aton/ll_aton.c ****   int i;
 2572              		.loc 1 1074 1 is_stmt 1 view -0
 2573              		.cfi_startproc
 2574              		@ args = 0, pretend = 0, frame = 0
 2575              		@ frame_needed = 0, uses_anonymous_args = 0
1075:Lib/AI_Runtime/Npu/ll_aton/ll_aton.c ****   volatile uint32_t *reg;
 2576              		.loc 1 1075 3 view .LVU741
1076:Lib/AI_Runtime/Npu/ll_aton/ll_aton.c ****   unsigned int en_shift[ATON_SWITCH_CONTEXT_NUM] = {ATON_STRSWITCH_DST_EN0_LSB, ATON_STRSWITCH_DST_
 2577              		.loc 1 1076 3 view .LVU742
1077:Lib/AI_Runtime/Npu/ll_aton/ll_aton.c **** 
 2578              		.loc 1 1077 3 view .LVU743
1079:Lib/AI_Runtime/Npu/ll_aton/ll_aton.c ****   {
 2579              		.loc 1 1079 3 view .LVU744
1079:Lib/AI_Runtime/Npu/ll_aton/ll_aton.c ****   {
 2580              		.loc 1 1079 3 is_stmt 0 view .LVU745
 2581 0000 0029     		cmp	r1, #0
 2582 0002 01F10103 		add	r3, r1, #1
 2583 0006 B8BF     		it	lt
 2584 0008 0123     		movlt	r3, #1
1074:Lib/AI_Runtime/Npu/ll_aton/ll_aton.c ****   int i;
 2585              		.loc 1 1074 1 view .LVU746
 2586 000a 30B5     		push	{r4, r5, lr}
 2587              		.cfi_def_cfa_offset 12
 2588              		.cfi_offset 4, -12
 2589              		.cfi_offset 5, -8
 2590              		.cfi_offset 14, -4
 2591              	.LVL285:
 2592              	.L220:
1079:Lib/AI_Runtime/Npu/ll_aton/ll_aton.c ****   {
 2593              		.loc 1 1079 17 is_stmt 1 discriminator 1 view .LVU747
 2594 000c 013B     		subs	r3, r3, #1
 2595 000e 01D1     		bne	.L221
1097:Lib/AI_Runtime/Npu/ll_aton/ll_aton.c **** }
 2596              		.loc 1 1097 3 view .LVU748
1098:Lib/AI_Runtime/Npu/ll_aton/ll_aton.c **** 
 2597              		.loc 1 1098 1 is_stmt 0 view .LVU749
 2598 0010 0020     		movs	r0, #0
 2599 0012 30BD     		pop	{r4, r5, pc}
 2600              	.L221:
ARM GAS  /tmp/ccgbPSBw.s 			page 81


 2601              	.LBB33:
1082:Lib/AI_Runtime/Npu/ll_aton/ll_aton.c **** 
 2602              		.loc 1 1082 5 is_stmt 1 view .LVU750
1082:Lib/AI_Runtime/Npu/ll_aton/ll_aton.c **** 
 2603              		.loc 1 1082 47 is_stmt 0 view .LVU751
 2604 0014 8268     		ldr	r2, [r0, #8]
1087:Lib/AI_Runtime/Npu/ll_aton/ll_aton.c ****     t &= ~((LL_Switch_InitStruct[i].context1 != 0) << en_shift[1]);
 2605              		.loc 1 1087 46 view .LVU752
 2606 0016 847B     		ldrb	r4, [r0, #14]	@ zero_extendqisi2
1082:Lib/AI_Runtime/Npu/ll_aton/ll_aton.c **** 
 2607              		.loc 1 1082 47 view .LVU753
 2608 0018 02F1B042 		add	r2, r2, #1476395008
 2609 001c 02F56422 		add	r2, r2, #933888
 2610              	.LVL286:
1085:Lib/AI_Runtime/Npu/ll_aton/ll_aton.c **** #if ATON_SWITCH_CONTEXT_NUM == 2
 2611              		.loc 1 1085 5 is_stmt 1 view .LVU754
1085:Lib/AI_Runtime/Npu/ll_aton/ll_aton.c **** #if ATON_SWITCH_CONTEXT_NUM == 2
 2612              		.loc 1 1085 14 is_stmt 0 view .LVU755
 2613 0020 1168     		ldr	r1, [r2]
 2614              	.LVL287:
1087:Lib/AI_Runtime/Npu/ll_aton/ll_aton.c ****     t &= ~((LL_Switch_InitStruct[i].context1 != 0) << en_shift[1]);
 2615              		.loc 1 1087 5 is_stmt 1 view .LVU756
1087:Lib/AI_Runtime/Npu/ll_aton/ll_aton.c ****     t &= ~((LL_Switch_InitStruct[i].context1 != 0) << en_shift[1]);
 2616              		.loc 1 1087 46 is_stmt 0 view .LVU757
 2617 0022 04F00105 		and	r5, r4, #1
1087:Lib/AI_Runtime/Npu/ll_aton/ll_aton.c ****     t &= ~((LL_Switch_InitStruct[i].context1 != 0) << en_shift[1]);
 2618              		.loc 1 1087 7 view .LVU758
 2619 0026 21EA0501 		bic	r1, r1, r5
 2620              	.LVL288:
1088:Lib/AI_Runtime/Npu/ll_aton/ll_aton.c **** #else
 2621              		.loc 1 1088 5 is_stmt 1 view .LVU759
1088:Lib/AI_Runtime/Npu/ll_aton/ll_aton.c **** #else
 2622              		.loc 1 1088 46 is_stmt 0 view .LVU760
 2623 002a C4F34004 		ubfx	r4, r4, #1, #1
1088:Lib/AI_Runtime/Npu/ll_aton/ll_aton.c **** #else
 2624              		.loc 1 1088 7 view .LVU761
 2625 002e 21EA0441 		bic	r1, r1, r4, lsl #16
 2626              	.LVL289:
1094:Lib/AI_Runtime/Npu/ll_aton/ll_aton.c ****   }
 2627              		.loc 1 1094 5 is_stmt 1 view .LVU762
1094:Lib/AI_Runtime/Npu/ll_aton/ll_aton.c ****   }
 2628              		.loc 1 1094 5 view .LVU763
 2629 0032 1160     		str	r1, [r2]
1094:Lib/AI_Runtime/Npu/ll_aton/ll_aton.c ****   }
 2630              		.loc 1 1094 5 view .LVU764
 2631              	.LBE33:
1079:Lib/AI_Runtime/Npu/ll_aton/ll_aton.c ****   {
 2632              		.loc 1 1079 23 discriminator 3 view .LVU765
 2633 0034 1030     		adds	r0, r0, #16
 2634 0036 E9E7     		b	.L220
 2635              		.cfi_endproc
 2636              	.LFE4839:
 2638              		.section	.text.LL_EpochCtrl_Step,"ax",%progbits
 2639              		.align	1
 2640              		.global	LL_EpochCtrl_Step
 2641              		.syntax unified
 2642              		.thumb
ARM GAS  /tmp/ccgbPSBw.s 			page 82


 2643              		.thumb_func
 2645              	LL_EpochCtrl_Step:
 2646              	.LVL290:
 2647              	.LFB4852:
1213:Lib/AI_Runtime/Npu/ll_aton/ll_aton.c **** 
1214:Lib/AI_Runtime/Npu/ll_aton/ll_aton.c **** static void LL_Decun_CB_1byte(int id, const LL_Decun_InitTypeDef *conf, uint32_t ctrl_val)
1215:Lib/AI_Runtime/Npu/ll_aton/ll_aton.c **** {
1216:Lib/AI_Runtime/Npu/ll_aton/ll_aton.c ****   unsigned CBsize = conf->CBs_size;
1217:Lib/AI_Runtime/Npu/ll_aton/ll_aton.c ****   unsigned i, k;
1218:Lib/AI_Runtime/Npu/ll_aton/ll_aton.c ****   unsigned mem_idx_num = ATON_DECUN_MEM_LOW_IDX_MAX - ATON_DECUN_MEM_LOW_IDX_MIN + 1;
1219:Lib/AI_Runtime/Npu/ll_aton/ll_aton.c **** 
1220:Lib/AI_Runtime/Npu/ll_aton/ll_aton.c ****   if (conf->nCWperCV == 1)
1221:Lib/AI_Runtime/Npu/ll_aton/ll_aton.c ****   {
1222:Lib/AI_Runtime/Npu/ll_aton/ll_aton.c ****     uint8_t *CBp = (uint8_t *)conf->CBs_vector.p;
1223:Lib/AI_Runtime/Npu/ll_aton/ll_aton.c ****     for (i = 0, k = 0; i < CBsize; i++)
1224:Lib/AI_Runtime/Npu/ll_aton/ll_aton.c ****     {
1225:Lib/AI_Runtime/Npu/ll_aton/ll_aton.c ****       uint32_t temp = CBp[i];
1226:Lib/AI_Runtime/Npu/ll_aton/ll_aton.c ****       ATON_DECUN_MEM_LOW_SET(id, k, temp);
1227:Lib/AI_Runtime/Npu/ll_aton/ll_aton.c ****       k++;
1228:Lib/AI_Runtime/Npu/ll_aton/ll_aton.c ****       if (k == mem_idx_num)
1229:Lib/AI_Runtime/Npu/ll_aton/ll_aton.c ****       {
1230:Lib/AI_Runtime/Npu/ll_aton/ll_aton.c ****         ctrl_val = decun_inc_page_addr(id, ctrl_val);
1231:Lib/AI_Runtime/Npu/ll_aton/ll_aton.c ****         k = 0;
1232:Lib/AI_Runtime/Npu/ll_aton/ll_aton.c ****       }
1233:Lib/AI_Runtime/Npu/ll_aton/ll_aton.c ****     }
1234:Lib/AI_Runtime/Npu/ll_aton/ll_aton.c ****   }
1235:Lib/AI_Runtime/Npu/ll_aton/ll_aton.c ****   if (conf->nCWperCV == 2)
1236:Lib/AI_Runtime/Npu/ll_aton/ll_aton.c ****   {
1237:Lib/AI_Runtime/Npu/ll_aton/ll_aton.c **** #if 0
1238:Lib/AI_Runtime/Npu/ll_aton/ll_aton.c ****     uint8_t *CBp = (uint8_t *)conf->CBs_vector.p;
1239:Lib/AI_Runtime/Npu/ll_aton/ll_aton.c ****     for (i = 0, k = 0; i < CBsize; i += 2)
1240:Lib/AI_Runtime/Npu/ll_aton/ll_aton.c ****     {
1241:Lib/AI_Runtime/Npu/ll_aton/ll_aton.c ****       uint32_t temp = CBp[i] | (CBp[i + 1] << 8);
1242:Lib/AI_Runtime/Npu/ll_aton/ll_aton.c ****       ATON_DECUN_MEM_LOW_SET(id, k, temp);
1243:Lib/AI_Runtime/Npu/ll_aton/ll_aton.c ****       k++;
1244:Lib/AI_Runtime/Npu/ll_aton/ll_aton.c ****       if (k == mem_idx_num )
1245:Lib/AI_Runtime/Npu/ll_aton/ll_aton.c ****       {
1246:Lib/AI_Runtime/Npu/ll_aton/ll_aton.c ****         ctrl_val = decun_inc_page_addr(id, ctrl_val);
1247:Lib/AI_Runtime/Npu/ll_aton/ll_aton.c ****         k = 0;
1248:Lib/AI_Runtime/Npu/ll_aton/ll_aton.c ****       }
1249:Lib/AI_Runtime/Npu/ll_aton/ll_aton.c ****     }
1250:Lib/AI_Runtime/Npu/ll_aton/ll_aton.c **** #else
1251:Lib/AI_Runtime/Npu/ll_aton/ll_aton.c ****     uint16_t *CBp = (uint16_t *)conf->CBs_vector.p;
1252:Lib/AI_Runtime/Npu/ll_aton/ll_aton.c ****     for (i = 0, k = 0; i < CBsize / 2; i++)
1253:Lib/AI_Runtime/Npu/ll_aton/ll_aton.c ****     {
1254:Lib/AI_Runtime/Npu/ll_aton/ll_aton.c ****       uint32_t temp = CBp[i];
1255:Lib/AI_Runtime/Npu/ll_aton/ll_aton.c ****       ATON_DECUN_MEM_LOW_SET(id, k, temp);
1256:Lib/AI_Runtime/Npu/ll_aton/ll_aton.c ****       k++;
1257:Lib/AI_Runtime/Npu/ll_aton/ll_aton.c ****       if (k == mem_idx_num)
1258:Lib/AI_Runtime/Npu/ll_aton/ll_aton.c ****       {
1259:Lib/AI_Runtime/Npu/ll_aton/ll_aton.c ****         ctrl_val = decun_inc_page_addr(id, ctrl_val);
1260:Lib/AI_Runtime/Npu/ll_aton/ll_aton.c ****         k = 0;
1261:Lib/AI_Runtime/Npu/ll_aton/ll_aton.c ****       }
1262:Lib/AI_Runtime/Npu/ll_aton/ll_aton.c ****     }
1263:Lib/AI_Runtime/Npu/ll_aton/ll_aton.c **** #endif
1264:Lib/AI_Runtime/Npu/ll_aton/ll_aton.c ****   }
1265:Lib/AI_Runtime/Npu/ll_aton/ll_aton.c ****   if (conf->nCWperCV == 3)
ARM GAS  /tmp/ccgbPSBw.s 			page 83


1266:Lib/AI_Runtime/Npu/ll_aton/ll_aton.c ****   {
1267:Lib/AI_Runtime/Npu/ll_aton/ll_aton.c ****     uint8_t *CBp = (uint8_t *)conf->CBs_vector.p;
1268:Lib/AI_Runtime/Npu/ll_aton/ll_aton.c ****     for (i = 0, k = 0; i < CBsize; i += 3)
1269:Lib/AI_Runtime/Npu/ll_aton/ll_aton.c ****     {
1270:Lib/AI_Runtime/Npu/ll_aton/ll_aton.c ****       uint32_t temp = CBp[i] | (CBp[i + 1] << 8) | (CBp[i + 2] << 16);
1271:Lib/AI_Runtime/Npu/ll_aton/ll_aton.c ****       ATON_DECUN_MEM_LOW_SET(id, k, temp);
1272:Lib/AI_Runtime/Npu/ll_aton/ll_aton.c ****       k++;
1273:Lib/AI_Runtime/Npu/ll_aton/ll_aton.c ****       if (k == mem_idx_num)
1274:Lib/AI_Runtime/Npu/ll_aton/ll_aton.c ****       {
1275:Lib/AI_Runtime/Npu/ll_aton/ll_aton.c ****         ctrl_val = decun_inc_page_addr(id, ctrl_val);
1276:Lib/AI_Runtime/Npu/ll_aton/ll_aton.c ****         k = 0;
1277:Lib/AI_Runtime/Npu/ll_aton/ll_aton.c ****       }
1278:Lib/AI_Runtime/Npu/ll_aton/ll_aton.c ****     }
1279:Lib/AI_Runtime/Npu/ll_aton/ll_aton.c ****   }
1280:Lib/AI_Runtime/Npu/ll_aton/ll_aton.c ****   if (conf->nCWperCV == 4 || conf->nCWperCV == 8)
1281:Lib/AI_Runtime/Npu/ll_aton/ll_aton.c ****   {
1282:Lib/AI_Runtime/Npu/ll_aton/ll_aton.c ****     uint32_t *CBp = (uint32_t *)conf->CBs_vector.p;
1283:Lib/AI_Runtime/Npu/ll_aton/ll_aton.c ****     for (i = 0, k = 0; i < CBsize / 4; i++)
1284:Lib/AI_Runtime/Npu/ll_aton/ll_aton.c ****     {
1285:Lib/AI_Runtime/Npu/ll_aton/ll_aton.c ****       uint32_t temp = CBp[i];
1286:Lib/AI_Runtime/Npu/ll_aton/ll_aton.c ****       ATON_DECUN_MEM_LOW_SET(id, k, temp);
1287:Lib/AI_Runtime/Npu/ll_aton/ll_aton.c ****       k++;
1288:Lib/AI_Runtime/Npu/ll_aton/ll_aton.c ****       if (k == mem_idx_num)
1289:Lib/AI_Runtime/Npu/ll_aton/ll_aton.c ****       {
1290:Lib/AI_Runtime/Npu/ll_aton/ll_aton.c ****         ctrl_val = decun_inc_page_addr(id, ctrl_val);
1291:Lib/AI_Runtime/Npu/ll_aton/ll_aton.c ****         k = 0;
1292:Lib/AI_Runtime/Npu/ll_aton/ll_aton.c ****       }
1293:Lib/AI_Runtime/Npu/ll_aton/ll_aton.c ****     }
1294:Lib/AI_Runtime/Npu/ll_aton/ll_aton.c ****   }
1295:Lib/AI_Runtime/Npu/ll_aton/ll_aton.c ****   if (conf->nCWperCV == 5)
1296:Lib/AI_Runtime/Npu/ll_aton/ll_aton.c ****   {
1297:Lib/AI_Runtime/Npu/ll_aton/ll_aton.c ****     uint8_t *CBp = (uint8_t *)conf->CBs_vector.p;
1298:Lib/AI_Runtime/Npu/ll_aton/ll_aton.c ****     for (i = 0, k = 0; i < CBsize; i += 5)
1299:Lib/AI_Runtime/Npu/ll_aton/ll_aton.c ****     {
1300:Lib/AI_Runtime/Npu/ll_aton/ll_aton.c ****       uint32_t temp = CBp[i] | (CBp[i + 1] << 8) | (CBp[i + 2] << 16) | (CBp[i + 3] << 24);
1301:Lib/AI_Runtime/Npu/ll_aton/ll_aton.c ****       ATON_DECUN_MEM_LOW_SET(id, k, temp);
1302:Lib/AI_Runtime/Npu/ll_aton/ll_aton.c ****       k++;
1303:Lib/AI_Runtime/Npu/ll_aton/ll_aton.c ****       temp = CBp[i + 4];
1304:Lib/AI_Runtime/Npu/ll_aton/ll_aton.c ****       ATON_DECUN_MEM_LOW_SET(id, k, temp);
1305:Lib/AI_Runtime/Npu/ll_aton/ll_aton.c ****       k++;
1306:Lib/AI_Runtime/Npu/ll_aton/ll_aton.c ****       if (k == mem_idx_num)
1307:Lib/AI_Runtime/Npu/ll_aton/ll_aton.c ****       {
1308:Lib/AI_Runtime/Npu/ll_aton/ll_aton.c ****         ctrl_val = decun_inc_page_addr(id, ctrl_val);
1309:Lib/AI_Runtime/Npu/ll_aton/ll_aton.c ****         k = 0;
1310:Lib/AI_Runtime/Npu/ll_aton/ll_aton.c ****       }
1311:Lib/AI_Runtime/Npu/ll_aton/ll_aton.c ****     }
1312:Lib/AI_Runtime/Npu/ll_aton/ll_aton.c ****   }
1313:Lib/AI_Runtime/Npu/ll_aton/ll_aton.c ****   if (conf->nCWperCV == 6)
1314:Lib/AI_Runtime/Npu/ll_aton/ll_aton.c ****   {
1315:Lib/AI_Runtime/Npu/ll_aton/ll_aton.c **** #if 0
1316:Lib/AI_Runtime/Npu/ll_aton/ll_aton.c ****     uint8_t *CBp = (uint8_t *)conf->CBs_vector.p;
1317:Lib/AI_Runtime/Npu/ll_aton/ll_aton.c ****     for (i = 0, k = 0; i < CBsize; i += 6)
1318:Lib/AI_Runtime/Npu/ll_aton/ll_aton.c ****     {
1319:Lib/AI_Runtime/Npu/ll_aton/ll_aton.c ****       uint32_t temp = CBp[i] | (CBp[i + 1] << 8) | (CBp[i + 2] << 16) | (CBp[i + 3] << 24);
1320:Lib/AI_Runtime/Npu/ll_aton/ll_aton.c ****       ATON_DECUN_MEM_LOW_SET(id, k, temp);
1321:Lib/AI_Runtime/Npu/ll_aton/ll_aton.c ****       k++;
1322:Lib/AI_Runtime/Npu/ll_aton/ll_aton.c ****       temp = CBp[i + 4] | (CBp[i + 5] << 8);
ARM GAS  /tmp/ccgbPSBw.s 			page 84


1323:Lib/AI_Runtime/Npu/ll_aton/ll_aton.c ****       ATON_DECUN_MEM_LOW_SET(id, k, temp);
1324:Lib/AI_Runtime/Npu/ll_aton/ll_aton.c ****       k++;
1325:Lib/AI_Runtime/Npu/ll_aton/ll_aton.c ****       if (k == mem_idx_num )
1326:Lib/AI_Runtime/Npu/ll_aton/ll_aton.c ****       {
1327:Lib/AI_Runtime/Npu/ll_aton/ll_aton.c ****         ctrl_val = decun_inc_page_addr(id, ctrl_val);
1328:Lib/AI_Runtime/Npu/ll_aton/ll_aton.c ****         k = 0;
1329:Lib/AI_Runtime/Npu/ll_aton/ll_aton.c ****       }
1330:Lib/AI_Runtime/Npu/ll_aton/ll_aton.c ****     }
1331:Lib/AI_Runtime/Npu/ll_aton/ll_aton.c **** #else
1332:Lib/AI_Runtime/Npu/ll_aton/ll_aton.c ****     uint16_t *CBp = (uint16_t *)conf->CBs_vector.p;
1333:Lib/AI_Runtime/Npu/ll_aton/ll_aton.c ****     for (i = 0, k = 0; i < CBsize / 2; i += 3)
1334:Lib/AI_Runtime/Npu/ll_aton/ll_aton.c ****     {
1335:Lib/AI_Runtime/Npu/ll_aton/ll_aton.c ****       uint32_t temp = CBp[i] | (CBp[i + 1] << 16);
1336:Lib/AI_Runtime/Npu/ll_aton/ll_aton.c ****       ATON_DECUN_MEM_LOW_SET(id, k, temp);
1337:Lib/AI_Runtime/Npu/ll_aton/ll_aton.c ****       k++;
1338:Lib/AI_Runtime/Npu/ll_aton/ll_aton.c ****       temp = CBp[i + 2];
1339:Lib/AI_Runtime/Npu/ll_aton/ll_aton.c ****       ATON_DECUN_MEM_LOW_SET(id, k, temp);
1340:Lib/AI_Runtime/Npu/ll_aton/ll_aton.c ****       k++;
1341:Lib/AI_Runtime/Npu/ll_aton/ll_aton.c ****       if (k == mem_idx_num)
1342:Lib/AI_Runtime/Npu/ll_aton/ll_aton.c ****       {
1343:Lib/AI_Runtime/Npu/ll_aton/ll_aton.c ****         ctrl_val = decun_inc_page_addr(id, ctrl_val);
1344:Lib/AI_Runtime/Npu/ll_aton/ll_aton.c ****         k = 0;
1345:Lib/AI_Runtime/Npu/ll_aton/ll_aton.c ****       }
1346:Lib/AI_Runtime/Npu/ll_aton/ll_aton.c ****     }
1347:Lib/AI_Runtime/Npu/ll_aton/ll_aton.c **** #endif
1348:Lib/AI_Runtime/Npu/ll_aton/ll_aton.c ****   }
1349:Lib/AI_Runtime/Npu/ll_aton/ll_aton.c ****   if (conf->nCWperCV == 7)
1350:Lib/AI_Runtime/Npu/ll_aton/ll_aton.c ****   {
1351:Lib/AI_Runtime/Npu/ll_aton/ll_aton.c ****     uint8_t *CBp = (uint8_t *)conf->CBs_vector.p;
1352:Lib/AI_Runtime/Npu/ll_aton/ll_aton.c ****     for (i = 0, k = 0; i < CBsize; i += 7)
1353:Lib/AI_Runtime/Npu/ll_aton/ll_aton.c ****     {
1354:Lib/AI_Runtime/Npu/ll_aton/ll_aton.c ****       uint32_t temp = CBp[i] | (CBp[i + 1] << 8) | (CBp[i + 2] << 16) | (CBp[i + 3] << 24);
1355:Lib/AI_Runtime/Npu/ll_aton/ll_aton.c ****       ATON_DECUN_MEM_LOW_SET(id, k, temp);
1356:Lib/AI_Runtime/Npu/ll_aton/ll_aton.c ****       k++;
1357:Lib/AI_Runtime/Npu/ll_aton/ll_aton.c ****       temp = CBp[i + 4] | (CBp[i + 5] << 8) | (CBp[i + 6] << 16);
1358:Lib/AI_Runtime/Npu/ll_aton/ll_aton.c ****       ATON_DECUN_MEM_LOW_SET(id, k, temp);
1359:Lib/AI_Runtime/Npu/ll_aton/ll_aton.c ****       k++;
1360:Lib/AI_Runtime/Npu/ll_aton/ll_aton.c ****       if (k == mem_idx_num)
1361:Lib/AI_Runtime/Npu/ll_aton/ll_aton.c ****       {
1362:Lib/AI_Runtime/Npu/ll_aton/ll_aton.c ****         ctrl_val = decun_inc_page_addr(id, ctrl_val);
1363:Lib/AI_Runtime/Npu/ll_aton/ll_aton.c ****         k = 0;
1364:Lib/AI_Runtime/Npu/ll_aton/ll_aton.c ****       }
1365:Lib/AI_Runtime/Npu/ll_aton/ll_aton.c ****     }
1366:Lib/AI_Runtime/Npu/ll_aton/ll_aton.c ****   }
1367:Lib/AI_Runtime/Npu/ll_aton/ll_aton.c **** }
1368:Lib/AI_Runtime/Npu/ll_aton/ll_aton.c **** 
1369:Lib/AI_Runtime/Npu/ll_aton/ll_aton.c **** static void LL_Decun_CB_2byte(int id, const LL_Decun_InitTypeDef *conf, uint32_t ctrl_val)
1370:Lib/AI_Runtime/Npu/ll_aton/ll_aton.c **** {
1371:Lib/AI_Runtime/Npu/ll_aton/ll_aton.c ****   unsigned CBsize = conf->CBs_size / 2;
1372:Lib/AI_Runtime/Npu/ll_aton/ll_aton.c ****   unsigned i, k;
1373:Lib/AI_Runtime/Npu/ll_aton/ll_aton.c ****   unsigned mem_idx_num = ATON_DECUN_MEM_LOW_IDX_MAX - ATON_DECUN_MEM_LOW_IDX_MIN + 1;
1374:Lib/AI_Runtime/Npu/ll_aton/ll_aton.c **** 
1375:Lib/AI_Runtime/Npu/ll_aton/ll_aton.c ****   if (conf->nCWperCV == 1)
1376:Lib/AI_Runtime/Npu/ll_aton/ll_aton.c ****   {
1377:Lib/AI_Runtime/Npu/ll_aton/ll_aton.c ****     uint16_t *CBp = (uint16_t *)conf->CBs_vector.p;
1378:Lib/AI_Runtime/Npu/ll_aton/ll_aton.c ****     for (i = 0, k = 0; i < CBsize; i++)
1379:Lib/AI_Runtime/Npu/ll_aton/ll_aton.c ****     {
ARM GAS  /tmp/ccgbPSBw.s 			page 85


1380:Lib/AI_Runtime/Npu/ll_aton/ll_aton.c ****       uint32_t temp = CBp[i];
1381:Lib/AI_Runtime/Npu/ll_aton/ll_aton.c ****       ATON_DECUN_MEM_LOW_SET(id, k, temp);
1382:Lib/AI_Runtime/Npu/ll_aton/ll_aton.c ****       k++;
1383:Lib/AI_Runtime/Npu/ll_aton/ll_aton.c ****       if (k == mem_idx_num)
1384:Lib/AI_Runtime/Npu/ll_aton/ll_aton.c ****       {
1385:Lib/AI_Runtime/Npu/ll_aton/ll_aton.c ****         ctrl_val = decun_inc_page_addr(id, ctrl_val);
1386:Lib/AI_Runtime/Npu/ll_aton/ll_aton.c ****         k = 0;
1387:Lib/AI_Runtime/Npu/ll_aton/ll_aton.c ****       }
1388:Lib/AI_Runtime/Npu/ll_aton/ll_aton.c ****     }
1389:Lib/AI_Runtime/Npu/ll_aton/ll_aton.c ****   }
1390:Lib/AI_Runtime/Npu/ll_aton/ll_aton.c ****   if (conf->nCWperCV == 2)
1391:Lib/AI_Runtime/Npu/ll_aton/ll_aton.c ****   {
1392:Lib/AI_Runtime/Npu/ll_aton/ll_aton.c **** #if 0
1393:Lib/AI_Runtime/Npu/ll_aton/ll_aton.c ****     uint16_t *CBp = (uint16_t *)conf->CBs_vector.p;
1394:Lib/AI_Runtime/Npu/ll_aton/ll_aton.c ****     for (i = 0, k = 0; i < CBsize; i += 2)
1395:Lib/AI_Runtime/Npu/ll_aton/ll_aton.c ****     {
1396:Lib/AI_Runtime/Npu/ll_aton/ll_aton.c ****       uint32_t temp = CBp[i] | (CBp[i + 1] << 16);
1397:Lib/AI_Runtime/Npu/ll_aton/ll_aton.c ****       ATON_DECUN_MEM_LOW_SET(id, k, temp);
1398:Lib/AI_Runtime/Npu/ll_aton/ll_aton.c ****       k++;
1399:Lib/AI_Runtime/Npu/ll_aton/ll_aton.c ****       if (k == mem_idx_num )
1400:Lib/AI_Runtime/Npu/ll_aton/ll_aton.c ****       {
1401:Lib/AI_Runtime/Npu/ll_aton/ll_aton.c ****         ctrl_val = decun_inc_page_addr(id, ctrl_val);
1402:Lib/AI_Runtime/Npu/ll_aton/ll_aton.c ****         k = 0;
1403:Lib/AI_Runtime/Npu/ll_aton/ll_aton.c ****       }
1404:Lib/AI_Runtime/Npu/ll_aton/ll_aton.c ****     }
1405:Lib/AI_Runtime/Npu/ll_aton/ll_aton.c **** #else
1406:Lib/AI_Runtime/Npu/ll_aton/ll_aton.c ****     uint32_t *CBp = (uint32_t *)conf->CBs_vector.p;
1407:Lib/AI_Runtime/Npu/ll_aton/ll_aton.c ****     for (i = 0, k = 0; i < CBsize / 2; i++)
1408:Lib/AI_Runtime/Npu/ll_aton/ll_aton.c ****     {
1409:Lib/AI_Runtime/Npu/ll_aton/ll_aton.c ****       uint32_t temp = CBp[i];
1410:Lib/AI_Runtime/Npu/ll_aton/ll_aton.c ****       ATON_DECUN_MEM_LOW_SET(id, k, temp);
1411:Lib/AI_Runtime/Npu/ll_aton/ll_aton.c ****       k++;
1412:Lib/AI_Runtime/Npu/ll_aton/ll_aton.c ****       if (k == mem_idx_num)
1413:Lib/AI_Runtime/Npu/ll_aton/ll_aton.c ****       {
1414:Lib/AI_Runtime/Npu/ll_aton/ll_aton.c ****         ctrl_val = decun_inc_page_addr(id, ctrl_val);
1415:Lib/AI_Runtime/Npu/ll_aton/ll_aton.c ****         k = 0;
1416:Lib/AI_Runtime/Npu/ll_aton/ll_aton.c ****       }
1417:Lib/AI_Runtime/Npu/ll_aton/ll_aton.c ****     }
1418:Lib/AI_Runtime/Npu/ll_aton/ll_aton.c **** #endif
1419:Lib/AI_Runtime/Npu/ll_aton/ll_aton.c ****   }
1420:Lib/AI_Runtime/Npu/ll_aton/ll_aton.c ****   if (conf->nCWperCV == 3)
1421:Lib/AI_Runtime/Npu/ll_aton/ll_aton.c ****   {
1422:Lib/AI_Runtime/Npu/ll_aton/ll_aton.c ****     uint16_t *CBp = (uint16_t *)conf->CBs_vector.p;
1423:Lib/AI_Runtime/Npu/ll_aton/ll_aton.c ****     for (i = 0, k = 0; i < CBsize; i += 3)
1424:Lib/AI_Runtime/Npu/ll_aton/ll_aton.c ****     {
1425:Lib/AI_Runtime/Npu/ll_aton/ll_aton.c ****       uint32_t temp = CBp[i] | (CBp[i + 1] << 16);
1426:Lib/AI_Runtime/Npu/ll_aton/ll_aton.c ****       ATON_DECUN_MEM_LOW_SET(id, k, temp);
1427:Lib/AI_Runtime/Npu/ll_aton/ll_aton.c ****       temp = CBp[i + 2];
1428:Lib/AI_Runtime/Npu/ll_aton/ll_aton.c ****       ATON_DECUN_MEM_HIGH_SET(id, k, temp);
1429:Lib/AI_Runtime/Npu/ll_aton/ll_aton.c ****       k++;
1430:Lib/AI_Runtime/Npu/ll_aton/ll_aton.c ****       if (k == mem_idx_num)
1431:Lib/AI_Runtime/Npu/ll_aton/ll_aton.c ****       {
1432:Lib/AI_Runtime/Npu/ll_aton/ll_aton.c ****         ctrl_val = decun_inc_page_addr(id, ctrl_val);
1433:Lib/AI_Runtime/Npu/ll_aton/ll_aton.c ****         k = 0;
1434:Lib/AI_Runtime/Npu/ll_aton/ll_aton.c ****       }
1435:Lib/AI_Runtime/Npu/ll_aton/ll_aton.c ****     }
1436:Lib/AI_Runtime/Npu/ll_aton/ll_aton.c ****   }
ARM GAS  /tmp/ccgbPSBw.s 			page 86


1437:Lib/AI_Runtime/Npu/ll_aton/ll_aton.c ****   if (conf->nCWperCV == 4)
1438:Lib/AI_Runtime/Npu/ll_aton/ll_aton.c ****   {
1439:Lib/AI_Runtime/Npu/ll_aton/ll_aton.c ****     uint32_t *CBp = (uint32_t *)conf->CBs_vector.p;
1440:Lib/AI_Runtime/Npu/ll_aton/ll_aton.c ****     for (i = 0, k = 0; i < CBsize / 2; i += 2)
1441:Lib/AI_Runtime/Npu/ll_aton/ll_aton.c ****     {
1442:Lib/AI_Runtime/Npu/ll_aton/ll_aton.c ****       uint32_t temp = CBp[i];
1443:Lib/AI_Runtime/Npu/ll_aton/ll_aton.c ****       ATON_DECUN_MEM_LOW_SET(id, k, temp);
1444:Lib/AI_Runtime/Npu/ll_aton/ll_aton.c ****       temp = CBp[i + 1];
1445:Lib/AI_Runtime/Npu/ll_aton/ll_aton.c ****       ATON_DECUN_MEM_HIGH_SET(id, k, temp);
1446:Lib/AI_Runtime/Npu/ll_aton/ll_aton.c ****       k++;
1447:Lib/AI_Runtime/Npu/ll_aton/ll_aton.c ****       if (k == mem_idx_num)
1448:Lib/AI_Runtime/Npu/ll_aton/ll_aton.c ****       {
1449:Lib/AI_Runtime/Npu/ll_aton/ll_aton.c ****         ctrl_val = decun_inc_page_addr(id, ctrl_val);
1450:Lib/AI_Runtime/Npu/ll_aton/ll_aton.c ****         k = 0;
1451:Lib/AI_Runtime/Npu/ll_aton/ll_aton.c ****       }
1452:Lib/AI_Runtime/Npu/ll_aton/ll_aton.c ****     }
1453:Lib/AI_Runtime/Npu/ll_aton/ll_aton.c ****   }
1454:Lib/AI_Runtime/Npu/ll_aton/ll_aton.c ****   if (conf->nCWperCV == 5)
1455:Lib/AI_Runtime/Npu/ll_aton/ll_aton.c ****   {
1456:Lib/AI_Runtime/Npu/ll_aton/ll_aton.c ****     uint16_t *CBp = (uint16_t *)conf->CBs_vector.p;
1457:Lib/AI_Runtime/Npu/ll_aton/ll_aton.c ****     for (i = 0, k = 0; i < CBsize; i += 5)
1458:Lib/AI_Runtime/Npu/ll_aton/ll_aton.c ****     {
1459:Lib/AI_Runtime/Npu/ll_aton/ll_aton.c ****       uint32_t temp = CBp[i] | (CBp[i + 1] << 16);
1460:Lib/AI_Runtime/Npu/ll_aton/ll_aton.c ****       ATON_DECUN_MEM_LOW_SET(id, k, temp);
1461:Lib/AI_Runtime/Npu/ll_aton/ll_aton.c ****       temp = CBp[i + 2] | (CBp[i + 3] << 16);
1462:Lib/AI_Runtime/Npu/ll_aton/ll_aton.c ****       ATON_DECUN_MEM_HIGH_SET(id, k, temp);
1463:Lib/AI_Runtime/Npu/ll_aton/ll_aton.c ****       k++;
1464:Lib/AI_Runtime/Npu/ll_aton/ll_aton.c ****       temp = CBp[i + 4];
1465:Lib/AI_Runtime/Npu/ll_aton/ll_aton.c ****       ATON_DECUN_MEM_LOW_SET(id, k, temp);
1466:Lib/AI_Runtime/Npu/ll_aton/ll_aton.c ****       k++;
1467:Lib/AI_Runtime/Npu/ll_aton/ll_aton.c ****       if (k == mem_idx_num)
1468:Lib/AI_Runtime/Npu/ll_aton/ll_aton.c ****       {
1469:Lib/AI_Runtime/Npu/ll_aton/ll_aton.c ****         ctrl_val = decun_inc_page_addr(id, ctrl_val);
1470:Lib/AI_Runtime/Npu/ll_aton/ll_aton.c ****         k = 0;
1471:Lib/AI_Runtime/Npu/ll_aton/ll_aton.c ****       }
1472:Lib/AI_Runtime/Npu/ll_aton/ll_aton.c ****     }
1473:Lib/AI_Runtime/Npu/ll_aton/ll_aton.c ****   }
1474:Lib/AI_Runtime/Npu/ll_aton/ll_aton.c ****   if (conf->nCWperCV == 6)
1475:Lib/AI_Runtime/Npu/ll_aton/ll_aton.c ****   {
1476:Lib/AI_Runtime/Npu/ll_aton/ll_aton.c **** #if 0
1477:Lib/AI_Runtime/Npu/ll_aton/ll_aton.c ****     uint16_t *CBp = (uint16_t *)conf->CBs_vector.p;
1478:Lib/AI_Runtime/Npu/ll_aton/ll_aton.c ****     for (i = 0, k = 0; i < CBsize; i += 6)
1479:Lib/AI_Runtime/Npu/ll_aton/ll_aton.c ****     {
1480:Lib/AI_Runtime/Npu/ll_aton/ll_aton.c ****       uint32_t temp = CBp[i] | (CBp[i + 1] << 16);
1481:Lib/AI_Runtime/Npu/ll_aton/ll_aton.c ****       ATON_DECUN_MEM_LOW_SET(id, k, temp);
1482:Lib/AI_Runtime/Npu/ll_aton/ll_aton.c ****       temp = CBp[i + 2] | (CBp[i + 3] << 16);
1483:Lib/AI_Runtime/Npu/ll_aton/ll_aton.c ****       ATON_DECUN_MEM_HIGH_SET(id, k, temp);
1484:Lib/AI_Runtime/Npu/ll_aton/ll_aton.c ****       k++;
1485:Lib/AI_Runtime/Npu/ll_aton/ll_aton.c ****       if (k == mem_idx_num )
1486:Lib/AI_Runtime/Npu/ll_aton/ll_aton.c ****       {
1487:Lib/AI_Runtime/Npu/ll_aton/ll_aton.c ****         ctrl_val = decun_inc_page_addr(id, ctrl_val);
1488:Lib/AI_Runtime/Npu/ll_aton/ll_aton.c ****         k = 0;
1489:Lib/AI_Runtime/Npu/ll_aton/ll_aton.c ****       }
1490:Lib/AI_Runtime/Npu/ll_aton/ll_aton.c ****       temp = CBp[i + 4] | (CBp[i + 5] << 16);
1491:Lib/AI_Runtime/Npu/ll_aton/ll_aton.c ****       ATON_DECUN_MEM_LOW_SET(id, k, temp);
1492:Lib/AI_Runtime/Npu/ll_aton/ll_aton.c ****       k++;
1493:Lib/AI_Runtime/Npu/ll_aton/ll_aton.c ****       if (k == mem_idx_num )
ARM GAS  /tmp/ccgbPSBw.s 			page 87


1494:Lib/AI_Runtime/Npu/ll_aton/ll_aton.c ****       {
1495:Lib/AI_Runtime/Npu/ll_aton/ll_aton.c ****         ctrl_val = decun_inc_page_addr(id, ctrl_val);
1496:Lib/AI_Runtime/Npu/ll_aton/ll_aton.c ****         k = 0;
1497:Lib/AI_Runtime/Npu/ll_aton/ll_aton.c ****       }
1498:Lib/AI_Runtime/Npu/ll_aton/ll_aton.c ****     }
1499:Lib/AI_Runtime/Npu/ll_aton/ll_aton.c **** #else
1500:Lib/AI_Runtime/Npu/ll_aton/ll_aton.c ****     uint32_t *CBp = (uint32_t *)conf->CBs_vector.p;
1501:Lib/AI_Runtime/Npu/ll_aton/ll_aton.c ****     for (i = 0, k = 0; i < CBsize / 2; i += 3)
1502:Lib/AI_Runtime/Npu/ll_aton/ll_aton.c ****     {
1503:Lib/AI_Runtime/Npu/ll_aton/ll_aton.c ****       uint32_t temp = CBp[i];
1504:Lib/AI_Runtime/Npu/ll_aton/ll_aton.c ****       ATON_DECUN_MEM_LOW_SET(id, k, temp);
1505:Lib/AI_Runtime/Npu/ll_aton/ll_aton.c ****       temp = CBp[i + 1];
1506:Lib/AI_Runtime/Npu/ll_aton/ll_aton.c ****       ATON_DECUN_MEM_HIGH_SET(id, k, temp);
1507:Lib/AI_Runtime/Npu/ll_aton/ll_aton.c ****       k++;
1508:Lib/AI_Runtime/Npu/ll_aton/ll_aton.c ****       temp = CBp[i + 2];
1509:Lib/AI_Runtime/Npu/ll_aton/ll_aton.c ****       ATON_DECUN_MEM_LOW_SET(id, k, temp);
1510:Lib/AI_Runtime/Npu/ll_aton/ll_aton.c ****       k++;
1511:Lib/AI_Runtime/Npu/ll_aton/ll_aton.c ****       if (k == mem_idx_num)
1512:Lib/AI_Runtime/Npu/ll_aton/ll_aton.c ****       {
1513:Lib/AI_Runtime/Npu/ll_aton/ll_aton.c ****         ctrl_val = decun_inc_page_addr(id, ctrl_val);
1514:Lib/AI_Runtime/Npu/ll_aton/ll_aton.c ****         k = 0;
1515:Lib/AI_Runtime/Npu/ll_aton/ll_aton.c ****       }
1516:Lib/AI_Runtime/Npu/ll_aton/ll_aton.c ****     }
1517:Lib/AI_Runtime/Npu/ll_aton/ll_aton.c **** #endif
1518:Lib/AI_Runtime/Npu/ll_aton/ll_aton.c ****   }
1519:Lib/AI_Runtime/Npu/ll_aton/ll_aton.c ****   if (conf->nCWperCV == 7)
1520:Lib/AI_Runtime/Npu/ll_aton/ll_aton.c ****   {
1521:Lib/AI_Runtime/Npu/ll_aton/ll_aton.c ****     uint16_t *CBp = (uint16_t *)conf->CBs_vector.p;
1522:Lib/AI_Runtime/Npu/ll_aton/ll_aton.c ****     for (i = 0, k = 0; i < CBsize; i += 7)
1523:Lib/AI_Runtime/Npu/ll_aton/ll_aton.c ****     {
1524:Lib/AI_Runtime/Npu/ll_aton/ll_aton.c ****       uint32_t temp = CBp[i] | (CBp[i + 1] << 16);
1525:Lib/AI_Runtime/Npu/ll_aton/ll_aton.c ****       ATON_DECUN_MEM_LOW_SET(id, k, temp);
1526:Lib/AI_Runtime/Npu/ll_aton/ll_aton.c ****       temp = CBp[i + 2] | (CBp[i + 3] << 16);
1527:Lib/AI_Runtime/Npu/ll_aton/ll_aton.c ****       ATON_DECUN_MEM_HIGH_SET(id, k, temp);
1528:Lib/AI_Runtime/Npu/ll_aton/ll_aton.c ****       k++;
1529:Lib/AI_Runtime/Npu/ll_aton/ll_aton.c ****       temp = CBp[i + 4] | (CBp[i + 5] << 16);
1530:Lib/AI_Runtime/Npu/ll_aton/ll_aton.c ****       ATON_DECUN_MEM_LOW_SET(id, k, temp);
1531:Lib/AI_Runtime/Npu/ll_aton/ll_aton.c ****       temp = CBp[i + 6];
1532:Lib/AI_Runtime/Npu/ll_aton/ll_aton.c ****       ATON_DECUN_MEM_HIGH_SET(id, k, temp);
1533:Lib/AI_Runtime/Npu/ll_aton/ll_aton.c ****       k++;
1534:Lib/AI_Runtime/Npu/ll_aton/ll_aton.c ****       if (k == mem_idx_num)
1535:Lib/AI_Runtime/Npu/ll_aton/ll_aton.c ****       {
1536:Lib/AI_Runtime/Npu/ll_aton/ll_aton.c ****         ctrl_val = decun_inc_page_addr(id, ctrl_val);
1537:Lib/AI_Runtime/Npu/ll_aton/ll_aton.c ****         k = 0;
1538:Lib/AI_Runtime/Npu/ll_aton/ll_aton.c ****       }
1539:Lib/AI_Runtime/Npu/ll_aton/ll_aton.c ****     }
1540:Lib/AI_Runtime/Npu/ll_aton/ll_aton.c ****   }
1541:Lib/AI_Runtime/Npu/ll_aton/ll_aton.c ****   if (conf->nCWperCV == 8)
1542:Lib/AI_Runtime/Npu/ll_aton/ll_aton.c ****   {
1543:Lib/AI_Runtime/Npu/ll_aton/ll_aton.c ****     uint32_t *CBp = (uint32_t *)conf->CBs_vector.p;
1544:Lib/AI_Runtime/Npu/ll_aton/ll_aton.c ****     for (i = 0, k = 0; i < CBsize / 2; i += 2)
1545:Lib/AI_Runtime/Npu/ll_aton/ll_aton.c ****     {
1546:Lib/AI_Runtime/Npu/ll_aton/ll_aton.c ****       uint32_t temp = CBp[i];
1547:Lib/AI_Runtime/Npu/ll_aton/ll_aton.c ****       ATON_DECUN_MEM_LOW_SET(id, k, temp);
1548:Lib/AI_Runtime/Npu/ll_aton/ll_aton.c ****       temp = CBp[i + 1];
1549:Lib/AI_Runtime/Npu/ll_aton/ll_aton.c ****       ATON_DECUN_MEM_HIGH_SET(id, k, temp);
1550:Lib/AI_Runtime/Npu/ll_aton/ll_aton.c ****       k++;
ARM GAS  /tmp/ccgbPSBw.s 			page 88


1551:Lib/AI_Runtime/Npu/ll_aton/ll_aton.c ****       if (k == mem_idx_num)
1552:Lib/AI_Runtime/Npu/ll_aton/ll_aton.c ****       {
1553:Lib/AI_Runtime/Npu/ll_aton/ll_aton.c ****         ctrl_val = decun_inc_page_addr(id, ctrl_val);
1554:Lib/AI_Runtime/Npu/ll_aton/ll_aton.c ****         k = 0;
1555:Lib/AI_Runtime/Npu/ll_aton/ll_aton.c ****       }
1556:Lib/AI_Runtime/Npu/ll_aton/ll_aton.c ****     }
1557:Lib/AI_Runtime/Npu/ll_aton/ll_aton.c ****   }
1558:Lib/AI_Runtime/Npu/ll_aton/ll_aton.c **** }
1559:Lib/AI_Runtime/Npu/ll_aton/ll_aton.c **** 
1560:Lib/AI_Runtime/Npu/ll_aton/ll_aton.c **** /**
1561:Lib/AI_Runtime/Npu/ll_aton/ll_aton.c ****  * @brief  Configures Decompression Unit accelerator
1562:Lib/AI_Runtime/Npu/ll_aton/ll_aton.c ****  * @param  id Decompression Unit identifier (Always 0 fo Tiny Orlando)
1563:Lib/AI_Runtime/Npu/ll_aton/ll_aton.c ****  * @param  conf Pointer to structure describing decompression unit configuration
1564:Lib/AI_Runtime/Npu/ll_aton/ll_aton.c ****  * @retval Error code
1565:Lib/AI_Runtime/Npu/ll_aton/ll_aton.c ****  */
1566:Lib/AI_Runtime/Npu/ll_aton/ll_aton.c **** int LL_Decun_Init(int id, const LL_Decun_InitTypeDef *conf)
1567:Lib/AI_Runtime/Npu/ll_aton/ll_aton.c **** {
1568:Lib/AI_Runtime/Npu/ll_aton/ll_aton.c ****   uint32_t t;
1569:Lib/AI_Runtime/Npu/ll_aton/ll_aton.c **** 
1570:Lib/AI_Runtime/Npu/ll_aton/ll_aton.c ****   if (id >= ATON_DECUN_NUM)
1571:Lib/AI_Runtime/Npu/ll_aton/ll_aton.c ****     return LL_ATON_INVALID_ID;
1572:Lib/AI_Runtime/Npu/ll_aton/ll_aton.c **** 
1573:Lib/AI_Runtime/Npu/ll_aton/ll_aton.c ****   LL_ATON_EnableClock(ATON_DECUN_CLKB_CLK(id));
1574:Lib/AI_Runtime/Npu/ll_aton/ll_aton.c **** 
1575:Lib/AI_Runtime/Npu/ll_aton/ll_aton.c ****   t = ATON_DECUN_CTRL_DT;
1576:Lib/AI_Runtime/Npu/ll_aton/ll_aton.c ****   t = ATON_DECUN_CTRL_SET_DUALIN(t, (conf->noDualInput != 0));
1577:Lib/AI_Runtime/Npu/ll_aton/ll_aton.c ****   t = ATON_DECUN_CTRL_SET_OW(t, (conf->noOverWrite != 0));
1578:Lib/AI_Runtime/Npu/ll_aton/ll_aton.c ****   ATON_DECUN_CTRL_SET(id, t);
1579:Lib/AI_Runtime/Npu/ll_aton/ll_aton.c **** 
1580:Lib/AI_Runtime/Npu/ll_aton/ll_aton.c ****   if (conf->CBs_size != 0)
1581:Lib/AI_Runtime/Npu/ll_aton/ll_aton.c ****   {
1582:Lib/AI_Runtime/Npu/ll_aton/ll_aton.c ****     if (conf->nFormatBytes == 1)
1583:Lib/AI_Runtime/Npu/ll_aton/ll_aton.c ****     {
1584:Lib/AI_Runtime/Npu/ll_aton/ll_aton.c ****       LL_Decun_CB_1byte(id, conf, t);
1585:Lib/AI_Runtime/Npu/ll_aton/ll_aton.c ****     }
1586:Lib/AI_Runtime/Npu/ll_aton/ll_aton.c ****     else
1587:Lib/AI_Runtime/Npu/ll_aton/ll_aton.c ****     {
1588:Lib/AI_Runtime/Npu/ll_aton/ll_aton.c ****       // LL_ATON_ASSERT(conf->nFormatBytes == 2);
1589:Lib/AI_Runtime/Npu/ll_aton/ll_aton.c ****       LL_Decun_CB_2byte(id, conf, t);
1590:Lib/AI_Runtime/Npu/ll_aton/ll_aton.c ****     }
1591:Lib/AI_Runtime/Npu/ll_aton/ll_aton.c ****   }
1592:Lib/AI_Runtime/Npu/ll_aton/ll_aton.c **** 
1593:Lib/AI_Runtime/Npu/ll_aton/ll_aton.c ****   t = ATON_DECUN_BFORMAT_DT;
1594:Lib/AI_Runtime/Npu/ll_aton/ll_aton.c ****   t = ATON_DECUN_BFORMAT_SET_CVS(t, conf->nCVperCB - 1);
1595:Lib/AI_Runtime/Npu/ll_aton/ll_aton.c ****   t = ATON_DECUN_BFORMAT_SET_CWS(t, conf->nCWperCV - 1);
1596:Lib/AI_Runtime/Npu/ll_aton/ll_aton.c ****   t = ATON_DECUN_BFORMAT_SET_OSAM(t, conf->nRCWlastCV);
1597:Lib/AI_Runtime/Npu/ll_aton/ll_aton.c ****   ATON_DECUN_BFORMAT_SET(id, t);
1598:Lib/AI_Runtime/Npu/ll_aton/ll_aton.c **** 
1599:Lib/AI_Runtime/Npu/ll_aton/ll_aton.c ****   LL_ATON_ASSERT((conf->nFormatBytes == 1) || (conf->nFormatBytes == 2));
1600:Lib/AI_Runtime/Npu/ll_aton/ll_aton.c **** 
1601:Lib/AI_Runtime/Npu/ll_aton/ll_aton.c ****   t = ATON_DECUN_DFORMAT_DT;
1602:Lib/AI_Runtime/Npu/ll_aton/ll_aton.c ****   t = ATON_DECUN_DFORMAT_SET_CV8(t, conf->nFormatBytes & 0x1);
1603:Lib/AI_Runtime/Npu/ll_aton/ll_aton.c ****   ATON_DECUN_DFORMAT_SET(id, t);
1604:Lib/AI_Runtime/Npu/ll_aton/ll_aton.c **** 
1605:Lib/AI_Runtime/Npu/ll_aton/ll_aton.c ****   t = ATON_DECUN_FFORMAT_DT;
1606:Lib/AI_Runtime/Npu/ll_aton/ll_aton.c ****   t = ATON_DECUN_FFORMAT_SET_BN(t, conf->nBatches);
1607:Lib/AI_Runtime/Npu/ll_aton/ll_aton.c ****   ATON_DECUN_FFORMAT_SET(id, t);
ARM GAS  /tmp/ccgbPSBw.s 			page 89


1608:Lib/AI_Runtime/Npu/ll_aton/ll_aton.c **** 
1609:Lib/AI_Runtime/Npu/ll_aton/ll_aton.c ****   return LL_ATON_OK;
1610:Lib/AI_Runtime/Npu/ll_aton/ll_aton.c **** }
1611:Lib/AI_Runtime/Npu/ll_aton/ll_aton.c **** #endif // ATON_DECUN_NUM
1612:Lib/AI_Runtime/Npu/ll_aton/ll_aton.c **** 
1613:Lib/AI_Runtime/Npu/ll_aton/ll_aton.c **** #ifdef ATON_CONVACC_NUM
1614:Lib/AI_Runtime/Npu/ll_aton/ll_aton.c **** /**
1615:Lib/AI_Runtime/Npu/ll_aton/ll_aton.c ****  * @brief  Configures Convolution Accelerator
1616:Lib/AI_Runtime/Npu/ll_aton/ll_aton.c ****  * @param  id Convolutional Accelerator identifier [0, ATON_CONVACC_NUM-1]
1617:Lib/AI_Runtime/Npu/ll_aton/ll_aton.c ****  * @param  Convacc_InitStruct Structure describing initialization parameters
1618:Lib/AI_Runtime/Npu/ll_aton/ll_aton.c ****  * @retval Error code E.g.: Invalid ID, invalid parameters, not idle,..
1619:Lib/AI_Runtime/Npu/ll_aton/ll_aton.c ****  */
1620:Lib/AI_Runtime/Npu/ll_aton/ll_aton.c **** int LL_Convacc_Init(int id, const LL_Convacc_InitTypeDef *conf)
1621:Lib/AI_Runtime/Npu/ll_aton/ll_aton.c **** {
1622:Lib/AI_Runtime/Npu/ll_aton/ll_aton.c ****   uint32_t t;
1623:Lib/AI_Runtime/Npu/ll_aton/ll_aton.c **** 
1624:Lib/AI_Runtime/Npu/ll_aton/ll_aton.c ****   if (id >= ATON_CONVACC_NUM)
1625:Lib/AI_Runtime/Npu/ll_aton/ll_aton.c ****     return LL_ATON_INVALID_ID;
1626:Lib/AI_Runtime/Npu/ll_aton/ll_aton.c **** 
1627:Lib/AI_Runtime/Npu/ll_aton/ll_aton.c ****   LL_ATON_EnableClock(ATON_CONVACC_CLKB_CLK(id));
1628:Lib/AI_Runtime/Npu/ll_aton/ll_aton.c **** 
1629:Lib/AI_Runtime/Npu/ll_aton/ll_aton.c ****   t = ATON_CONVACC_CTRL_DT;
1630:Lib/AI_Runtime/Npu/ll_aton/ll_aton.c ****   t = ATON_CONVACC_CTRL_SET_NOSUM(t, (conf->accumulate == 0));
1631:Lib/AI_Runtime/Npu/ll_aton/ll_aton.c ****   t = ATON_CONVACC_CTRL_SET_NO1SUM(t, (conf->accumulate_first == 0));
1632:Lib/AI_Runtime/Npu/ll_aton/ll_aton.c ****   t = ATON_CONVACC_CTRL_SET_GEN1SUM(t, (conf->accumulate_gen_first != 0));
1633:Lib/AI_Runtime/Npu/ll_aton/ll_aton.c ****   t = ATON_CONVACC_CTRL_SET_AFILTMODE(t, conf->afilt_mode);
1634:Lib/AI_Runtime/Npu/ll_aton/ll_aton.c ****   t = ATON_CONVACC_CTRL_SET_SIMD(t, (conf->simd));
1635:Lib/AI_Runtime/Npu/ll_aton/ll_aton.c ****   t = ATON_CONVACC_CTRL_SET_KT1(t, (conf->kt1_mode != 0));
1636:Lib/AI_Runtime/Npu/ll_aton/ll_aton.c ****   t = ATON_CONVACC_CTRL_SET_KSETEN(t, conf->kseten);
1637:Lib/AI_Runtime/Npu/ll_aton/ll_aton.c ****   t = ATON_CONVACC_CTRL_SET_FUNSIGNED(t, conf->f_unsigned);
1638:Lib/AI_Runtime/Npu/ll_aton/ll_aton.c ****   t = ATON_CONVACC_CTRL_SET_KUNSIGNED(t, conf->k_unsigned);
1639:Lib/AI_Runtime/Npu/ll_aton/ll_aton.c **** #if defined(ATON_CONVACC_CTRL_SET_FSTAT)
1640:Lib/AI_Runtime/Npu/ll_aton/ll_aton.c ****   t = ATON_CONVACC_CTRL_SET_FSTAT(t, (conf->fstat != 0));
1641:Lib/AI_Runtime/Npu/ll_aton/ll_aton.c **** #endif
1642:Lib/AI_Runtime/Npu/ll_aton/ll_aton.c **** 
1643:Lib/AI_Runtime/Npu/ll_aton/ll_aton.c **** #if defined(ATON_CONVACC_CTRL_GET_DEEPMODE)
1644:Lib/AI_Runtime/Npu/ll_aton/ll_aton.c ****   t = ATON_CONVACC_CTRL_SET_DEEPMODE(t, (conf->deepmode != 0));
1645:Lib/AI_Runtime/Npu/ll_aton/ll_aton.c **** #if defined(ATON_CONVACC_CTRL_SET_FSTAT)
1646:Lib/AI_Runtime/Npu/ll_aton/ll_aton.c ****   // deepmode and feature stats are incompatible
1647:Lib/AI_Runtime/Npu/ll_aton/ll_aton.c ****   if ((conf->fstat != 0) && (conf->deepmode != 0))
1648:Lib/AI_Runtime/Npu/ll_aton/ll_aton.c ****   {
1649:Lib/AI_Runtime/Npu/ll_aton/ll_aton.c ****     return LL_ATON_INVALID_PARAM;
1650:Lib/AI_Runtime/Npu/ll_aton/ll_aton.c ****   }
1651:Lib/AI_Runtime/Npu/ll_aton/ll_aton.c **** #endif
1652:Lib/AI_Runtime/Npu/ll_aton/ll_aton.c **** #endif
1653:Lib/AI_Runtime/Npu/ll_aton/ll_aton.c **** 
1654:Lib/AI_Runtime/Npu/ll_aton/ll_aton.c **** #if defined(ATON_CONVACC_CTRL_GET_DSS2MODE)
1655:Lib/AI_Runtime/Npu/ll_aton/ll_aton.c ****   t = ATON_CONVACC_CTRL_SET_DSS2MODE(t, (conf->dss2mode != 0));
1656:Lib/AI_Runtime/Npu/ll_aton/ll_aton.c **** #if defined(ATON_CONVACC_CTRL_SET_FSTAT)
1657:Lib/AI_Runtime/Npu/ll_aton/ll_aton.c ****   // deepmode and feature stats are incompatible
1658:Lib/AI_Runtime/Npu/ll_aton/ll_aton.c ****   if ((conf->fstat != 0) && (conf->dss2mode != 0))
1659:Lib/AI_Runtime/Npu/ll_aton/ll_aton.c ****   {
1660:Lib/AI_Runtime/Npu/ll_aton/ll_aton.c ****     return LL_ATON_INVALID_PARAM;
1661:Lib/AI_Runtime/Npu/ll_aton/ll_aton.c ****   }
1662:Lib/AI_Runtime/Npu/ll_aton/ll_aton.c **** #endif
1663:Lib/AI_Runtime/Npu/ll_aton/ll_aton.c **** #endif
1664:Lib/AI_Runtime/Npu/ll_aton/ll_aton.c **** 
ARM GAS  /tmp/ccgbPSBw.s 			page 90


1665:Lib/AI_Runtime/Npu/ll_aton/ll_aton.c **** #if defined(ATON_CONVACC_CTRL_SET_DSS2MODE) && defined(ATON_CONVACC_CTRL_SET_DEEPMODE)
1666:Lib/AI_Runtime/Npu/ll_aton/ll_aton.c ****   // deepmode and dss2mode stats are incompatible
1667:Lib/AI_Runtime/Npu/ll_aton/ll_aton.c ****   if ((conf->dss2mode != 0) && (conf->deepmode != 0))
1668:Lib/AI_Runtime/Npu/ll_aton/ll_aton.c ****   {
1669:Lib/AI_Runtime/Npu/ll_aton/ll_aton.c ****     return LL_ATON_INVALID_PARAM;
1670:Lib/AI_Runtime/Npu/ll_aton/ll_aton.c ****   }
1671:Lib/AI_Runtime/Npu/ll_aton/ll_aton.c **** #endif
1672:Lib/AI_Runtime/Npu/ll_aton/ll_aton.c **** 
1673:Lib/AI_Runtime/Npu/ll_aton/ll_aton.c ****   ATON_CONVACC_CTRL_SET(id, t);
1674:Lib/AI_Runtime/Npu/ll_aton/ll_aton.c ****   Conv_ctrl_bits[id] = t;
1675:Lib/AI_Runtime/Npu/ll_aton/ll_aton.c **** 
1676:Lib/AI_Runtime/Npu/ll_aton/ll_aton.c ****   if (conf->afilt_mode != AFILT_MODE_NONE)
1677:Lib/AI_Runtime/Npu/ll_aton/ll_aton.c ****   {
1678:Lib/AI_Runtime/Npu/ll_aton/ll_aton.c ****     t = ATON_CONVACC_AFILT_DT;
1679:Lib/AI_Runtime/Npu/ll_aton/ll_aton.c ****     t = ATON_CONVACC_AFILT_SET_TOT(t, conf->afilt_tot);
1680:Lib/AI_Runtime/Npu/ll_aton/ll_aton.c ****     t = ATON_CONVACC_AFILT_SET_FIRST(t, conf->afilt_first);
1681:Lib/AI_Runtime/Npu/ll_aton/ll_aton.c ****     t = ATON_CONVACC_AFILT_SET_LAST(t, conf->afilt_last);
1682:Lib/AI_Runtime/Npu/ll_aton/ll_aton.c ****     ATON_CONVACC_AFILT_SET(id, t);
1683:Lib/AI_Runtime/Npu/ll_aton/ll_aton.c ****   }
1684:Lib/AI_Runtime/Npu/ll_aton/ll_aton.c **** 
1685:Lib/AI_Runtime/Npu/ll_aton/ll_aton.c ****   if (conf->kfilt_tot > 0)
1686:Lib/AI_Runtime/Npu/ll_aton/ll_aton.c ****   {
1687:Lib/AI_Runtime/Npu/ll_aton/ll_aton.c ****     t = ATON_CONVACC_KFILT_DT;
1688:Lib/AI_Runtime/Npu/ll_aton/ll_aton.c ****     t = ATON_CONVACC_KFILT_SET_TOT(t, conf->kfilt_tot);
1689:Lib/AI_Runtime/Npu/ll_aton/ll_aton.c ****     t = ATON_CONVACC_KFILT_SET_FIRST(t, conf->kfilt_first);
1690:Lib/AI_Runtime/Npu/ll_aton/ll_aton.c ****     t = ATON_CONVACC_KFILT_SET_LAST(t, conf->kfilt_last);
1691:Lib/AI_Runtime/Npu/ll_aton/ll_aton.c ****     ATON_CONVACC_KFILT_SET(id, t);
1692:Lib/AI_Runtime/Npu/ll_aton/ll_aton.c ****   }
1693:Lib/AI_Runtime/Npu/ll_aton/ll_aton.c **** 
1694:Lib/AI_Runtime/Npu/ll_aton/ll_aton.c ****   t = ATON_CONVACC_DFORMAT_DT;
1695:Lib/AI_Runtime/Npu/ll_aton/ll_aton.c ****   t = ATON_CONVACC_DFORMAT_SET_FROUND(t, conf->rounding_f);
1696:Lib/AI_Runtime/Npu/ll_aton/ll_aton.c ****   t = ATON_CONVACC_DFORMAT_SET_FSAT(t, conf->saturation_f);
1697:Lib/AI_Runtime/Npu/ll_aton/ll_aton.c ****   t = ATON_CONVACC_DFORMAT_SET_FRNDMODE(t, conf->round_mode_f);
1698:Lib/AI_Runtime/Npu/ll_aton/ll_aton.c ****   t = ATON_CONVACC_DFORMAT_SET_FBYTES(t, conf->inbytes_f);
1699:Lib/AI_Runtime/Npu/ll_aton/ll_aton.c ****   t = ATON_CONVACC_DFORMAT_SET_FSHIFT(t, ATON_SHIFT(conf->shift_f));
1700:Lib/AI_Runtime/Npu/ll_aton/ll_aton.c **** 
1701:Lib/AI_Runtime/Npu/ll_aton/ll_aton.c ****   t = ATON_CONVACC_DFORMAT_SET_ROUND(t, conf->rounding_o);
1702:Lib/AI_Runtime/Npu/ll_aton/ll_aton.c ****   t = ATON_CONVACC_DFORMAT_SET_SAT(t, conf->saturation_o);
1703:Lib/AI_Runtime/Npu/ll_aton/ll_aton.c ****   t = ATON_CONVACC_DFORMAT_SET_ORNDMODE(t, (conf->relu_mode_o << 1) | conf->round_mode_o);
1704:Lib/AI_Runtime/Npu/ll_aton/ll_aton.c ****   t = ATON_CONVACC_DFORMAT_SET_OBYTES(t, conf->outbytes_o);
1705:Lib/AI_Runtime/Npu/ll_aton/ll_aton.c ****   t = ATON_CONVACC_DFORMAT_SET_OUTSHIFT(t, conf->shift_o); // shift right only
1706:Lib/AI_Runtime/Npu/ll_aton/ll_aton.c ****   t = ATON_CONVACC_DFORMAT_SET_RAW(t, conf->raw_o);
1707:Lib/AI_Runtime/Npu/ll_aton/ll_aton.c **** 
1708:Lib/AI_Runtime/Npu/ll_aton/ll_aton.c ****   t = ATON_CONVACC_DFORMAT_SET_INSHIFT(t, conf->shift_a); // accumulator shift left really (macro n
1709:Lib/AI_Runtime/Npu/ll_aton/ll_aton.c ****   ATON_CONVACC_DFORMAT_SET(id, t);
1710:Lib/AI_Runtime/Npu/ll_aton/ll_aton.c **** 
1711:Lib/AI_Runtime/Npu/ll_aton/ll_aton.c ****   t = ATON_CONVACC_FFORMAT_DT;
1712:Lib/AI_Runtime/Npu/ll_aton/ll_aton.c ****   t = ATON_CONVACC_FFORMAT_SET_WIDTH(t, conf->fWidth * conf->batchDepth);
1713:Lib/AI_Runtime/Npu/ll_aton/ll_aton.c ****   t = ATON_CONVACC_FFORMAT_SET_HEIGHT(t, conf->fHeight);
1714:Lib/AI_Runtime/Npu/ll_aton/ll_aton.c ****   ATON_CONVACC_FFORMAT_SET(id, t);
1715:Lib/AI_Runtime/Npu/ll_aton/ll_aton.c **** 
1716:Lib/AI_Runtime/Npu/ll_aton/ll_aton.c ****   t = ATON_CONVACC_KFORMAT_DT;
1717:Lib/AI_Runtime/Npu/ll_aton/ll_aton.c ****   t = ATON_CONVACC_KFORMAT_SET_WIDTH(t, conf->kernelWidth);
1718:Lib/AI_Runtime/Npu/ll_aton/ll_aton.c ****   t = ATON_CONVACC_KFORMAT_SET_HEIGHT(t, conf->kernelHeight);
1719:Lib/AI_Runtime/Npu/ll_aton/ll_aton.c ****   t = ATON_CONVACC_KFORMAT_SET_BTCDEPTH(t, conf->batchDepth);
1720:Lib/AI_Runtime/Npu/ll_aton/ll_aton.c ****   t = ATON_CONVACC_KFORMAT_SET_NR(t, conf->nKernels);
1721:Lib/AI_Runtime/Npu/ll_aton/ll_aton.c ****   ATON_CONVACC_KFORMAT_SET(id, t);
ARM GAS  /tmp/ccgbPSBw.s 			page 91


1722:Lib/AI_Runtime/Npu/ll_aton/ll_aton.c **** 
1723:Lib/AI_Runtime/Npu/ll_aton/ll_aton.c ****   // LL_ATON_PRINTF("depth=%d k_w=%d k_h=%d\n",conf->batchDepth,conf->kernelWidth,conf->kernelHeigh
1724:Lib/AI_Runtime/Npu/ll_aton/ll_aton.c ****   // LL_ATON_PRINTF("pad_t=%d pad_b=%d pad_l=%d
1725:Lib/AI_Runtime/Npu/ll_aton/ll_aton.c ****   // pad_r=%d\n",conf->top_padding,conf->bot_padding,conf->left_padding,conf->right_padding);
1726:Lib/AI_Runtime/Npu/ll_aton/ll_aton.c **** 
1727:Lib/AI_Runtime/Npu/ll_aton/ll_aton.c ****   int p_top = (conf->top_padding < conf->kernelHeight ? conf->top_padding : conf->kernelHeight - 1)
1728:Lib/AI_Runtime/Npu/ll_aton/ll_aton.c ****   int p_bot = (conf->bot_padding < conf->kernelHeight ? conf->bot_padding : conf->kernelHeight - 1)
1729:Lib/AI_Runtime/Npu/ll_aton/ll_aton.c ****   int p_left = (conf->left_padding < conf->kernelWidth ? conf->left_padding : conf->kernelWidth - 1
1730:Lib/AI_Runtime/Npu/ll_aton/ll_aton.c ****   int p_right = (conf->right_padding < conf->kernelWidth ? conf->right_padding : conf->kernelWidth 
1731:Lib/AI_Runtime/Npu/ll_aton/ll_aton.c **** 
1732:Lib/AI_Runtime/Npu/ll_aton/ll_aton.c ****   p_top = (p_top <= 2 ? p_top : 2);
1733:Lib/AI_Runtime/Npu/ll_aton/ll_aton.c ****   p_bot = (p_bot <= 2 ? p_bot : 2);
1734:Lib/AI_Runtime/Npu/ll_aton/ll_aton.c ****   p_left = (p_left <= 2 ? p_left : 2);
1735:Lib/AI_Runtime/Npu/ll_aton/ll_aton.c ****   p_right = (p_right <= 2 ? p_right : 2);
1736:Lib/AI_Runtime/Npu/ll_aton/ll_aton.c ****   // LL_ATON_PRINTF("p_t=%d p_b=%d p_l=%d p_r=%d\n",p_top,p_bot,p_left,p_right);
1737:Lib/AI_Runtime/Npu/ll_aton/ll_aton.c **** 
1738:Lib/AI_Runtime/Npu/ll_aton/ll_aton.c **** #if defined(ATON_CONVACC_CTRL_GET_DEEPMODE)
1739:Lib/AI_Runtime/Npu/ll_aton/ll_aton.c ****   // no pad mode available in 1x1 deepmode
1740:Lib/AI_Runtime/Npu/ll_aton/ll_aton.c ****   // will accomodate padding only with zframe below
1741:Lib/AI_Runtime/Npu/ll_aton/ll_aton.c ****   if (conf->deepmode != 0)
1742:Lib/AI_Runtime/Npu/ll_aton/ll_aton.c ****     p_top = p_bot = p_left = p_right = 0;
1743:Lib/AI_Runtime/Npu/ll_aton/ll_aton.c **** #endif
1744:Lib/AI_Runtime/Npu/ll_aton/ll_aton.c **** #if defined(ATON_CONVACC_CTRL_GET_DSS2MODE)
1745:Lib/AI_Runtime/Npu/ll_aton/ll_aton.c ****   // no pad mode available in dss2mode
1746:Lib/AI_Runtime/Npu/ll_aton/ll_aton.c ****   // will accomodate padding only with zframe below
1747:Lib/AI_Runtime/Npu/ll_aton/ll_aton.c ****   if (conf->dss2mode != 0)
1748:Lib/AI_Runtime/Npu/ll_aton/ll_aton.c ****     p_top = p_bot = p_left = p_right = 0;
1749:Lib/AI_Runtime/Npu/ll_aton/ll_aton.c **** #endif
1750:Lib/AI_Runtime/Npu/ll_aton/ll_aton.c **** #if defined(ATON_CONVACC_ZFBIAS_SET)
1751:Lib/AI_Runtime/Npu/ll_aton/ll_aton.c ****   // no pad mode available if zfbias is set
1752:Lib/AI_Runtime/Npu/ll_aton/ll_aton.c ****   // will accomodate padding only with zframe below
1753:Lib/AI_Runtime/Npu/ll_aton/ll_aton.c ****   if (conf->zfbias != 0)
1754:Lib/AI_Runtime/Npu/ll_aton/ll_aton.c ****     p_top = p_bot = p_left = p_right = 0;
1755:Lib/AI_Runtime/Npu/ll_aton/ll_aton.c **** #endif
1756:Lib/AI_Runtime/Npu/ll_aton/ll_aton.c **** 
1757:Lib/AI_Runtime/Npu/ll_aton/ll_aton.c ****   int z_top = (conf->top_padding - p_top);
1758:Lib/AI_Runtime/Npu/ll_aton/ll_aton.c ****   int z_bot = (conf->bot_padding - p_bot);
1759:Lib/AI_Runtime/Npu/ll_aton/ll_aton.c ****   int z_left = (conf->left_padding - p_left);
1760:Lib/AI_Runtime/Npu/ll_aton/ll_aton.c ****   int z_right = (conf->right_padding - p_right);
1761:Lib/AI_Runtime/Npu/ll_aton/ll_aton.c ****   // LL_ATON_PRINTF("z_t=%d z_b=%d z_l=%d z_r=%d\n",z_top,z_bot,z_left*conf->batchDepth,z_right*con
1762:Lib/AI_Runtime/Npu/ll_aton/ll_aton.c **** 
1763:Lib/AI_Runtime/Npu/ll_aton/ll_aton.c ****   t = ATON_CONVACC_ZFRAME_DT;
1764:Lib/AI_Runtime/Npu/ll_aton/ll_aton.c ****   t = ATON_CONVACC_ZFRAME_SET_TOP(t, z_top);
1765:Lib/AI_Runtime/Npu/ll_aton/ll_aton.c ****   t = ATON_CONVACC_ZFRAME_SET_BOTTOM(t, z_bot);
1766:Lib/AI_Runtime/Npu/ll_aton/ll_aton.c ****   t = ATON_CONVACC_ZFRAME_SET_LEFT(t, z_left * conf->batchDepth);
1767:Lib/AI_Runtime/Npu/ll_aton/ll_aton.c ****   t = ATON_CONVACC_ZFRAME_SET_RIGHT(t, z_right * conf->batchDepth);
1768:Lib/AI_Runtime/Npu/ll_aton/ll_aton.c ****   ATON_CONVACC_ZFRAME_SET(id, t);
1769:Lib/AI_Runtime/Npu/ll_aton/ll_aton.c **** 
1770:Lib/AI_Runtime/Npu/ll_aton/ll_aton.c ****   t = ATON_CONVACC_SAMPLE_DT;
1771:Lib/AI_Runtime/Npu/ll_aton/ll_aton.c ****   t = ATON_CONVACC_SAMPLE_SET_TPAD(t, p_top);
1772:Lib/AI_Runtime/Npu/ll_aton/ll_aton.c ****   t = ATON_CONVACC_SAMPLE_SET_BPAD(t, p_bot);
1773:Lib/AI_Runtime/Npu/ll_aton/ll_aton.c ****   t = ATON_CONVACC_SAMPLE_SET_LPAD(t, p_left);
1774:Lib/AI_Runtime/Npu/ll_aton/ll_aton.c ****   t = ATON_CONVACC_SAMPLE_SET_RPAD(t, p_right);
1775:Lib/AI_Runtime/Npu/ll_aton/ll_aton.c ****   t = ATON_CONVACC_SAMPLE_SET_HSTRD(t, conf->hstride);
1776:Lib/AI_Runtime/Npu/ll_aton/ll_aton.c ****   t = ATON_CONVACC_SAMPLE_SET_VSTRD(t, conf->vstride);
1777:Lib/AI_Runtime/Npu/ll_aton/ll_aton.c **** #if defined(ATON_CONVACC_SAMPLE_SET_FSTATCNT)
1778:Lib/AI_Runtime/Npu/ll_aton/ll_aton.c ****   if (conf->fstat != 0)
ARM GAS  /tmp/ccgbPSBw.s 			page 92


1779:Lib/AI_Runtime/Npu/ll_aton/ll_aton.c ****     t = ATON_CONVACC_SAMPLE_SET_FSTATCNT(t, conf->fstatcnt);
1780:Lib/AI_Runtime/Npu/ll_aton/ll_aton.c **** #endif
1781:Lib/AI_Runtime/Npu/ll_aton/ll_aton.c ****   ATON_CONVACC_SAMPLE_SET(id, t);
1782:Lib/AI_Runtime/Npu/ll_aton/ll_aton.c **** 
1783:Lib/AI_Runtime/Npu/ll_aton/ll_aton.c ****   // LL_ATON_PRINTF("crop_t=%d crop_b=%d crop_l=%d crop_r=%d\n",z_top,z_bot,z_left,z_right);
1784:Lib/AI_Runtime/Npu/ll_aton/ll_aton.c ****   t = ATON_CONVACC_FHCROP_DT;
1785:Lib/AI_Runtime/Npu/ll_aton/ll_aton.c ****   if (conf->left_crop > 0)
1786:Lib/AI_Runtime/Npu/ll_aton/ll_aton.c ****     t = ATON_CONVACC_FHCROP_SET_LEFT(t, conf->left_crop * conf->batchDepth);
1787:Lib/AI_Runtime/Npu/ll_aton/ll_aton.c ****   if (conf->right_crop > 0)
1788:Lib/AI_Runtime/Npu/ll_aton/ll_aton.c ****     t = ATON_CONVACC_FHCROP_SET_RIGHT(t, conf->right_crop * conf->batchDepth + (conf->batchDepth - 
1789:Lib/AI_Runtime/Npu/ll_aton/ll_aton.c ****   ATON_CONVACC_FHCROP_SET(id, t);
1790:Lib/AI_Runtime/Npu/ll_aton/ll_aton.c **** 
1791:Lib/AI_Runtime/Npu/ll_aton/ll_aton.c ****   t = ATON_CONVACC_FVCROP_DT;
1792:Lib/AI_Runtime/Npu/ll_aton/ll_aton.c ****   if (conf->top_crop > 0)
1793:Lib/AI_Runtime/Npu/ll_aton/ll_aton.c ****     t = ATON_CONVACC_FVCROP_SET_TOP(t, conf->top_crop);
1794:Lib/AI_Runtime/Npu/ll_aton/ll_aton.c ****   if (conf->bot_crop > 0)
1795:Lib/AI_Runtime/Npu/ll_aton/ll_aton.c ****     t = ATON_CONVACC_FVCROP_SET_BOTTOM(t, conf->bot_crop);
1796:Lib/AI_Runtime/Npu/ll_aton/ll_aton.c ****   ATON_CONVACC_FVCROP_SET(id, t);
1797:Lib/AI_Runtime/Npu/ll_aton/ll_aton.c ****   // LL_ATON_PRINTF("c_t=%d c_b=%d c_l=%d c_r=%d\n",conf->top_crop,conf->bot_crop,conf->left_crop  
1798:Lib/AI_Runtime/Npu/ll_aton/ll_aton.c ****   // conf->batchDepth,conf->right_crop  * conf->batchDepth + (conf->batchDepth - 1));
1799:Lib/AI_Runtime/Npu/ll_aton/ll_aton.c **** 
1800:Lib/AI_Runtime/Npu/ll_aton/ll_aton.c **** #if defined(ATON_CONVACC_FSUB_SET)
1801:Lib/AI_Runtime/Npu/ll_aton/ll_aton.c ****   if (conf->fsub != 0)
1802:Lib/AI_Runtime/Npu/ll_aton/ll_aton.c ****   {
1803:Lib/AI_Runtime/Npu/ll_aton/ll_aton.c ****     t = ATON_CONVACC_FSUB_DT;
1804:Lib/AI_Runtime/Npu/ll_aton/ll_aton.c ****     t = ATON_CONVACC_FSUB_SET_FSUB(t, conf->fsub);
1805:Lib/AI_Runtime/Npu/ll_aton/ll_aton.c ****     ATON_CONVACC_FSUB_SET(id, t);
1806:Lib/AI_Runtime/Npu/ll_aton/ll_aton.c ****   }
1807:Lib/AI_Runtime/Npu/ll_aton/ll_aton.c **** #endif
1808:Lib/AI_Runtime/Npu/ll_aton/ll_aton.c **** #if defined(ATON_CONVACC_ZFBIAS_SET)
1809:Lib/AI_Runtime/Npu/ll_aton/ll_aton.c ****   t = ATON_CONVACC_ZFBIAS_DT;
1810:Lib/AI_Runtime/Npu/ll_aton/ll_aton.c ****   if (conf->zfbias != 0)
1811:Lib/AI_Runtime/Npu/ll_aton/ll_aton.c ****   {
1812:Lib/AI_Runtime/Npu/ll_aton/ll_aton.c ****     t = ATON_CONVACC_ZFBIAS_SET_ZFBIAS(t, conf->zfbias);
1813:Lib/AI_Runtime/Npu/ll_aton/ll_aton.c ****   }
1814:Lib/AI_Runtime/Npu/ll_aton/ll_aton.c **** 
1815:Lib/AI_Runtime/Npu/ll_aton/ll_aton.c ****   /* If hardware supports it (e.g.: 4CA2P), manage Batch Depths not fitting 8 bits */
1816:Lib/AI_Runtime/Npu/ll_aton/ll_aton.c **** #if defined(ATON_CONVACC_ZFBIAS_SET_ZFLEFTMSB)
1817:Lib/AI_Runtime/Npu/ll_aton/ll_aton.c ****   t = ATON_CONVACC_ZFBIAS_SET_ZFLEFTMSB(t, (z_left * conf->batchDepth) >> ATON_CONVACC_ZFRAME_LEFT_
1818:Lib/AI_Runtime/Npu/ll_aton/ll_aton.c ****   t = ATON_CONVACC_ZFBIAS_SET_ZFRIGHTMSB(t, (z_right * conf->batchDepth) >> ATON_CONVACC_ZFRAME_RIG
1819:Lib/AI_Runtime/Npu/ll_aton/ll_aton.c **** #endif
1820:Lib/AI_Runtime/Npu/ll_aton/ll_aton.c **** 
1821:Lib/AI_Runtime/Npu/ll_aton/ll_aton.c ****   ATON_CONVACC_ZFBIAS_SET(id, t);
1822:Lib/AI_Runtime/Npu/ll_aton/ll_aton.c **** #endif
1823:Lib/AI_Runtime/Npu/ll_aton/ll_aton.c **** 
1824:Lib/AI_Runtime/Npu/ll_aton/ll_aton.c ****   return 0;
1825:Lib/AI_Runtime/Npu/ll_aton/ll_aton.c **** }
1826:Lib/AI_Runtime/Npu/ll_aton/ll_aton.c **** #endif // ATON_CONVACC_NUM
1827:Lib/AI_Runtime/Npu/ll_aton/ll_aton.c **** 
1828:Lib/AI_Runtime/Npu/ll_aton/ll_aton.c **** #ifdef ATON_ACTIV_NUM
1829:Lib/AI_Runtime/Npu/ll_aton/ll_aton.c **** 
1830:Lib/AI_Runtime/Npu/ll_aton/ll_aton.c **** static int32_t get_Activacc_type(LL_Activacc_Op op)
1831:Lib/AI_Runtime/Npu/ll_aton/ll_aton.c **** {
1832:Lib/AI_Runtime/Npu/ll_aton/ll_aton.c ****   switch (op)
1833:Lib/AI_Runtime/Npu/ll_aton/ll_aton.c ****   {
1834:Lib/AI_Runtime/Npu/ll_aton/ll_aton.c ****   case ACTIV_RELU:
1835:Lib/AI_Runtime/Npu/ll_aton/ll_aton.c ****     return ATON_ACTIVTYPE_RELU;
ARM GAS  /tmp/ccgbPSBw.s 			page 93


1836:Lib/AI_Runtime/Npu/ll_aton/ll_aton.c ****   case ACTIV_PRELU:
1837:Lib/AI_Runtime/Npu/ll_aton/ll_aton.c ****     return ATON_ACTIVTYPE_PRELU;
1838:Lib/AI_Runtime/Npu/ll_aton/ll_aton.c ****   case ACTIV_TRELU:
1839:Lib/AI_Runtime/Npu/ll_aton/ll_aton.c ****     return ATON_ACTIVTYPE_TRELU;
1840:Lib/AI_Runtime/Npu/ll_aton/ll_aton.c ****   case ACTIV_FUNC:
1841:Lib/AI_Runtime/Npu/ll_aton/ll_aton.c ****     return ATON_ACTIVTYPE_FUNCTION;
1842:Lib/AI_Runtime/Npu/ll_aton/ll_aton.c **** #if defined ATON_ACTIVTYPE_LUT
1843:Lib/AI_Runtime/Npu/ll_aton/ll_aton.c ****   case ACTIV_LUT:
1844:Lib/AI_Runtime/Npu/ll_aton/ll_aton.c ****     return ATON_ACTIVTYPE_LUT;
1845:Lib/AI_Runtime/Npu/ll_aton/ll_aton.c **** #endif
1846:Lib/AI_Runtime/Npu/ll_aton/ll_aton.c ****   default:
1847:Lib/AI_Runtime/Npu/ll_aton/ll_aton.c ****     break;
1848:Lib/AI_Runtime/Npu/ll_aton/ll_aton.c ****   }
1849:Lib/AI_Runtime/Npu/ll_aton/ll_aton.c ****   LL_ATON_ASSERT(0);
1850:Lib/AI_Runtime/Npu/ll_aton/ll_aton.c ****   return 0;
1851:Lib/AI_Runtime/Npu/ll_aton/ll_aton.c **** }
1852:Lib/AI_Runtime/Npu/ll_aton/ll_aton.c **** 
1853:Lib/AI_Runtime/Npu/ll_aton/ll_aton.c **** /**
1854:Lib/AI_Runtime/Npu/ll_aton/ll_aton.c ****  * @brief  Configures Activation Accelerator
1855:Lib/AI_Runtime/Npu/ll_aton/ll_aton.c ****  * @param  id Activation Accelerator identifier [0..ATON_ACTIV_NUM-1]
1856:Lib/AI_Runtime/Npu/ll_aton/ll_aton.c ****  * @param  Activacc_InitStruct Structure describing initialization parameters
1857:Lib/AI_Runtime/Npu/ll_aton/ll_aton.c ****  * @retval Error code E.g.: Invalid ID, invalid parameters, not idle,..
1858:Lib/AI_Runtime/Npu/ll_aton/ll_aton.c ****  */
1859:Lib/AI_Runtime/Npu/ll_aton/ll_aton.c **** int LL_Activacc_Init(int id, const LL_Activacc_InitTypeDef *conf)
1860:Lib/AI_Runtime/Npu/ll_aton/ll_aton.c **** {
1861:Lib/AI_Runtime/Npu/ll_aton/ll_aton.c ****   uint32_t t;
1862:Lib/AI_Runtime/Npu/ll_aton/ll_aton.c **** 
1863:Lib/AI_Runtime/Npu/ll_aton/ll_aton.c ****   if (id >= ATON_ACTIV_NUM)
1864:Lib/AI_Runtime/Npu/ll_aton/ll_aton.c ****     return LL_ATON_INVALID_ID;
1865:Lib/AI_Runtime/Npu/ll_aton/ll_aton.c **** 
1866:Lib/AI_Runtime/Npu/ll_aton/ll_aton.c ****   LL_ATON_EnableClock(ATON_ACTIV_CLKB_CLK(id));
1867:Lib/AI_Runtime/Npu/ll_aton/ll_aton.c **** 
1868:Lib/AI_Runtime/Npu/ll_aton/ll_aton.c ****   t = ATON_ACTIV_CTRL_DT;
1869:Lib/AI_Runtime/Npu/ll_aton/ll_aton.c ****   t = ATON_ACTIV_CTRL_SET_TYPE(t, get_Activacc_type(conf->operation));
1870:Lib/AI_Runtime/Npu/ll_aton/ll_aton.c ****   t = ATON_ACTIV_CTRL_SET_FBYTES(t, conf->inbytes_f);
1871:Lib/AI_Runtime/Npu/ll_aton/ll_aton.c ****   t = ATON_ACTIV_CTRL_SET_FSHIFT(t, ATON_SHIFT(conf->shift_f));
1872:Lib/AI_Runtime/Npu/ll_aton/ll_aton.c ****   t = ATON_ACTIV_CTRL_SET_FROUND(t, conf->rounding_f);
1873:Lib/AI_Runtime/Npu/ll_aton/ll_aton.c ****   t = ATON_ACTIV_CTRL_SET_FSAT(t, (conf->saturation_f != 0));
1874:Lib/AI_Runtime/Npu/ll_aton/ll_aton.c ****   t = ATON_ACTIV_CTRL_SET_FRNDMODE(t, conf->round_mode_f);
1875:Lib/AI_Runtime/Npu/ll_aton/ll_aton.c ****   t = ATON_ACTIV_CTRL_SET_FOBYTES(t, conf->outbytes_f);
1876:Lib/AI_Runtime/Npu/ll_aton/ll_aton.c **** 
1877:Lib/AI_Runtime/Npu/ll_aton/ll_aton.c ****   t = ATON_ACTIV_CTRL_SET_ROUND(t, (conf->rounding_o != 0));
1878:Lib/AI_Runtime/Npu/ll_aton/ll_aton.c ****   t = ATON_ACTIV_CTRL_SET_SAT(t, (conf->saturation_o != 0));
1879:Lib/AI_Runtime/Npu/ll_aton/ll_aton.c ****   t = ATON_ACTIV_CTRL_SET_OBYTES(t, conf->outbytes_o);
1880:Lib/AI_Runtime/Npu/ll_aton/ll_aton.c ****   t = ATON_ACTIV_CTRL_SET_ORNDMODE(t, (conf->relu_mode_o << 1) | conf->round_mode_o);
1881:Lib/AI_Runtime/Npu/ll_aton/ll_aton.c ****   ATON_ACTIV_CTRL_SET(id, t);
1882:Lib/AI_Runtime/Npu/ll_aton/ll_aton.c **** 
1883:Lib/AI_Runtime/Npu/ll_aton/ll_aton.c **** #if defined(ATON_ACTIV_FSUB_SET)
1884:Lib/AI_Runtime/Npu/ll_aton/ll_aton.c ****   if (conf->fsub != 0)
1885:Lib/AI_Runtime/Npu/ll_aton/ll_aton.c ****   {
1886:Lib/AI_Runtime/Npu/ll_aton/ll_aton.c ****     t = ATON_ACTIV_FSUB_DT;
1887:Lib/AI_Runtime/Npu/ll_aton/ll_aton.c ****     t = ATON_ACTIV_FSUB_SET_FSUB(t, conf->fsub);
1888:Lib/AI_Runtime/Npu/ll_aton/ll_aton.c ****     ATON_ACTIV_FSUB_SET(id, t);
1889:Lib/AI_Runtime/Npu/ll_aton/ll_aton.c ****   }
1890:Lib/AI_Runtime/Npu/ll_aton/ll_aton.c **** #endif
1891:Lib/AI_Runtime/Npu/ll_aton/ll_aton.c **** 
1892:Lib/AI_Runtime/Npu/ll_aton/ll_aton.c ****   switch (conf->operation)
ARM GAS  /tmp/ccgbPSBw.s 			page 94


1893:Lib/AI_Runtime/Npu/ll_aton/ll_aton.c ****   {
1894:Lib/AI_Runtime/Npu/ll_aton/ll_aton.c ****   case ACTIV_RELU:
1895:Lib/AI_Runtime/Npu/ll_aton/ll_aton.c ****   case ACTIV_PRELU:
1896:Lib/AI_Runtime/Npu/ll_aton/ll_aton.c ****   case ACTIV_TRELU:
1897:Lib/AI_Runtime/Npu/ll_aton/ll_aton.c ****     t = ATON_ACTIV_ACTIVPARAM_DT;
1898:Lib/AI_Runtime/Npu/ll_aton/ll_aton.c ****     t = ATON_ACTIV_ACTIVPARAM_SET_PARAM(t, conf->parameter);
1899:Lib/AI_Runtime/Npu/ll_aton/ll_aton.c ****     ATON_ACTIV_ACTIVPARAM_SET(id, t);
1900:Lib/AI_Runtime/Npu/ll_aton/ll_aton.c **** 
1901:Lib/AI_Runtime/Npu/ll_aton/ll_aton.c ****     t = ATON_ACTIV_ACTIVPARAM2_DT;
1902:Lib/AI_Runtime/Npu/ll_aton/ll_aton.c ****     t = ATON_ACTIV_ACTIVPARAM2_SET_PARAM2(t, conf->parameter_2);
1903:Lib/AI_Runtime/Npu/ll_aton/ll_aton.c ****     ATON_ACTIV_ACTIVPARAM2_SET(id, t);
1904:Lib/AI_Runtime/Npu/ll_aton/ll_aton.c **** 
1905:Lib/AI_Runtime/Npu/ll_aton/ll_aton.c ****     t = ATON_ACTIV_FUNC_DT;
1906:Lib/AI_Runtime/Npu/ll_aton/ll_aton.c ****     t = ATON_ACTIV_FUNC_SET_SIGNEDOP(t, (conf->signedop != 0));
1907:Lib/AI_Runtime/Npu/ll_aton/ll_aton.c ****     t = ATON_ACTIV_FUNC_SET_OUTSHIFT(t, conf->shift_o);
1908:Lib/AI_Runtime/Npu/ll_aton/ll_aton.c ****     ATON_ACTIV_FUNC_SET(id, t);
1909:Lib/AI_Runtime/Npu/ll_aton/ll_aton.c ****     break;
1910:Lib/AI_Runtime/Npu/ll_aton/ll_aton.c ****   case ACTIV_FUNC:
1911:Lib/AI_Runtime/Npu/ll_aton/ll_aton.c ****   {
1912:Lib/AI_Runtime/Npu/ll_aton/ll_aton.c ****     t = ATON_ACTIV_FUNC_DT;
1913:Lib/AI_Runtime/Npu/ll_aton/ll_aton.c ****     t = ATON_ACTIV_FUNC_SET_SIGNEDOP(t, (conf->signedop != 0));
1914:Lib/AI_Runtime/Npu/ll_aton/ll_aton.c ****     t = ATON_ACTIV_FUNC_SET_OUTSHIFT(t, conf->shift_o);
1915:Lib/AI_Runtime/Npu/ll_aton/ll_aton.c ****     t = ATON_ACTIV_FUNC_SET_BSHIFT(t, conf->shift_b);
1916:Lib/AI_Runtime/Npu/ll_aton/ll_aton.c ****     t = ATON_ACTIV_FUNC_SET_CSHIFT(t, conf->shift_c);
1917:Lib/AI_Runtime/Npu/ll_aton/ll_aton.c ****     t = ATON_ACTIV_FUNC_SET_BWIDTH(t, conf->bwidth);
1918:Lib/AI_Runtime/Npu/ll_aton/ll_aton.c ****     ATON_ACTIV_FUNC_SET(id, t);
1919:Lib/AI_Runtime/Npu/ll_aton/ll_aton.c **** 
1920:Lib/AI_Runtime/Npu/ll_aton/ll_aton.c ****     t = ATON_ACTIV_ACTIVPARAM_DT;
1921:Lib/AI_Runtime/Npu/ll_aton/ll_aton.c ****     t = ATON_ACTIV_ACTIVPARAM_SET_PARAM(t, conf->parameter);
1922:Lib/AI_Runtime/Npu/ll_aton/ll_aton.c ****     t = ATON_ACTIV_ACTIVPARAM_SET_FUNC(t, conf->shift_norm);
1923:Lib/AI_Runtime/Npu/ll_aton/ll_aton.c ****     ATON_ACTIV_ACTIVPARAM_SET(id, t);
1924:Lib/AI_Runtime/Npu/ll_aton/ll_aton.c **** 
1925:Lib/AI_Runtime/Npu/ll_aton/ll_aton.c ****     {
1926:Lib/AI_Runtime/Npu/ll_aton/ll_aton.c ****       uint8_t *R0p = (uint8_t *)conf->ROM0_vector.p;
1927:Lib/AI_Runtime/Npu/ll_aton/ll_aton.c ****       unsigned ROM0_rows = conf->ROM0_nbytes / (1 * 1);
1928:Lib/AI_Runtime/Npu/ll_aton/ll_aton.c ****       for (int i = 0; i < ROM0_rows; i++)
1929:Lib/AI_Runtime/Npu/ll_aton/ll_aton.c ****       {
1930:Lib/AI_Runtime/Npu/ll_aton/ll_aton.c ****         t = ATON_ACTIV_ROM0_DT;
1931:Lib/AI_Runtime/Npu/ll_aton/ll_aton.c ****         t = ATON_ACTIV_ROM0_SET_ENTRY(t, R0p[i]);
1932:Lib/AI_Runtime/Npu/ll_aton/ll_aton.c ****         ATON_ACTIV_ROM0_SET(id, i, t);
1933:Lib/AI_Runtime/Npu/ll_aton/ll_aton.c ****       }
1934:Lib/AI_Runtime/Npu/ll_aton/ll_aton.c ****     }
1935:Lib/AI_Runtime/Npu/ll_aton/ll_aton.c ****     {
1936:Lib/AI_Runtime/Npu/ll_aton/ll_aton.c ****       uint16_t *R1p = (uint16_t *)conf->ROM1_vector.p;
1937:Lib/AI_Runtime/Npu/ll_aton/ll_aton.c ****       unsigned ROM1_rows = conf->ROM1_nbytes / (3 * 2);
1938:Lib/AI_Runtime/Npu/ll_aton/ll_aton.c ****       for (int i = 0; i < ROM1_rows; i++)
1939:Lib/AI_Runtime/Npu/ll_aton/ll_aton.c ****       {
1940:Lib/AI_Runtime/Npu/ll_aton/ll_aton.c ****         t = ATON_ACTIV_ROM1_AB_DT;
1941:Lib/AI_Runtime/Npu/ll_aton/ll_aton.c ****         t = ATON_ACTIV_ROM1_AB_SET_A(t, R1p[3 * i + 0]);
1942:Lib/AI_Runtime/Npu/ll_aton/ll_aton.c ****         t = ATON_ACTIV_ROM1_AB_SET_B(t, R1p[3 * i + 1]);
1943:Lib/AI_Runtime/Npu/ll_aton/ll_aton.c ****         ATON_ACTIV_ROM1_AB_SET(id, i, t);
1944:Lib/AI_Runtime/Npu/ll_aton/ll_aton.c ****         t = ATON_ACTIV_ROM1_C_DT;
1945:Lib/AI_Runtime/Npu/ll_aton/ll_aton.c ****         t = ATON_ACTIV_ROM1_C_SET_C(t, R1p[3 * i + 2]);
1946:Lib/AI_Runtime/Npu/ll_aton/ll_aton.c ****         ATON_ACTIV_ROM1_C_SET(id, i, t);
1947:Lib/AI_Runtime/Npu/ll_aton/ll_aton.c ****       }
1948:Lib/AI_Runtime/Npu/ll_aton/ll_aton.c ****     }
1949:Lib/AI_Runtime/Npu/ll_aton/ll_aton.c ****   }
ARM GAS  /tmp/ccgbPSBw.s 			page 95


1950:Lib/AI_Runtime/Npu/ll_aton/ll_aton.c ****   break;
1951:Lib/AI_Runtime/Npu/ll_aton/ll_aton.c ****   case ACTIV_LUT:
1952:Lib/AI_Runtime/Npu/ll_aton/ll_aton.c **** #if defined ATON_ACTIVTYPE_LUT
1953:Lib/AI_Runtime/Npu/ll_aton/ll_aton.c ****   {
1954:Lib/AI_Runtime/Npu/ll_aton/ll_aton.c ****     uint8_t *Lutp = (uint8_t *)conf->LUT_vector.p;
1955:Lib/AI_Runtime/Npu/ll_aton/ll_aton.c ****     for (int i = 0; i < 64; i++)
1956:Lib/AI_Runtime/Npu/ll_aton/ll_aton.c ****     {
1957:Lib/AI_Runtime/Npu/ll_aton/ll_aton.c ****       uint32_t val = ATON_ACTIV_LUT_DT;
1958:Lib/AI_Runtime/Npu/ll_aton/ll_aton.c ****       val = ATON_ACTIV_LUT_SET_MOD8_1(val, Lutp[4 * i]);
1959:Lib/AI_Runtime/Npu/ll_aton/ll_aton.c ****       val = ATON_ACTIV_LUT_SET_MOD8_2(val, Lutp[4 * i + 1]);
1960:Lib/AI_Runtime/Npu/ll_aton/ll_aton.c ****       val = ATON_ACTIV_LUT_SET_MOD8_3(val, Lutp[4 * i + 2]);
1961:Lib/AI_Runtime/Npu/ll_aton/ll_aton.c ****       val = ATON_ACTIV_LUT_SET_MOD8_4(val, Lutp[4 * i + 3]);
1962:Lib/AI_Runtime/Npu/ll_aton/ll_aton.c ****       ATON_ACTIV_LUT_SET(id, i, val);
1963:Lib/AI_Runtime/Npu/ll_aton/ll_aton.c ****     }
1964:Lib/AI_Runtime/Npu/ll_aton/ll_aton.c ****   }
1965:Lib/AI_Runtime/Npu/ll_aton/ll_aton.c **** #else
1966:Lib/AI_Runtime/Npu/ll_aton/ll_aton.c ****     assert("Unsupported Activation LUT configuration");
1967:Lib/AI_Runtime/Npu/ll_aton/ll_aton.c **** #endif
1968:Lib/AI_Runtime/Npu/ll_aton/ll_aton.c ****   break;
1969:Lib/AI_Runtime/Npu/ll_aton/ll_aton.c ****   default:
1970:Lib/AI_Runtime/Npu/ll_aton/ll_aton.c ****     return -1;
1971:Lib/AI_Runtime/Npu/ll_aton/ll_aton.c ****   }
1972:Lib/AI_Runtime/Npu/ll_aton/ll_aton.c **** 
1973:Lib/AI_Runtime/Npu/ll_aton/ll_aton.c ****   return 0;
1974:Lib/AI_Runtime/Npu/ll_aton/ll_aton.c **** }
1975:Lib/AI_Runtime/Npu/ll_aton/ll_aton.c **** #endif // ATON_ACTIV_NUM
1976:Lib/AI_Runtime/Npu/ll_aton/ll_aton.c **** 
1977:Lib/AI_Runtime/Npu/ll_aton/ll_aton.c **** #ifdef ATON_ARITH_NUM
1978:Lib/AI_Runtime/Npu/ll_aton/ll_aton.c **** 
1979:Lib/AI_Runtime/Npu/ll_aton/ll_aton.c **** static int32_t get_Arithacc_type(LL_Arithacc_Op op)
1980:Lib/AI_Runtime/Npu/ll_aton/ll_aton.c **** {
1981:Lib/AI_Runtime/Npu/ll_aton/ll_aton.c ****   switch (op)
1982:Lib/AI_Runtime/Npu/ll_aton/ll_aton.c ****   {
1983:Lib/AI_Runtime/Npu/ll_aton/ll_aton.c ****   case ARITH_AFFINE:
1984:Lib/AI_Runtime/Npu/ll_aton/ll_aton.c ****     return ATON_ARITHOP_AX_BY_C;
1985:Lib/AI_Runtime/Npu/ll_aton/ll_aton.c ****   case ARITH_MIN:
1986:Lib/AI_Runtime/Npu/ll_aton/ll_aton.c ****     return ATON_ARITHOP_MIN_X_Y;
1987:Lib/AI_Runtime/Npu/ll_aton/ll_aton.c ****   case ARITH_MAX:
1988:Lib/AI_Runtime/Npu/ll_aton/ll_aton.c ****     return ATON_ARITHOP_MAX_X_Y;
1989:Lib/AI_Runtime/Npu/ll_aton/ll_aton.c ****   case ARITH_MUL:
1990:Lib/AI_Runtime/Npu/ll_aton/ll_aton.c ****     return ATON_ARITHOP_XY;
1991:Lib/AI_Runtime/Npu/ll_aton/ll_aton.c ****   case ARITH_X_AND_Y:
1992:Lib/AI_Runtime/Npu/ll_aton/ll_aton.c ****     return ATON_ARITHOP_X_AND_Y;
1993:Lib/AI_Runtime/Npu/ll_aton/ll_aton.c ****   case ARITH_X_OR_Y:
1994:Lib/AI_Runtime/Npu/ll_aton/ll_aton.c ****     return ATON_ARITHOP_X_OR_Y;
1995:Lib/AI_Runtime/Npu/ll_aton/ll_aton.c ****   case ARITH_NOT_X:
1996:Lib/AI_Runtime/Npu/ll_aton/ll_aton.c ****     return ATON_ARITHOP_NOT_X;
1997:Lib/AI_Runtime/Npu/ll_aton/ll_aton.c ****   case ARITH_X_XOR_Y:
1998:Lib/AI_Runtime/Npu/ll_aton/ll_aton.c ****     return ATON_ARITHOP_X_XOR_Y;
1999:Lib/AI_Runtime/Npu/ll_aton/ll_aton.c ****   case ARITH_X_EQ_Y:
2000:Lib/AI_Runtime/Npu/ll_aton/ll_aton.c ****     return ATON_ARITHOP_X_EQ_Y;
2001:Lib/AI_Runtime/Npu/ll_aton/ll_aton.c ****   case ARITH_X_LT_Y:
2002:Lib/AI_Runtime/Npu/ll_aton/ll_aton.c ****     return ATON_ARITHOP_X_LT_Y;
2003:Lib/AI_Runtime/Npu/ll_aton/ll_aton.c ****   case ARITH_X_LE_Y:
2004:Lib/AI_Runtime/Npu/ll_aton/ll_aton.c ****     return ATON_ARITHOP_X_LE_Y;
2005:Lib/AI_Runtime/Npu/ll_aton/ll_aton.c ****   case ARITH_X_GT_Y:
2006:Lib/AI_Runtime/Npu/ll_aton/ll_aton.c ****     return ATON_ARITHOP_X_GT_Y;
ARM GAS  /tmp/ccgbPSBw.s 			page 96


2007:Lib/AI_Runtime/Npu/ll_aton/ll_aton.c ****   case ARITH_X_GE_Y:
2008:Lib/AI_Runtime/Npu/ll_aton/ll_aton.c ****     return ATON_ARITHOP_X_GE_Y;
2009:Lib/AI_Runtime/Npu/ll_aton/ll_aton.c ****   case ARITH_ABS_X:
2010:Lib/AI_Runtime/Npu/ll_aton/ll_aton.c ****     return ATON_ARITHOP_ABS_X;
2011:Lib/AI_Runtime/Npu/ll_aton/ll_aton.c ****   case ARITH_SIGN_X:
2012:Lib/AI_Runtime/Npu/ll_aton/ll_aton.c ****     return ATON_ARITHOP_SIGN_X;
2013:Lib/AI_Runtime/Npu/ll_aton/ll_aton.c ****   case ARITH_CLIP:
2014:Lib/AI_Runtime/Npu/ll_aton/ll_aton.c ****     return ATON_ARITHOP_CLIP;
2015:Lib/AI_Runtime/Npu/ll_aton/ll_aton.c ****   default:
2016:Lib/AI_Runtime/Npu/ll_aton/ll_aton.c ****     break;
2017:Lib/AI_Runtime/Npu/ll_aton/ll_aton.c ****   }
2018:Lib/AI_Runtime/Npu/ll_aton/ll_aton.c ****   LL_ATON_ASSERT(0);
2019:Lib/AI_Runtime/Npu/ll_aton/ll_aton.c ****   return 0;
2020:Lib/AI_Runtime/Npu/ll_aton/ll_aton.c **** }
2021:Lib/AI_Runtime/Npu/ll_aton/ll_aton.c **** 
2022:Lib/AI_Runtime/Npu/ll_aton/ll_aton.c **** /**
2023:Lib/AI_Runtime/Npu/ll_aton/ll_aton.c ****  * @brief  Configures Arithmetic Accelerator
2024:Lib/AI_Runtime/Npu/ll_aton/ll_aton.c ****  * @param  id Arithmetic Accelerator identifier [0..ATON_ARITH_NUM-1]
2025:Lib/AI_Runtime/Npu/ll_aton/ll_aton.c ****  * @param  Arithacc_InitStruct Structure describing initialization parameters
2026:Lib/AI_Runtime/Npu/ll_aton/ll_aton.c ****  * @retval Error code E.g.: Invalid ID, invalid parameters, not idle,..
2027:Lib/AI_Runtime/Npu/ll_aton/ll_aton.c ****  */
2028:Lib/AI_Runtime/Npu/ll_aton/ll_aton.c **** int LL_Arithacc_Init(int id, const LL_Arithacc_InitTypeDef *conf)
2029:Lib/AI_Runtime/Npu/ll_aton/ll_aton.c **** {
2030:Lib/AI_Runtime/Npu/ll_aton/ll_aton.c ****   uint32_t t;
2031:Lib/AI_Runtime/Npu/ll_aton/ll_aton.c ****   char sshift;
2032:Lib/AI_Runtime/Npu/ll_aton/ll_aton.c **** 
2033:Lib/AI_Runtime/Npu/ll_aton/ll_aton.c ****   if (id >= ATON_ARITH_NUM)
2034:Lib/AI_Runtime/Npu/ll_aton/ll_aton.c ****     return LL_ATON_INVALID_ID;
2035:Lib/AI_Runtime/Npu/ll_aton/ll_aton.c **** 
2036:Lib/AI_Runtime/Npu/ll_aton/ll_aton.c ****   /* Deal with Arith Acc V3 shifts extensions */
2037:Lib/AI_Runtime/Npu/ll_aton/ll_aton.c ****   if (ATON_ARITH_VERSION_MAJOR_DT >= 3)
2038:Lib/AI_Runtime/Npu/ll_aton/ll_aton.c ****     sshift = 16;
2039:Lib/AI_Runtime/Npu/ll_aton/ll_aton.c ****   else
2040:Lib/AI_Runtime/Npu/ll_aton/ll_aton.c ****     sshift = 0;
2041:Lib/AI_Runtime/Npu/ll_aton/ll_aton.c **** 
2042:Lib/AI_Runtime/Npu/ll_aton/ll_aton.c ****   LL_ATON_EnableClock(ATON_ARITH_CLKB_CLK(id));
2043:Lib/AI_Runtime/Npu/ll_aton/ll_aton.c **** 
2044:Lib/AI_Runtime/Npu/ll_aton/ll_aton.c ****   t = ATON_ARITH_CTRL_DT;
2045:Lib/AI_Runtime/Npu/ll_aton/ll_aton.c ****   ATON_ARITH_CTRL_SET(id, t);
2046:Lib/AI_Runtime/Npu/ll_aton/ll_aton.c **** 
2047:Lib/AI_Runtime/Npu/ll_aton/ll_aton.c ****   t = ATON_ARITH_CTRL_DT;
2048:Lib/AI_Runtime/Npu/ll_aton/ll_aton.c ****   t = ATON_ARITH_CTRL_SET_CNT1(t, (conf->scalar == 0)); // these must be handled yet FIXME !!!
2049:Lib/AI_Runtime/Npu/ll_aton/ll_aton.c ****   t = ATON_ARITH_CTRL_SET_CNT2(t, (conf->scalar == 0) && (conf->bcast == ARITH_BCAST_CHAN));
2050:Lib/AI_Runtime/Npu/ll_aton/ll_aton.c ****   t = ATON_ARITH_CTRL_SET_CNT3(t, (conf->scalar == 0) && (conf->bcast == ARITH_BCAST_CHAN));
2051:Lib/AI_Runtime/Npu/ll_aton/ll_aton.c ****   t = ATON_ARITH_CTRL_SET_ROUND(t, (conf->rounding_o != 0));
2052:Lib/AI_Runtime/Npu/ll_aton/ll_aton.c ****   t = ATON_ARITH_CTRL_SET_ORNDMODE(t, (conf->relu_mode_o << 1) | conf->round_mode_o);
2053:Lib/AI_Runtime/Npu/ll_aton/ll_aton.c ****   // t = ATON_ARITH_CTRL_SET_OBYTES(t,((conf->dataw_o + 7) >> 3));
2054:Lib/AI_Runtime/Npu/ll_aton/ll_aton.c ****   t = ATON_ARITH_CTRL_SET_OBYTES(t, conf->outbytes_o);
2055:Lib/AI_Runtime/Npu/ll_aton/ll_aton.c ****   t = ATON_ARITH_CTRL_SET_SAT(t, (conf->saturation_o != 0));
2056:Lib/AI_Runtime/Npu/ll_aton/ll_aton.c ****   t = ATON_ARITH_CTRL_SET_COEFFA(t, (conf->scalar == 0));
2057:Lib/AI_Runtime/Npu/ll_aton/ll_aton.c ****   t = ATON_ARITH_CTRL_SET_COEFFB(t, (conf->scalar == 0));
2058:Lib/AI_Runtime/Npu/ll_aton/ll_aton.c ****   t = ATON_ARITH_CTRL_SET_COEFFC(t, (conf->scalar == 0));
2059:Lib/AI_Runtime/Npu/ll_aton/ll_aton.c ****   t = ATON_ARITH_CTRL_SET_DUALIN(t, (conf->dualinput != 0));
2060:Lib/AI_Runtime/Npu/ll_aton/ll_aton.c ****   t = ATON_ARITH_CTRL_SET_COMBINEBC(t, (conf->combinebc != 0));
2061:Lib/AI_Runtime/Npu/ll_aton/ll_aton.c **** #ifdef ATON_ARITH_CTRL_SET_CLIPOUT
2062:Lib/AI_Runtime/Npu/ll_aton/ll_aton.c ****   t = ATON_ARITH_CTRL_SET_CLIPOUT(t, (conf->clipout != 0));
2063:Lib/AI_Runtime/Npu/ll_aton/ll_aton.c **** #endif
ARM GAS  /tmp/ccgbPSBw.s 			page 97


2064:Lib/AI_Runtime/Npu/ll_aton/ll_aton.c ****   t = ATON_ARITH_CTRL_SET_OP(t, get_Arithacc_type(conf->operation));
2065:Lib/AI_Runtime/Npu/ll_aton/ll_aton.c ****   if (conf->operation == ARITH_NOT_X)
2066:Lib/AI_Runtime/Npu/ll_aton/ll_aton.c ****   { // WORKAROUND
2067:Lib/AI_Runtime/Npu/ll_aton/ll_aton.c ****     t = ATON_ARITH_CTRL_SET_LOGICALOP(t, 1);
2068:Lib/AI_Runtime/Npu/ll_aton/ll_aton.c ****   }
2069:Lib/AI_Runtime/Npu/ll_aton/ll_aton.c ****   ATON_ARITH_CTRL_SET(id, t);
2070:Lib/AI_Runtime/Npu/ll_aton/ll_aton.c **** 
2071:Lib/AI_Runtime/Npu/ll_aton/ll_aton.c ****   t = ATON_ARITH_INSHIFTER_DT;
2072:Lib/AI_Runtime/Npu/ll_aton/ll_aton.c ****   t = ATON_ARITH_INSHIFTER_SET_FBYTESX(t, conf->inbytes_x);
2073:Lib/AI_Runtime/Npu/ll_aton/ll_aton.c ****   t = ATON_ARITH_INSHIFTER_SET_FSHIFTX(t, ATON_SHIFT(conf->shift_x));
2074:Lib/AI_Runtime/Npu/ll_aton/ll_aton.c ****   t = ATON_ARITH_INSHIFTER_SET_FROUNDX(t, (conf->rounding_x != 0));
2075:Lib/AI_Runtime/Npu/ll_aton/ll_aton.c ****   t = ATON_ARITH_INSHIFTER_SET_FSATX(t, (conf->saturation_x != 0));
2076:Lib/AI_Runtime/Npu/ll_aton/ll_aton.c ****   t = ATON_ARITH_INSHIFTER_SET_FRNDMODEX(t, conf->round_mode_x);
2077:Lib/AI_Runtime/Npu/ll_aton/ll_aton.c ****   t = ATON_ARITH_INSHIFTER_SET_FOBYTESX(t, conf->outbytes_x);
2078:Lib/AI_Runtime/Npu/ll_aton/ll_aton.c **** 
2079:Lib/AI_Runtime/Npu/ll_aton/ll_aton.c ****   t = ATON_ARITH_INSHIFTER_SET_FBYTESY(t, conf->inbytes_y);
2080:Lib/AI_Runtime/Npu/ll_aton/ll_aton.c ****   t = ATON_ARITH_INSHIFTER_SET_FSHIFTY(t, ATON_SHIFT(conf->shift_y));
2081:Lib/AI_Runtime/Npu/ll_aton/ll_aton.c ****   t = ATON_ARITH_INSHIFTER_SET_FROUNDY(t, (conf->rounding_y != 0));
2082:Lib/AI_Runtime/Npu/ll_aton/ll_aton.c ****   t = ATON_ARITH_INSHIFTER_SET_FSATY(t, (conf->saturation_y != 0));
2083:Lib/AI_Runtime/Npu/ll_aton/ll_aton.c ****   t = ATON_ARITH_INSHIFTER_SET_FRNDMODEY(t, conf->round_mode_y);
2084:Lib/AI_Runtime/Npu/ll_aton/ll_aton.c ****   t = ATON_ARITH_INSHIFTER_SET_FOBYTESY(t, conf->outbytes_y);
2085:Lib/AI_Runtime/Npu/ll_aton/ll_aton.c ****   ATON_ARITH_INSHIFTER_SET(id, t);
2086:Lib/AI_Runtime/Npu/ll_aton/ll_aton.c **** 
2087:Lib/AI_Runtime/Npu/ll_aton/ll_aton.c ****   t = ATON_ARITH_SHIFT_DT;
2088:Lib/AI_Runtime/Npu/ll_aton/ll_aton.c ****   t = ATON_ARITH_SHIFT_SET_AX(t, conf->Ax_shift + sshift);
2089:Lib/AI_Runtime/Npu/ll_aton/ll_aton.c ****   t = ATON_ARITH_SHIFT_SET_BY(t, conf->By_shift + sshift);
2090:Lib/AI_Runtime/Npu/ll_aton/ll_aton.c ****   t = ATON_ARITH_SHIFT_SET_C(t, conf->C_shift + sshift);
2091:Lib/AI_Runtime/Npu/ll_aton/ll_aton.c ****   t = ATON_ARITH_SHIFT_SET_RES(t, conf->shift_o); // right shift only
2092:Lib/AI_Runtime/Npu/ll_aton/ll_aton.c ****   ATON_ARITH_SHIFT_SET(id, t);
2093:Lib/AI_Runtime/Npu/ll_aton/ll_aton.c **** 
2094:Lib/AI_Runtime/Npu/ll_aton/ll_aton.c ****   t = ATON_ARITH_COEFFAC_DT;
2095:Lib/AI_Runtime/Npu/ll_aton/ll_aton.c ****   t = ATON_ARITH_COEFFAC_SET_A(t, conf->A_scalar);
2096:Lib/AI_Runtime/Npu/ll_aton/ll_aton.c ****   t = ATON_ARITH_COEFFAC_SET_C(t, conf->C_scalar);
2097:Lib/AI_Runtime/Npu/ll_aton/ll_aton.c ****   ATON_ARITH_COEFFAC_SET(id, t);
2098:Lib/AI_Runtime/Npu/ll_aton/ll_aton.c **** 
2099:Lib/AI_Runtime/Npu/ll_aton/ll_aton.c ****   t = ATON_ARITH_COEFFB_DT;
2100:Lib/AI_Runtime/Npu/ll_aton/ll_aton.c ****   t = ATON_ARITH_COEFFB_SET_B(t, conf->B_scalar);
2101:Lib/AI_Runtime/Npu/ll_aton/ll_aton.c ****   ATON_ARITH_COEFFB_SET(id, t);
2102:Lib/AI_Runtime/Npu/ll_aton/ll_aton.c **** 
2103:Lib/AI_Runtime/Npu/ll_aton/ll_aton.c **** #ifdef ATON_ARITH_CLIPRANGE_SET
2104:Lib/AI_Runtime/Npu/ll_aton/ll_aton.c ****   if (conf->clipout)
2105:Lib/AI_Runtime/Npu/ll_aton/ll_aton.c ****   {
2106:Lib/AI_Runtime/Npu/ll_aton/ll_aton.c ****     t = ATON_ARITH_CLIPRANGE_DT;
2107:Lib/AI_Runtime/Npu/ll_aton/ll_aton.c ****     t = ATON_ARITH_CLIPRANGE_SET_CLIPMAX(t, (conf->clipmax & 0xFFFFU));
2108:Lib/AI_Runtime/Npu/ll_aton/ll_aton.c ****     t = ATON_ARITH_CLIPRANGE_SET_CLIPMIN(t, (conf->clipmin & 0xFFFFU));
2109:Lib/AI_Runtime/Npu/ll_aton/ll_aton.c ****     ATON_ARITH_CLIPRANGE_SET(id, t);
2110:Lib/AI_Runtime/Npu/ll_aton/ll_aton.c **** 
2111:Lib/AI_Runtime/Npu/ll_aton/ll_aton.c **** #ifdef ATON_ARITH_CLIPRANGE_MSB_SET
2112:Lib/AI_Runtime/Npu/ll_aton/ll_aton.c ****     t = ATON_ARITH_CLIPRANGE_MSB_DT;
2113:Lib/AI_Runtime/Npu/ll_aton/ll_aton.c ****     t = ATON_ARITH_CLIPRANGE_MSB_SET_CLIPMAX(t, (conf->clipmax >> 16));
2114:Lib/AI_Runtime/Npu/ll_aton/ll_aton.c ****     t = ATON_ARITH_CLIPRANGE_MSB_SET_CLIPMIN(t, (conf->clipmin >> 16));
2115:Lib/AI_Runtime/Npu/ll_aton/ll_aton.c ****     ATON_ARITH_CLIPRANGE_MSB_SET(id, t);
2116:Lib/AI_Runtime/Npu/ll_aton/ll_aton.c **** #endif
2117:Lib/AI_Runtime/Npu/ll_aton/ll_aton.c ****   }
2118:Lib/AI_Runtime/Npu/ll_aton/ll_aton.c **** #endif
2119:Lib/AI_Runtime/Npu/ll_aton/ll_aton.c **** 
2120:Lib/AI_Runtime/Npu/ll_aton/ll_aton.c ****   ATON_ARITH_COEFFADDR_SET(id, 0);
ARM GAS  /tmp/ccgbPSBw.s 			page 98


2121:Lib/AI_Runtime/Npu/ll_aton/ll_aton.c **** 
2122:Lib/AI_Runtime/Npu/ll_aton/ll_aton.c ****   int maxc = 0;
2123:Lib/AI_Runtime/Npu/ll_aton/ll_aton.c ****   if (conf->scalar == 0)
2124:Lib/AI_Runtime/Npu/ll_aton/ll_aton.c ****   { // vector mode
2125:Lib/AI_Runtime/Npu/ll_aton/ll_aton.c ****     switch (conf->bcast)
2126:Lib/AI_Runtime/Npu/ll_aton/ll_aton.c ****     {
2127:Lib/AI_Runtime/Npu/ll_aton/ll_aton.c ****     case ARITH_BCAST_CHAN:
2128:Lib/AI_Runtime/Npu/ll_aton/ll_aton.c ****       t = ATON_ARITH_INCCNT_SET_INCVAL(0, 0);
2129:Lib/AI_Runtime/Npu/ll_aton/ll_aton.c ****       ATON_ARITH_INCCNT_SET(id, t);
2130:Lib/AI_Runtime/Npu/ll_aton/ll_aton.c **** 
2131:Lib/AI_Runtime/Npu/ll_aton/ll_aton.c ****       t = ATON_ARITH_RSTCNT1_SET_RSTCNT(0, (conf->batchDepth - 1));
2132:Lib/AI_Runtime/Npu/ll_aton/ll_aton.c ****       ATON_ARITH_RSTCNT1_SET(id, t);
2133:Lib/AI_Runtime/Npu/ll_aton/ll_aton.c **** 
2134:Lib/AI_Runtime/Npu/ll_aton/ll_aton.c ****       t = ATON_ARITH_RSTCNT2_SET_RSTCNT(
2135:Lib/AI_Runtime/Npu/ll_aton/ll_aton.c ****           0, (conf->fWidth * conf->fHeight * conf->batchDepth - 1)); // must check this fits into 2
2136:Lib/AI_Runtime/Npu/ll_aton/ll_aton.c ****       ATON_ARITH_RSTCNT2_SET(id, t);
2137:Lib/AI_Runtime/Npu/ll_aton/ll_aton.c **** 
2138:Lib/AI_Runtime/Npu/ll_aton/ll_aton.c ****       t = ATON_ARITH_RSTCNT3_SET_RSTCNT(
2139:Lib/AI_Runtime/Npu/ll_aton/ll_aton.c ****           0, (conf->fWidth * conf->fHeight * conf->fChannels - 1)); // must check this fits into 27
2140:Lib/AI_Runtime/Npu/ll_aton/ll_aton.c ****       ATON_ARITH_RSTCNT3_SET(id, t);
2141:Lib/AI_Runtime/Npu/ll_aton/ll_aton.c **** 
2142:Lib/AI_Runtime/Npu/ll_aton/ll_aton.c ****       t = ATON_ARITH_INCOFFSET_SET_VAL(0, 1);
2143:Lib/AI_Runtime/Npu/ll_aton/ll_aton.c ****       ATON_ARITH_INCOFFSET_SET(id, t);
2144:Lib/AI_Runtime/Npu/ll_aton/ll_aton.c **** 
2145:Lib/AI_Runtime/Npu/ll_aton/ll_aton.c ****       t = ATON_ARITH_ADDROFFSET_SET_OFFSET1(0, -(conf->batchDepth - 1));
2146:Lib/AI_Runtime/Npu/ll_aton/ll_aton.c ****       t = ATON_ARITH_ADDROFFSET_SET_OFFSET2(t, 1);
2147:Lib/AI_Runtime/Npu/ll_aton/ll_aton.c ****       t = ATON_ARITH_ADDROFFSET_SET_OFFSET3(t, -(conf->fChannels - 1));
2148:Lib/AI_Runtime/Npu/ll_aton/ll_aton.c ****       ATON_ARITH_ADDROFFSET_SET(id, t);
2149:Lib/AI_Runtime/Npu/ll_aton/ll_aton.c ****       maxc = conf->fChannels;
2150:Lib/AI_Runtime/Npu/ll_aton/ll_aton.c ****       break;
2151:Lib/AI_Runtime/Npu/ll_aton/ll_aton.c ****     case ARITH_BCAST_HEIGHT:
2152:Lib/AI_Runtime/Npu/ll_aton/ll_aton.c ****       t = ATON_ARITH_INCCNT_SET_INCVAL(0, (conf->fWidth * conf->batchDepth - 1));
2153:Lib/AI_Runtime/Npu/ll_aton/ll_aton.c ****       ATON_ARITH_INCCNT_SET(id, t);
2154:Lib/AI_Runtime/Npu/ll_aton/ll_aton.c **** 
2155:Lib/AI_Runtime/Npu/ll_aton/ll_aton.c ****       t = ATON_ARITH_RSTCNT1_SET_RSTCNT(0, (conf->fWidth * conf->fHeight * conf->batchDepth - 1));
2156:Lib/AI_Runtime/Npu/ll_aton/ll_aton.c ****       ATON_ARITH_RSTCNT1_SET(id, t);
2157:Lib/AI_Runtime/Npu/ll_aton/ll_aton.c **** 
2158:Lib/AI_Runtime/Npu/ll_aton/ll_aton.c ****       t = ATON_ARITH_INCOFFSET_SET_VAL(0, 1);
2159:Lib/AI_Runtime/Npu/ll_aton/ll_aton.c ****       ATON_ARITH_INCOFFSET_SET(id, t);
2160:Lib/AI_Runtime/Npu/ll_aton/ll_aton.c **** 
2161:Lib/AI_Runtime/Npu/ll_aton/ll_aton.c ****       t = ATON_ARITH_ADDROFFSET_SET_OFFSET1(0, -(conf->fHeight - 1));
2162:Lib/AI_Runtime/Npu/ll_aton/ll_aton.c ****       ATON_ARITH_ADDROFFSET_SET(id, t);
2163:Lib/AI_Runtime/Npu/ll_aton/ll_aton.c ****       maxc = conf->fHeight;
2164:Lib/AI_Runtime/Npu/ll_aton/ll_aton.c ****       break;
2165:Lib/AI_Runtime/Npu/ll_aton/ll_aton.c ****     case ARITH_BCAST_WIDTH:
2166:Lib/AI_Runtime/Npu/ll_aton/ll_aton.c ****       t = ATON_ARITH_INCCNT_SET_INCVAL(0, (conf->batchDepth - 1));
2167:Lib/AI_Runtime/Npu/ll_aton/ll_aton.c ****       ATON_ARITH_INCCNT_SET(id, t);
2168:Lib/AI_Runtime/Npu/ll_aton/ll_aton.c **** 
2169:Lib/AI_Runtime/Npu/ll_aton/ll_aton.c ****       t = ATON_ARITH_RSTCNT1_SET_RSTCNT(0, (conf->fWidth * conf->batchDepth - 1));
2170:Lib/AI_Runtime/Npu/ll_aton/ll_aton.c ****       ATON_ARITH_RSTCNT1_SET(id, t);
2171:Lib/AI_Runtime/Npu/ll_aton/ll_aton.c **** 
2172:Lib/AI_Runtime/Npu/ll_aton/ll_aton.c ****       t = ATON_ARITH_INCOFFSET_SET_VAL(0, 1);
2173:Lib/AI_Runtime/Npu/ll_aton/ll_aton.c ****       ATON_ARITH_INCOFFSET_SET(id, t);
2174:Lib/AI_Runtime/Npu/ll_aton/ll_aton.c **** 
2175:Lib/AI_Runtime/Npu/ll_aton/ll_aton.c ****       t = ATON_ARITH_ADDROFFSET_SET_OFFSET1(0, -(conf->fWidth - 1));
2176:Lib/AI_Runtime/Npu/ll_aton/ll_aton.c ****       ATON_ARITH_ADDROFFSET_SET(id, t);
2177:Lib/AI_Runtime/Npu/ll_aton/ll_aton.c ****       maxc = conf->fWidth;
ARM GAS  /tmp/ccgbPSBw.s 			page 99


2178:Lib/AI_Runtime/Npu/ll_aton/ll_aton.c ****       break;
2179:Lib/AI_Runtime/Npu/ll_aton/ll_aton.c ****     case ARITH_BCAST_HEIGHT_WIDTH:
2180:Lib/AI_Runtime/Npu/ll_aton/ll_aton.c ****       t = ATON_ARITH_INCCNT_SET_INCVAL(0, (conf->batchDepth - 1));
2181:Lib/AI_Runtime/Npu/ll_aton/ll_aton.c ****       ATON_ARITH_INCCNT_SET(id, t);
2182:Lib/AI_Runtime/Npu/ll_aton/ll_aton.c **** 
2183:Lib/AI_Runtime/Npu/ll_aton/ll_aton.c ****       t = ATON_ARITH_RSTCNT1_SET_RSTCNT(0, (conf->fHeight * conf->fWidth * conf->batchDepth - 1));
2184:Lib/AI_Runtime/Npu/ll_aton/ll_aton.c ****       ATON_ARITH_RSTCNT1_SET(id, t);
2185:Lib/AI_Runtime/Npu/ll_aton/ll_aton.c **** 
2186:Lib/AI_Runtime/Npu/ll_aton/ll_aton.c ****       t = ATON_ARITH_INCOFFSET_SET_VAL(0, 1);
2187:Lib/AI_Runtime/Npu/ll_aton/ll_aton.c ****       ATON_ARITH_INCOFFSET_SET(id, t);
2188:Lib/AI_Runtime/Npu/ll_aton/ll_aton.c **** 
2189:Lib/AI_Runtime/Npu/ll_aton/ll_aton.c ****       t = ATON_ARITH_ADDROFFSET_SET_OFFSET1(0, -(conf->fHeight * conf->fWidth - 1));
2190:Lib/AI_Runtime/Npu/ll_aton/ll_aton.c ****       ATON_ARITH_ADDROFFSET_SET(id, t);
2191:Lib/AI_Runtime/Npu/ll_aton/ll_aton.c ****       maxc = conf->fHeight * conf->fWidth;
2192:Lib/AI_Runtime/Npu/ll_aton/ll_aton.c ****       break;
2193:Lib/AI_Runtime/Npu/ll_aton/ll_aton.c ****     case ARITH_BCAST_SCALAR:
2194:Lib/AI_Runtime/Npu/ll_aton/ll_aton.c ****       t = ATON_ARITH_INCCNT_SET_INCVAL(0, 0);
2195:Lib/AI_Runtime/Npu/ll_aton/ll_aton.c ****       ATON_ARITH_INCCNT_SET(id, t);
2196:Lib/AI_Runtime/Npu/ll_aton/ll_aton.c **** 
2197:Lib/AI_Runtime/Npu/ll_aton/ll_aton.c ****       t = ATON_ARITH_INCOFFSET_SET_VAL(0, 0);
2198:Lib/AI_Runtime/Npu/ll_aton/ll_aton.c ****       ATON_ARITH_INCOFFSET_SET(id, t);
2199:Lib/AI_Runtime/Npu/ll_aton/ll_aton.c **** 
2200:Lib/AI_Runtime/Npu/ll_aton/ll_aton.c ****       maxc = 1;
2201:Lib/AI_Runtime/Npu/ll_aton/ll_aton.c ****       break;
2202:Lib/AI_Runtime/Npu/ll_aton/ll_aton.c ****     default:
2203:Lib/AI_Runtime/Npu/ll_aton/ll_aton.c ****       return LL_ATON_INVALID_PARAM;
2204:Lib/AI_Runtime/Npu/ll_aton/ll_aton.c ****     }
2205:Lib/AI_Runtime/Npu/ll_aton/ll_aton.c **** 
2206:Lib/AI_Runtime/Npu/ll_aton/ll_aton.c ****     maxc = (maxc > 512 ? 512 : maxc);
2207:Lib/AI_Runtime/Npu/ll_aton/ll_aton.c ****     int i, k;
2208:Lib/AI_Runtime/Npu/ll_aton/ll_aton.c ****     uint32_t *Ap = (uint32_t *)conf->A_vector.p;
2209:Lib/AI_Runtime/Npu/ll_aton/ll_aton.c ****     uint32_t *Bp = (uint32_t *)conf->B_vector.p;
2210:Lib/AI_Runtime/Npu/ll_aton/ll_aton.c ****     uint32_t *Cp = (uint32_t *)conf->C_vector.p;
2211:Lib/AI_Runtime/Npu/ll_aton/ll_aton.c ****     int nbits_A = conf->vec_precision[0];
2212:Lib/AI_Runtime/Npu/ll_aton/ll_aton.c ****     int nbits_B = conf->vec_precision[1];
2213:Lib/AI_Runtime/Npu/ll_aton/ll_aton.c ****     int nbits_C = conf->vec_precision[2];
2214:Lib/AI_Runtime/Npu/ll_aton/ll_aton.c ****     int bitcnt_A = 0;
2215:Lib/AI_Runtime/Npu/ll_aton/ll_aton.c ****     int bitcnt_B = 0;
2216:Lib/AI_Runtime/Npu/ll_aton/ll_aton.c ****     int bitcnt_C = 0;
2217:Lib/AI_Runtime/Npu/ll_aton/ll_aton.c ****     int mem_idx_num = ATON_ARITH_COEFF_AB_IDX_MAX - ATON_ARITH_COEFF_AB_IDX_MIN + 1;
2218:Lib/AI_Runtime/Npu/ll_aton/ll_aton.c **** 
2219:Lib/AI_Runtime/Npu/ll_aton/ll_aton.c ****     int32_t c_sign = (conf->C_scalar == -1 ? -1 : 1);
2220:Lib/AI_Runtime/Npu/ll_aton/ll_aton.c **** #if (LL_ATON_PLATFORM == LL_ATON_PLAT_EC_TRACE)
2221:Lib/AI_Runtime/Npu/ll_aton/ll_aton.c ****     ec_trace_comment("Block ECASM optimizations to move reg writes pass this point");
2222:Lib/AI_Runtime/Npu/ll_aton/ll_aton.c **** #endif
2223:Lib/AI_Runtime/Npu/ll_aton/ll_aton.c ****     ATON_ARITH_TRANSLATEADDR_SET(id, 1); // map 0x400 onto 0x0 offset for coefficients
2224:Lib/AI_Runtime/Npu/ll_aton/ll_aton.c ****     for (i = 0, k = 0; i < maxc; i++, k++)
2225:Lib/AI_Runtime/Npu/ll_aton/ll_aton.c ****     {
2226:Lib/AI_Runtime/Npu/ll_aton/ll_aton.c ****       uint32_t t;
2227:Lib/AI_Runtime/Npu/ll_aton/ll_aton.c ****       uint32_t A = Ap != NULL ? LL_ATON_getbits(Ap, bitcnt_A, nbits_A) : (uint32_t)conf->A_scalar;
2228:Lib/AI_Runtime/Npu/ll_aton/ll_aton.c ****       uint32_t B = Bp != NULL ? LL_ATON_getbits(Bp, bitcnt_B, nbits_B) : (uint32_t)conf->B_scalar;
2229:Lib/AI_Runtime/Npu/ll_aton/ll_aton.c ****       uint32_t C = Cp != NULL ? (c_sign * LL_ATON_getbits(Cp, bitcnt_C, nbits_C)) : (uint32_t)conf-
2230:Lib/AI_Runtime/Npu/ll_aton/ll_aton.c ****       if (conf->combinebc)
2231:Lib/AI_Runtime/Npu/ll_aton/ll_aton.c ****       {
2232:Lib/AI_Runtime/Npu/ll_aton/ll_aton.c ****         B = (C >> 16);
2233:Lib/AI_Runtime/Npu/ll_aton/ll_aton.c ****         C = (C & 0xFFFF);
2234:Lib/AI_Runtime/Npu/ll_aton/ll_aton.c ****       }
ARM GAS  /tmp/ccgbPSBw.s 			page 100


2235:Lib/AI_Runtime/Npu/ll_aton/ll_aton.c ****       if (k == mem_idx_num)
2236:Lib/AI_Runtime/Npu/ll_aton/ll_aton.c ****       {
2237:Lib/AI_Runtime/Npu/ll_aton/ll_aton.c **** #if (LL_ATON_PLATFORM == LL_ATON_PLAT_EC_TRACE)
2238:Lib/AI_Runtime/Npu/ll_aton/ll_aton.c ****         ec_trace_comment("Block ECASM optimizations to move reg writes pass this point");
2239:Lib/AI_Runtime/Npu/ll_aton/ll_aton.c **** #endif
2240:Lib/AI_Runtime/Npu/ll_aton/ll_aton.c ****         ATON_ARITH_TRANSLATEADDR_SET(id, 0); // map 0xC00 onto 0xC00 offset for coefficients
2241:Lib/AI_Runtime/Npu/ll_aton/ll_aton.c ****         k -= (256 / 2);
2242:Lib/AI_Runtime/Npu/ll_aton/ll_aton.c ****       }
2243:Lib/AI_Runtime/Npu/ll_aton/ll_aton.c ****       t = ATON_ARITH_COEFF_AB_DT;
2244:Lib/AI_Runtime/Npu/ll_aton/ll_aton.c ****       t = ATON_ARITH_COEFF_AB_SET_A(t, A);
2245:Lib/AI_Runtime/Npu/ll_aton/ll_aton.c ****       t = ATON_ARITH_COEFF_AB_SET_B(t, B);
2246:Lib/AI_Runtime/Npu/ll_aton/ll_aton.c ****       ATON_ARITH_COEFF_AB_SET(id, k, t);
2247:Lib/AI_Runtime/Npu/ll_aton/ll_aton.c ****       t = ATON_ARITH_COEFF_C_DT;
2248:Lib/AI_Runtime/Npu/ll_aton/ll_aton.c ****       t = ATON_ARITH_COEFF_C_SET_C(t, C);
2249:Lib/AI_Runtime/Npu/ll_aton/ll_aton.c ****       ATON_ARITH_COEFF_C_SET(id, k, t);
2250:Lib/AI_Runtime/Npu/ll_aton/ll_aton.c **** 
2251:Lib/AI_Runtime/Npu/ll_aton/ll_aton.c ****       bitcnt_A += nbits_A;
2252:Lib/AI_Runtime/Npu/ll_aton/ll_aton.c ****       bitcnt_B += nbits_B;
2253:Lib/AI_Runtime/Npu/ll_aton/ll_aton.c ****       bitcnt_C += nbits_C;
2254:Lib/AI_Runtime/Npu/ll_aton/ll_aton.c ****     }
2255:Lib/AI_Runtime/Npu/ll_aton/ll_aton.c ****   }
2256:Lib/AI_Runtime/Npu/ll_aton/ll_aton.c ****   return 0;
2257:Lib/AI_Runtime/Npu/ll_aton/ll_aton.c **** }
2258:Lib/AI_Runtime/Npu/ll_aton/ll_aton.c **** #endif // ATON_ARITH_NUM
2259:Lib/AI_Runtime/Npu/ll_aton/ll_aton.c **** 
2260:Lib/AI_Runtime/Npu/ll_aton/ll_aton.c **** #ifdef ATON_POOL_NUM
2261:Lib/AI_Runtime/Npu/ll_aton/ll_aton.c **** 
2262:Lib/AI_Runtime/Npu/ll_aton/ll_aton.c **** static int32_t get_Poolacc_type(LL_Poolacc_Op op)
2263:Lib/AI_Runtime/Npu/ll_aton/ll_aton.c **** {
2264:Lib/AI_Runtime/Npu/ll_aton/ll_aton.c ****   switch (op)
2265:Lib/AI_Runtime/Npu/ll_aton/ll_aton.c ****   {
2266:Lib/AI_Runtime/Npu/ll_aton/ll_aton.c ****   case POOL_MAX:
2267:Lib/AI_Runtime/Npu/ll_aton/ll_aton.c ****     return ATON_POOLTYPE_MAX_POOLING;
2268:Lib/AI_Runtime/Npu/ll_aton/ll_aton.c ****   case POOL_MIN:
2269:Lib/AI_Runtime/Npu/ll_aton/ll_aton.c ****     return ATON_POOLTYPE_MIN_POOLING;
2270:Lib/AI_Runtime/Npu/ll_aton/ll_aton.c ****   case POOL_AVG:
2271:Lib/AI_Runtime/Npu/ll_aton/ll_aton.c ****     return ATON_POOLTYPE_AVG_POOLING;
2272:Lib/AI_Runtime/Npu/ll_aton/ll_aton.c ****   case POOL_GMAX:
2273:Lib/AI_Runtime/Npu/ll_aton/ll_aton.c ****     return ATON_POOLTYPE_GMAX_POOLING;
2274:Lib/AI_Runtime/Npu/ll_aton/ll_aton.c ****   case POOL_GMIN:
2275:Lib/AI_Runtime/Npu/ll_aton/ll_aton.c ****     return ATON_POOLTYPE_GMIN_POOLING;
2276:Lib/AI_Runtime/Npu/ll_aton/ll_aton.c ****   case POOL_GAVG:
2277:Lib/AI_Runtime/Npu/ll_aton/ll_aton.c ****     return ATON_POOLTYPE_GAVG_POOLING;
2278:Lib/AI_Runtime/Npu/ll_aton/ll_aton.c ****   default:
2279:Lib/AI_Runtime/Npu/ll_aton/ll_aton.c ****     break;
2280:Lib/AI_Runtime/Npu/ll_aton/ll_aton.c ****   }
2281:Lib/AI_Runtime/Npu/ll_aton/ll_aton.c ****   LL_ATON_ASSERT(0);
2282:Lib/AI_Runtime/Npu/ll_aton/ll_aton.c ****   return 0;
2283:Lib/AI_Runtime/Npu/ll_aton/ll_aton.c **** }
2284:Lib/AI_Runtime/Npu/ll_aton/ll_aton.c **** 
2285:Lib/AI_Runtime/Npu/ll_aton/ll_aton.c **** /**
2286:Lib/AI_Runtime/Npu/ll_aton/ll_aton.c ****  * @brief  Configure Pooling Accelerator
2287:Lib/AI_Runtime/Npu/ll_aton/ll_aton.c ****  * @param  id Pooling Accelerator identifier [0..ATON_POOL_NUM-1]
2288:Lib/AI_Runtime/Npu/ll_aton/ll_aton.c ****  * @param  Poolacc_InitStruct Structure describing initialization parameters
2289:Lib/AI_Runtime/Npu/ll_aton/ll_aton.c ****  * @retval Error code E.g.: Invalid ID, invalid parameters, not idle,..
2290:Lib/AI_Runtime/Npu/ll_aton/ll_aton.c ****  */
2291:Lib/AI_Runtime/Npu/ll_aton/ll_aton.c **** int LL_Poolacc_Init(int id, const LL_Poolacc_InitTypeDef *conf)
ARM GAS  /tmp/ccgbPSBw.s 			page 101


2292:Lib/AI_Runtime/Npu/ll_aton/ll_aton.c **** {
2293:Lib/AI_Runtime/Npu/ll_aton/ll_aton.c ****   uint32_t t;
2294:Lib/AI_Runtime/Npu/ll_aton/ll_aton.c **** 
2295:Lib/AI_Runtime/Npu/ll_aton/ll_aton.c ****   if (id >= ATON_POOL_NUM)
2296:Lib/AI_Runtime/Npu/ll_aton/ll_aton.c ****     return LL_ATON_INVALID_ID;
2297:Lib/AI_Runtime/Npu/ll_aton/ll_aton.c **** 
2298:Lib/AI_Runtime/Npu/ll_aton/ll_aton.c ****   LL_ATON_EnableClock(ATON_POOL_CLKB_CLK(id));
2299:Lib/AI_Runtime/Npu/ll_aton/ll_aton.c **** 
2300:Lib/AI_Runtime/Npu/ll_aton/ll_aton.c **** #ifdef POOL_RC14
2301:Lib/AI_Runtime/Npu/ll_aton/ll_aton.c ****   /* Clear pipeline */
2302:Lib/AI_Runtime/Npu/ll_aton/ll_aton.c ****   t = ATON_POOL_CTRL_GET(id);
2303:Lib/AI_Runtime/Npu/ll_aton/ll_aton.c ****   t = ATON_POOL_CTRL_SET_EN(t, 0);
2304:Lib/AI_Runtime/Npu/ll_aton/ll_aton.c ****   t = ATON_POOL_CTRL_SET_CLR(t, 1);
2305:Lib/AI_Runtime/Npu/ll_aton/ll_aton.c ****   t = ATON_POOL_CTRL_SET_CONFCLR(t, 1);
2306:Lib/AI_Runtime/Npu/ll_aton/ll_aton.c ****   ATON_POOL_CTRL_SET(id, t);
2307:Lib/AI_Runtime/Npu/ll_aton/ll_aton.c **** #endif // POOL_RC14
2308:Lib/AI_Runtime/Npu/ll_aton/ll_aton.c **** 
2309:Lib/AI_Runtime/Npu/ll_aton/ll_aton.c ****   /* Initialize CTRL register parameters */
2310:Lib/AI_Runtime/Npu/ll_aton/ll_aton.c ****   t = ATON_POOL_CTRL_DT;
2311:Lib/AI_Runtime/Npu/ll_aton/ll_aton.c ****   t = ATON_POOL_CTRL_SET_TYPE(t, get_Poolacc_type(conf->operation));
2312:Lib/AI_Runtime/Npu/ll_aton/ll_aton.c ****   t = ATON_POOL_CTRL_SET_ROUND(t, (conf->rounding_o != 0));
2313:Lib/AI_Runtime/Npu/ll_aton/ll_aton.c ****   t = ATON_POOL_CTRL_SET_SAT(t, (conf->saturation_o != 0));
2314:Lib/AI_Runtime/Npu/ll_aton/ll_aton.c ****   t = ATON_POOL_CTRL_SET_OUTSHIFT(t, conf->shift_o);
2315:Lib/AI_Runtime/Npu/ll_aton/ll_aton.c ****   t = ATON_POOL_CTRL_SET_FBYTES(t, conf->inbytes_f);
2316:Lib/AI_Runtime/Npu/ll_aton/ll_aton.c ****   t = ATON_POOL_CTRL_SET_FSHIFT(t, ATON_SHIFT(conf->shift_f));
2317:Lib/AI_Runtime/Npu/ll_aton/ll_aton.c ****   t = ATON_POOL_CTRL_SET_FROUND(t, (conf->rounding_f != 0));
2318:Lib/AI_Runtime/Npu/ll_aton/ll_aton.c ****   t = ATON_POOL_CTRL_SET_FSAT(t, (conf->saturation_f != 0));
2319:Lib/AI_Runtime/Npu/ll_aton/ll_aton.c **** #ifdef ATON_POOL_CTRL_SET_AVGNOPAD
2320:Lib/AI_Runtime/Npu/ll_aton/ll_aton.c ****   t = ATON_POOL_CTRL_SET_AVGNOPAD(t, (conf->avgnopad != 0));
2321:Lib/AI_Runtime/Npu/ll_aton/ll_aton.c **** #endif
2322:Lib/AI_Runtime/Npu/ll_aton/ll_aton.c ****   t = ATON_POOL_CTRL_SET_DUALLINE(t, conf->dualLine);
2323:Lib/AI_Runtime/Npu/ll_aton/ll_aton.c **** #if 0
2324:Lib/AI_Runtime/Npu/ll_aton/ll_aton.c ****   int crop_en = ((conf->leftCrop > 0) || (conf->rightCrop > 0) || (conf->topCrop > 0) || (conf->bot
2325:Lib/AI_Runtime/Npu/ll_aton/ll_aton.c **** #else
2326:Lib/AI_Runtime/Npu/ll_aton/ll_aton.c ****   int crop_en = 1;
2327:Lib/AI_Runtime/Npu/ll_aton/ll_aton.c **** #endif
2328:Lib/AI_Runtime/Npu/ll_aton/ll_aton.c ****   t = ATON_POOL_CTRL_SET_CROPEN(t, crop_en);
2329:Lib/AI_Runtime/Npu/ll_aton/ll_aton.c ****   ATON_POOL_CTRL_SET(id, t);
2330:Lib/AI_Runtime/Npu/ll_aton/ll_aton.c **** 
2331:Lib/AI_Runtime/Npu/ll_aton/ll_aton.c ****   /* configure remaining in/out shifters */
2332:Lib/AI_Runtime/Npu/ll_aton/ll_aton.c ****   t = ATON_POOL_RNDCTRL_DT;
2333:Lib/AI_Runtime/Npu/ll_aton/ll_aton.c ****   t = ATON_POOL_RNDCTRL_SET_FOBYTES(t, conf->outbytes_f);
2334:Lib/AI_Runtime/Npu/ll_aton/ll_aton.c ****   t = ATON_POOL_RNDCTRL_SET_FRNDMODE(t, conf->round_mode_f);
2335:Lib/AI_Runtime/Npu/ll_aton/ll_aton.c ****   t = ATON_POOL_RNDCTRL_SET_OBYTES(t, conf->outbytes_o);
2336:Lib/AI_Runtime/Npu/ll_aton/ll_aton.c ****   t = ATON_POOL_RNDCTRL_SET_ORNDMODE(t, (conf->relu_mode_o << 1) | conf->round_mode_o);
2337:Lib/AI_Runtime/Npu/ll_aton/ll_aton.c ****   ATON_POOL_RNDCTRL_SET(id, t);
2338:Lib/AI_Runtime/Npu/ll_aton/ll_aton.c **** 
2339:Lib/AI_Runtime/Npu/ll_aton/ll_aton.c ****   /* Configure Pooling unit dimensions register */
2340:Lib/AI_Runtime/Npu/ll_aton/ll_aton.c ****   t = ATON_POOL_PDIMS_DT;
2341:Lib/AI_Runtime/Npu/ll_aton/ll_aton.c ****   t = ATON_POOL_PDIMS_SET_WINX(t, conf->poolWinX);
2342:Lib/AI_Runtime/Npu/ll_aton/ll_aton.c ****   t = ATON_POOL_PDIMS_SET_WINY(t, conf->poolWinY);
2343:Lib/AI_Runtime/Npu/ll_aton/ll_aton.c ****   t = ATON_POOL_PDIMS_SET_STRDX(t, conf->strideX);
2344:Lib/AI_Runtime/Npu/ll_aton/ll_aton.c ****   t = ATON_POOL_PDIMS_SET_STRDY(t, conf->strideY);
2345:Lib/AI_Runtime/Npu/ll_aton/ll_aton.c ****   t = ATON_POOL_PDIMS_SET_TPAD(t, conf->topPad);
2346:Lib/AI_Runtime/Npu/ll_aton/ll_aton.c ****   t = ATON_POOL_PDIMS_SET_BPAD(t, conf->bottomPad);
2347:Lib/AI_Runtime/Npu/ll_aton/ll_aton.c ****   t = ATON_POOL_PDIMS_SET_LPAD(t, conf->leftPad);
2348:Lib/AI_Runtime/Npu/ll_aton/ll_aton.c ****   t = ATON_POOL_PDIMS_SET_RPAD(t, conf->rightPad);
ARM GAS  /tmp/ccgbPSBw.s 			page 102


2349:Lib/AI_Runtime/Npu/ll_aton/ll_aton.c ****   t = ATON_POOL_PDIMS_SET_BSIZE(t, conf->batchSize);
2350:Lib/AI_Runtime/Npu/ll_aton/ll_aton.c ****   ATON_POOL_PDIMS_SET(id, t);
2351:Lib/AI_Runtime/Npu/ll_aton/ll_aton.c **** 
2352:Lib/AI_Runtime/Npu/ll_aton/ll_aton.c ****   /* Configure Pooling unit FDIMS register */
2353:Lib/AI_Runtime/Npu/ll_aton/ll_aton.c ****   t = ATON_POOL_FDIMS_DT;
2354:Lib/AI_Runtime/Npu/ll_aton/ll_aton.c ****   t = ATON_POOL_FDIMS_SET_FEATX(t, conf->inputX * conf->batchSize);
2355:Lib/AI_Runtime/Npu/ll_aton/ll_aton.c ****   t = ATON_POOL_FDIMS_SET_FEATY(t, conf->inputY);
2356:Lib/AI_Runtime/Npu/ll_aton/ll_aton.c ****   ATON_POOL_FDIMS_SET(id, t);
2357:Lib/AI_Runtime/Npu/ll_aton/ll_aton.c **** 
2358:Lib/AI_Runtime/Npu/ll_aton/ll_aton.c ****   /* Configure Pooling unit OUTDIMS register */
2359:Lib/AI_Runtime/Npu/ll_aton/ll_aton.c ****   t = ATON_POOL_OUTDIMS_DT;
2360:Lib/AI_Runtime/Npu/ll_aton/ll_aton.c ****   t = ATON_POOL_OUTDIMS_SET_FEATX(t, conf->outputX);
2361:Lib/AI_Runtime/Npu/ll_aton/ll_aton.c ****   t = ATON_POOL_OUTDIMS_SET_FEATY(t, conf->outputY);
2362:Lib/AI_Runtime/Npu/ll_aton/ll_aton.c ****   ATON_POOL_OUTDIMS_SET(id, t);
2363:Lib/AI_Runtime/Npu/ll_aton/ll_aton.c **** 
2364:Lib/AI_Runtime/Npu/ll_aton/ll_aton.c ****   /* Configure mulval */
2365:Lib/AI_Runtime/Npu/ll_aton/ll_aton.c ****   t = ATON_POOL_MULVAL_DT;
2366:Lib/AI_Runtime/Npu/ll_aton/ll_aton.c ****   t = ATON_POOL_MULVAL_SET_MULVAL(t, conf->mulval);
2367:Lib/AI_Runtime/Npu/ll_aton/ll_aton.c ****   ATON_POOL_MULVAL_SET(id, t);
2368:Lib/AI_Runtime/Npu/ll_aton/ll_aton.c **** 
2369:Lib/AI_Runtime/Npu/ll_aton/ll_aton.c ****   /* Mulval is scattered across different registers from V3 onwards. TODO: use ATON.h macros */
2370:Lib/AI_Runtime/Npu/ll_aton/ll_aton.c **** #if (ATON_POOL_VERSION_MAJOR_DT >= 3)
2371:Lib/AI_Runtime/Npu/ll_aton/ll_aton.c ****   unsigned int wsize = conf->poolWinX * conf->poolWinY;
2372:Lib/AI_Runtime/Npu/ll_aton/ll_aton.c ****   if (wsize > 0 && wsize < 9)
2373:Lib/AI_Runtime/Npu/ll_aton/ll_aton.c ****   {
2374:Lib/AI_Runtime/Npu/ll_aton/ll_aton.c ****     uint32_t *mulval_addr = (uint32_t *)ATON_POOL_MULVAL_1_2_ADDR(id);
2375:Lib/AI_Runtime/Npu/ll_aton/ll_aton.c ****     wsize--;
2376:Lib/AI_Runtime/Npu/ll_aton/ll_aton.c ****     mulval_addr += (wsize / 2);
2377:Lib/AI_Runtime/Npu/ll_aton/ll_aton.c ****     if (wsize & 1)
2378:Lib/AI_Runtime/Npu/ll_aton/ll_aton.c ****       *mulval_addr |= ((conf->mulval) << 16);
2379:Lib/AI_Runtime/Npu/ll_aton/ll_aton.c ****     else
2380:Lib/AI_Runtime/Npu/ll_aton/ll_aton.c ****       *mulval_addr |= conf->mulval;
2381:Lib/AI_Runtime/Npu/ll_aton/ll_aton.c ****   }
2382:Lib/AI_Runtime/Npu/ll_aton/ll_aton.c **** #endif
2383:Lib/AI_Runtime/Npu/ll_aton/ll_aton.c **** 
2384:Lib/AI_Runtime/Npu/ll_aton/ll_aton.c ****   /* Configure cropping if needed */
2385:Lib/AI_Runtime/Npu/ll_aton/ll_aton.c ****   t = ATON_POOL_XCROP_DT;
2386:Lib/AI_Runtime/Npu/ll_aton/ll_aton.c ****   if (conf->leftCrop > 0)
2387:Lib/AI_Runtime/Npu/ll_aton/ll_aton.c ****     t = ATON_POOL_XCROP_SET_LCROP(t, conf->leftCrop * conf->batchSize);
2388:Lib/AI_Runtime/Npu/ll_aton/ll_aton.c ****   int r_crop = conf->rightCrop * conf->batchSize + (conf->batchSize - 1);
2389:Lib/AI_Runtime/Npu/ll_aton/ll_aton.c ****   if (r_crop > 0)
2390:Lib/AI_Runtime/Npu/ll_aton/ll_aton.c ****     t = ATON_POOL_XCROP_SET_RCROP(t, conf->rightCrop * conf->batchSize + (conf->batchSize - 1));
2391:Lib/AI_Runtime/Npu/ll_aton/ll_aton.c ****   ATON_POOL_XCROP_SET(id, t);
2392:Lib/AI_Runtime/Npu/ll_aton/ll_aton.c **** 
2393:Lib/AI_Runtime/Npu/ll_aton/ll_aton.c ****   t = ATON_POOL_YCROP_DT;
2394:Lib/AI_Runtime/Npu/ll_aton/ll_aton.c ****   if (conf->topCrop > 0)
2395:Lib/AI_Runtime/Npu/ll_aton/ll_aton.c ****     t = ATON_POOL_YCROP_SET_TCROP(t, conf->topCrop);
2396:Lib/AI_Runtime/Npu/ll_aton/ll_aton.c ****   if (conf->bottomCrop > 0)
2397:Lib/AI_Runtime/Npu/ll_aton/ll_aton.c ****     t = ATON_POOL_YCROP_SET_BCROP(t, conf->bottomCrop);
2398:Lib/AI_Runtime/Npu/ll_aton/ll_aton.c ****   ATON_POOL_YCROP_SET(id, t);
2399:Lib/AI_Runtime/Npu/ll_aton/ll_aton.c **** 
2400:Lib/AI_Runtime/Npu/ll_aton/ll_aton.c **** #ifdef ATON_POOL_USER_PAD_VALUE_SET
2401:Lib/AI_Runtime/Npu/ll_aton/ll_aton.c ****   if (conf->pad_val_en)
2402:Lib/AI_Runtime/Npu/ll_aton/ll_aton.c ****   {
2403:Lib/AI_Runtime/Npu/ll_aton/ll_aton.c ****     t = ATON_POOL_USER_PAD_VALUE_DT;
2404:Lib/AI_Runtime/Npu/ll_aton/ll_aton.c ****     t = ATON_POOL_USER_PAD_VALUE_SET_PADVAL(t, conf->pad_val);
2405:Lib/AI_Runtime/Npu/ll_aton/ll_aton.c ****     t = ATON_POOL_USER_PAD_VALUE_SET_PADVALEN(t, 1);
ARM GAS  /tmp/ccgbPSBw.s 			page 103


2406:Lib/AI_Runtime/Npu/ll_aton/ll_aton.c ****     ATON_POOL_USER_PAD_VALUE_SET(id, t);
2407:Lib/AI_Runtime/Npu/ll_aton/ll_aton.c ****   }
2408:Lib/AI_Runtime/Npu/ll_aton/ll_aton.c **** #endif
2409:Lib/AI_Runtime/Npu/ll_aton/ll_aton.c **** 
2410:Lib/AI_Runtime/Npu/ll_aton/ll_aton.c ****   return 0;
2411:Lib/AI_Runtime/Npu/ll_aton/ll_aton.c **** }
2412:Lib/AI_Runtime/Npu/ll_aton/ll_aton.c **** #endif // ATON_POOL_NUM
2413:Lib/AI_Runtime/Npu/ll_aton/ll_aton.c **** 
2414:Lib/AI_Runtime/Npu/ll_aton/ll_aton.c **** #if defined(ATON_EPOCHCTRL_NUM)
2415:Lib/AI_Runtime/Npu/ll_aton/ll_aton.c **** /**
2416:Lib/AI_Runtime/Npu/ll_aton/ll_aton.c ****  * @brief  Configure Epoch Controller
2417:Lib/AI_Runtime/Npu/ll_aton/ll_aton.c ****  * @param  id Epoch Controller identifier [0..ATON_EPOCHCTRL_NUM-1]
2418:Lib/AI_Runtime/Npu/ll_aton/ll_aton.c ****  * @param  conf Structure describing Epoch Controller initialization parameters
2419:Lib/AI_Runtime/Npu/ll_aton/ll_aton.c ****  * @retval Error code
2420:Lib/AI_Runtime/Npu/ll_aton/ll_aton.c ****  */
2421:Lib/AI_Runtime/Npu/ll_aton/ll_aton.c **** int LL_EpochCtrl_Init(int id, const LL_EpochCtrl_InitTypeDef *conf)
2422:Lib/AI_Runtime/Npu/ll_aton/ll_aton.c **** {
2423:Lib/AI_Runtime/Npu/ll_aton/ll_aton.c ****   uint32_t t;
2424:Lib/AI_Runtime/Npu/ll_aton/ll_aton.c **** 
2425:Lib/AI_Runtime/Npu/ll_aton/ll_aton.c ****   if (id >= ATON_EPOCHCTRL_NUM)
2426:Lib/AI_Runtime/Npu/ll_aton/ll_aton.c ****     return LL_ATON_INVALID_ID;
2427:Lib/AI_Runtime/Npu/ll_aton/ll_aton.c **** 
2428:Lib/AI_Runtime/Npu/ll_aton/ll_aton.c ****   LL_ATON_EnableClock(ATON_EPOCHCTRL_CLKB_CLK(id));
2429:Lib/AI_Runtime/Npu/ll_aton/ll_aton.c **** 
2430:Lib/AI_Runtime/Npu/ll_aton/ll_aton.c ****   /* Configure CTRL register */
2431:Lib/AI_Runtime/Npu/ll_aton/ll_aton.c ****   t = ATON_EPOCHCTRL_CTRL_DT;
2432:Lib/AI_Runtime/Npu/ll_aton/ll_aton.c ****   t = ATON_EPOCHCTRL_CTRL_SET_SM(t, conf->stepmode);
2433:Lib/AI_Runtime/Npu/ll_aton/ll_aton.c ****   ATON_EPOCHCTRL_CTRL_SET(id, t);
2434:Lib/AI_Runtime/Npu/ll_aton/ll_aton.c **** 
2435:Lib/AI_Runtime/Npu/ll_aton/ll_aton.c ****   /* Check address is 8 byte aligned */
2436:Lib/AI_Runtime/Npu/ll_aton/ll_aton.c ****   if (conf->blobaddr & 0x7)
2437:Lib/AI_Runtime/Npu/ll_aton/ll_aton.c ****     return LL_ATON_INVALID_PARAM;
2438:Lib/AI_Runtime/Npu/ll_aton/ll_aton.c **** 
2439:Lib/AI_Runtime/Npu/ll_aton/ll_aton.c ****   ATON_EPOCHCTRL_ADDR_SET(id, conf->blobaddr);
2440:Lib/AI_Runtime/Npu/ll_aton/ll_aton.c **** 
2441:Lib/AI_Runtime/Npu/ll_aton/ll_aton.c ****   return LL_ATON_OK;
2442:Lib/AI_Runtime/Npu/ll_aton/ll_aton.c **** }
2443:Lib/AI_Runtime/Npu/ll_aton/ll_aton.c **** 
2444:Lib/AI_Runtime/Npu/ll_aton/ll_aton.c **** /**
2445:Lib/AI_Runtime/Npu/ll_aton/ll_aton.c ****  * @brief  Trigger Epoch Controller Single Step execution
2446:Lib/AI_Runtime/Npu/ll_aton/ll_aton.c ****  * @param  id Epoch Controller identifier [0..ATON_EPOCHCTRL_NUM-1]
2447:Lib/AI_Runtime/Npu/ll_aton/ll_aton.c ****  * @retval Error code
2448:Lib/AI_Runtime/Npu/ll_aton/ll_aton.c ****  */
2449:Lib/AI_Runtime/Npu/ll_aton/ll_aton.c **** int LL_EpochCtrl_Step(int id)
2450:Lib/AI_Runtime/Npu/ll_aton/ll_aton.c **** {
 2648              		.loc 1 2450 1 view -0
 2649              		.cfi_startproc
 2650              		@ args = 0, pretend = 0, frame = 0
 2651              		@ frame_needed = 0, uses_anonymous_args = 0
 2652              		@ link register save eliminated.
2451:Lib/AI_Runtime/Npu/ll_aton/ll_aton.c ****   uint32_t t;
 2653              		.loc 1 2451 3 view .LVU767
2452:Lib/AI_Runtime/Npu/ll_aton/ll_aton.c **** 
2453:Lib/AI_Runtime/Npu/ll_aton/ll_aton.c ****   t = ATON_EPOCHCTRL_IRQ_GET(id);
 2654              		.loc 1 2453 3 view .LVU768
 2655              		.loc 1 2453 5 is_stmt 0 view .LVU769
 2656 0000 034A     		ldr	r2, .L224
ARM GAS  /tmp/ccgbPSBw.s 			page 104


2454:Lib/AI_Runtime/Npu/ll_aton/ll_aton.c ****   t = ATON_EPOCHCTRL_IRQ_SET_SM(t, 1);
2455:Lib/AI_Runtime/Npu/ll_aton/ll_aton.c ****   ATON_EPOCHCTRL_IRQ_SET(id, t);
2456:Lib/AI_Runtime/Npu/ll_aton/ll_aton.c **** 
2457:Lib/AI_Runtime/Npu/ll_aton/ll_aton.c ****   return 0;
2458:Lib/AI_Runtime/Npu/ll_aton/ll_aton.c **** }
 2657              		.loc 1 2458 1 view .LVU770
 2658 0002 0020     		movs	r0, #0
 2659              	.LVL291:
2453:Lib/AI_Runtime/Npu/ll_aton/ll_aton.c ****   t = ATON_EPOCHCTRL_IRQ_SET_SM(t, 1);
 2660              		.loc 1 2453 5 view .LVU771
 2661 0004 D368     		ldr	r3, [r2, #12]
 2662              	.LVL292:
2454:Lib/AI_Runtime/Npu/ll_aton/ll_aton.c ****   t = ATON_EPOCHCTRL_IRQ_SET_SM(t, 1);
 2663              		.loc 1 2454 3 is_stmt 1 view .LVU772
2454:Lib/AI_Runtime/Npu/ll_aton/ll_aton.c ****   t = ATON_EPOCHCTRL_IRQ_SET_SM(t, 1);
 2664              		.loc 1 2454 5 is_stmt 0 view .LVU773
 2665 0006 43F48033 		orr	r3, r3, #65536
 2666              	.LVL293:
2455:Lib/AI_Runtime/Npu/ll_aton/ll_aton.c **** 
 2667              		.loc 1 2455 3 is_stmt 1 view .LVU774
2455:Lib/AI_Runtime/Npu/ll_aton/ll_aton.c **** 
 2668              		.loc 1 2455 3 view .LVU775
 2669 000a D360     		str	r3, [r2, #12]
2455:Lib/AI_Runtime/Npu/ll_aton/ll_aton.c **** 
 2670              		.loc 1 2455 3 view .LVU776
2455:Lib/AI_Runtime/Npu/ll_aton/ll_aton.c **** 
 2671              		.loc 1 2455 32 view .LVU777
2457:Lib/AI_Runtime/Npu/ll_aton/ll_aton.c **** }
 2672              		.loc 1 2457 3 view .LVU778
 2673              		.loc 1 2458 1 is_stmt 0 view .LVU779
 2674 000c 7047     		bx	lr
 2675              	.L225:
 2676 000e 00BF     		.align	2
 2677              	.L224:
 2678 0010 00E00F58 		.word	1477435392
 2679              		.cfi_endproc
 2680              	.LFE4852:
 2682              		.section	.text.LL_EpochCtrl_Wait,"ax",%progbits
 2683              		.align	1
 2684              		.global	LL_EpochCtrl_Wait
 2685              		.syntax unified
 2686              		.thumb
 2687              		.thumb_func
 2689              	LL_EpochCtrl_Wait:
 2690              	.LVL294:
 2691              	.LFB4853:
2459:Lib/AI_Runtime/Npu/ll_aton/ll_aton.c **** 
2460:Lib/AI_Runtime/Npu/ll_aton/ll_aton.c **** /**
2461:Lib/AI_Runtime/Npu/ll_aton/ll_aton.c ****  * @brief  Waits for epoch controller to become idle
2462:Lib/AI_Runtime/Npu/ll_aton/ll_aton.c ****  * @param  id Bitmask of EC identifiers
2463:Lib/AI_Runtime/Npu/ll_aton/ll_aton.c ****  * @retval Error code
2464:Lib/AI_Runtime/Npu/ll_aton/ll_aton.c ****  */
2465:Lib/AI_Runtime/Npu/ll_aton/ll_aton.c **** int LL_EpochCtrl_Wait(uint32_t mask)
2466:Lib/AI_Runtime/Npu/ll_aton/ll_aton.c **** {
 2692              		.loc 1 2466 1 is_stmt 1 view -0
 2693              		.cfi_startproc
 2694              		@ args = 0, pretend = 0, frame = 0
ARM GAS  /tmp/ccgbPSBw.s 			page 105


 2695              		@ frame_needed = 0, uses_anonymous_args = 0
2467:Lib/AI_Runtime/Npu/ll_aton/ll_aton.c ****   int i;
 2696              		.loc 1 2467 3 view .LVU781
2468:Lib/AI_Runtime/Npu/ll_aton/ll_aton.c ****   uint32_t enableFlags;
 2697              		.loc 1 2468 3 view .LVU782
2469:Lib/AI_Runtime/Npu/ll_aton/ll_aton.c **** 
2470:Lib/AI_Runtime/Npu/ll_aton/ll_aton.c ****   startWatchdog(ATON_EPOCH_TIMEOUT);
 2698              		.loc 1 2470 3 view .LVU783
2466:Lib/AI_Runtime/Npu/ll_aton/ll_aton.c ****   int i;
 2699              		.loc 1 2466 1 is_stmt 0 view .LVU784
 2700 0000 70B5     		push	{r4, r5, r6, lr}
 2701              		.cfi_def_cfa_offset 16
 2702              		.cfi_offset 4, -16
 2703              		.cfi_offset 5, -12
 2704              		.cfi_offset 6, -8
 2705              		.cfi_offset 14, -4
2466:Lib/AI_Runtime/Npu/ll_aton/ll_aton.c ****   int i;
 2706              		.loc 1 2466 1 view .LVU785
 2707 0002 0446     		mov	r4, r0
 2708              		.loc 1 2470 3 view .LVU786
 2709 0004 0B48     		ldr	r0, .L234
 2710              	.LVL295:
 2711              		.loc 1 2470 3 view .LVU787
 2712 0006 FFF7FEFF 		bl	startWatchdog
 2713              	.LVL296:
2471:Lib/AI_Runtime/Npu/ll_aton/ll_aton.c **** 
2472:Lib/AI_Runtime/Npu/ll_aton/ll_aton.c ****   do
2473:Lib/AI_Runtime/Npu/ll_aton/ll_aton.c ****   {
2474:Lib/AI_Runtime/Npu/ll_aton/ll_aton.c ****     enableFlags = 0;
2475:Lib/AI_Runtime/Npu/ll_aton/ll_aton.c ****     for (i = 0; i < ATON_EPOCHCTRL_NUM; i++)
2476:Lib/AI_Runtime/Npu/ll_aton/ll_aton.c ****     {
2477:Lib/AI_Runtime/Npu/ll_aton/ll_aton.c ****       if (mask & (1 << i))
2478:Lib/AI_Runtime/Npu/ll_aton/ll_aton.c ****       {
2479:Lib/AI_Runtime/Npu/ll_aton/ll_aton.c ****         enableFlags |= (ATON_EPOCHCTRL_CTRL_GET(i) & (1U << ATON_EPOCHCTRL_CTRL_RUNNING_LSB));
 2714              		.loc 1 2479 25 view .LVU788
 2715 000a 0B4E     		ldr	r6, .L234+4
2477:Lib/AI_Runtime/Npu/ll_aton/ll_aton.c ****       {
 2716              		.loc 1 2477 16 view .LVU789
 2717 000c 04F00104 		and	r4, r4, #1
 2718              	.LVL297:
 2719              	.L229:
2472:Lib/AI_Runtime/Npu/ll_aton/ll_aton.c ****   {
 2720              		.loc 1 2472 3 is_stmt 1 view .LVU790
2474:Lib/AI_Runtime/Npu/ll_aton/ll_aton.c ****     for (i = 0; i < ATON_EPOCHCTRL_NUM; i++)
 2721              		.loc 1 2474 5 view .LVU791
2475:Lib/AI_Runtime/Npu/ll_aton/ll_aton.c ****     {
 2722              		.loc 1 2475 5 view .LVU792
2475:Lib/AI_Runtime/Npu/ll_aton/ll_aton.c ****     {
 2723              		.loc 1 2475 19 discriminator 1 view .LVU793
2477:Lib/AI_Runtime/Npu/ll_aton/ll_aton.c ****       {
 2724              		.loc 1 2477 7 view .LVU794
2477:Lib/AI_Runtime/Npu/ll_aton/ll_aton.c ****       {
 2725              		.loc 1 2477 16 is_stmt 0 view .LVU795
 2726 0010 2546     		mov	r5, r4
2477:Lib/AI_Runtime/Npu/ll_aton/ll_aton.c ****       {
 2727              		.loc 1 2477 10 view .LVU796
 2728 0012 14B1     		cbz	r4, .L227
ARM GAS  /tmp/ccgbPSBw.s 			page 106


 2729              		.loc 1 2479 9 is_stmt 1 view .LVU797
 2730              		.loc 1 2479 25 is_stmt 0 view .LVU798
 2731 0014 3568     		ldr	r5, [r6]
 2732              		.loc 1 2479 52 view .LVU799
 2733 0016 05F00045 		and	r5, r5, #-2147483648
 2734              	.LVL298:
2475:Lib/AI_Runtime/Npu/ll_aton/ll_aton.c ****     {
 2735              		.loc 1 2475 19 is_stmt 1 discriminator 1 view .LVU800
 2736              	.L227:
2480:Lib/AI_Runtime/Npu/ll_aton/ll_aton.c ****       }
2481:Lib/AI_Runtime/Npu/ll_aton/ll_aton.c ****     }
2482:Lib/AI_Runtime/Npu/ll_aton/ll_aton.c **** 
2483:Lib/AI_Runtime/Npu/ll_aton/ll_aton.c ****     LL_ATON_ASSERT(checkWatchdog() == 0);
 2737              		.loc 1 2483 5 view .LVU801
 2738 001a FFF7FEFF 		bl	checkWatchdog
 2739              	.LVL299:
 2740              		.loc 1 2483 5 is_stmt 0 discriminator 1 view .LVU802
 2741 001e 30B1     		cbz	r0, .L228
 2742 0020 40F6B311 		movw	r1, #2483
 2743 0024 054B     		ldr	r3, .L234+8
 2744 0026 064A     		ldr	r2, .L234+12
 2745 0028 0648     		ldr	r0, .L234+16
 2746 002a FFF7FEFF 		bl	__assert_func
 2747              	.LVL300:
 2748              	.L228:
2484:Lib/AI_Runtime/Npu/ll_aton/ll_aton.c **** 
2485:Lib/AI_Runtime/Npu/ll_aton/ll_aton.c ****   } while (enableFlags);
 2749              		.loc 1 2485 12 is_stmt 1 view .LVU803
 2750 002e 002D     		cmp	r5, #0
 2751 0030 EED1     		bne	.L229
2486:Lib/AI_Runtime/Npu/ll_aton/ll_aton.c **** 
2487:Lib/AI_Runtime/Npu/ll_aton/ll_aton.c ****   return LL_ATON_OK;
 2752              		.loc 1 2487 3 view .LVU804
2488:Lib/AI_Runtime/Npu/ll_aton/ll_aton.c **** }
 2753              		.loc 1 2488 1 is_stmt 0 view .LVU805
 2754 0032 70BD     		pop	{r4, r5, r6, pc}
 2755              	.L235:
 2756              		.align	2
 2757              	.L234:
 2758 0034 80969800 		.word	10000000
 2759 0038 00E00F58 		.word	1477435392
 2760 003c 00000000 		.word	.LC19
 2761 0040 00000000 		.word	__func__.0
 2762 0044 05000000 		.word	.LC4
 2763              		.cfi_endproc
 2764              	.LFE4853:
 2766              		.section	.text.LL_EpochCtrl_GetBlobSize,"ax",%progbits
 2767              		.align	1
 2768              		.global	LL_EpochCtrl_GetBlobSize
 2769              		.syntax unified
 2770              		.thumb
 2771              		.thumb_func
 2773              	LL_EpochCtrl_GetBlobSize:
 2774              	.LVL301:
 2775              	.LFB4854:
2489:Lib/AI_Runtime/Npu/ll_aton/ll_aton.c **** 
2490:Lib/AI_Runtime/Npu/ll_aton/ll_aton.c **** /**
ARM GAS  /tmp/ccgbPSBw.s 			page 107


2491:Lib/AI_Runtime/Npu/ll_aton/ll_aton.c ****  * @brief  Returns the size of a blob
2492:Lib/AI_Runtime/Npu/ll_aton/ll_aton.c ****  * @param  eb_addr Pointer to blob
2493:Lib/AI_Runtime/Npu/ll_aton/ll_aton.c ****  * @retval Size in bytes of the blob
2494:Lib/AI_Runtime/Npu/ll_aton/ll_aton.c ****  */
2495:Lib/AI_Runtime/Npu/ll_aton/ll_aton.c **** unsigned int LL_EpochCtrl_GetBlobSize(uint32_t *eb_addr)
2496:Lib/AI_Runtime/Npu/ll_aton/ll_aton.c **** {
 2776              		.loc 1 2496 1 is_stmt 1 view -0
 2777              		.cfi_startproc
 2778              		@ args = 0, pretend = 0, frame = 0
 2779              		@ frame_needed = 0, uses_anonymous_args = 0
 2780              		@ link register save eliminated.
2497:Lib/AI_Runtime/Npu/ll_aton/ll_aton.c ****   unsigned bloblines = eb_addr[1] + 2;
 2781              		.loc 1 2497 3 view .LVU807
2498:Lib/AI_Runtime/Npu/ll_aton/ll_aton.c ****   return bloblines * 4;
 2782              		.loc 1 2498 3 view .LVU808
2497:Lib/AI_Runtime/Npu/ll_aton/ll_aton.c ****   unsigned bloblines = eb_addr[1] + 2;
 2783              		.loc 1 2497 12 is_stmt 0 view .LVU809
 2784 0000 4068     		ldr	r0, [r0, #4]
 2785              	.LVL302:
2497:Lib/AI_Runtime/Npu/ll_aton/ll_aton.c ****   unsigned bloblines = eb_addr[1] + 2;
 2786              		.loc 1 2497 12 view .LVU810
 2787 0002 0230     		adds	r0, r0, #2
 2788              	.LVL303:
2499:Lib/AI_Runtime/Npu/ll_aton/ll_aton.c **** }
 2789              		.loc 1 2499 1 view .LVU811
 2790 0004 8000     		lsls	r0, r0, #2
 2791              	.LVL304:
 2792              		.loc 1 2499 1 view .LVU812
 2793 0006 7047     		bx	lr
 2794              		.cfi_endproc
 2795              	.LFE4854:
 2797              		.section	.text.LL_ATON_EnableClock,"ax",%progbits
 2798              		.align	1
 2799              		.global	LL_ATON_EnableClock
 2800              		.syntax unified
 2801              		.thumb
 2802              		.thumb_func
 2804              	LL_ATON_EnableClock:
 2805              	.LVL305:
 2806              	.LFB4855:
2500:Lib/AI_Runtime/Npu/ll_aton/ll_aton.c **** #endif // ATON_EPOCHCTRL_NUM
2501:Lib/AI_Runtime/Npu/ll_aton/ll_aton.c **** 
2502:Lib/AI_Runtime/Npu/ll_aton/ll_aton.c **** void LL_ATON_EnableClock(unsigned int clock)
2503:Lib/AI_Runtime/Npu/ll_aton/ll_aton.c **** {
 2807              		.loc 1 2503 1 is_stmt 1 view -0
 2808              		.cfi_startproc
 2809              		@ args = 0, pretend = 0, frame = 0
 2810              		@ frame_needed = 0, uses_anonymous_args = 0
2504:Lib/AI_Runtime/Npu/ll_aton/ll_aton.c **** #if (LL_ATON_ENABLE_CLOCK_GATING == 1)
2505:Lib/AI_Runtime/Npu/ll_aton/ll_aton.c ****   ATON_REG_WRITE_FIELD_RANGE(CLKCTRL, 0, BGATES, clock, 1, 1);
 2811              		.loc 1 2505 3 view .LVU814
 2812              	.LBB34:
 2813              		.loc 1 2505 3 view .LVU815
 2814              	.LBE34:
2503:Lib/AI_Runtime/Npu/ll_aton/ll_aton.c **** #if (LL_ATON_ENABLE_CLOCK_GATING == 1)
 2815              		.loc 1 2503 1 is_stmt 0 view .LVU816
 2816 0000 30B5     		push	{r4, r5, lr}
ARM GAS  /tmp/ccgbPSBw.s 			page 108


 2817              		.cfi_def_cfa_offset 12
 2818              		.cfi_offset 4, -12
 2819              		.cfi_offset 5, -8
 2820              		.cfi_offset 14, -4
 2821              	.LBB35:
 2822              		.loc 1 2505 3 view .LVU817
 2823 0002 0124     		movs	r4, #1
 2824 0004 0025     		movs	r5, #0
 2825 0006 0123     		movs	r3, #1
 2826 0008 54EA0D05 		lsll	r4, r5, r0
 2827 000c 034A     		ldr	r2, .L238
 2828 000e 8340     		lsls	r3, r3, r0
 2829 0010 1169     		ldr	r1, [r2, #16]
 2830              	.LVL306:
 2831              		.loc 1 2505 3 is_stmt 1 view .LVU818
 2832 0012 4B40     		eors	r3, r3, r1
 2833 0014 2340     		ands	r3, r3, r4
 2834 0016 4B40     		eors	r3, r3, r1
 2835              	.LVL307:
 2836              		.loc 1 2505 3 view .LVU819
 2837              		.loc 1 2505 3 view .LVU820
 2838 0018 1361     		str	r3, [r2, #16]
 2839              		.loc 1 2505 3 view .LVU821
 2840              		.loc 1 2505 3 view .LVU822
 2841              	.LBE35:
 2842              		.loc 1 2505 3 view .LVU823
2506:Lib/AI_Runtime/Npu/ll_aton/ll_aton.c **** #endif
2507:Lib/AI_Runtime/Npu/ll_aton/ll_aton.c **** }
 2843              		.loc 1 2507 1 is_stmt 0 view .LVU824
 2844 001a 30BD     		pop	{r4, r5, pc}
 2845              	.L239:
 2846              		.align	2
 2847              	.L238:
 2848 001c 00000E58 		.word	1477312512
 2849              		.cfi_endproc
 2850              	.LFE4855:
 2852              		.section	.text.LL_Streng_TensorInit,"ax",%progbits
 2853              		.align	1
 2854              		.global	LL_Streng_TensorInit
 2855              		.syntax unified
 2856              		.thumb
 2857              		.thumb_func
 2859              	LL_Streng_TensorInit:
 2860              	.LVL308:
 2861              	.LFB4830:
 495:Lib/AI_Runtime/Npu/ll_aton/ll_aton.c ****   uint32_t t;
 2862              		.loc 1 495 1 is_stmt 1 view -0
 2863              		.cfi_startproc
 2864              		@ args = 0, pretend = 0, frame = 8
 2865              		@ frame_needed = 0, uses_anonymous_args = 0
 503:Lib/AI_Runtime/Npu/ll_aton/ll_aton.c ****     return LL_ATON_INVALID_ID;
 2866              		.loc 1 503 6 is_stmt 0 view .LVU826
 2867 0000 0928     		cmp	r0, #9
 495:Lib/AI_Runtime/Npu/ll_aton/ll_aton.c ****   uint32_t t;
 2868              		.loc 1 495 1 view .LVU827
 2869 0002 2DE9F74F 		push	{r0, r1, r2, r4, r5, r6, r7, r8, r9, r10, fp, lr}
 2870              		.cfi_def_cfa_offset 48
ARM GAS  /tmp/ccgbPSBw.s 			page 109


 2871              		.cfi_offset 4, -36
 2872              		.cfi_offset 5, -32
 2873              		.cfi_offset 6, -28
 2874              		.cfi_offset 7, -24
 2875              		.cfi_offset 8, -20
 2876              		.cfi_offset 9, -16
 2877              		.cfi_offset 10, -12
 2878              		.cfi_offset 11, -8
 2879              		.cfi_offset 14, -4
 495:Lib/AI_Runtime/Npu/ll_aton/ll_aton.c ****   uint32_t t;
 2880              		.loc 1 495 1 view .LVU828
 2881 0006 0446     		mov	r4, r0
 496:Lib/AI_Runtime/Npu/ll_aton/ll_aton.c **** 
 2882              		.loc 1 496 3 is_stmt 1 view .LVU829
 499:Lib/AI_Runtime/Npu/ll_aton/ll_aton.c ****   uint32_t t_streng_cid_cache = ATON_STRENG_CID_CACHE_DT;
 2883              		.loc 1 499 3 view .LVU830
 2884              	.LVL309:
 500:Lib/AI_Runtime/Npu/ll_aton/ll_aton.c ****   uint32_t t_streng_event = ATON_STRENG_EVENT_DT;
 2885              		.loc 1 500 3 view .LVU831
 501:Lib/AI_Runtime/Npu/ll_aton/ll_aton.c **** 
 2886              		.loc 1 501 3 view .LVU832
 503:Lib/AI_Runtime/Npu/ll_aton/ll_aton.c ****     return LL_ATON_INVALID_ID;
 2887              		.loc 1 503 3 view .LVU833
 495:Lib/AI_Runtime/Npu/ll_aton/ll_aton.c ****   uint32_t t;
 2888              		.loc 1 495 1 is_stmt 0 view .LVU834
 2889 0008 0D46     		mov	r5, r1
 2890 000a 1646     		mov	r6, r2
 503:Lib/AI_Runtime/Npu/ll_aton/ll_aton.c ****     return LL_ATON_INVALID_ID;
 2891              		.loc 1 503 6 view .LVU835
 2892 000c 04DD     		ble	.L241
 2893              	.LVL310:
 2894              	.L243:
 504:Lib/AI_Runtime/Npu/ll_aton/ll_aton.c **** 
 2895              		.loc 1 504 12 view .LVU836
 2896 000e 4FF0FF30 		mov	r0, #-1
 2897              	.LVL311:
 2898              	.L240:
 773:Lib/AI_Runtime/Npu/ll_aton/ll_aton.c **** 
 2899              		.loc 1 773 1 view .LVU837
 2900 0012 03B0     		add	sp, sp, #12
 2901              		.cfi_remember_state
 2902              		.cfi_def_cfa_offset 36
 2903              		@ sp needed
 2904 0014 BDE8F08F 		pop	{r4, r5, r6, r7, r8, r9, r10, fp, pc}
 2905              	.LVL312:
 2906              	.L241:
 2907              		.cfi_restore_state
 506:Lib/AI_Runtime/Npu/ll_aton/ll_aton.c **** 
 2908              		.loc 1 506 3 is_stmt 1 view .LVU838
 2909 0018 FFF7FEFF 		bl	LL_ATON_EnableClock
 2910              	.LVL313:
 510:Lib/AI_Runtime/Npu/ll_aton/ll_aton.c ****     return -1;
 2911              		.loc 1 510 3 view .LVU839
 510:Lib/AI_Runtime/Npu/ll_aton/ll_aton.c ****     return -1;
 2912              		.loc 1 510 6 is_stmt 0 view .LVU840
 2913 001c 012E     		cmp	r6, #1
 2914 001e F6D1     		bne	.L243
ARM GAS  /tmp/ccgbPSBw.s 			page 110


 514:Lib/AI_Runtime/Npu/ll_aton/ll_aton.c ****     return -1;
 2915              		.loc 1 514 3 is_stmt 1 view .LVU841
 514:Lib/AI_Runtime/Npu/ll_aton/ll_aton.c ****     return -1;
 2916              		.loc 1 514 11 is_stmt 0 view .LVU842
 2917 0020 95F84460 		ldrb	r6, [r5, #68]	@ zero_extendqisi2
 2918              	.LVL314:
 514:Lib/AI_Runtime/Npu/ll_aton/ll_aton.c ****     return -1;
 2919              		.loc 1 514 6 view .LVU843
 2920 0024 182E     		cmp	r6, #24
 2921 0026 F2D8     		bhi	.L243
 514:Lib/AI_Runtime/Npu/ll_aton/ll_aton.c ****     return -1;
 2922              		.loc 1 514 34 discriminator 1 view .LVU844
 2923 0028 95F845C0 		ldrb	ip, [r5, #69]	@ zero_extendqisi2
 514:Lib/AI_Runtime/Npu/ll_aton/ll_aton.c ****     return -1;
 2924              		.loc 1 514 27 discriminator 1 view .LVU845
 2925 002c BCF1180F 		cmp	ip, #24
 2926 0030 EDD8     		bhi	.L243
 518:Lib/AI_Runtime/Npu/ll_aton/ll_aton.c ****   t = ATON_STRENG_CTRL_SET_DIR(t, (conf->dir != 0));
 2927              		.loc 1 518 3 is_stmt 1 view .LVU846
 2928              	.LVL315:
 519:Lib/AI_Runtime/Npu/ll_aton/ll_aton.c ****   t = ATON_STRENG_CTRL_SET_RAW(t, (conf->raw != 0));
 2929              		.loc 1 519 3 view .LVU847
 519:Lib/AI_Runtime/Npu/ll_aton/ll_aton.c ****   t = ATON_STRENG_CTRL_SET_RAW(t, (conf->raw != 0));
 2930              		.loc 1 519 7 is_stmt 0 view .LVU848
 2931 0032 2878     		ldrb	r0, [r5]	@ zero_extendqisi2
 2932              	.LVL316:
 520:Lib/AI_Runtime/Npu/ll_aton/ll_aton.c **** #ifdef ATON_STRENG_CTRL_SET_RAW_OUT
 2933              		.loc 1 520 3 is_stmt 1 view .LVU849
 529:Lib/AI_Runtime/Npu/ll_aton/ll_aton.c ****   t = ATON_STRENG_CTRL_SET_CONT(t, conf->continuous == 1);
 2934              		.loc 1 529 7 is_stmt 0 view .LVU850
 2935 0034 D5F840A0 		ldr	r10, [r5, #64]
 520:Lib/AI_Runtime/Npu/ll_aton/ll_aton.c **** #ifdef ATON_STRENG_CTRL_SET_RAW_OUT
 2936              		.loc 1 520 7 view .LVU851
 2937 0038 C201     		lsls	r2, r0, #7
 519:Lib/AI_Runtime/Npu/ll_aton/ll_aton.c ****   t = ATON_STRENG_CTRL_SET_RAW(t, (conf->raw != 0));
 2938              		.loc 1 519 7 view .LVU852
 2939 003a C300     		lsls	r3, r0, #3
 520:Lib/AI_Runtime/Npu/ll_aton/ll_aton.c **** #ifdef ATON_STRENG_CTRL_SET_RAW_OUT
 2940              		.loc 1 520 7 view .LVU853
 2941 003c 02F48071 		and	r1, r2, #256
 519:Lib/AI_Runtime/Npu/ll_aton/ll_aton.c ****   t = ATON_STRENG_CTRL_SET_RAW(t, (conf->raw != 0));
 2942              		.loc 1 519 7 view .LVU854
 2943 0040 03F00803 		and	r3, r3, #8
 2944              	.LVL317:
 520:Lib/AI_Runtime/Npu/ll_aton/ll_aton.c **** #ifdef ATON_STRENG_CTRL_SET_RAW_OUT
 2945              		.loc 1 520 5 view .LVU855
 2946 0044 0B43     		orrs	r3, r3, r1
 2947              	.LVL318:
 522:Lib/AI_Runtime/Npu/ll_aton/ll_aton.c **** #else
 2948              		.loc 1 522 3 is_stmt 1 view .LVU856
 522:Lib/AI_Runtime/Npu/ll_aton/ll_aton.c **** #else
 2949              		.loc 1 522 7 is_stmt 0 view .LVU857
 2950 0046 C0F38001 		ubfx	r1, r0, #2, #1
 522:Lib/AI_Runtime/Npu/ll_aton/ll_aton.c **** #else
 2951              		.loc 1 522 5 view .LVU858
 2952 004a 43EA4123 		orr	r3, r3, r1, lsl #9
 2953              	.LVL319:
ARM GAS  /tmp/ccgbPSBw.s 			page 111


 527:Lib/AI_Runtime/Npu/ll_aton/ll_aton.c ****   t = ATON_STRENG_CTRL_SET_NOINC(t, (conf->noinc == 1));
 2954              		.loc 1 527 3 is_stmt 1 view .LVU859
 527:Lib/AI_Runtime/Npu/ll_aton/ll_aton.c ****   t = ATON_STRENG_CTRL_SET_NOINC(t, (conf->noinc == 1));
 2955              		.loc 1 527 7 is_stmt 0 view .LVU860
 2956 004e 02F40062 		and	r2, r2, #2048
 527:Lib/AI_Runtime/Npu/ll_aton/ll_aton.c ****   t = ATON_STRENG_CTRL_SET_NOINC(t, (conf->noinc == 1));
 2957              		.loc 1 527 5 view .LVU861
 2958 0052 1A43     		orrs	r2, r2, r3
 2959              	.LVL320:
 528:Lib/AI_Runtime/Npu/ll_aton/ll_aton.c ****   t = ATON_STRENG_CTRL_SET_SINGLE(t, conf->frame_tot_cnt == 1);
 2960              		.loc 1 528 3 is_stmt 1 view .LVU862
 528:Lib/AI_Runtime/Npu/ll_aton/ll_aton.c ****   t = ATON_STRENG_CTRL_SET_SINGLE(t, conf->frame_tot_cnt == 1);
 2961              		.loc 1 528 7 is_stmt 0 view .LVU863
 2962 0054 4308     		lsrs	r3, r0, #1
 529:Lib/AI_Runtime/Npu/ll_aton/ll_aton.c ****   t = ATON_STRENG_CTRL_SET_CONT(t, conf->continuous == 1);
 2963              		.loc 1 529 7 view .LVU864
 2964 0056 0AF1FF31 		add	r1, r10, #-1
 528:Lib/AI_Runtime/Npu/ll_aton/ll_aton.c ****   t = ATON_STRENG_CTRL_SET_SINGLE(t, conf->frame_tot_cnt == 1);
 2965              		.loc 1 528 7 view .LVU865
 2966 005a 03F01003 		and	r3, r3, #16
 528:Lib/AI_Runtime/Npu/ll_aton/ll_aton.c ****   t = ATON_STRENG_CTRL_SET_SINGLE(t, conf->frame_tot_cnt == 1);
 2967              		.loc 1 528 5 view .LVU866
 2968 005e 1343     		orrs	r3, r3, r2
 2969              	.LVL321:
 529:Lib/AI_Runtime/Npu/ll_aton/ll_aton.c ****   t = ATON_STRENG_CTRL_SET_CONT(t, conf->continuous == 1);
 2970              		.loc 1 529 3 is_stmt 1 view .LVU867
 529:Lib/AI_Runtime/Npu/ll_aton/ll_aton.c ****   t = ATON_STRENG_CTRL_SET_CONT(t, conf->continuous == 1);
 2971              		.loc 1 529 7 is_stmt 0 view .LVU868
 2972 0060 4A42     		rsbs	r2, r1, #0
 2973 0062 4A41     		adcs	r2, r2, r1
 529:Lib/AI_Runtime/Npu/ll_aton/ll_aton.c ****   t = ATON_STRENG_CTRL_SET_CONT(t, conf->continuous == 1);
 2974              		.loc 1 529 5 discriminator 4 view .LVU869
 2975 0064 43EA8203 		orr	r3, r3, r2, lsl #2
 2976              	.LVL322:
 530:Lib/AI_Runtime/Npu/ll_aton/ll_aton.c ****   t = ATON_STRENG_CTRL_SET_LSBMODE(t, conf->align_right == 1);
 2977              		.loc 1 530 3 is_stmt 1 view .LVU870
 530:Lib/AI_Runtime/Npu/ll_aton/ll_aton.c ****   t = ATON_STRENG_CTRL_SET_LSBMODE(t, conf->align_right == 1);
 2978              		.loc 1 530 7 is_stmt 0 view .LVU871
 2979 0068 0201     		lsls	r2, r0, #4
 2980 006a 02F08002 		and	r2, r2, #128
 532:Lib/AI_Runtime/Npu/ll_aton/ll_aton.c **** 
 2981              		.loc 1 532 7 view .LVU872
 2982 006e B5F80080 		ldrh	r8, [r5]
 531:Lib/AI_Runtime/Npu/ll_aton/ll_aton.c ****   t = ATON_STRENG_CTRL_SET_SIGNEXT(t, conf->align_right == 1 && conf->nbits_unsigned == 0);
 2983              		.loc 1 531 7 view .LVU873
 2984 0072 0702     		lsls	r7, r0, #8
 530:Lib/AI_Runtime/Npu/ll_aton/ll_aton.c ****   t = ATON_STRENG_CTRL_SET_LSBMODE(t, conf->align_right == 1);
 2985              		.loc 1 530 5 view .LVU874
 2986 0074 1343     		orrs	r3, r3, r2
 2987              	.LVL323:
 531:Lib/AI_Runtime/Npu/ll_aton/ll_aton.c ****   t = ATON_STRENG_CTRL_SET_SIGNEXT(t, conf->align_right == 1 && conf->nbits_unsigned == 0);
 2988              		.loc 1 531 3 is_stmt 1 view .LVU875
 531:Lib/AI_Runtime/Npu/ll_aton/ll_aton.c ****   t = ATON_STRENG_CTRL_SET_SIGNEXT(t, conf->align_right == 1 && conf->nbits_unsigned == 0);
 2989              		.loc 1 531 7 is_stmt 0 view .LVU876
 2990 0076 07F48047 		and	r7, r7, #16384
 531:Lib/AI_Runtime/Npu/ll_aton/ll_aton.c ****   t = ATON_STRENG_CTRL_SET_SIGNEXT(t, conf->align_right == 1 && conf->nbits_unsigned == 0);
 2991              		.loc 1 531 5 view .LVU877
ARM GAS  /tmp/ccgbPSBw.s 			page 112


 2992 007a 1F43     		orrs	r7, r7, r3
 2993              	.LVL324:
 532:Lib/AI_Runtime/Npu/ll_aton/ll_aton.c **** 
 2994              		.loc 1 532 3 is_stmt 1 view .LVU878
 532:Lib/AI_Runtime/Npu/ll_aton/ll_aton.c **** 
 2995              		.loc 1 532 7 is_stmt 0 view .LVU879
 2996 007c 08F41073 		and	r3, r8, #576
 2997 0080 A3F1400E 		sub	lr, r3, #64
 2998 0084 DEF10003 		rsbs	r3, lr, #0
 2999 0088 43EB0E03 		adc	r3, r3, lr
 550:Lib/AI_Runtime/Npu/ll_aton/ll_aton.c ****   io_case += (conf->dir == 0 ? (conf->nbits_in <= conf->nbits_out) : (conf->nbits_in < conf->nbits_
 3000              		.loc 1 550 35 view .LVU880
 3001 008c 4FEA400E 		lsl	lr, r0, #1
 551:Lib/AI_Runtime/Npu/ll_aton/ll_aton.c **** 
 3002              		.loc 1 551 68 view .LVU881
 3003 0090 10F00102 		ands	r2, r0, #1
 532:Lib/AI_Runtime/Npu/ll_aton/ll_aton.c **** 
 3004              		.loc 1 532 5 discriminator 4 view .LVU882
 3005 0094 47EAC337 		orr	r7, r7, r3, lsl #15
 3006              	.LVL325:
 534:Lib/AI_Runtime/Npu/ll_aton/ll_aton.c ****   int in_bits[3];
 3007              		.loc 1 534 3 is_stmt 1 view .LVU883
 535:Lib/AI_Runtime/Npu/ll_aton/ll_aton.c ****   int out_bits[3];
 3008              		.loc 1 535 3 view .LVU884
 536:Lib/AI_Runtime/Npu/ll_aton/ll_aton.c ****   int nbits_out = conf->nbits_out;
 3009              		.loc 1 536 3 view .LVU885
 537:Lib/AI_Runtime/Npu/ll_aton/ll_aton.c ****   int nbits_in = conf->nbits_in;
 3010              		.loc 1 537 3 view .LVU886
 538:Lib/AI_Runtime/Npu/ll_aton/ll_aton.c **** 
 3011              		.loc 1 538 7 is_stmt 0 view .LVU887
 3012 0098 3146     		mov	r1, r6
 537:Lib/AI_Runtime/Npu/ll_aton/ll_aton.c ****   int nbits_in = conf->nbits_in;
 3013              		.loc 1 537 7 view .LVU888
 3014 009a 6346     		mov	r3, ip
 3015              	.LVL326:
 538:Lib/AI_Runtime/Npu/ll_aton/ll_aton.c **** 
 3016              		.loc 1 538 3 is_stmt 1 view .LVU889
 550:Lib/AI_Runtime/Npu/ll_aton/ll_aton.c ****   io_case += (conf->dir == 0 ? (conf->nbits_in <= conf->nbits_out) : (conf->nbits_in < conf->nbits_
 3017              		.loc 1 550 3 view .LVU890
 550:Lib/AI_Runtime/Npu/ll_aton/ll_aton.c ****   io_case += (conf->dir == 0 ? (conf->nbits_in <= conf->nbits_out) : (conf->nbits_in < conf->nbits_
 3018              		.loc 1 550 7 is_stmt 0 view .LVU891
 3019 009c 0EF0020E 		and	lr, lr, #2
 3020              	.LVL327:
 551:Lib/AI_Runtime/Npu/ll_aton/ll_aton.c **** 
 3021              		.loc 1 551 3 is_stmt 1 view .LVU892
 551:Lib/AI_Runtime/Npu/ll_aton/ll_aton.c **** 
 3022              		.loc 1 551 68 is_stmt 0 view .LVU893
 3023 00a0 0192     		str	r2, [sp, #4]
 3024 00a2 40F0AF80 		bne	.L244
 551:Lib/AI_Runtime/Npu/ll_aton/ll_aton.c **** 
 3025              		.loc 1 551 48 discriminator 1 view .LVU894
 3026 00a6 6645     		cmp	r6, ip
 3027 00a8 8CBF     		ite	hi
 3028 00aa 0022     		movhi	r2, #0
 3029 00ac 0122     		movls	r2, #1
 3030              	.L245:
 551:Lib/AI_Runtime/Npu/ll_aton/ll_aton.c **** 
ARM GAS  /tmp/ccgbPSBw.s 			page 113


 3031              		.loc 1 551 11 discriminator 4 view .LVU895
 3032 00ae 7244     		add	r2, r2, lr
 3033              	.LVL328:
 553:Lib/AI_Runtime/Npu/ll_aton/ll_aton.c ****   {
 3034              		.loc 1 553 3 is_stmt 1 view .LVU896
 3035 00b0 022A     		cmp	r2, #2
 3036 00b2 00F04009 		and	r9, r0, #64
 3037 00b6 00F0D280 		beq	.L265
 3038 00ba 032A     		cmp	r2, #3
 3039 00bc 00F0AC80 		beq	.L247
 553:Lib/AI_Runtime/Npu/ll_aton/ll_aton.c ****   {
 3040              		.loc 1 553 3 is_stmt 0 view .LVU897
 3041 00c0 012A     		cmp	r2, #1
 3042 00c2 00F0A480 		beq	.L266
 558:Lib/AI_Runtime/Npu/ll_aton/ll_aton.c ****       t_streng_strd = ATON_STRENG_STRD_SET_FGAP(t_streng_strd, (nbits_in - nbits_out));
 3043              		.loc 1 558 5 is_stmt 1 view .LVU898
 562:Lib/AI_Runtime/Npu/ll_aton/ll_aton.c ****   }
 3044              		.loc 1 562 14 is_stmt 0 view .LVU899
 3045 00c6 6146     		mov	r1, ip
 3046              	.LVL329:
 559:Lib/AI_Runtime/Npu/ll_aton/ll_aton.c ****     else
 3047              		.loc 1 559 23 view .LVU900
 3048 00c8 A6EB0C02 		sub	r2, r6, ip
 3049              	.LVL330:
 558:Lib/AI_Runtime/Npu/ll_aton/ll_aton.c ****       t_streng_strd = ATON_STRENG_STRD_SET_FGAP(t_streng_strd, (nbits_in - nbits_out));
 3050              		.loc 1 558 8 view .LVU901
 3051 00cc 0306     		lsls	r3, r0, #24
 3052              	.LVL331:
 559:Lib/AI_Runtime/Npu/ll_aton/ll_aton.c ****     else
 3053              		.loc 1 559 7 is_stmt 1 view .LVU902
 559:Lib/AI_Runtime/Npu/ll_aton/ll_aton.c ****     else
 3054              		.loc 1 559 23 is_stmt 0 view .LVU903
 3055 00ce 4BBF     		itete	mi
 3056 00d0 1204     		lslmi	r2, r2, #16
 561:Lib/AI_Runtime/Npu/ll_aton/ll_aton.c ****     nbits_in = nbits_out;
 3057              		.loc 1 561 23 view .LVU904
 3058 00d2 1206     		lslpl	r2, r2, #24
 559:Lib/AI_Runtime/Npu/ll_aton/ll_aton.c ****     else
 3059              		.loc 1 559 23 view .LVU905
 3060 00d4 02F47C12 		andmi	r2, r2, #4128768
 3061              	.LVL332:
 561:Lib/AI_Runtime/Npu/ll_aton/ll_aton.c ****     nbits_in = nbits_out;
 3062              		.loc 1 561 7 is_stmt 1 view .LVU906
 561:Lib/AI_Runtime/Npu/ll_aton/ll_aton.c ****     nbits_in = nbits_out;
 3063              		.loc 1 561 23 is_stmt 0 view .LVU907
 3064 00d8 02F07C52 		andpl	r2, r2, #1056964608
 3065              	.LVL333:
 3066              	.L248:
 566:Lib/AI_Runtime/Npu/ll_aton/ll_aton.c ****     in_bits[1] = nbits_in > 8 ? _LL_min(8, nbits_in - 8) : 0;
 3067              		.loc 1 566 5 is_stmt 1 view .LVU908
 566:Lib/AI_Runtime/Npu/ll_aton/ll_aton.c ****     in_bits[1] = nbits_in > 8 ? _LL_min(8, nbits_in - 8) : 0;
 3068              		.loc 1 566 18 is_stmt 0 view .LVU909
 3069 00dc 0829     		cmp	r1, #8
 3070 00de 8E46     		mov	lr, r1
 3071 00e0 A8BF     		it	ge
 3072 00e2 4FF0080E 		movge	lr, #8
 3073              	.LVL334:
ARM GAS  /tmp/ccgbPSBw.s 			page 114


 567:Lib/AI_Runtime/Npu/ll_aton/ll_aton.c ****     in_bits[2] = nbits_in > 16 ? _LL_min(8, nbits_in - 16) : 0;
 3074              		.loc 1 567 5 is_stmt 1 view .LVU910
 567:Lib/AI_Runtime/Npu/ll_aton/ll_aton.c ****     in_bits[2] = nbits_in > 16 ? _LL_min(8, nbits_in - 16) : 0;
 3075              		.loc 1 567 58 is_stmt 0 view .LVU911
 3076 00e6 0829     		cmp	r1, #8
 3077 00e8 40F39380 		ble	.L267
 3078              	.LVL335:
 568:Lib/AI_Runtime/Npu/ll_aton/ll_aton.c ****     if (conf->align_right)
 3079              		.loc 1 568 5 is_stmt 1 view .LVU912
 568:Lib/AI_Runtime/Npu/ll_aton/ll_aton.c ****     if (conf->align_right)
 3080              		.loc 1 568 60 is_stmt 0 view .LVU913
 3081 00ec 1029     		cmp	r1, #16
 568:Lib/AI_Runtime/Npu/ll_aton/ll_aton.c ****     if (conf->align_right)
 3082              		.loc 1 568 60 discriminator 1 view .LVU914
 3083 00ee CBBF     		itete	gt
 3084 00f0 A1F11003 		subgt	r3, r1, #16
 568:Lib/AI_Runtime/Npu/ll_aton/ll_aton.c ****     if (conf->align_right)
 3085              		.loc 1 568 60 discriminator 2 view .LVU915
 3086 00f4 0023     		movle	r3, #0
 3087 00f6 0821     		movgt	r1, #8
 3088              	.LVL336:
 567:Lib/AI_Runtime/Npu/ll_aton/ll_aton.c ****     in_bits[2] = nbits_in > 16 ? _LL_min(8, nbits_in - 16) : 0;
 3089              		.loc 1 567 58 discriminator 1 view .LVU916
 3090 00f8 0839     		suble	r1, r1, #8
 3091              	.LVL337:
 3092              	.L250:
 569:Lib/AI_Runtime/Npu/ll_aton/ll_aton.c ****     {
 3093              		.loc 1 569 5 is_stmt 1 view .LVU917
 569:Lib/AI_Runtime/Npu/ll_aton/ll_aton.c ****     {
 3094              		.loc 1 569 8 is_stmt 0 view .LVU918
 3095 00fa 09F0FF0B 		and	fp, r9, #255
 3096 00fe B9F1000F 		cmp	r9, #0
 3097 0102 0BD1     		bne	.L252
 577:Lib/AI_Runtime/Npu/ll_aton/ll_aton.c ****       {
 3098              		.loc 1 577 7 is_stmt 1 view .LVU919
 577:Lib/AI_Runtime/Npu/ll_aton/ll_aton.c ****       {
 3099              		.loc 1 577 10 is_stmt 0 view .LVU920
 3100 0104 BCF1100F 		cmp	ip, #16
 3101 0108 00F3AE80 		bgt	.L271
 583:Lib/AI_Runtime/Npu/ll_aton/ll_aton.c ****       {
 3102              		.loc 1 583 12 is_stmt 1 view .LVU921
 583:Lib/AI_Runtime/Npu/ll_aton/ll_aton.c ****       {
 3103              		.loc 1 583 15 is_stmt 0 view .LVU922
 3104 010c BCF1080F 		cmp	ip, #8
 3105              	.LVL338:
 3106              	.L280:
 619:Lib/AI_Runtime/Npu/ll_aton/ll_aton.c ****       {
 3107              		.loc 1 619 15 view .LVU923
 3108 0110 40F3AE80 		ble	.L272
 3109 0114 7346     		mov	r3, lr
 622:Lib/AI_Runtime/Npu/ll_aton/ll_aton.c ****       } // N.B. the DMA stuffs the bits to the left of the channel
 3110              		.loc 1 622 20 view .LVU924
 3111 0116 8E46     		mov	lr, r1
 621:Lib/AI_Runtime/Npu/ll_aton/ll_aton.c ****         ch_bits[0] = out_bits[1];
 3112              		.loc 1 621 20 view .LVU925
 3113 0118 1946     		mov	r1, r3
 534:Lib/AI_Runtime/Npu/ll_aton/ll_aton.c ****   int in_bits[3];
ARM GAS  /tmp/ccgbPSBw.s 			page 115


 3114              		.loc 1 534 7 view .LVU926
 3115 011a 5B46     		mov	r3, fp
 3116              	.L252:
 3117              	.LVL339:
 632:Lib/AI_Runtime/Npu/ll_aton/ll_aton.c ****   t = ATON_STRENG_CTRL_SET_SIZE1(t, ch_bits[1]);
 3118              		.loc 1 632 3 is_stmt 1 view .LVU927
 632:Lib/AI_Runtime/Npu/ll_aton/ll_aton.c ****   t = ATON_STRENG_CTRL_SET_SIZE1(t, ch_bits[1]);
 3119              		.loc 1 632 5 is_stmt 0 view .LVU928
 3120 011c 47EA0E47 		orr	r7, r7, lr, lsl #16
 3121              	.LVL340:
 633:Lib/AI_Runtime/Npu/ll_aton/ll_aton.c ****   t = ATON_STRENG_CTRL_SET_SIZE2(t, ch_bits[2]);
 3122              		.loc 1 633 3 is_stmt 1 view .LVU929
 642:Lib/AI_Runtime/Npu/ll_aton/ll_aton.c **** 
 3123              		.loc 1 642 3 is_stmt 0 view .LVU930
 3124 0120 04F5B024 		add	r4, r4, #360448
 3125              	.LVL341:
 633:Lib/AI_Runtime/Npu/ll_aton/ll_aton.c ****   t = ATON_STRENG_CTRL_SET_SIZE2(t, ch_bits[2]);
 3126              		.loc 1 633 5 view .LVU931
 3127 0124 47EA0157 		orr	r7, r7, r1, lsl #20
 3128              	.LVL342:
 634:Lib/AI_Runtime/Npu/ll_aton/ll_aton.c **** #else
 3129              		.loc 1 634 3 is_stmt 1 view .LVU932
 642:Lib/AI_Runtime/Npu/ll_aton/ll_aton.c **** 
 3130              		.loc 1 642 3 is_stmt 0 view .LVU933
 3131 0128 E534     		adds	r4, r4, #229
 3132              	.LVL343:
 634:Lib/AI_Runtime/Npu/ll_aton/ll_aton.c **** #else
 3133              		.loc 1 634 5 view .LVU934
 3134 012a 47EA0367 		orr	r7, r7, r3, lsl #24
 3135              	.LVL344:
 642:Lib/AI_Runtime/Npu/ll_aton/ll_aton.c **** 
 3136              		.loc 1 642 3 is_stmt 1 view .LVU935
 642:Lib/AI_Runtime/Npu/ll_aton/ll_aton.c **** 
 3137              		.loc 1 642 3 view .LVU936
 3138 012e 2403     		lsls	r4, r4, #12
 3139              	.LVL345:
 642:Lib/AI_Runtime/Npu/ll_aton/ll_aton.c **** 
 3140              		.loc 1 642 3 is_stmt 0 view .LVU937
 3141 0130 2760     		str	r7, [r4]
 642:Lib/AI_Runtime/Npu/ll_aton/ll_aton.c **** 
 3142              		.loc 1 642 3 is_stmt 1 view .LVU938
 642:Lib/AI_Runtime/Npu/ll_aton/ll_aton.c **** 
 3143              		.loc 1 642 30 view .LVU939
 645:Lib/AI_Runtime/Npu/ll_aton/ll_aton.c ****                        conf->offset_start);
 3144              		.loc 1 645 3 view .LVU940
 645:Lib/AI_Runtime/Npu/ll_aton/ll_aton.c ****                        conf->offset_start);
 3145              		.loc 1 645 3 view .LVU941
 3146 0132 D5E9017E 		ldrd	r7, lr, [r5, #4]
 3147              	.LVL346:
 645:Lib/AI_Runtime/Npu/ll_aton/ll_aton.c ****                        conf->offset_start);
 3148              		.loc 1 645 3 is_stmt 0 view .LVU942
 3149 0136 07EB0E03 		add	r3, r7, lr
 3150              	.LVL347:
 645:Lib/AI_Runtime/Npu/ll_aton/ll_aton.c ****                        conf->offset_start);
 3151              		.loc 1 645 3 view .LVU943
 3152 013a A360     		str	r3, [r4, #8]
 3153              	.LVL348:
ARM GAS  /tmp/ccgbPSBw.s 			page 116


 645:Lib/AI_Runtime/Npu/ll_aton/ll_aton.c ****                        conf->offset_start);
 3154              		.loc 1 645 3 is_stmt 1 view .LVU944
 648:Lib/AI_Runtime/Npu/ll_aton/ll_aton.c ****   {
 3155              		.loc 1 648 3 view .LVU945
 648:Lib/AI_Runtime/Npu/ll_aton/ll_aton.c ****   {
 3156              		.loc 1 648 6 is_stmt 0 view .LVU946
 3157 013c 8307     		lsls	r3, r0, #30
 3158              	.LBB36:
 666:Lib/AI_Runtime/Npu/ll_aton/ll_aton.c ****     // if line_offset is left=0 then it's computed from the standard geometry of lines and batch
 3159              		.loc 1 666 72 discriminator 1 view .LVU947
 3160 013e 696A     		ldr	r1, [r5, #36]
 3161              	.LVL349:
 666:Lib/AI_Runtime/Npu/ll_aton/ll_aton.c ****     // if line_offset is left=0 then it's computed from the standard geometry of lines and batch
 3162              		.loc 1 666 72 discriminator 1 view .LVU948
 3163              	.LBE36:
 648:Lib/AI_Runtime/Npu/ll_aton/ll_aton.c ****   {
 3164              		.loc 1 648 6 view .LVU949
 3165 0140 40F19980 		bpl	.L256
 650:Lib/AI_Runtime/Npu/ll_aton/ll_aton.c ****       t = conf->frame_count;
 3166              		.loc 1 650 5 is_stmt 1 view .LVU950
 650:Lib/AI_Runtime/Npu/ll_aton/ll_aton.c ****       t = conf->frame_count;
 3167              		.loc 1 650 13 is_stmt 0 view .LVU951
 3168 0144 6B69     		ldr	r3, [r5, #20]
 650:Lib/AI_Runtime/Npu/ll_aton/ll_aton.c ****       t = conf->frame_count;
 3169              		.loc 1 650 8 view .LVU952
 3170 0146 4BB9     		cbnz	r3, .L257
 655:Lib/AI_Runtime/Npu/ll_aton/ll_aton.c ****     }
 3171              		.loc 1 655 7 is_stmt 1 view .LVU953
 3172              	.LVL350:
 3173              	.LBB37:
 3174              	.LBI37:
 3175              		.file 2 "Lib/AI_Runtime/Npu/ll_aton/ll_aton.h"
   1:Lib/AI_Runtime/Npu/ll_aton/ll_aton.h **** /**
   2:Lib/AI_Runtime/Npu/ll_aton/ll_aton.h ****  ******************************************************************************
   3:Lib/AI_Runtime/Npu/ll_aton/ll_aton.h ****  * @file    ll_aton.h
   4:Lib/AI_Runtime/Npu/ll_aton/ll_aton.h ****  * @author  SRA Artificial Intelligence & Embedded Architectures
   5:Lib/AI_Runtime/Npu/ll_aton/ll_aton.h ****  * @brief   Header file of ATON LL module.
   6:Lib/AI_Runtime/Npu/ll_aton/ll_aton.h ****  ******************************************************************************
   7:Lib/AI_Runtime/Npu/ll_aton/ll_aton.h ****  * @attention
   8:Lib/AI_Runtime/Npu/ll_aton/ll_aton.h ****  *
   9:Lib/AI_Runtime/Npu/ll_aton/ll_aton.h ****  * Copyright (c) 2024 STMicroelectronics.
  10:Lib/AI_Runtime/Npu/ll_aton/ll_aton.h ****  * All rights reserved.
  11:Lib/AI_Runtime/Npu/ll_aton/ll_aton.h ****  *
  12:Lib/AI_Runtime/Npu/ll_aton/ll_aton.h ****  * This software is licensed under terms that can be found in the LICENSE file
  13:Lib/AI_Runtime/Npu/ll_aton/ll_aton.h ****  * in the root directory of this software component.
  14:Lib/AI_Runtime/Npu/ll_aton/ll_aton.h ****  * If no LICENSE file comes with this software, it is provided AS-IS.
  15:Lib/AI_Runtime/Npu/ll_aton/ll_aton.h ****  *
  16:Lib/AI_Runtime/Npu/ll_aton/ll_aton.h ****  ******************************************************************************
  17:Lib/AI_Runtime/Npu/ll_aton/ll_aton.h ****  */
  18:Lib/AI_Runtime/Npu/ll_aton/ll_aton.h **** 
  19:Lib/AI_Runtime/Npu/ll_aton/ll_aton.h **** #ifndef __LL_ATON_H
  20:Lib/AI_Runtime/Npu/ll_aton/ll_aton.h **** #define __LL_ATON_H
  21:Lib/AI_Runtime/Npu/ll_aton/ll_aton.h **** 
  22:Lib/AI_Runtime/Npu/ll_aton/ll_aton.h **** #ifdef __cplusplus
  23:Lib/AI_Runtime/Npu/ll_aton/ll_aton.h **** extern "C"
  24:Lib/AI_Runtime/Npu/ll_aton/ll_aton.h **** {
  25:Lib/AI_Runtime/Npu/ll_aton/ll_aton.h **** #endif
ARM GAS  /tmp/ccgbPSBw.s 			page 117


  26:Lib/AI_Runtime/Npu/ll_aton/ll_aton.h **** 
  27:Lib/AI_Runtime/Npu/ll_aton/ll_aton.h **** #include <assert.h>
  28:Lib/AI_Runtime/Npu/ll_aton/ll_aton.h **** #include <stddef.h>
  29:Lib/AI_Runtime/Npu/ll_aton/ll_aton.h **** #include <stdint.h>
  30:Lib/AI_Runtime/Npu/ll_aton/ll_aton.h **** 
  31:Lib/AI_Runtime/Npu/ll_aton/ll_aton.h **** #include "ll_aton_attributes.h"
  32:Lib/AI_Runtime/Npu/ll_aton/ll_aton.h **** #include "ll_aton_config.h"
  33:Lib/AI_Runtime/Npu/ll_aton/ll_aton.h **** 
  34:Lib/AI_Runtime/Npu/ll_aton/ll_aton.h **** #if (LL_ATON_PLATFORM != LL_ATON_PLAT_EC_TRACE)
  35:Lib/AI_Runtime/Npu/ll_aton/ll_aton.h **** #include "ll_aton_osal.h"
  36:Lib/AI_Runtime/Npu/ll_aton/ll_aton.h **** #include "ll_aton_platform.h"
  37:Lib/AI_Runtime/Npu/ll_aton/ll_aton.h **** #endif // LL_ATON_PLATFORM != LL_ATON_PLAT_EC_TRACE
  38:Lib/AI_Runtime/Npu/ll_aton/ll_aton.h **** 
  39:Lib/AI_Runtime/Npu/ll_aton/ll_aton.h **** /** @defgroup ATON_LL ATON_LL_Driver
  40:Lib/AI_Runtime/Npu/ll_aton/ll_aton.h ****  * @{
  41:Lib/AI_Runtime/Npu/ll_aton/ll_aton.h ****  */
  42:Lib/AI_Runtime/Npu/ll_aton/ll_aton.h **** 
  43:Lib/AI_Runtime/Npu/ll_aton/ll_aton.h **** /* LL ATON error codes */
  44:Lib/AI_Runtime/Npu/ll_aton/ll_aton.h **** #define LL_ATON_OK            (0)
  45:Lib/AI_Runtime/Npu/ll_aton/ll_aton.h **** #define LL_ATON_INVALID_ID    (-1)
  46:Lib/AI_Runtime/Npu/ll_aton/ll_aton.h **** #define LL_ATON_INVALID_PARAM (-2)
  47:Lib/AI_Runtime/Npu/ll_aton/ll_aton.h **** #define LL_ATON_TIMEOUT       (-3)
  48:Lib/AI_Runtime/Npu/ll_aton/ll_aton.h **** 
  49:Lib/AI_Runtime/Npu/ll_aton/ll_aton.h ****   /* this is needed to avoid some compilers (e.g. KEIL) that observe a strict semantic about conver
  50:Lib/AI_Runtime/Npu/ll_aton/ll_aton.h ****    * pointers to integers in const initializers
  51:Lib/AI_Runtime/Npu/ll_aton/ll_aton.h ****    */
  52:Lib/AI_Runtime/Npu/ll_aton/ll_aton.h ****   typedef union
  53:Lib/AI_Runtime/Npu/ll_aton/ll_aton.h ****   {
  54:Lib/AI_Runtime/Npu/ll_aton/ll_aton.h ****     unsigned char *p;
  55:Lib/AI_Runtime/Npu/ll_aton/ll_aton.h ****     uintptr_t i;
  56:Lib/AI_Runtime/Npu/ll_aton/ll_aton.h ****   } ll_aton_pointer;
  57:Lib/AI_Runtime/Npu/ll_aton/ll_aton.h **** 
  58:Lib/AI_Runtime/Npu/ll_aton/ll_aton.h ****   /* Method that translates an address from physical to virtual */
  59:Lib/AI_Runtime/Npu/ll_aton/ll_aton.h ****   unsigned char *LL_Address_Physical2Virtual(unsigned char *address);
  60:Lib/AI_Runtime/Npu/ll_aton/ll_aton.h **** 
  61:Lib/AI_Runtime/Npu/ll_aton/ll_aton.h ****   /* Method that translates an address from virtual to physical */
  62:Lib/AI_Runtime/Npu/ll_aton/ll_aton.h ****   unsigned char *LL_Address_Virtual2Physical(unsigned char *address);
  63:Lib/AI_Runtime/Npu/ll_aton/ll_aton.h **** 
  64:Lib/AI_Runtime/Npu/ll_aton/ll_aton.h **** /**
  65:Lib/AI_Runtime/Npu/ll_aton/ll_aton.h ****  * @brief ATON User Configuration macros
  66:Lib/AI_Runtime/Npu/ll_aton/ll_aton.h ****  */
  67:Lib/AI_Runtime/Npu/ll_aton/ll_aton.h **** /* Set beyond macro to 1 if you want to enable the generation of ATON event interrupts */
  68:Lib/AI_Runtime/Npu/ll_aton/ll_aton.h **** #ifndef LL_ATON_EN_EVENT_IRQ
  69:Lib/AI_Runtime/Npu/ll_aton/ll_aton.h **** #define LL_ATON_EN_EVENT_IRQ 1
  70:Lib/AI_Runtime/Npu/ll_aton/ll_aton.h **** #endif
  71:Lib/AI_Runtime/Npu/ll_aton/ll_aton.h **** 
  72:Lib/AI_Runtime/Npu/ll_aton/ll_aton.h **** /* Set beyond macro to 1 if you want to enable the generation of ATON configuration error interrupt
  73:Lib/AI_Runtime/Npu/ll_aton/ll_aton.h **** #ifndef LL_ATON_EN_ERROR_IRQ
  74:Lib/AI_Runtime/Npu/ll_aton/ll_aton.h **** #define LL_ATON_EN_ERROR_IRQ 1
  75:Lib/AI_Runtime/Npu/ll_aton/ll_aton.h **** #endif
  76:Lib/AI_Runtime/Npu/ll_aton/ll_aton.h **** 
  77:Lib/AI_Runtime/Npu/ll_aton/ll_aton.h ****   /** @defgroup ATON_INIT ATON Global initialization/deinitialization functions
  78:Lib/AI_Runtime/Npu/ll_aton/ll_aton.h ****    * @{
  79:Lib/AI_Runtime/Npu/ll_aton/ll_aton.h ****    */
  80:Lib/AI_Runtime/Npu/ll_aton/ll_aton.h ****   int LL_ATON_Init(void);
  81:Lib/AI_Runtime/Npu/ll_aton/ll_aton.h ****   int LL_ATON_DeInit(void);
  82:Lib/AI_Runtime/Npu/ll_aton/ll_aton.h ****   /**
ARM GAS  /tmp/ccgbPSBw.s 			page 118


  83:Lib/AI_Runtime/Npu/ll_aton/ll_aton.h ****    * @}
  84:Lib/AI_Runtime/Npu/ll_aton/ll_aton.h ****    */
  85:Lib/AI_Runtime/Npu/ll_aton/ll_aton.h **** 
  86:Lib/AI_Runtime/Npu/ll_aton/ll_aton.h ****   /**
  87:Lib/AI_Runtime/Npu/ll_aton/ll_aton.h ****    * @brief List of acceleration units types
  88:Lib/AI_Runtime/Npu/ll_aton/ll_aton.h ****    */
  89:Lib/AI_Runtime/Npu/ll_aton/ll_aton.h ****   enum AccelUnitsType
  90:Lib/AI_Runtime/Npu/ll_aton/ll_aton.h ****   {
  91:Lib/AI_Runtime/Npu/ll_aton/ll_aton.h ****     STRENG = 0,
  92:Lib/AI_Runtime/Npu/ll_aton/ll_aton.h ****     STRENG64,
  93:Lib/AI_Runtime/Npu/ll_aton/ll_aton.h ****     CONVACC,
  94:Lib/AI_Runtime/Npu/ll_aton/ll_aton.h ****     DECUN,
  95:Lib/AI_Runtime/Npu/ll_aton/ll_aton.h ****     ACTIV,
  96:Lib/AI_Runtime/Npu/ll_aton/ll_aton.h ****     ARITH,
  97:Lib/AI_Runtime/Npu/ll_aton/ll_aton.h ****     POOL,
  98:Lib/AI_Runtime/Npu/ll_aton/ll_aton.h ****     IMC,
  99:Lib/AI_Runtime/Npu/ll_aton/ll_aton.h ****     RECBUF,
 100:Lib/AI_Runtime/Npu/ll_aton/ll_aton.h ****   };
 101:Lib/AI_Runtime/Npu/ll_aton/ll_aton.h **** 
 102:Lib/AI_Runtime/Npu/ll_aton/ll_aton.h ****   typedef struct
 103:Lib/AI_Runtime/Npu/ll_aton/ll_aton.h ****   {
 104:Lib/AI_Runtime/Npu/ll_aton/ll_aton.h ****     enum AccelUnitsType unit_type;
 105:Lib/AI_Runtime/Npu/ll_aton/ll_aton.h ****     unsigned short unit_num;
 106:Lib/AI_Runtime/Npu/ll_aton/ll_aton.h ****   } AccelUnits;
 107:Lib/AI_Runtime/Npu/ll_aton/ll_aton.h **** 
 108:Lib/AI_Runtime/Npu/ll_aton/ll_aton.h ****   /**
 109:Lib/AI_Runtime/Npu/ll_aton/ll_aton.h ****    * @brief  Converts an Aton unit cardinal group id into a global one
 110:Lib/AI_Runtime/Npu/ll_aton/ll_aton.h ****    * @param  type enum specifying the unit group
 111:Lib/AI_Runtime/Npu/ll_aton/ll_aton.h ****    * @param  id Cardinal id of the unit in the group
 112:Lib/AI_Runtime/Npu/ll_aton/ll_aton.h ****    * @retval ATON Unit index
 113:Lib/AI_Runtime/Npu/ll_aton/ll_aton.h ****    * @todo   Add boundary checks
 114:Lib/AI_Runtime/Npu/ll_aton/ll_aton.h ****    */
 115:Lib/AI_Runtime/Npu/ll_aton/ll_aton.h ****   static inline AccelUnits LL_ATON_GetUnit_From_Cardinal_ID(enum AccelUnitsType type, int id)
 116:Lib/AI_Runtime/Npu/ll_aton/ll_aton.h ****   {
 117:Lib/AI_Runtime/Npu/ll_aton/ll_aton.h ****     return (AccelUnits){type, (unsigned short)id};
 118:Lib/AI_Runtime/Npu/ll_aton/ll_aton.h ****   }
 119:Lib/AI_Runtime/Npu/ll_aton/ll_aton.h **** 
 120:Lib/AI_Runtime/Npu/ll_aton/ll_aton.h ****   /**
 121:Lib/AI_Runtime/Npu/ll_aton/ll_aton.h ****    * @brief Activation Unit function types
 122:Lib/AI_Runtime/Npu/ll_aton/ll_aton.h ****    */
 123:Lib/AI_Runtime/Npu/ll_aton/ll_aton.h ****   typedef enum
 124:Lib/AI_Runtime/Npu/ll_aton/ll_aton.h ****   {
 125:Lib/AI_Runtime/Npu/ll_aton/ll_aton.h ****     ACTIV_RELU = 1,
 126:Lib/AI_Runtime/Npu/ll_aton/ll_aton.h ****     ACTIV_PRELU,
 127:Lib/AI_Runtime/Npu/ll_aton/ll_aton.h ****     ACTIV_TRELU,
 128:Lib/AI_Runtime/Npu/ll_aton/ll_aton.h ****     ACTIV_FUNC,
 129:Lib/AI_Runtime/Npu/ll_aton/ll_aton.h ****     ACTIV_LUT
 130:Lib/AI_Runtime/Npu/ll_aton/ll_aton.h ****   } LL_Activacc_Op;
 131:Lib/AI_Runtime/Npu/ll_aton/ll_aton.h **** 
 132:Lib/AI_Runtime/Npu/ll_aton/ll_aton.h ****   /**
 133:Lib/AI_Runtime/Npu/ll_aton/ll_aton.h ****    * @brief Activation unit Accelerator configuration structure
 134:Lib/AI_Runtime/Npu/ll_aton/ll_aton.h ****    */
 135:Lib/AI_Runtime/Npu/ll_aton/ll_aton.h ****   typedef struct
 136:Lib/AI_Runtime/Npu/ll_aton/ll_aton.h ****   {
 137:Lib/AI_Runtime/Npu/ll_aton/ll_aton.h ****     unsigned rounding_f : 1;     /**< Input feature data rounding control: 1=enable,0=disable */
 138:Lib/AI_Runtime/Npu/ll_aton/ll_aton.h ****     unsigned saturation_f : 1;   /**< Input feature data saturation control: 1=enable,0=disable */
 139:Lib/AI_Runtime/Npu/ll_aton/ll_aton.h ****     unsigned round_mode_f : 2;   /**< Input feature round mode */
ARM GAS  /tmp/ccgbPSBw.s 			page 119


 140:Lib/AI_Runtime/Npu/ll_aton/ll_aton.h ****     unsigned inbytes_f : 2;      /**< Input data width in bytes. Valid values are 1, 2 or 3 bytes *
 141:Lib/AI_Runtime/Npu/ll_aton/ll_aton.h ****     unsigned outbytes_f : 2;     /**< Input feature output bytes after shift. Valid values are 1 or
 142:Lib/AI_Runtime/Npu/ll_aton/ll_aton.h ****     unsigned rounding_o : 1;     /**< Output rounding control, 1=enable,0=disable */
 143:Lib/AI_Runtime/Npu/ll_aton/ll_aton.h ****     unsigned saturation_o : 1;   /**< Output saturation control,1=enable,0=disable */
 144:Lib/AI_Runtime/Npu/ll_aton/ll_aton.h ****     unsigned round_mode_o : 1;   /**< Output rounding mode */
 145:Lib/AI_Runtime/Npu/ll_aton/ll_aton.h ****     unsigned relu_mode_o : 1;    /**< Apply Relu operation before rounding */
 146:Lib/AI_Runtime/Npu/ll_aton/ll_aton.h ****     unsigned outbytes_o : 2;     /**< Number of output bytes: 1, 2 or 3 */
 147:Lib/AI_Runtime/Npu/ll_aton/ll_aton.h ****     unsigned signedop : 1;       /**< Signed/unsigned activations: 0: unsigned activations, 1 signe
 148:Lib/AI_Runtime/Npu/ll_aton/ll_aton.h ****     unsigned char shift_f;       /**< Input feature data shift. Negative values represent left shif
 149:Lib/AI_Runtime/Npu/ll_aton/ll_aton.h ****     unsigned char shift_o;       /**< Optional right shift to be applied to the function evaluator 
 150:Lib/AI_Runtime/Npu/ll_aton/ll_aton.h ****     unsigned parameter;          /**< ReLU parameter */
 151:Lib/AI_Runtime/Npu/ll_aton/ll_aton.h ****     unsigned parameter_2;        /**< Zero offset for TRELU operation for use in scale/offset integ
 152:Lib/AI_Runtime/Npu/ll_aton/ll_aton.h ****                                   *   Needs zp alignment */
 153:Lib/AI_Runtime/Npu/ll_aton/ll_aton.h ****     unsigned nbytes;             /**< Number of bytes of input data  */
 154:Lib/AI_Runtime/Npu/ll_aton/ll_aton.h ****     ll_aton_pointer ROM0_vector; /**< Address of ROM0 coefficients table */
 155:Lib/AI_Runtime/Npu/ll_aton/ll_aton.h ****     ll_aton_pointer ROM1_vector; /**< Address of ROM1 coefficients table */
 156:Lib/AI_Runtime/Npu/ll_aton/ll_aton.h ****     ll_aton_pointer LUT_vector;  /**< Address of LUT coefficients table */
 157:Lib/AI_Runtime/Npu/ll_aton/ll_aton.h ****     unsigned ROM0_nbytes;        /**< Length of ROM0 table */
 158:Lib/AI_Runtime/Npu/ll_aton/ll_aton.h ****     unsigned ROM1_nbytes;        /**< Length of ROM1 table */
 159:Lib/AI_Runtime/Npu/ll_aton/ll_aton.h ****     unsigned char shift_b;       /**< Optional left shift to be applied to coefficient B */
 160:Lib/AI_Runtime/Npu/ll_aton/ll_aton.h ****     unsigned char shift_c;       /**< Optional left shift to be applied to coefficient C */
 161:Lib/AI_Runtime/Npu/ll_aton/ll_aton.h ****     unsigned char shift_norm;    /**< Function input range normalization left shift parameter */
 162:Lib/AI_Runtime/Npu/ll_aton/ll_aton.h ****     unsigned char bwidth;        /**< Number of MSB bits of the input activation to be used to addr
 163:Lib/AI_Runtime/Npu/ll_aton/ll_aton.h ****                                   *   This field configures the number of outer segments (max outer
 164:Lib/AI_Runtime/Npu/ll_aton/ll_aton.h ****                                   *   Valid values range = 0,1,2,3,4 and 5 corresponding to 1,2,4,8
 165:Lib/AI_Runtime/Npu/ll_aton/ll_aton.h ****                                   *   respectively */
 166:Lib/AI_Runtime/Npu/ll_aton/ll_aton.h ****     int fsub;                    /**< Feature data subtract value */
 167:Lib/AI_Runtime/Npu/ll_aton/ll_aton.h ****     LL_Activacc_Op operation;    /**< Activation type. See LL_Activacc_Op */
 168:Lib/AI_Runtime/Npu/ll_aton/ll_aton.h ****   } LL_Activacc_InitTypeDef;
 169:Lib/AI_Runtime/Npu/ll_aton/ll_aton.h **** 
 170:Lib/AI_Runtime/Npu/ll_aton/ll_aton.h ****   /** @defgroup LL_ACTIV Activation unit configuration functions
 171:Lib/AI_Runtime/Npu/ll_aton/ll_aton.h ****    * @{
 172:Lib/AI_Runtime/Npu/ll_aton/ll_aton.h ****    */
 173:Lib/AI_Runtime/Npu/ll_aton/ll_aton.h ****   int LL_Activacc_Init(int id, const LL_Activacc_InitTypeDef *Activacc_InitStruct);
 174:Lib/AI_Runtime/Npu/ll_aton/ll_aton.h ****   /**
 175:Lib/AI_Runtime/Npu/ll_aton/ll_aton.h ****    * @}
 176:Lib/AI_Runtime/Npu/ll_aton/ll_aton.h ****    */
 177:Lib/AI_Runtime/Npu/ll_aton/ll_aton.h **** 
 178:Lib/AI_Runtime/Npu/ll_aton/ll_aton.h ****   /**
 179:Lib/AI_Runtime/Npu/ll_aton/ll_aton.h ****    * @brief Arithmetic unit operations
 180:Lib/AI_Runtime/Npu/ll_aton/ll_aton.h ****    */
 181:Lib/AI_Runtime/Npu/ll_aton/ll_aton.h ****   typedef enum
 182:Lib/AI_Runtime/Npu/ll_aton/ll_aton.h ****   {
 183:Lib/AI_Runtime/Npu/ll_aton/ll_aton.h ****     ARITH_AFFINE = 1,
 184:Lib/AI_Runtime/Npu/ll_aton/ll_aton.h ****     ARITH_MIN,
 185:Lib/AI_Runtime/Npu/ll_aton/ll_aton.h ****     ARITH_MAX,
 186:Lib/AI_Runtime/Npu/ll_aton/ll_aton.h ****     ARITH_MUL,
 187:Lib/AI_Runtime/Npu/ll_aton/ll_aton.h ****     ARITH_X_AND_Y,
 188:Lib/AI_Runtime/Npu/ll_aton/ll_aton.h ****     ARITH_X_OR_Y,
 189:Lib/AI_Runtime/Npu/ll_aton/ll_aton.h ****     ARITH_NOT_X,
 190:Lib/AI_Runtime/Npu/ll_aton/ll_aton.h ****     ARITH_X_XOR_Y,
 191:Lib/AI_Runtime/Npu/ll_aton/ll_aton.h ****     ARITH_X_EQ_Y,
 192:Lib/AI_Runtime/Npu/ll_aton/ll_aton.h ****     ARITH_X_LT_Y,
 193:Lib/AI_Runtime/Npu/ll_aton/ll_aton.h ****     ARITH_X_LE_Y,
 194:Lib/AI_Runtime/Npu/ll_aton/ll_aton.h ****     ARITH_X_GT_Y,
 195:Lib/AI_Runtime/Npu/ll_aton/ll_aton.h ****     ARITH_X_GE_Y,
 196:Lib/AI_Runtime/Npu/ll_aton/ll_aton.h ****     ARITH_ABS_X,
ARM GAS  /tmp/ccgbPSBw.s 			page 120


 197:Lib/AI_Runtime/Npu/ll_aton/ll_aton.h ****     ARITH_SIGN_X,
 198:Lib/AI_Runtime/Npu/ll_aton/ll_aton.h ****     ARITH_CLIP
 199:Lib/AI_Runtime/Npu/ll_aton/ll_aton.h ****   } LL_Arithacc_Op;
 200:Lib/AI_Runtime/Npu/ll_aton/ll_aton.h **** 
 201:Lib/AI_Runtime/Npu/ll_aton/ll_aton.h ****   /**
 202:Lib/AI_Runtime/Npu/ll_aton/ll_aton.h ****    * @brief Arithmetic constant broadcast modes
 203:Lib/AI_Runtime/Npu/ll_aton/ll_aton.h ****    */
 204:Lib/AI_Runtime/Npu/ll_aton/ll_aton.h ****   typedef enum
 205:Lib/AI_Runtime/Npu/ll_aton/ll_aton.h ****   {
 206:Lib/AI_Runtime/Npu/ll_aton/ll_aton.h ****     ARITH_BCAST_NONE,
 207:Lib/AI_Runtime/Npu/ll_aton/ll_aton.h ****     ARITH_BCAST_CHAN,
 208:Lib/AI_Runtime/Npu/ll_aton/ll_aton.h ****     ARITH_BCAST_HEIGHT,
 209:Lib/AI_Runtime/Npu/ll_aton/ll_aton.h ****     ARITH_BCAST_WIDTH,
 210:Lib/AI_Runtime/Npu/ll_aton/ll_aton.h ****     ARITH_BCAST_HEIGHT_WIDTH,
 211:Lib/AI_Runtime/Npu/ll_aton/ll_aton.h ****     ARITH_BCAST_SCALAR,
 212:Lib/AI_Runtime/Npu/ll_aton/ll_aton.h ****   } LL_Arithacc_Bcast;
 213:Lib/AI_Runtime/Npu/ll_aton/ll_aton.h **** 
 214:Lib/AI_Runtime/Npu/ll_aton/ll_aton.h ****   /**
 215:Lib/AI_Runtime/Npu/ll_aton/ll_aton.h ****    *	@brief Arithmetic unit Accelerator configuration structure
 216:Lib/AI_Runtime/Npu/ll_aton/ll_aton.h ****    */
 217:Lib/AI_Runtime/Npu/ll_aton/ll_aton.h ****   typedef struct
 218:Lib/AI_Runtime/Npu/ll_aton/ll_aton.h ****   {
 219:Lib/AI_Runtime/Npu/ll_aton/ll_aton.h ****     unsigned rounding_x : 1;   /**< Input feature data rounding for stream X */
 220:Lib/AI_Runtime/Npu/ll_aton/ll_aton.h ****     unsigned saturation_x : 1; /**< Input feature data saturation for stream X */
 221:Lib/AI_Runtime/Npu/ll_aton/ll_aton.h ****     unsigned round_mode_x : 2; /**< Input feature data rounding mode for stream X */
 222:Lib/AI_Runtime/Npu/ll_aton/ll_aton.h ****     unsigned inbytes_x : 2;    /**< Input data width in bytes for stream X. Valid values are 1, 2 o
 223:Lib/AI_Runtime/Npu/ll_aton/ll_aton.h ****     unsigned outbytes_x : 2;   /**< Number of output bytes to use for input feature data of stream 
 224:Lib/AI_Runtime/Npu/ll_aton/ll_aton.h ****                                 *  saturation. Valid values are 1 or 2 bytes */
 225:Lib/AI_Runtime/Npu/ll_aton/ll_aton.h ****     signed char shift_x;       /**< Input feature data shift for stream X. Use negative values for 
 226:Lib/AI_Runtime/Npu/ll_aton/ll_aton.h ****     unsigned rounding_y : 1;   /**< Input feature data rounding for stream Y */
 227:Lib/AI_Runtime/Npu/ll_aton/ll_aton.h ****     unsigned saturation_y : 1; /**< Input feature data saturation for stream Y */
 228:Lib/AI_Runtime/Npu/ll_aton/ll_aton.h ****     unsigned round_mode_y : 2; /**< Input feature data rounding mode for stream Y */
 229:Lib/AI_Runtime/Npu/ll_aton/ll_aton.h ****     unsigned inbytes_y : 2;    /**< Input data width in bytes for stream Y. Valid values are 1, 2 o
 230:Lib/AI_Runtime/Npu/ll_aton/ll_aton.h ****     unsigned outbytes_y : 2;   /**< Number of output bytes to use for input feature data of stream 
 231:Lib/AI_Runtime/Npu/ll_aton/ll_aton.h ****                                 *  saturation. Valid values are 1 or 2 bytes */
 232:Lib/AI_Runtime/Npu/ll_aton/ll_aton.h ****     unsigned combinebc : 1;    /**< Combine coeff B and C to form a 32b coeff BC = {B[15:0],C[15:0]
 233:Lib/AI_Runtime/Npu/ll_aton/ll_aton.h ****     unsigned clipout : 1;      /**< Controls output clipping to range specified by clip range confi
 234:Lib/AI_Runtime/Npu/ll_aton/ll_aton.h ****                                 *  0=disable */
 235:Lib/AI_Runtime/Npu/ll_aton/ll_aton.h ****     signed char shift_y;       /**< Input feature data shift for stream Y. Use negative values for 
 236:Lib/AI_Runtime/Npu/ll_aton/ll_aton.h ****     unsigned rounding_o : 1;   /**< Rounding control, 1=enable, 0=disable */
 237:Lib/AI_Runtime/Npu/ll_aton/ll_aton.h ****     unsigned saturation_o : 1; /**< Saturation control, 1=enable, 0=disable */
 238:Lib/AI_Runtime/Npu/ll_aton/ll_aton.h ****     unsigned round_mode_o : 1; /**< Otput rounding mode control */
 239:Lib/AI_Runtime/Npu/ll_aton/ll_aton.h ****     unsigned relu_mode_o : 1;  /**< Apply Relu operation before rounding */
 240:Lib/AI_Runtime/Npu/ll_aton/ll_aton.h ****     unsigned outbytes_o : 2;   /**< Number of output bytes: 1 or 2 */
 241:Lib/AI_Runtime/Npu/ll_aton/ll_aton.h ****     unsigned char shift_o;     /**< Optional right shift to apply to final result of operation */
 242:Lib/AI_Runtime/Npu/ll_aton/ll_aton.h ****     unsigned scalar : 1;       /**< Set Scalar/Vector mode */
 243:Lib/AI_Runtime/Npu/ll_aton/ll_aton.h ****     unsigned dualinput : 1;    /**< Dual input control, 1=both X,Y streams valid, 0=only X stream i
 244:Lib/AI_Runtime/Npu/ll_aton/ll_aton.h ****     LL_Arithacc_Op operation;  /**< Arithmetic operation to be applied. See LL_Arithacc_Op */
 245:Lib/AI_Runtime/Npu/ll_aton/ll_aton.h ****     LL_Arithacc_Bcast bcast;   /**< Set constant broadcast modes. See LL_Arithacc_Bcast */
 246:Lib/AI_Runtime/Npu/ll_aton/ll_aton.h ****     unsigned char Ax_shift;    /**< Optional right shift to result of Ax */
 247:Lib/AI_Runtime/Npu/ll_aton/ll_aton.h ****     unsigned char By_shift;    /**< Optional right shift to result of By */
 248:Lib/AI_Runtime/Npu/ll_aton/ll_aton.h ****     unsigned char C_shift;     /**< Optional left shift to apply to C */
 249:Lib/AI_Runtime/Npu/ll_aton/ll_aton.h ****     unsigned fWidth;           /**< Feature width */
 250:Lib/AI_Runtime/Npu/ll_aton/ll_aton.h ****     unsigned fHeight;          /**< Feature height */
 251:Lib/AI_Runtime/Npu/ll_aton/ll_aton.h ****     unsigned short fChannels;  /**< Number of feature channels */
 252:Lib/AI_Runtime/Npu/ll_aton/ll_aton.h ****     unsigned short batchDepth; /**< Batch depth */
 253:Lib/AI_Runtime/Npu/ll_aton/ll_aton.h ****     short clipmin;             /**< Signed 16b value specifying output clip min */
ARM GAS  /tmp/ccgbPSBw.s 			page 121


 254:Lib/AI_Runtime/Npu/ll_aton/ll_aton.h ****     short clipmax;             /**< Signed 16b value specifying output clip max */
 255:Lib/AI_Runtime/Npu/ll_aton/ll_aton.h ****     short A_scalar;            /**< Scalar coefficient A */
 256:Lib/AI_Runtime/Npu/ll_aton/ll_aton.h ****     short B_scalar;            /**< Scalar coefficient B */
 257:Lib/AI_Runtime/Npu/ll_aton/ll_aton.h ****     short C_scalar;            /**< Scalar coefficient C */
 258:Lib/AI_Runtime/Npu/ll_aton/ll_aton.h ****     ll_aton_pointer A_vector;  /**< Address of A vector table */
 259:Lib/AI_Runtime/Npu/ll_aton/ll_aton.h ****     ll_aton_pointer B_vector;  /**< Address of B vector table */
 260:Lib/AI_Runtime/Npu/ll_aton/ll_aton.h ****     ll_aton_pointer C_vector;  /**< Address of C vector table */
 261:Lib/AI_Runtime/Npu/ll_aton/ll_aton.h ****     unsigned char vec_precision[3]; /**< Number of bits for A, B and C vectors */
 262:Lib/AI_Runtime/Npu/ll_aton/ll_aton.h ****   } LL_Arithacc_InitTypeDef;
 263:Lib/AI_Runtime/Npu/ll_aton/ll_aton.h **** 
 264:Lib/AI_Runtime/Npu/ll_aton/ll_aton.h ****   /** @defgroup LL_ARITH Arithmetic Unit configuration functions
 265:Lib/AI_Runtime/Npu/ll_aton/ll_aton.h ****    * @{
 266:Lib/AI_Runtime/Npu/ll_aton/ll_aton.h ****    */
 267:Lib/AI_Runtime/Npu/ll_aton/ll_aton.h ****   int LL_Arithacc_Init(int id, const LL_Arithacc_InitTypeDef *Arithacc_InitStruct);
 268:Lib/AI_Runtime/Npu/ll_aton/ll_aton.h ****   /**
 269:Lib/AI_Runtime/Npu/ll_aton/ll_aton.h ****    * @}
 270:Lib/AI_Runtime/Npu/ll_aton/ll_aton.h ****    */
 271:Lib/AI_Runtime/Npu/ll_aton/ll_aton.h **** 
 272:Lib/AI_Runtime/Npu/ll_aton/ll_aton.h ****   typedef enum
 273:Lib/AI_Runtime/Npu/ll_aton/ll_aton.h ****   {
 274:Lib/AI_Runtime/Npu/ll_aton/ll_aton.h ****     AFILT_MODE_NONE = 0,
 275:Lib/AI_Runtime/Npu/ll_aton/ll_aton.h ****     AFILT_MODE_PIXELDROP = 1,
 276:Lib/AI_Runtime/Npu/ll_aton/ll_aton.h ****     AFILT_MODE_FRAMEDROP = 2,
 277:Lib/AI_Runtime/Npu/ll_aton/ll_aton.h ****     AFILT_MODE_FRAMEZERO = 3
 278:Lib/AI_Runtime/Npu/ll_aton/ll_aton.h ****   } LL_Convacc_Afilt_Mode;
 279:Lib/AI_Runtime/Npu/ll_aton/ll_aton.h **** 
 280:Lib/AI_Runtime/Npu/ll_aton/ll_aton.h ****   /**
 281:Lib/AI_Runtime/Npu/ll_aton/ll_aton.h ****    *	@brief Convolutional Accelerator configuration structure
 282:Lib/AI_Runtime/Npu/ll_aton/ll_aton.h ****    */
 283:Lib/AI_Runtime/Npu/ll_aton/ll_aton.h ****   typedef struct
 284:Lib/AI_Runtime/Npu/ll_aton/ll_aton.h ****   {
 285:Lib/AI_Runtime/Npu/ll_aton/ll_aton.h ****     unsigned rounding_f : 1;           /**< Input feature data rounding */
 286:Lib/AI_Runtime/Npu/ll_aton/ll_aton.h ****     unsigned saturation_f : 1;         /**< Input feature data saturation */
 287:Lib/AI_Runtime/Npu/ll_aton/ll_aton.h ****     unsigned round_mode_f : 2;         /**< Output data rounding mode */
 288:Lib/AI_Runtime/Npu/ll_aton/ll_aton.h ****     unsigned inbytes_f : 2;            /**< Input data width in bytes */
 289:Lib/AI_Runtime/Npu/ll_aton/ll_aton.h ****     unsigned rounding_o : 1;           /**< Output data rounding after right shift */
 290:Lib/AI_Runtime/Npu/ll_aton/ll_aton.h ****     unsigned saturation_o : 1;         /**< Output saturation */
 291:Lib/AI_Runtime/Npu/ll_aton/ll_aton.h ****     unsigned round_mode_o : 1;         /**< Output data rounding mode */
 292:Lib/AI_Runtime/Npu/ll_aton/ll_aton.h ****     unsigned relu_mode_o : 1;          /**< Apply Relu operation before rounding */
 293:Lib/AI_Runtime/Npu/ll_aton/ll_aton.h ****     unsigned outbytes_o : 2;           /**< Output data width in bytes */
 294:Lib/AI_Runtime/Npu/ll_aton/ll_aton.h ****     unsigned simd : 2;                 /**< Enable 8x8bit (1) or 16x8bit (2) SIMD mode */
 295:Lib/AI_Runtime/Npu/ll_aton/ll_aton.h ****     unsigned accumulate : 1;           /**< Sum and synchronize with stream link input #2 */
 296:Lib/AI_Runtime/Npu/ll_aton/ll_aton.h ****     unsigned accumulate_first : 1;     /**< No sum and synchronization with stream link input #2 fo
 297:Lib/AI_Runtime/Npu/ll_aton/ll_aton.h ****     unsigned accumulate_gen_first : 1; /**< Generate first accumulator input frame internally */
 298:Lib/AI_Runtime/Npu/ll_aton/ll_aton.h ****     unsigned fstat : 1;                /**< Feature data stationary */
 299:Lib/AI_Runtime/Npu/ll_aton/ll_aton.h ****     unsigned raw_o : 1;                /**< Use RAW file output format */
 300:Lib/AI_Runtime/Npu/ll_aton/ll_aton.h ****     unsigned kt1_mode : 1;             /**< Load kernel from T1 buffer */
 301:Lib/AI_Runtime/Npu/ll_aton/ll_aton.h ****     unsigned deepmode : 1;             /**< Enable Deep1x1 optimized mode */
 302:Lib/AI_Runtime/Npu/ll_aton/ll_aton.h ****     unsigned dss2mode : 1;             /**< Enable DSS2 (depth separable stride 2) optimized mode *
 303:Lib/AI_Runtime/Npu/ll_aton/ll_aton.h ****     unsigned f_unsigned : 1;           /**< Feature data unsigned */
 304:Lib/AI_Runtime/Npu/ll_aton/ll_aton.h ****     unsigned k_unsigned : 1;           /**< Kernel data unsigned */
 305:Lib/AI_Runtime/Npu/ll_aton/ll_aton.h ****     unsigned kseten : 2;               /**< Enable kernel set 0 (bit 0) or 1 (bit 1) if KT1 is 1,
 306:Lib/AI_Runtime/Npu/ll_aton/ll_aton.h ****                                         *   otherwise select byte 1 (0), byte 2 (1), byte 3 (2) or
 307:Lib/AI_Runtime/Npu/ll_aton/ll_aton.h ****                                         *   all bytes (Deep1x1 mode only) (3) of kernel stream in S
 308:Lib/AI_Runtime/Npu/ll_aton/ll_aton.h ****     unsigned char shift_f;             /**< Input feature data shift */
 309:Lib/AI_Runtime/Npu/ll_aton/ll_aton.h ****     unsigned char shift_a;             /**< Accumulator data input signed left shift */
 310:Lib/AI_Runtime/Npu/ll_aton/ll_aton.h ****     unsigned char shift_o;             /**< Result data output signed right shift */
ARM GAS  /tmp/ccgbPSBw.s 			page 122


 311:Lib/AI_Runtime/Npu/ll_aton/ll_aton.h ****     unsigned fWidth;                   /**< Feature data width */
 312:Lib/AI_Runtime/Npu/ll_aton/ll_aton.h ****     unsigned fHeight;                  /**< Feature data height */
 313:Lib/AI_Runtime/Npu/ll_aton/ll_aton.h ****     unsigned char kernelWidth;         /**< Kernel width */
 314:Lib/AI_Runtime/Npu/ll_aton/ll_aton.h ****     unsigned char kernelHeight;        /**< Kernel height */
 315:Lib/AI_Runtime/Npu/ll_aton/ll_aton.h ****     unsigned char nKernels;            /**< Total number of parallel kernels */
 316:Lib/AI_Runtime/Npu/ll_aton/ll_aton.h ****     unsigned short batchDepth;         /**< Batch Depth */
 317:Lib/AI_Runtime/Npu/ll_aton/ll_aton.h ****     unsigned char hstride;             /**< Horizontal stride */
 318:Lib/AI_Runtime/Npu/ll_aton/ll_aton.h ****     unsigned char vstride;             /**< Vertical stride */
 319:Lib/AI_Runtime/Npu/ll_aton/ll_aton.h ****     unsigned short left_padding;       /**< Number of vertical left dummy columns */
 320:Lib/AI_Runtime/Npu/ll_aton/ll_aton.h ****     unsigned short right_padding;      /**< Number of vertical right dummy columns */
 321:Lib/AI_Runtime/Npu/ll_aton/ll_aton.h ****     unsigned short top_padding;        /**< Number of horizontal top dummy lines */
 322:Lib/AI_Runtime/Npu/ll_aton/ll_aton.h ****     unsigned short bot_padding;        /**< Number of horizontal bottom dummy lines */
 323:Lib/AI_Runtime/Npu/ll_aton/ll_aton.h ****     unsigned short left_crop;          /**< Left feature data boundary */
 324:Lib/AI_Runtime/Npu/ll_aton/ll_aton.h ****     unsigned short right_crop;         /**< Right feature data boundary */
 325:Lib/AI_Runtime/Npu/ll_aton/ll_aton.h ****     unsigned short top_crop;           /**< Top feature data boundary */
 326:Lib/AI_Runtime/Npu/ll_aton/ll_aton.h ****     unsigned short bot_crop;           /**< Bottom feature data boundary */
 327:Lib/AI_Runtime/Npu/ll_aton/ll_aton.h ****     unsigned short fstatcnt;           /**< Number of frames before next reload of feature stationa
 328:Lib/AI_Runtime/Npu/ll_aton/ll_aton.h ****     LL_Convacc_Afilt_Mode afilt_mode;  /**< Accumulator port filter mode. See LL_Convacc_Afilt_Mode
 329:Lib/AI_Runtime/Npu/ll_aton/ll_aton.h ****     unsigned char afilt_tot;           /**< Total number of accumulation tensors */
 330:Lib/AI_Runtime/Npu/ll_aton/ll_aton.h ****     unsigned char afilt_first;         /**< First accumulation tensor */
 331:Lib/AI_Runtime/Npu/ll_aton/ll_aton.h ****     unsigned char afilt_last;          /**< Last accumulation tensor */
 332:Lib/AI_Runtime/Npu/ll_aton/ll_aton.h ****     unsigned char kfilt_tot;           /**< Total number of kernels */
 333:Lib/AI_Runtime/Npu/ll_aton/ll_aton.h ****     unsigned char kfilt_first;         /**< First kernel */
 334:Lib/AI_Runtime/Npu/ll_aton/ll_aton.h ****     unsigned char kfilt_last;          /**< Last kernel */
 335:Lib/AI_Runtime/Npu/ll_aton/ll_aton.h ****     int fsub;                          /**< Feature data subtract value */
 336:Lib/AI_Runtime/Npu/ll_aton/ll_aton.h ****     short zfbias;                      /**< Bias added to zero frames */
 337:Lib/AI_Runtime/Npu/ll_aton/ll_aton.h ****   } LL_Convacc_InitTypeDef;
 338:Lib/AI_Runtime/Npu/ll_aton/ll_aton.h **** 
 339:Lib/AI_Runtime/Npu/ll_aton/ll_aton.h ****   /** @defgroup LL_CONVACC Convolutional accelerator unit configuration functions
 340:Lib/AI_Runtime/Npu/ll_aton/ll_aton.h ****    * @{
 341:Lib/AI_Runtime/Npu/ll_aton/ll_aton.h ****    */
 342:Lib/AI_Runtime/Npu/ll_aton/ll_aton.h ****   int LL_Convacc_Init(int id, const LL_Convacc_InitTypeDef *Convacc_InitStruct);
 343:Lib/AI_Runtime/Npu/ll_aton/ll_aton.h ****   /**
 344:Lib/AI_Runtime/Npu/ll_aton/ll_aton.h ****    * @}
 345:Lib/AI_Runtime/Npu/ll_aton/ll_aton.h ****    */
 346:Lib/AI_Runtime/Npu/ll_aton/ll_aton.h **** 
 347:Lib/AI_Runtime/Npu/ll_aton/ll_aton.h ****   /**
 348:Lib/AI_Runtime/Npu/ll_aton/ll_aton.h ****    * @brief Pooling Acceleration supported operations
 349:Lib/AI_Runtime/Npu/ll_aton/ll_aton.h ****    */
 350:Lib/AI_Runtime/Npu/ll_aton/ll_aton.h ****   typedef enum
 351:Lib/AI_Runtime/Npu/ll_aton/ll_aton.h ****   {
 352:Lib/AI_Runtime/Npu/ll_aton/ll_aton.h ****     POOL_MAX = 1,
 353:Lib/AI_Runtime/Npu/ll_aton/ll_aton.h ****     POOL_MIN,
 354:Lib/AI_Runtime/Npu/ll_aton/ll_aton.h ****     POOL_AVG,
 355:Lib/AI_Runtime/Npu/ll_aton/ll_aton.h ****     POOL_GMAX,
 356:Lib/AI_Runtime/Npu/ll_aton/ll_aton.h ****     POOL_GMIN,
 357:Lib/AI_Runtime/Npu/ll_aton/ll_aton.h ****     POOL_GAVG
 358:Lib/AI_Runtime/Npu/ll_aton/ll_aton.h ****   } LL_Poolacc_Op;
 359:Lib/AI_Runtime/Npu/ll_aton/ll_aton.h **** 
 360:Lib/AI_Runtime/Npu/ll_aton/ll_aton.h ****   /**
 361:Lib/AI_Runtime/Npu/ll_aton/ll_aton.h ****    * @brief Pooling Accelerator configuration structure
 362:Lib/AI_Runtime/Npu/ll_aton/ll_aton.h ****    */
 363:Lib/AI_Runtime/Npu/ll_aton/ll_aton.h ****   typedef struct
 364:Lib/AI_Runtime/Npu/ll_aton/ll_aton.h ****   {
 365:Lib/AI_Runtime/Npu/ll_aton/ll_aton.h ****     LL_Poolacc_Op operation;   /**< Pooling operation type. See LL_Poolacc_Op */
 366:Lib/AI_Runtime/Npu/ll_aton/ll_aton.h ****     unsigned avgnopad : 1;     /**< Average pooling operation without padding */
 367:Lib/AI_Runtime/Npu/ll_aton/ll_aton.h ****     unsigned short inputX;     /**< Size X of the input feature */
ARM GAS  /tmp/ccgbPSBw.s 			page 123


 368:Lib/AI_Runtime/Npu/ll_aton/ll_aton.h ****     unsigned short inputY;     /**< Size Y of the input feature */
 369:Lib/AI_Runtime/Npu/ll_aton/ll_aton.h ****     unsigned short outputX;    /**< Size X of the output data */
 370:Lib/AI_Runtime/Npu/ll_aton/ll_aton.h ****     unsigned short outputY;    /**< Size Y of the output data */
 371:Lib/AI_Runtime/Npu/ll_aton/ll_aton.h ****     unsigned char poolWinX;    /**< Size X of pooling window */
 372:Lib/AI_Runtime/Npu/ll_aton/ll_aton.h ****     unsigned char poolWinY;    /**< Size Y of pooling window */
 373:Lib/AI_Runtime/Npu/ll_aton/ll_aton.h ****     unsigned char strideX;     /**< Stride value in X direction */
 374:Lib/AI_Runtime/Npu/ll_aton/ll_aton.h ****     unsigned char strideY;     /**< Stride value in Y direction */
 375:Lib/AI_Runtime/Npu/ll_aton/ll_aton.h ****     unsigned short topCrop;    /**< Top cropping size */
 376:Lib/AI_Runtime/Npu/ll_aton/ll_aton.h ****     unsigned short bottomCrop; /**< Bottom cropping size */
 377:Lib/AI_Runtime/Npu/ll_aton/ll_aton.h ****     unsigned short leftCrop;   /**< Left cropping size */
 378:Lib/AI_Runtime/Npu/ll_aton/ll_aton.h ****     unsigned short rightCrop;  /**< Right cropping size */
 379:Lib/AI_Runtime/Npu/ll_aton/ll_aton.h ****     unsigned short topPad;     /**< Top padding size */
 380:Lib/AI_Runtime/Npu/ll_aton/ll_aton.h ****     unsigned short bottomPad;  /**< Bottom padding size */
 381:Lib/AI_Runtime/Npu/ll_aton/ll_aton.h ****     unsigned short leftPad;    /**< Left padding size */
 382:Lib/AI_Runtime/Npu/ll_aton/ll_aton.h ****     unsigned short rightPad;   /**< Right padding size */
 383:Lib/AI_Runtime/Npu/ll_aton/ll_aton.h ****     unsigned short batchSize;  /**< Batch size */
 384:Lib/AI_Runtime/Npu/ll_aton/ll_aton.h ****     unsigned char shift_f;     /**< Input feature data shift */
 385:Lib/AI_Runtime/Npu/ll_aton/ll_aton.h ****     unsigned char shift_o;     /**< Optional right shift to apply the average pooling output */
 386:Lib/AI_Runtime/Npu/ll_aton/ll_aton.h ****     unsigned dualLine : 1;     /**< Enable dual line, allows each linebuffer line to work as 2 line
 387:Lib/AI_Runtime/Npu/ll_aton/ll_aton.h ****                                 *   applicable for 8-bit data */
 388:Lib/AI_Runtime/Npu/ll_aton/ll_aton.h ****     unsigned nbytes : 2;       /**< input data number of bytes */
 389:Lib/AI_Runtime/Npu/ll_aton/ll_aton.h ****     unsigned rounding_f : 1;   /**< Input feature data rounding */
 390:Lib/AI_Runtime/Npu/ll_aton/ll_aton.h ****     unsigned saturation_f : 1; /**< Input feature data saturation */
 391:Lib/AI_Runtime/Npu/ll_aton/ll_aton.h ****     unsigned round_mode_f : 2; /**< Rounding mode to apply to input feature data */
 392:Lib/AI_Runtime/Npu/ll_aton/ll_aton.h ****     unsigned inbytes_f : 2;    /**< Input data width in bytes. Valid values are 1, 2 or 3 bytes */
 393:Lib/AI_Runtime/Npu/ll_aton/ll_aton.h ****     unsigned outbytes_f : 2;   /**< Number of output bytes to use for final result after rounding o
 394:Lib/AI_Runtime/Npu/ll_aton/ll_aton.h ****                                 *   Valid values are 1 or 2 bytes */
 395:Lib/AI_Runtime/Npu/ll_aton/ll_aton.h ****     unsigned rounding_o : 1;   /**< Enable output rounding using round-to-nearest (round up)
 396:Lib/AI_Runtime/Npu/ll_aton/ll_aton.h ****                                 *   (applicable to average pooling operations) */
 397:Lib/AI_Runtime/Npu/ll_aton/ll_aton.h ****     unsigned saturation_o : 1; /**< Enable output saturation (applicable to average pooling operati
 398:Lib/AI_Runtime/Npu/ll_aton/ll_aton.h ****     unsigned round_mode_o : 1; /**< Rounding mode to apply to output feature data */
 399:Lib/AI_Runtime/Npu/ll_aton/ll_aton.h ****     unsigned relu_mode_o : 1;  /**< Apply Relu operation before rounding */
 400:Lib/AI_Runtime/Npu/ll_aton/ll_aton.h ****     unsigned outbytes_o : 2;   /**< Number of output bytes to use for final result after rounding o
 401:Lib/AI_Runtime/Npu/ll_aton/ll_aton.h ****                                 *   Valid values are 1 or 2 bytes */
 402:Lib/AI_Runtime/Npu/ll_aton/ll_aton.h ****     short mulval;              /**< constant to be multiplied to accumulated sum of pooling window.
 403:Lib/AI_Runtime/Npu/ll_aton/ll_aton.h ****                                 * For average operation, it represents the reciprocal of the diviso
 404:Lib/AI_Runtime/Npu/ll_aton/ll_aton.h ****                                 * The average is computed by multiplying this constant with the acc
 405:Lib/AI_Runtime/Npu/ll_aton/ll_aton.h ****                                 * relevant right shift at the output. (Applicable to average poolin
 406:Lib/AI_Runtime/Npu/ll_aton/ll_aton.h ****     unsigned pad_val_en : 1;   /**< Enable padding value */
 407:Lib/AI_Runtime/Npu/ll_aton/ll_aton.h ****     short pad_val;             /**< Padding value to be used for padding operation */
 408:Lib/AI_Runtime/Npu/ll_aton/ll_aton.h ****   } LL_Poolacc_InitTypeDef;
 409:Lib/AI_Runtime/Npu/ll_aton/ll_aton.h **** 
 410:Lib/AI_Runtime/Npu/ll_aton/ll_aton.h ****   /**
 411:Lib/AI_Runtime/Npu/ll_aton/ll_aton.h ****    * @brief Epoch Controller configuration structure
 412:Lib/AI_Runtime/Npu/ll_aton/ll_aton.h ****    */
 413:Lib/AI_Runtime/Npu/ll_aton/ll_aton.h ****   typedef struct
 414:Lib/AI_Runtime/Npu/ll_aton/ll_aton.h ****   {
 415:Lib/AI_Runtime/Npu/ll_aton/ll_aton.h ****     uint32_t blobaddr;     /**< Blob code start address. Must be 8 byte aligned */
 416:Lib/AI_Runtime/Npu/ll_aton/ll_aton.h ****     unsigned stepmode : 1; /**< Enable step mode. Used for debugging purposes */
 417:Lib/AI_Runtime/Npu/ll_aton/ll_aton.h ****   } LL_EpochCtrl_InitTypeDef;
 418:Lib/AI_Runtime/Npu/ll_aton/ll_aton.h **** 
 419:Lib/AI_Runtime/Npu/ll_aton/ll_aton.h ****   /** @defgroup LL_POOL Pooling unit configuration functions
 420:Lib/AI_Runtime/Npu/ll_aton/ll_aton.h ****    * @{
 421:Lib/AI_Runtime/Npu/ll_aton/ll_aton.h ****    */
 422:Lib/AI_Runtime/Npu/ll_aton/ll_aton.h ****   int LL_Poolacc_Init(int id, const LL_Poolacc_InitTypeDef *conf);
 423:Lib/AI_Runtime/Npu/ll_aton/ll_aton.h ****   /**
 424:Lib/AI_Runtime/Npu/ll_aton/ll_aton.h ****    * @}
ARM GAS  /tmp/ccgbPSBw.s 			page 124


 425:Lib/AI_Runtime/Npu/ll_aton/ll_aton.h ****    */
 426:Lib/AI_Runtime/Npu/ll_aton/ll_aton.h **** 
 427:Lib/AI_Runtime/Npu/ll_aton/ll_aton.h ****   /**
 428:Lib/AI_Runtime/Npu/ll_aton/ll_aton.h ****    * @brief Streaming engine configuration structure
 429:Lib/AI_Runtime/Npu/ll_aton/ll_aton.h ****    */
 430:Lib/AI_Runtime/Npu/ll_aton/ll_aton.h ****   typedef struct
 431:Lib/AI_Runtime/Npu/ll_aton/ll_aton.h ****   {
 432:Lib/AI_Runtime/Npu/ll_aton/ll_aton.h ****     unsigned dir : 1;             /**< Stream Direction: 0 input, 1 output */
 433:Lib/AI_Runtime/Npu/ll_aton/ll_aton.h ****     unsigned raw : 1;             /**< Set RAW mode (1) or raster mode (0) */
 434:Lib/AI_Runtime/Npu/ll_aton/ll_aton.h ****     unsigned raw_out : 1;         /**< Force RAW output (bus to stream only)
 435:Lib/AI_Runtime/Npu/ll_aton/ll_aton.h ****                                    *   even if the engine is programmed in raster mode */
 436:Lib/AI_Runtime/Npu/ll_aton/ll_aton.h ****     unsigned continuous : 1;      /**< Do not restart address pointer at end of frame */
 437:Lib/AI_Runtime/Npu/ll_aton/ll_aton.h ****     unsigned noblk : 1;           /**< Do not use blocks wider that the native bus size */
 438:Lib/AI_Runtime/Npu/ll_aton/ll_aton.h ****     unsigned noinc : 1;           /**< Do not increment address */
 439:Lib/AI_Runtime/Npu/ll_aton/ll_aton.h ****     unsigned align_right : 1;     /**< Alignment for data on switch (default left) */
 440:Lib/AI_Runtime/Npu/ll_aton/ll_aton.h ****     unsigned mem_lsb : 1;         /**< For when nbits_in != nbits_out to decide which bits are read
 441:Lib/AI_Runtime/Npu/ll_aton/ll_aton.h ****                                    *   (default msb) */
 442:Lib/AI_Runtime/Npu/ll_aton/ll_aton.h ****     unsigned sync_with_other : 1; /**< Enable synchronizations signals between engines */
 443:Lib/AI_Runtime/Npu/ll_aton/ll_aton.h ****     unsigned nbits_unsigned : 1;  /**< Disable sign extension */
 444:Lib/AI_Runtime/Npu/ll_aton/ll_aton.h ****     unsigned bus_cid : 3;         /**< Set Compartment ID cache attribute */
 445:Lib/AI_Runtime/Npu/ll_aton/ll_aton.h ****     unsigned cacheable : 1;       /**< Set cacheable bus attribute */
 446:Lib/AI_Runtime/Npu/ll_aton/ll_aton.h ****     unsigned cache_allocate : 1;  /**< Set cache allocate bus attribute */
 447:Lib/AI_Runtime/Npu/ll_aton/ll_aton.h ****     unsigned bus_pfetch : 1;      /**< Enable bus prefetch */
 448:Lib/AI_Runtime/Npu/ll_aton/ll_aton.h ****     unsigned cache_linesize : 2;  /**< Cache Line size: 0 -> 64B, 1 -> 128B, 2 -> 256B, 3 -> 512B *
 449:Lib/AI_Runtime/Npu/ll_aton/ll_aton.h ****     unsigned cipher_en : 1;       /**< Enable ciphering: 0 -> disable, 1-> enable  */
 450:Lib/AI_Runtime/Npu/ll_aton/ll_aton.h ****     unsigned key_sel : 1;         /**< Bus Interface key to be used for ciphering (0, 1) */
 451:Lib/AI_Runtime/Npu/ll_aton/ll_aton.h ****     unsigned char sync_dma;       /**< Synchronization signals source engine */
 452:Lib/AI_Runtime/Npu/ll_aton/ll_aton.h ****     ll_aton_pointer addr_base;    /**< Source/Destination base address */
 453:Lib/AI_Runtime/Npu/ll_aton/ll_aton.h ****     unsigned offset_start;        /**< Offset of the Source/Destination start address from the base
 454:Lib/AI_Runtime/Npu/ll_aton/ll_aton.h ****     unsigned offset_end;          /**< Offset of the Source/Destination end address from the base a
 455:Lib/AI_Runtime/Npu/ll_aton/ll_aton.h ****     unsigned offset_limit;        /**< Offset of the Stream engine address limit from the base addr
 456:Lib/AI_Runtime/Npu/ll_aton/ll_aton.h ****                                    *   Used to prevent prefetch beyond memory boundaries */
 457:Lib/AI_Runtime/Npu/ll_aton/ll_aton.h ****     unsigned frame_count;         /**< Number of frames to transfer */
 458:Lib/AI_Runtime/Npu/ll_aton/ll_aton.h ****     unsigned fwidth;              /**< Frame width (pixel per line) */
 459:Lib/AI_Runtime/Npu/ll_aton/ll_aton.h ****     unsigned fheight;             /**< Frame height (number of lines) */
 460:Lib/AI_Runtime/Npu/ll_aton/ll_aton.h ****     unsigned batch_depth;         /**< Batch depth (subpix per pixel) */
 461:Lib/AI_Runtime/Npu/ll_aton/ll_aton.h ****     unsigned batch_offset;        /**< Offset (bytes) between batches */
 462:Lib/AI_Runtime/Npu/ll_aton/ll_aton.h ****     unsigned frame_offset;        /**< Offset between multiple frames within frame repetition loop 
 463:Lib/AI_Runtime/Npu/ll_aton/ll_aton.h ****     unsigned line_offset;         /**< Offset between multiple frames within frame repetition loop.
 464:Lib/AI_Runtime/Npu/ll_aton/ll_aton.h ****                                    *   If set to zero it's derived from width and batch_offset */
 465:Lib/AI_Runtime/Npu/ll_aton/ll_aton.h ****     unsigned loop_offset;         /**< Offset between frame repetition loops */
 466:Lib/AI_Runtime/Npu/ll_aton/ll_aton.h ****     unsigned frame_loop_cnt;      /**< Number of frames to loop */
 467:Lib/AI_Runtime/Npu/ll_aton/ll_aton.h ****     unsigned
 468:Lib/AI_Runtime/Npu/ll_aton/ll_aton.h ****         loop_offset2; /**< 2nd level offset between frame repetition loops. If set, has priority ov
 469:Lib/AI_Runtime/Npu/ll_aton/ll_aton.h ****     unsigned frame_loop_cnt2; /**< 2nd level number of frames to loop */
 470:Lib/AI_Runtime/Npu/ll_aton/ll_aton.h ****     unsigned frame_tot_cnt;   /**< Frame limit */
 471:Lib/AI_Runtime/Npu/ll_aton/ll_aton.h ****     unsigned char nbits_in;   /**< Data size in bits if reading */
 472:Lib/AI_Runtime/Npu/ll_aton/ll_aton.h ****     unsigned char nbits_out;  /**< Data size in bits if writing */
 473:Lib/AI_Runtime/Npu/ll_aton/ll_aton.h ****   } LL_Streng_TensorInitTypeDef;
 474:Lib/AI_Runtime/Npu/ll_aton/ll_aton.h **** 
 475:Lib/AI_Runtime/Npu/ll_aton/ll_aton.h ****   static inline unsigned char *LL_Streng_addr_start(const LL_Streng_TensorInitTypeDef *conf)
 476:Lib/AI_Runtime/Npu/ll_aton/ll_aton.h ****   {
 477:Lib/AI_Runtime/Npu/ll_aton/ll_aton.h ****     return conf->addr_base.p + conf->offset_start;
 478:Lib/AI_Runtime/Npu/ll_aton/ll_aton.h ****   }
 479:Lib/AI_Runtime/Npu/ll_aton/ll_aton.h **** 
 480:Lib/AI_Runtime/Npu/ll_aton/ll_aton.h ****   static inline unsigned char *LL_Streng_addr_end(const LL_Streng_TensorInitTypeDef *conf)
 481:Lib/AI_Runtime/Npu/ll_aton/ll_aton.h ****   {
ARM GAS  /tmp/ccgbPSBw.s 			page 125


 482:Lib/AI_Runtime/Npu/ll_aton/ll_aton.h ****     return conf->addr_base.p + conf->offset_end;
 483:Lib/AI_Runtime/Npu/ll_aton/ll_aton.h ****   }
 484:Lib/AI_Runtime/Npu/ll_aton/ll_aton.h **** 
 485:Lib/AI_Runtime/Npu/ll_aton/ll_aton.h ****   static inline unsigned char *LL_Streng_addr_limit(const LL_Streng_TensorInitTypeDef *conf)
 486:Lib/AI_Runtime/Npu/ll_aton/ll_aton.h ****   {
 487:Lib/AI_Runtime/Npu/ll_aton/ll_aton.h ****     return conf->addr_base.p + conf->offset_limit;
 488:Lib/AI_Runtime/Npu/ll_aton/ll_aton.h ****   }
 489:Lib/AI_Runtime/Npu/ll_aton/ll_aton.h **** 
 490:Lib/AI_Runtime/Npu/ll_aton/ll_aton.h ****   static inline uint32_t LL_Streng_len(const LL_Streng_TensorInitTypeDef *conf)
 3176              		.loc 2 490 26 view .LVU954
 3177              	.LBB38:
 491:Lib/AI_Runtime/Npu/ll_aton/ll_aton.h ****   {
 492:Lib/AI_Runtime/Npu/ll_aton/ll_aton.h ****     return conf->offset_end - conf->offset_start;
 3178              		.loc 2 492 5 view .LVU955
 3179              		.loc 2 492 5 is_stmt 0 view .LVU956
 3180              	.LBE38:
 3181              	.LBE37:
 655:Lib/AI_Runtime/Npu/ll_aton/ll_aton.c ****     }
 3182              		.loc 1 655 72 discriminator 1 view .LVU957
 3183 0148 10F0010F 		tst	r0, #1
 3184 014c 18BF     		it	ne
 3185 014e 6646     		movne	r6, ip
 3186              	.LBB40:
 3187              	.LBB39:
 3188              		.loc 2 492 29 view .LVU958
 3189 0150 EB68     		ldr	r3, [r5, #12]
 3190 0152 A3EB0E03 		sub	r3, r3, lr
 3191              	.LBE39:
 3192              	.LBE40:
 655:Lib/AI_Runtime/Npu/ll_aton/ll_aton.c ****     }
 3193              		.loc 1 655 32 discriminator 1 view .LVU959
 3194 0156 DB00     		lsls	r3, r3, #3
 655:Lib/AI_Runtime/Npu/ll_aton/ll_aton.c ****     }
 3195              		.loc 1 655 9 discriminator 4 view .LVU960
 3196 0158 B3FBF6F3 		udiv	r3, r3, r6
 3197              	.LVL351:
 3198              	.L257:
 657:Lib/AI_Runtime/Npu/ll_aton/ll_aton.c ****   }
 3199              		.loc 1 657 5 is_stmt 1 view .LVU961
 657:Lib/AI_Runtime/Npu/ll_aton/ll_aton.c ****   }
 3200              		.loc 1 657 5 view .LVU962
 500:Lib/AI_Runtime/Npu/ll_aton/ll_aton.c ****   uint32_t t_streng_event = ATON_STRENG_EVENT_DT;
 3201              		.loc 1 500 12 is_stmt 0 view .LVU963
 3202 015c 0020     		movs	r0, #0
 657:Lib/AI_Runtime/Npu/ll_aton/ll_aton.c ****   }
 3203              		.loc 1 657 5 view .LVU964
 3204 015e E360     		str	r3, [r4, #12]
 657:Lib/AI_Runtime/Npu/ll_aton/ll_aton.c ****   }
 3205              		.loc 1 657 5 is_stmt 1 view .LVU965
 657:Lib/AI_Runtime/Npu/ll_aton/ll_aton.c ****   }
 3206              		.loc 1 657 33 view .LVU966
 3207              	.LVL352:
 3208              	.L260:
 3209              	.LBB41:
 679:Lib/AI_Runtime/Npu/ll_aton/ll_aton.c ****   }
 3210              		.loc 1 679 5 discriminator 1 view .LVU967
 679:Lib/AI_Runtime/Npu/ll_aton/ll_aton.c ****   }
ARM GAS  /tmp/ccgbPSBw.s 			page 126


 3211              		.loc 1 679 33 discriminator 1 view .LVU968
 3212              	.LBE41:
 682:Lib/AI_Runtime/Npu/ll_aton/ll_aton.c **** 
 3213              		.loc 1 682 3 view .LVU969
 682:Lib/AI_Runtime/Npu/ll_aton/ll_aton.c **** 
 3214              		.loc 1 682 3 view .LVU970
 3215 0160 AB6A     		ldr	r3, [r5, #40]
 3216              	.LVL353:
 699:Lib/AI_Runtime/Npu/ll_aton/ll_aton.c **** #endif
 3217              		.loc 1 699 7 is_stmt 0 view .LVU971
 3218 0162 6FF30F01 		bfc	r1, #0, #16
 682:Lib/AI_Runtime/Npu/ll_aton/ll_aton.c **** 
 3219              		.loc 1 682 3 view .LVU972
 3220 0166 A361     		str	r3, [r4, #24]
 682:Lib/AI_Runtime/Npu/ll_aton/ll_aton.c **** 
 3221              		.loc 1 682 3 is_stmt 1 view .LVU973
 682:Lib/AI_Runtime/Npu/ll_aton/ll_aton.c **** 
 3222              		.loc 1 682 50 view .LVU974
 685:Lib/AI_Runtime/Npu/ll_aton/ll_aton.c ****   ATON_STRENG_FRAME_RPT_SET(id, conf->frame_loop_cnt);
 3223              		.loc 1 685 3 view .LVU975
 685:Lib/AI_Runtime/Npu/ll_aton/ll_aton.c ****   ATON_STRENG_FRAME_RPT_SET(id, conf->frame_loop_cnt);
 3224              		.loc 1 685 3 view .LVU976
 3225 0168 2B6B     		ldr	r3, [r5, #48]
 3226 016a 2362     		str	r3, [r4, #32]
 685:Lib/AI_Runtime/Npu/ll_aton/ll_aton.c ****   ATON_STRENG_FRAME_RPT_SET(id, conf->frame_loop_cnt);
 3227              		.loc 1 685 3 view .LVU977
 685:Lib/AI_Runtime/Npu/ll_aton/ll_aton.c ****   ATON_STRENG_FRAME_RPT_SET(id, conf->frame_loop_cnt);
 3228              		.loc 1 685 49 view .LVU978
 686:Lib/AI_Runtime/Npu/ll_aton/ll_aton.c **** 
 3229              		.loc 1 686 3 view .LVU979
 686:Lib/AI_Runtime/Npu/ll_aton/ll_aton.c **** 
 3230              		.loc 1 686 3 view .LVU980
 3231 016c 6B6B     		ldr	r3, [r5, #52]
 3232 016e E361     		str	r3, [r4, #28]
 686:Lib/AI_Runtime/Npu/ll_aton/ll_aton.c **** 
 3233              		.loc 1 686 3 view .LVU981
 686:Lib/AI_Runtime/Npu/ll_aton/ll_aton.c **** 
 3234              		.loc 1 686 54 view .LVU982
 696:Lib/AI_Runtime/Npu/ll_aton/ll_aton.c ****   t = ATON_STRENG_LIMITEN_SET_FRAMELIMIT(t, 1);
 3235              		.loc 1 696 3 view .LVU983
 3236              	.LVL354:
 697:Lib/AI_Runtime/Npu/ll_aton/ll_aton.c **** #if defined(ATON_STRENG_LIMITEN_SET_DOFF_MSB)
 3237              		.loc 1 697 3 view .LVU984
 699:Lib/AI_Runtime/Npu/ll_aton/ll_aton.c **** #endif
 3238              		.loc 1 699 3 view .LVU985
 699:Lib/AI_Runtime/Npu/ll_aton/ll_aton.c **** #endif
 3239              		.loc 1 699 5 is_stmt 0 view .LVU986
 3240 0170 41F00603 		orr	r3, r1, #6
 3241              	.LVL355:
 701:Lib/AI_Runtime/Npu/ll_aton/ll_aton.c **** 
 3242              		.loc 1 701 3 is_stmt 1 view .LVU987
 701:Lib/AI_Runtime/Npu/ll_aton/ll_aton.c **** 
 3243              		.loc 1 701 3 view .LVU988
 3244 0174 2363     		str	r3, [r4, #48]
 701:Lib/AI_Runtime/Npu/ll_aton/ll_aton.c **** 
 3245              		.loc 1 701 3 view .LVU989
 701:Lib/AI_Runtime/Npu/ll_aton/ll_aton.c **** 
ARM GAS  /tmp/ccgbPSBw.s 			page 127


 3246              		.loc 1 701 33 view .LVU990
 703:Lib/AI_Runtime/Npu/ll_aton/ll_aton.c ****   {
 3247              		.loc 1 703 3 view .LVU991
 703:Lib/AI_Runtime/Npu/ll_aton/ll_aton.c ****   {
 3248              		.loc 1 703 37 is_stmt 0 view .LVU992
 3249 0176 2B69     		ldr	r3, [r5, #16]
 3250              	.LVL356:
 703:Lib/AI_Runtime/Npu/ll_aton/ll_aton.c ****   {
 3251              		.loc 1 703 6 view .LVU993
 3252 0178 2BB1     		cbz	r3, .L262
 705:Lib/AI_Runtime/Npu/ll_aton/ll_aton.c ****     t = ATON_STRENG_LIMITEN_SET_STOPPREFTC(t, 1);
 3253              		.loc 1 705 5 is_stmt 1 view .LVU994
 3254              	.LVL357:
 706:Lib/AI_Runtime/Npu/ll_aton/ll_aton.c ****     ATON_STRENG_LIMITEN_SET(id, t);
 3255              		.loc 1 706 5 view .LVU995
 710:Lib/AI_Runtime/Npu/ll_aton/ll_aton.c ****                          conf->offset_limit - 1);
 3256              		.loc 1 710 5 is_stmt 0 view .LVU996
 3257 017a 1F44     		add	r7, r7, r3
 706:Lib/AI_Runtime/Npu/ll_aton/ll_aton.c ****     ATON_STRENG_LIMITEN_SET(id, t);
 3258              		.loc 1 706 7 view .LVU997
 3259 017c 41F00701 		orr	r1, r1, #7
 3260              	.LVL358:
 707:Lib/AI_Runtime/Npu/ll_aton/ll_aton.c ****     // NOTE: limiter is to be set to last accessible byte address
 3261              		.loc 1 707 5 is_stmt 1 view .LVU998
 707:Lib/AI_Runtime/Npu/ll_aton/ll_aton.c ****     // NOTE: limiter is to be set to last accessible byte address
 3262              		.loc 1 707 5 view .LVU999
 710:Lib/AI_Runtime/Npu/ll_aton/ll_aton.c ****                          conf->offset_limit - 1);
 3263              		.loc 1 710 5 is_stmt 0 view .LVU1000
 3264 0180 013F     		subs	r7, r7, #1
 707:Lib/AI_Runtime/Npu/ll_aton/ll_aton.c ****     // NOTE: limiter is to be set to last accessible byte address
 3265              		.loc 1 707 5 view .LVU1001
 3266 0182 2163     		str	r1, [r4, #48]
 707:Lib/AI_Runtime/Npu/ll_aton/ll_aton.c ****     // NOTE: limiter is to be set to last accessible byte address
 3267              		.loc 1 707 5 is_stmt 1 view .LVU1002
 707:Lib/AI_Runtime/Npu/ll_aton/ll_aton.c ****     // NOTE: limiter is to be set to last accessible byte address
 3268              		.loc 1 707 35 view .LVU1003
 710:Lib/AI_Runtime/Npu/ll_aton/ll_aton.c ****                          conf->offset_limit - 1);
 3269              		.loc 1 710 5 view .LVU1004
 710:Lib/AI_Runtime/Npu/ll_aton/ll_aton.c ****                          conf->offset_limit - 1);
 3270              		.loc 1 710 5 view .LVU1005
 3271 0184 A763     		str	r7, [r4, #56]
 3272              	.LVL359:
 3273              	.L262:
 710:Lib/AI_Runtime/Npu/ll_aton/ll_aton.c ****                          conf->offset_limit - 1);
 3274              		.loc 1 710 5 discriminator 1 view .LVU1006
 714:Lib/AI_Runtime/Npu/ll_aton/ll_aton.c ****   // LL_ATON_PRINTF("frame_tot_cnt=%d\n", conf->frame_tot_cnt);
 3275              		.loc 1 714 3 view .LVU1007
 714:Lib/AI_Runtime/Npu/ll_aton/ll_aton.c ****   // LL_ATON_PRINTF("frame_tot_cnt=%d\n", conf->frame_tot_cnt);
 3276              		.loc 1 714 3 view .LVU1008
 719:Lib/AI_Runtime/Npu/ll_aton/ll_aton.c ****   t_streng_cid_cache = ATON_STRENG_CID_CACHE_SET_ALLOC(t_streng_cid_cache, conf->cache_allocate);
 3277              		.loc 1 719 24 is_stmt 0 view .LVU1009
 3278 0186 6978     		ldrb	r1, [r5, #1]	@ zero_extendqisi2
 745:Lib/AI_Runtime/Npu/ll_aton/ll_aton.c ****   {
 3279              		.loc 1 745 6 view .LVU1010
 3280 0188 28F0FE08 		bic	r8, r8, #254
 720:Lib/AI_Runtime/Npu/ll_aton/ll_aton.c ****   t_streng_cid_cache = ATON_STRENG_CID_CACHE_SET_PFETCH(t_streng_cid_cache, conf->bus_pfetch);
 3281              		.loc 1 720 24 view .LVU1011
ARM GAS  /tmp/ccgbPSBw.s 			page 128


 3282 018c C1F38013 		ubfx	r3, r1, #6, #1
 719:Lib/AI_Runtime/Npu/ll_aton/ll_aton.c ****   t_streng_cid_cache = ATON_STRENG_CID_CACHE_SET_ALLOC(t_streng_cid_cache, conf->cache_allocate);
 3283              		.loc 1 719 24 view .LVU1012
 3284 0190 C1F34016 		ubfx	r6, r1, #5, #1
 720:Lib/AI_Runtime/Npu/ll_aton/ll_aton.c ****   t_streng_cid_cache = ATON_STRENG_CID_CACHE_SET_PFETCH(t_streng_cid_cache, conf->bus_pfetch);
 3285              		.loc 1 720 24 view .LVU1013
 3286 0194 1B01     		lsls	r3, r3, #4
 722:Lib/AI_Runtime/Npu/ll_aton/ll_aton.c **** #endif
 3287              		.loc 1 722 22 view .LVU1014
 3288 0196 43EAC603 		orr	r3, r3, r6, lsl #3
 718:Lib/AI_Runtime/Npu/ll_aton/ll_aton.c ****   t_streng_cid_cache = ATON_STRENG_CID_CACHE_SET_CACHEABLE(t_streng_cid_cache, conf->cacheable);
 3289              		.loc 1 718 24 view .LVU1015
 3290 019a C1F38206 		ubfx	r6, r1, #2, #3
 722:Lib/AI_Runtime/Npu/ll_aton/ll_aton.c **** #endif
 3291              		.loc 1 722 22 view .LVU1016
 3292 019e 3343     		orrs	r3, r3, r6
 722:Lib/AI_Runtime/Npu/ll_aton/ll_aton.c **** #endif
 3293              		.loc 1 722 24 view .LVU1017
 3294 01a0 AE78     		ldrb	r6, [r5, #2]	@ zero_extendqisi2
 721:Lib/AI_Runtime/Npu/ll_aton/ll_aton.c ****   t_streng_cid_cache = ATON_STRENG_CID_CACHE_SET_LINESIZE(t_streng_cid_cache, conf->cache_linesize)
 3295              		.loc 1 721 24 view .LVU1018
 3296 01a2 C909     		lsrs	r1, r1, #7
 722:Lib/AI_Runtime/Npu/ll_aton/ll_aton.c **** #endif
 3297              		.loc 1 722 22 view .LVU1019
 3298 01a4 43EA4113 		orr	r3, r3, r1, lsl #5
 745:Lib/AI_Runtime/Npu/ll_aton/ll_aton.c ****   {
 3299              		.loc 1 745 6 view .LVU1020
 3300 01a8 4FEAC858 		lsl	r8, r8, #23
 722:Lib/AI_Runtime/Npu/ll_aton/ll_aton.c **** #endif
 3301              		.loc 1 722 24 view .LVU1021
 3302 01ac 06F00301 		and	r1, r6, #3
 722:Lib/AI_Runtime/Npu/ll_aton/ll_aton.c **** #endif
 3303              		.loc 1 722 22 view .LVU1022
 3304 01b0 43EA8113 		orr	r3, r3, r1, lsl #6
 745:Lib/AI_Runtime/Npu/ll_aton/ll_aton.c ****   {
 3305              		.loc 1 745 6 view .LVU1023
 3306 01b4 4FEAD858 		lsr	r8, r8, #23
 726:Lib/AI_Runtime/Npu/ll_aton/ll_aton.c ****   {
 3307              		.loc 1 726 6 view .LVU1024
 3308 01b8 0199     		ldr	r1, [sp, #4]
 714:Lib/AI_Runtime/Npu/ll_aton/ll_aton.c ****   // LL_ATON_PRINTF("frame_tot_cnt=%d\n", conf->frame_tot_cnt);
 3309              		.loc 1 714 3 view .LVU1025
 3310 01ba C4F834A0 		str	r10, [r4, #52]
 714:Lib/AI_Runtime/Npu/ll_aton/ll_aton.c ****   // LL_ATON_PRINTF("frame_tot_cnt=%d\n", conf->frame_tot_cnt);
 3311              		.loc 1 714 3 is_stmt 1 view .LVU1026
 714:Lib/AI_Runtime/Npu/ll_aton/ll_aton.c ****   // LL_ATON_PRINTF("frame_tot_cnt=%d\n", conf->frame_tot_cnt);
 3312              		.loc 1 714 49 view .LVU1027
 718:Lib/AI_Runtime/Npu/ll_aton/ll_aton.c ****   t_streng_cid_cache = ATON_STRENG_CID_CACHE_SET_CACHEABLE(t_streng_cid_cache, conf->cacheable);
 3313              		.loc 1 718 3 view .LVU1028
 3314              	.LVL360:
 719:Lib/AI_Runtime/Npu/ll_aton/ll_aton.c ****   t_streng_cid_cache = ATON_STRENG_CID_CACHE_SET_ALLOC(t_streng_cid_cache, conf->cache_allocate);
 3315              		.loc 1 719 3 view .LVU1029
 720:Lib/AI_Runtime/Npu/ll_aton/ll_aton.c ****   t_streng_cid_cache = ATON_STRENG_CID_CACHE_SET_PFETCH(t_streng_cid_cache, conf->bus_pfetch);
 3316              		.loc 1 720 3 view .LVU1030
 721:Lib/AI_Runtime/Npu/ll_aton/ll_aton.c ****   t_streng_cid_cache = ATON_STRENG_CID_CACHE_SET_LINESIZE(t_streng_cid_cache, conf->cache_linesize)
 3317              		.loc 1 721 3 view .LVU1031
 722:Lib/AI_Runtime/Npu/ll_aton/ll_aton.c **** #endif
ARM GAS  /tmp/ccgbPSBw.s 			page 129


 3318              		.loc 1 722 3 view .LVU1032
 745:Lib/AI_Runtime/Npu/ll_aton/ll_aton.c ****   {
 3319              		.loc 1 745 6 is_stmt 0 view .LVU1033
 3320 01be B8F5807F 		cmp	r8, #256
 722:Lib/AI_Runtime/Npu/ll_aton/ll_aton.c **** #endif
 3321              		.loc 1 722 22 view .LVU1034
 3322 01c2 43EA0003 		orr	r3, r3, r0
 3323              	.LVL361:
 726:Lib/AI_Runtime/Npu/ll_aton/ll_aton.c ****   {
 3324              		.loc 1 726 3 is_stmt 1 view .LVU1035
 726:Lib/AI_Runtime/Npu/ll_aton/ll_aton.c ****   {
 3325              		.loc 1 726 6 is_stmt 0 view .LVU1036
 3326 01c6 4FEAC140 		lsl	r0, r1, #19
 3327              	.LVL362:
 739:Lib/AI_Runtime/Npu/ll_aton/ll_aton.c ****   t = ATON_STRENG_EVENT_SET_EN_ILLCFG(t, 1); // Enable Illegal Configuration interrupt
 3328              		.loc 1 739 3 is_stmt 1 view .LVU1037
 740:Lib/AI_Runtime/Npu/ll_aton/ll_aton.c ****   // t = ATON_STRENG_EVENT_SET_EN_FMTMM(t, 1); // Enable Format Mismatch interrupt (intentionally n
 3329              		.loc 1 740 3 view .LVU1038
 742:Lib/AI_Runtime/Npu/ll_aton/ll_aton.c **** #endif // LL_ATON_EN_ERROR_IRQ
 3330              		.loc 1 742 3 view .LVU1039
 745:Lib/AI_Runtime/Npu/ll_aton/ll_aton.c ****   {
 3331              		.loc 1 745 3 view .LVU1040
 749:Lib/AI_Runtime/Npu/ll_aton/ll_aton.c ****     t_streng_event = t;
 3332              		.loc 1 749 9 is_stmt 0 view .LVU1041
 3333 01ca 09BF     		itett	eq
 3334 01cc E978     		ldrbeq	r1, [r5, #3]	@ zero_extendqisi2
 740:Lib/AI_Runtime/Npu/ll_aton/ll_aton.c ****   // t = ATON_STRENG_EVENT_SET_EN_FMTMM(t, 1); // Enable Format Mismatch interrupt (intentionally n
 3335              		.loc 1 740 5 view .LVU1042
 3336 01ce 40F48011 		orrne	r1, r0, #1048576
 747:Lib/AI_Runtime/Npu/ll_aton/ll_aton.c ****     t = ATON_STRENG_EVENT_SET_FRMTRG_EN(t, 1);               // Enable synchronizations of frames w
 3337              		.loc 1 747 5 is_stmt 1 view .LVU1043
 748:Lib/AI_Runtime/Npu/ll_aton/ll_aton.c ****     t = ATON_STRENG_EVENT_SET_FRMTRG_SRC(t, conf->sync_dma); // Enable synchronizations of frames w
 3338              		.loc 1 748 5 view .LVU1044
 3339              	.LVL363:
 749:Lib/AI_Runtime/Npu/ll_aton/ll_aton.c ****     t_streng_event = t;
 3340              		.loc 1 749 5 view .LVU1045
 749:Lib/AI_Runtime/Npu/ll_aton/ll_aton.c ****     t_streng_event = t;
 3341              		.loc 1 749 9 is_stmt 0 view .LVU1046
 3342 01d2 0906     		lsleq	r1, r1, #24
 3343 01d4 01F0F851 		andeq	r1, r1, #520093696
 749:Lib/AI_Runtime/Npu/ll_aton/ll_aton.c ****     t_streng_event = t;
 3344              		.loc 1 749 7 view .LVU1047
 3345 01d8 08BF     		it	eq
 3346 01da 0143     		orreq	r1, r1, r0
 756:Lib/AI_Runtime/Npu/ll_aton/ll_aton.c **** #endif
 3347              		.loc 1 756 3 view .LVU1048
 3348 01dc 4FF02400 		mov	r0, #36
 3349              	.LVL364:
 756:Lib/AI_Runtime/Npu/ll_aton/ll_aton.c **** #endif
 3350              		.loc 1 756 3 view .LVU1049
 3351 01e0 6062     		str	r0, [r4, #36]
 760:Lib/AI_Runtime/Npu/ll_aton/ll_aton.c ****   ATON_STRENG_CID_CACHE_SET(id, t_streng_cid_cache);
 3352              		.loc 1 760 3 view .LVU1050
 3353 01e2 6261     		str	r2, [r4, #20]
 761:Lib/AI_Runtime/Npu/ll_aton/ll_aton.c ****   ATON_STRENG_EVENT_SET(id, t_streng_event);
 3354              		.loc 1 761 3 view .LVU1051
 3355 01e4 A364     		str	r3, [r4, #72]
ARM GAS  /tmp/ccgbPSBw.s 			page 130


 767:Lib/AI_Runtime/Npu/ll_aton/ll_aton.c ****   t = ATON_STRENG_ENCR_MSB_SET_KEY_SEL(t, conf->key_sel);
 3356              		.loc 1 767 7 view .LVU1052
 3357 01e6 C6F38003 		ubfx	r3, r6, #2, #1
 3358              	.LVL365:
 768:Lib/AI_Runtime/Npu/ll_aton/ll_aton.c ****   ATON_STRENG_ENCR_MSB_SET(id, t);
 3359              		.loc 1 768 7 view .LVU1053
 3360 01ea C6F3C006 		ubfx	r6, r6, #3, #1
 3361 01ee 4FEA8636 		lsl	r6, r6, #14
 749:Lib/AI_Runtime/Npu/ll_aton/ll_aton.c ****     t_streng_event = t;
 3362              		.loc 1 749 7 view .LVU1054
 3363 01f2 08BF     		it	eq
 3364 01f4 41F41001 		orreq	r1, r1, #9437184
 3365              	.LVL366:
 750:Lib/AI_Runtime/Npu/ll_aton/ll_aton.c ****   }
 3366              		.loc 1 750 5 is_stmt 1 view .LVU1055
 754:Lib/AI_Runtime/Npu/ll_aton/ll_aton.c ****   t = ATON_STRENG_POS_SET_GAPCYCLES(t, 0); // set interline gap cycle to 0, as it should be safe to
 3367              		.loc 1 754 3 view .LVU1056
 755:Lib/AI_Runtime/Npu/ll_aton/ll_aton.c ****   ATON_STRENG_POS_SET(id, t);
 3368              		.loc 1 755 3 view .LVU1057
 756:Lib/AI_Runtime/Npu/ll_aton/ll_aton.c **** #endif
 3369              		.loc 1 756 3 view .LVU1058
 756:Lib/AI_Runtime/Npu/ll_aton/ll_aton.c **** #endif
 3370              		.loc 1 756 3 view .LVU1059
 756:Lib/AI_Runtime/Npu/ll_aton/ll_aton.c **** #endif
 3371              		.loc 1 756 3 view .LVU1060
 756:Lib/AI_Runtime/Npu/ll_aton/ll_aton.c **** #endif
 3372              		.loc 1 756 29 view .LVU1061
 760:Lib/AI_Runtime/Npu/ll_aton/ll_aton.c ****   ATON_STRENG_CID_CACHE_SET(id, t_streng_cid_cache);
 3373              		.loc 1 760 3 view .LVU1062
 760:Lib/AI_Runtime/Npu/ll_aton/ll_aton.c ****   ATON_STRENG_CID_CACHE_SET(id, t_streng_cid_cache);
 3374              		.loc 1 760 3 view .LVU1063
 760:Lib/AI_Runtime/Npu/ll_aton/ll_aton.c ****   ATON_STRENG_CID_CACHE_SET(id, t_streng_cid_cache);
 3375              		.loc 1 760 3 view .LVU1064
 760:Lib/AI_Runtime/Npu/ll_aton/ll_aton.c ****   ATON_STRENG_CID_CACHE_SET(id, t_streng_cid_cache);
 3376              		.loc 1 760 42 view .LVU1065
 761:Lib/AI_Runtime/Npu/ll_aton/ll_aton.c ****   ATON_STRENG_EVENT_SET(id, t_streng_event);
 3377              		.loc 1 761 3 view .LVU1066
 761:Lib/AI_Runtime/Npu/ll_aton/ll_aton.c ****   ATON_STRENG_EVENT_SET(id, t_streng_event);
 3378              		.loc 1 761 3 view .LVU1067
 761:Lib/AI_Runtime/Npu/ll_aton/ll_aton.c ****   ATON_STRENG_EVENT_SET(id, t_streng_event);
 3379              		.loc 1 761 3 view .LVU1068
 761:Lib/AI_Runtime/Npu/ll_aton/ll_aton.c ****   ATON_STRENG_EVENT_SET(id, t_streng_event);
 3380              		.loc 1 761 52 view .LVU1069
 762:Lib/AI_Runtime/Npu/ll_aton/ll_aton.c **** 
 3381              		.loc 1 762 3 view .LVU1070
 762:Lib/AI_Runtime/Npu/ll_aton/ll_aton.c **** 
 3382              		.loc 1 762 3 view .LVU1071
 768:Lib/AI_Runtime/Npu/ll_aton/ll_aton.c ****   ATON_STRENG_ENCR_MSB_SET(id, t);
 3383              		.loc 1 768 5 is_stmt 0 view .LVU1072
 3384 01f8 46EA0336 		orr	r6, r6, r3, lsl #12
 762:Lib/AI_Runtime/Npu/ll_aton/ll_aton.c **** 
 3385              		.loc 1 762 3 view .LVU1073
 3386 01fc A162     		str	r1, [r4, #40]
 3387              	.LVL367:
 762:Lib/AI_Runtime/Npu/ll_aton/ll_aton.c **** 
 3388              		.loc 1 762 3 is_stmt 1 view .LVU1074
 762:Lib/AI_Runtime/Npu/ll_aton/ll_aton.c **** 
ARM GAS  /tmp/ccgbPSBw.s 			page 131


 3389              		.loc 1 762 44 view .LVU1075
 766:Lib/AI_Runtime/Npu/ll_aton/ll_aton.c ****   t = ATON_STRENG_ENCR_MSB_SET_EN(t, conf->cipher_en);
 3390              		.loc 1 766 3 view .LVU1076
 767:Lib/AI_Runtime/Npu/ll_aton/ll_aton.c ****   t = ATON_STRENG_ENCR_MSB_SET_KEY_SEL(t, conf->key_sel);
 3391              		.loc 1 767 3 view .LVU1077
 768:Lib/AI_Runtime/Npu/ll_aton/ll_aton.c ****   ATON_STRENG_ENCR_MSB_SET(id, t);
 3392              		.loc 1 768 3 view .LVU1078
 769:Lib/AI_Runtime/Npu/ll_aton/ll_aton.c **** #endif
 3393              		.loc 1 769 3 view .LVU1079
 769:Lib/AI_Runtime/Npu/ll_aton/ll_aton.c **** #endif
 3394              		.loc 1 769 3 view .LVU1080
 772:Lib/AI_Runtime/Npu/ll_aton/ll_aton.c **** }
 3395              		.loc 1 772 10 is_stmt 0 view .LVU1081
 3396 01fe 0020     		movs	r0, #0
 769:Lib/AI_Runtime/Npu/ll_aton/ll_aton.c **** #endif
 3397              		.loc 1 769 3 view .LVU1082
 3398 0200 6664     		str	r6, [r4, #68]
 769:Lib/AI_Runtime/Npu/ll_aton/ll_aton.c **** #endif
 3399              		.loc 1 769 3 is_stmt 1 view .LVU1083
 769:Lib/AI_Runtime/Npu/ll_aton/ll_aton.c **** #endif
 3400              		.loc 1 769 34 view .LVU1084
 772:Lib/AI_Runtime/Npu/ll_aton/ll_aton.c **** }
 3401              		.loc 1 772 3 view .LVU1085
 772:Lib/AI_Runtime/Npu/ll_aton/ll_aton.c **** }
 3402              		.loc 1 772 10 is_stmt 0 view .LVU1086
 3403 0202 06E7     		b	.L240
 3404              	.LVL368:
 3405              	.L244:
 551:Lib/AI_Runtime/Npu/ll_aton/ll_aton.c **** 
 3406              		.loc 1 551 86 discriminator 2 view .LVU1087
 3407 0204 6645     		cmp	r6, ip
 3408 0206 2CBF     		ite	cs
 3409 0208 0022     		movcs	r2, #0
 3410 020a 0122     		movcc	r2, #1
 3411 020c 4FE7     		b	.L245
 3412              	.LVL369:
 3413              	.L266:
 553:Lib/AI_Runtime/Npu/ll_aton/ll_aton.c ****   {
 3414              		.loc 1 553 3 view .LVU1088
 3415 020e 0022     		movs	r2, #0
 3416              	.LVL370:
 553:Lib/AI_Runtime/Npu/ll_aton/ll_aton.c ****   {
 3417              		.loc 1 553 3 view .LVU1089
 3418 0210 64E7     		b	.L248
 3419              	.LVL371:
 3420              	.L267:
 567:Lib/AI_Runtime/Npu/ll_aton/ll_aton.c ****     in_bits[2] = nbits_in > 16 ? _LL_min(8, nbits_in - 16) : 0;
 3421              		.loc 1 567 58 discriminator 2 view .LVU1090
 3422 0212 0021     		movs	r1, #0
 3423              	.LVL372:
 568:Lib/AI_Runtime/Npu/ll_aton/ll_aton.c ****     if (conf->align_right)
 3424              		.loc 1 568 60 discriminator 2 view .LVU1091
 3425 0214 0B46     		mov	r3, r1
 3426 0216 70E7     		b	.L250
 3427              	.LVL373:
 3428              	.L247:
 594:Lib/AI_Runtime/Npu/ll_aton/ll_aton.c ****       t_streng_strd = ATON_STRENG_STRD_SET_FGAP(t_streng_strd, (nbits_out - nbits_in));
ARM GAS  /tmp/ccgbPSBw.s 			page 132


 3429              		.loc 1 594 5 is_stmt 1 view .LVU1092
 598:Lib/AI_Runtime/Npu/ll_aton/ll_aton.c ****   }
 3430              		.loc 1 598 15 is_stmt 0 view .LVU1093
 3431 0218 3346     		mov	r3, r6
 3432              	.LVL374:
 595:Lib/AI_Runtime/Npu/ll_aton/ll_aton.c ****     else
 3433              		.loc 1 595 23 view .LVU1094
 3434 021a ACEB0602 		sub	r2, ip, r6
 3435              	.LVL375:
 594:Lib/AI_Runtime/Npu/ll_aton/ll_aton.c ****       t_streng_strd = ATON_STRENG_STRD_SET_FGAP(t_streng_strd, (nbits_out - nbits_in));
 3436              		.loc 1 594 8 view .LVU1095
 3437 021e 0106     		lsls	r1, r0, #24
 3438              	.LVL376:
 595:Lib/AI_Runtime/Npu/ll_aton/ll_aton.c ****     else
 3439              		.loc 1 595 7 is_stmt 1 view .LVU1096
 595:Lib/AI_Runtime/Npu/ll_aton/ll_aton.c ****     else
 3440              		.loc 1 595 23 is_stmt 0 view .LVU1097
 3441 0220 4BBF     		itete	mi
 3442 0222 1204     		lslmi	r2, r2, #16
 597:Lib/AI_Runtime/Npu/ll_aton/ll_aton.c ****     nbits_out = nbits_in;
 3443              		.loc 1 597 23 view .LVU1098
 3444 0224 1206     		lslpl	r2, r2, #24
 595:Lib/AI_Runtime/Npu/ll_aton/ll_aton.c ****     else
 3445              		.loc 1 595 23 view .LVU1099
 3446 0226 02F47C12 		andmi	r2, r2, #4128768
 3447              	.LVL377:
 597:Lib/AI_Runtime/Npu/ll_aton/ll_aton.c ****     nbits_out = nbits_in;
 3448              		.loc 1 597 7 is_stmt 1 view .LVU1100
 597:Lib/AI_Runtime/Npu/ll_aton/ll_aton.c ****     nbits_out = nbits_in;
 3449              		.loc 1 597 23 is_stmt 0 view .LVU1101
 3450 022a 02F07C52 		andpl	r2, r2, #1056964608
 3451              	.LVL378:
 3452              	.L246:
 602:Lib/AI_Runtime/Npu/ll_aton/ll_aton.c ****     out_bits[1] = nbits_out > 8 ? _LL_min(8, nbits_out - 8) : 0;
 3453              		.loc 1 602 5 is_stmt 1 view .LVU1102
 602:Lib/AI_Runtime/Npu/ll_aton/ll_aton.c ****     out_bits[1] = nbits_out > 8 ? _LL_min(8, nbits_out - 8) : 0;
 3454              		.loc 1 602 19 is_stmt 0 view .LVU1103
 3455 022e 082B     		cmp	r3, #8
 3456 0230 9E46     		mov	lr, r3
 3457 0232 A8BF     		it	ge
 3458 0234 4FF0080E 		movge	lr, #8
 3459              	.LVL379:
 603:Lib/AI_Runtime/Npu/ll_aton/ll_aton.c ****     out_bits[2] = nbits_out > 16 ? _LL_min(8, nbits_out - 16) : 0;
 3460              		.loc 1 603 5 is_stmt 1 view .LVU1104
 603:Lib/AI_Runtime/Npu/ll_aton/ll_aton.c ****     out_bits[2] = nbits_out > 16 ? _LL_min(8, nbits_out - 16) : 0;
 3461              		.loc 1 603 61 is_stmt 0 view .LVU1105
 3462 0238 082B     		cmp	r3, #8
 3463 023a 12DD     		ble	.L270
 3464              	.LVL380:
 604:Lib/AI_Runtime/Npu/ll_aton/ll_aton.c ****     if (conf->align_right)
 3465              		.loc 1 604 5 is_stmt 1 view .LVU1106
 604:Lib/AI_Runtime/Npu/ll_aton/ll_aton.c ****     if (conf->align_right)
 3466              		.loc 1 604 63 is_stmt 0 view .LVU1107
 3467 023c 102B     		cmp	r3, #16
 603:Lib/AI_Runtime/Npu/ll_aton/ll_aton.c ****     out_bits[2] = nbits_out > 16 ? _LL_min(8, nbits_out - 16) : 0;
 3468              		.loc 1 603 61 discriminator 1 view .LVU1108
 3469 023e D5BF     		itete	le
ARM GAS  /tmp/ccgbPSBw.s 			page 133


 3470 0240 A3F10801 		suble	r1, r3, #8
 3471 0244 0821     		movgt	r1, #8
 604:Lib/AI_Runtime/Npu/ll_aton/ll_aton.c ****     if (conf->align_right)
 3472              		.loc 1 604 63 discriminator 2 view .LVU1109
 3473 0246 0023     		movle	r3, #0
 3474              	.LVL381:
 604:Lib/AI_Runtime/Npu/ll_aton/ll_aton.c ****     if (conf->align_right)
 3475              		.loc 1 604 63 discriminator 1 view .LVU1110
 3476 0248 103B     		subgt	r3, r3, #16
 3477              	.LVL382:
 3478              	.L254:
 605:Lib/AI_Runtime/Npu/ll_aton/ll_aton.c ****     {
 3479              		.loc 1 605 5 is_stmt 1 view .LVU1111
 605:Lib/AI_Runtime/Npu/ll_aton/ll_aton.c ****     {
 3480              		.loc 1 605 8 is_stmt 0 view .LVU1112
 3481 024a 09F0FF0B 		and	fp, r9, #255
 3482 024e B9F1000F 		cmp	r9, #0
 3483 0252 7FF463AF 		bne	.L252
 613:Lib/AI_Runtime/Npu/ll_aton/ll_aton.c ****       {
 3484              		.loc 1 613 7 is_stmt 1 view .LVU1113
 613:Lib/AI_Runtime/Npu/ll_aton/ll_aton.c ****       {
 3485              		.loc 1 613 10 is_stmt 0 view .LVU1114
 3486 0256 102E     		cmp	r6, #16
 3487 0258 06DC     		bgt	.L271
 619:Lib/AI_Runtime/Npu/ll_aton/ll_aton.c ****       {
 3488              		.loc 1 619 12 is_stmt 1 view .LVU1115
 619:Lib/AI_Runtime/Npu/ll_aton/ll_aton.c ****       {
 3489              		.loc 1 619 15 is_stmt 0 view .LVU1116
 3490 025a 082E     		cmp	r6, #8
 3491 025c 58E7     		b	.L280
 3492              	.LVL383:
 3493              	.L265:
 553:Lib/AI_Runtime/Npu/ll_aton/ll_aton.c ****   {
 3494              		.loc 1 553 3 view .LVU1117
 3495 025e 0022     		movs	r2, #0
 3496              	.LVL384:
 553:Lib/AI_Runtime/Npu/ll_aton/ll_aton.c ****   {
 3497              		.loc 1 553 3 view .LVU1118
 3498 0260 E5E7     		b	.L246
 3499              	.LVL385:
 3500              	.L270:
 603:Lib/AI_Runtime/Npu/ll_aton/ll_aton.c ****     out_bits[2] = nbits_out > 16 ? _LL_min(8, nbits_out - 16) : 0;
 3501              		.loc 1 603 61 discriminator 2 view .LVU1119
 3502 0262 0021     		movs	r1, #0
 604:Lib/AI_Runtime/Npu/ll_aton/ll_aton.c ****     if (conf->align_right)
 3503              		.loc 1 604 63 discriminator 2 view .LVU1120
 3504 0264 0B46     		mov	r3, r1
 3505              	.LVL386:
 604:Lib/AI_Runtime/Npu/ll_aton/ll_aton.c ****     if (conf->align_right)
 3506              		.loc 1 604 63 discriminator 2 view .LVU1121
 3507 0266 F0E7     		b	.L254
 3508              	.LVL387:
 3509              	.L271:
 604:Lib/AI_Runtime/Npu/ll_aton/ll_aton.c ****     if (conf->align_right)
 3510              		.loc 1 604 63 discriminator 2 view .LVU1122
 3511 0268 F146     		mov	r9, lr
 617:Lib/AI_Runtime/Npu/ll_aton/ll_aton.c ****       }
ARM GAS  /tmp/ccgbPSBw.s 			page 134


 3512              		.loc 1 617 20 view .LVU1123
 3513 026a 9E46     		mov	lr, r3
 615:Lib/AI_Runtime/Npu/ll_aton/ll_aton.c ****         ch_bits[1] = out_bits[1];
 3514              		.loc 1 615 20 view .LVU1124
 3515 026c 4B46     		mov	r3, r9
 3516 026e 55E7     		b	.L252
 3517              	.L272:
 534:Lib/AI_Runtime/Npu/ll_aton/ll_aton.c ****   int in_bits[3];
 3518              		.loc 1 534 7 view .LVU1125
 3519 0270 5B46     		mov	r3, fp
 3520 0272 5946     		mov	r1, fp
 3521 0274 52E7     		b	.L252
 3522              	.LVL388:
 3523              	.L256:
 3524              	.LBB42:
 661:Lib/AI_Runtime/Npu/ll_aton/ll_aton.c ****     t = ATON_STRENG_FSIZE_SET_WIDTH(t, conf->fwidth);
 3525              		.loc 1 661 5 is_stmt 1 view .LVU1126
 662:Lib/AI_Runtime/Npu/ll_aton/ll_aton.c ****     t = ATON_STRENG_FSIZE_SET_HEIGHT(t, conf->fheight);
 3526              		.loc 1 662 5 view .LVU1127
 663:Lib/AI_Runtime/Npu/ll_aton/ll_aton.c ****     ATON_STRENG_FSIZE_SET(id, t);
 3527              		.loc 1 663 9 is_stmt 0 view .LVU1128
 3528 0276 D5E90663 		ldrd	r6, r3, [r5, #24]
 662:Lib/AI_Runtime/Npu/ll_aton/ll_aton.c ****     t = ATON_STRENG_FSIZE_SET_HEIGHT(t, conf->fheight);
 3529              		.loc 1 662 9 view .LVU1129
 3530 027a B0B2     		uxth	r0, r6
 666:Lib/AI_Runtime/Npu/ll_aton/ll_aton.c ****     // if line_offset is left=0 then it's computed from the standard geometry of lines and batch
 3531              		.loc 1 666 87 discriminator 1 view .LVU1130
 3532 027c 4E43     		muls	r6, r1, r6
 663:Lib/AI_Runtime/Npu/ll_aton/ll_aton.c ****     ATON_STRENG_FSIZE_SET(id, t);
 3533              		.loc 1 663 7 view .LVU1131
 3534 027e 40EA0343 		orr	r3, r0, r3, lsl #16
 3535              	.LVL389:
 664:Lib/AI_Runtime/Npu/ll_aton/ll_aton.c **** 
 3536              		.loc 1 664 5 is_stmt 1 view .LVU1132
 664:Lib/AI_Runtime/Npu/ll_aton/ll_aton.c **** 
 3537              		.loc 1 664 5 view .LVU1133
 666:Lib/AI_Runtime/Npu/ll_aton/ll_aton.c ****     // if line_offset is left=0 then it's computed from the standard geometry of lines and batch
 3538              		.loc 1 666 32 is_stmt 0 view .LVU1134
 3539 0282 E86A     		ldr	r0, [r5, #44]
 664:Lib/AI_Runtime/Npu/ll_aton/ll_aton.c **** 
 3540              		.loc 1 664 5 view .LVU1135
 3541 0284 E360     		str	r3, [r4, #12]
 664:Lib/AI_Runtime/Npu/ll_aton/ll_aton.c **** 
 3542              		.loc 1 664 5 is_stmt 1 view .LVU1136
 664:Lib/AI_Runtime/Npu/ll_aton/ll_aton.c **** 
 3543              		.loc 1 664 33 view .LVU1137
 666:Lib/AI_Runtime/Npu/ll_aton/ll_aton.c ****     // if line_offset is left=0 then it's computed from the standard geometry of lines and batch
 3544              		.loc 1 666 5 view .LVU1138
 666:Lib/AI_Runtime/Npu/ll_aton/ll_aton.c ****     // if line_offset is left=0 then it's computed from the standard geometry of lines and batch
 3545              		.loc 1 666 87 is_stmt 0 discriminator 1 view .LVU1139
 3546 0286 0028     		cmp	r0, #0
 3547 0288 08BF     		it	eq
 3548 028a 3046     		moveq	r0, r6
 3549              	.LVL390:
 668:Lib/AI_Runtime/Npu/ll_aton/ll_aton.c **** 
 3550              		.loc 1 668 5 is_stmt 1 view .LVU1140
 668:Lib/AI_Runtime/Npu/ll_aton/ll_aton.c **** 
ARM GAS  /tmp/ccgbPSBw.s 			page 135


 3551              		.loc 1 668 21 is_stmt 0 view .LVU1141
 3552 028c 83B2     		uxth	r3, r0
 3553              	.LVL391:
 668:Lib/AI_Runtime/Npu/ll_aton/ll_aton.c **** 
 3554              		.loc 1 668 19 view .LVU1142
 3555 028e 1A43     		orrs	r2, r2, r3
 3556              	.LVL392:
 671:Lib/AI_Runtime/Npu/ll_aton/ll_aton.c ****     t = ATON_STRENG_CID_CACHE_SET_LOFF_MSB(t, (line_offset >> ATON_STRENG_STRD_LOFF_W));
 3557              		.loc 1 671 5 is_stmt 1 view .LVU1143
 672:Lib/AI_Runtime/Npu/ll_aton/ll_aton.c ****     t_streng_cid_cache = t;
 3558              		.loc 1 672 5 view .LVU1144
 677:Lib/AI_Runtime/Npu/ll_aton/ll_aton.c ****     t = ATON_STRENG_DEPTH_SET_OFFSET(t, conf->batch_offset);
 3559              		.loc 1 677 9 is_stmt 0 view .LVU1145
 3560 0290 2B8C     		ldrh	r3, [r5, #32]
 672:Lib/AI_Runtime/Npu/ll_aton/ll_aton.c ****     t_streng_cid_cache = t;
 3561              		.loc 1 672 9 view .LVU1146
 3562 0292 6FF30F00 		bfc	r0, #0, #16
 3563              	.LVL393:
 673:Lib/AI_Runtime/Npu/ll_aton/ll_aton.c **** #endif
 3564              		.loc 1 673 5 is_stmt 1 view .LVU1147
 676:Lib/AI_Runtime/Npu/ll_aton/ll_aton.c ****     t = ATON_STRENG_DEPTH_SET_SIZE(t, conf->batch_depth);
 3565              		.loc 1 676 5 view .LVU1148
 677:Lib/AI_Runtime/Npu/ll_aton/ll_aton.c ****     t = ATON_STRENG_DEPTH_SET_OFFSET(t, conf->batch_offset);
 3566              		.loc 1 677 5 view .LVU1149
 678:Lib/AI_Runtime/Npu/ll_aton/ll_aton.c ****     ATON_STRENG_DEPTH_SET(id, t);
 3567              		.loc 1 678 5 view .LVU1150
 678:Lib/AI_Runtime/Npu/ll_aton/ll_aton.c ****     ATON_STRENG_DEPTH_SET(id, t);
 3568              		.loc 1 678 7 is_stmt 0 view .LVU1151
 3569 0296 43EA0143 		orr	r3, r3, r1, lsl #16
 3570              	.LVL394:
 679:Lib/AI_Runtime/Npu/ll_aton/ll_aton.c ****   }
 3571              		.loc 1 679 5 is_stmt 1 view .LVU1152
 679:Lib/AI_Runtime/Npu/ll_aton/ll_aton.c ****   }
 3572              		.loc 1 679 5 view .LVU1153
 3573 029a 2361     		str	r3, [r4, #16]
 3574 029c 60E7     		b	.L260
 3575              	.LBE42:
 3576              		.cfi_endproc
 3577              	.LFE4830:
 3579              		.section	.text.LL_Streng_ExtSyncInit,"ax",%progbits
 3580              		.align	1
 3581              		.global	LL_Streng_ExtSyncInit
 3582              		.syntax unified
 3583              		.thumb
 3584              		.thumb_func
 3586              	LL_Streng_ExtSyncInit:
 3587              	.LVL395:
 3588              	.LFB4831:
 782:Lib/AI_Runtime/Npu/ll_aton/ll_aton.c **** #ifdef ATON_STRENG_EXTSYNC_SET
 3589              		.loc 1 782 1 view -0
 3590              		.cfi_startproc
 3591              		@ args = 0, pretend = 0, frame = 0
 3592              		@ frame_needed = 0, uses_anonymous_args = 0
 784:Lib/AI_Runtime/Npu/ll_aton/ll_aton.c **** 
 3593              		.loc 1 784 3 view .LVU1155
 786:Lib/AI_Runtime/Npu/ll_aton/ll_aton.c ****     return LL_ATON_INVALID_ID;
 3594              		.loc 1 786 3 view .LVU1156
ARM GAS  /tmp/ccgbPSBw.s 			page 136


 786:Lib/AI_Runtime/Npu/ll_aton/ll_aton.c ****     return LL_ATON_INVALID_ID;
 3595              		.loc 1 786 6 is_stmt 0 view .LVU1157
 3596 0000 0928     		cmp	r0, #9
 782:Lib/AI_Runtime/Npu/ll_aton/ll_aton.c **** #ifdef ATON_STRENG_EXTSYNC_SET
 3597              		.loc 1 782 1 view .LVU1158
 3598 0002 38B5     		push	{r3, r4, r5, lr}
 3599              		.cfi_def_cfa_offset 16
 3600              		.cfi_offset 3, -16
 3601              		.cfi_offset 4, -12
 3602              		.cfi_offset 5, -8
 3603              		.cfi_offset 14, -4
 782:Lib/AI_Runtime/Npu/ll_aton/ll_aton.c **** #ifdef ATON_STRENG_EXTSYNC_SET
 3604              		.loc 1 782 1 view .LVU1159
 3605 0004 0D46     		mov	r5, r1
 786:Lib/AI_Runtime/Npu/ll_aton/ll_aton.c ****     return LL_ATON_INVALID_ID;
 3606              		.loc 1 786 6 view .LVU1160
 3607 0006 16DC     		bgt	.L283
 789:Lib/AI_Runtime/Npu/ll_aton/ll_aton.c **** 
 3608              		.loc 1 789 3 is_stmt 1 view .LVU1161
 3609 0008 FFF7FEFF 		bl	LL_ATON_EnableClock
 3610              	.LVL396:
 791:Lib/AI_Runtime/Npu/ll_aton/ll_aton.c ****   t = ATON_STRENG_EXTSYNC_SET_EN(t, conf->enable);
 3611              		.loc 1 791 3 view .LVU1162
 792:Lib/AI_Runtime/Npu/ll_aton/ll_aton.c ****   t = ATON_STRENG_EXTSYNC_SET_SRC(t, conf->trig_source);
 3612              		.loc 1 792 3 view .LVU1163
 793:Lib/AI_Runtime/Npu/ll_aton/ll_aton.c ****   t = ATON_STRENG_EXTSYNC_SET_LINES(t, conf->lines);
 3613              		.loc 1 793 3 view .LVU1164
 794:Lib/AI_Runtime/Npu/ll_aton/ll_aton.c ****   ATON_STRENG_EXTSYNC_SET(id, t);
 3614              		.loc 1 794 3 view .LVU1165
 795:Lib/AI_Runtime/Npu/ll_aton/ll_aton.c **** 
 3615              		.loc 1 795 3 is_stmt 0 view .LVU1166
 3616 000c 0403     		lsls	r4, r0, #12
 802:Lib/AI_Runtime/Npu/ll_aton/ll_aton.c **** }
 3617              		.loc 1 802 10 view .LVU1167
 3618 000e 0020     		movs	r0, #0
 3619              	.LVL397:
 792:Lib/AI_Runtime/Npu/ll_aton/ll_aton.c ****   t = ATON_STRENG_EXTSYNC_SET_SRC(t, conf->trig_source);
 3620              		.loc 1 792 7 view .LVU1168
 3621 0010 2A78     		ldrb	r2, [r5]	@ zero_extendqisi2
 794:Lib/AI_Runtime/Npu/ll_aton/ll_aton.c ****   ATON_STRENG_EXTSYNC_SET(id, t);
 3622              		.loc 1 794 7 view .LVU1169
 3623 0012 6968     		ldr	r1, [r5, #4]
 792:Lib/AI_Runtime/Npu/ll_aton/ll_aton.c ****   t = ATON_STRENG_EXTSYNC_SET_SRC(t, conf->trig_source);
 3624              		.loc 1 792 7 view .LVU1170
 3625 0014 02F00103 		and	r3, r2, #1
 794:Lib/AI_Runtime/Npu/ll_aton/ll_aton.c ****   ATON_STRENG_EXTSYNC_SET(id, t);
 3626              		.loc 1 794 5 view .LVU1171
 3627 0018 43EA0143 		orr	r3, r3, r1, lsl #16
 793:Lib/AI_Runtime/Npu/ll_aton/ll_aton.c ****   t = ATON_STRENG_EXTSYNC_SET_LINES(t, conf->lines);
 3628              		.loc 1 793 7 view .LVU1172
 3629 001c C2F34302 		ubfx	r2, r2, #1, #4
 794:Lib/AI_Runtime/Npu/ll_aton/ll_aton.c ****   ATON_STRENG_EXTSYNC_SET(id, t);
 3630              		.loc 1 794 5 view .LVU1173
 3631 0020 43EA0213 		orr	r3, r3, r2, lsl #4
 3632              	.LVL398:
 795:Lib/AI_Runtime/Npu/ll_aton/ll_aton.c **** 
 3633              		.loc 1 795 3 is_stmt 1 view .LVU1174
ARM GAS  /tmp/ccgbPSBw.s 			page 137


 795:Lib/AI_Runtime/Npu/ll_aton/ll_aton.c **** 
 3634              		.loc 1 795 3 view .LVU1175
 3635 0024 054A     		ldr	r2, .L284
 3636 0026 A350     		str	r3, [r4, r2]
 795:Lib/AI_Runtime/Npu/ll_aton/ll_aton.c **** 
 3637              		.loc 1 795 3 view .LVU1176
 795:Lib/AI_Runtime/Npu/ll_aton/ll_aton.c **** 
 3638              		.loc 1 795 33 view .LVU1177
 797:Lib/AI_Runtime/Npu/ll_aton/ll_aton.c ****   t = ATON_STRENG_EXTSYNC2_SET_LINES(t, conf->lines_offset);
 3639              		.loc 1 797 3 view .LVU1178
 3640              	.LVL399:
 798:Lib/AI_Runtime/Npu/ll_aton/ll_aton.c ****   t = ATON_STRENG_EXTSYNC2_SET_OFF(t, conf->offset);
 3641              		.loc 1 798 3 view .LVU1179
 799:Lib/AI_Runtime/Npu/ll_aton/ll_aton.c ****   ATON_STRENG_EXTSYNC2_SET(id, t);
 3642              		.loc 1 799 3 view .LVU1180
 799:Lib/AI_Runtime/Npu/ll_aton/ll_aton.c ****   ATON_STRENG_EXTSYNC2_SET(id, t);
 3643              		.loc 1 799 7 is_stmt 0 view .LVU1181
 3644 0028 EA68     		ldr	r2, [r5, #12]
 798:Lib/AI_Runtime/Npu/ll_aton/ll_aton.c ****   t = ATON_STRENG_EXTSYNC2_SET_OFF(t, conf->offset);
 3645              		.loc 1 798 7 view .LVU1182
 3646 002a 2B89     		ldrh	r3, [r5, #8]
 799:Lib/AI_Runtime/Npu/ll_aton/ll_aton.c ****   ATON_STRENG_EXTSYNC2_SET(id, t);
 3647              		.loc 1 799 5 view .LVU1183
 3648 002c 43EA0243 		orr	r3, r3, r2, lsl #16
 3649              	.LVL400:
 800:Lib/AI_Runtime/Npu/ll_aton/ll_aton.c **** #endif
 3650              		.loc 1 800 3 is_stmt 1 view .LVU1184
 800:Lib/AI_Runtime/Npu/ll_aton/ll_aton.c **** #endif
 3651              		.loc 1 800 3 view .LVU1185
 3652 0030 034A     		ldr	r2, .L284+4
 3653 0032 A350     		str	r3, [r4, r2]
 800:Lib/AI_Runtime/Npu/ll_aton/ll_aton.c **** #endif
 3654              		.loc 1 800 3 view .LVU1186
 800:Lib/AI_Runtime/Npu/ll_aton/ll_aton.c **** #endif
 3655              		.loc 1 800 34 view .LVU1187
 802:Lib/AI_Runtime/Npu/ll_aton/ll_aton.c **** }
 3656              		.loc 1 802 3 view .LVU1188
 3657              	.LVL401:
 3658              	.L281:
 803:Lib/AI_Runtime/Npu/ll_aton/ll_aton.c **** 
 3659              		.loc 1 803 1 is_stmt 0 view .LVU1189
 3660 0034 38BD     		pop	{r3, r4, r5, pc}
 3661              	.LVL402:
 3662              	.L283:
 787:Lib/AI_Runtime/Npu/ll_aton/ll_aton.c **** 
 3663              		.loc 1 787 12 view .LVU1190
 3664 0036 4FF0FF30 		mov	r0, #-1
 3665              	.LVL403:
 787:Lib/AI_Runtime/Npu/ll_aton/ll_aton.c **** 
 3666              		.loc 1 787 12 view .LVU1191
 3667 003a FBE7     		b	.L281
 3668              	.L285:
 3669              		.align	2
 3670              	.L284:
 3671 003c 4C500E58 		.word	1477333068
 3672 0040 50500E58 		.word	1477333072
 3673              		.cfi_endproc
ARM GAS  /tmp/ccgbPSBw.s 			page 138


 3674              	.LFE4831:
 3676              		.section	.rodata.LL_Decun_Init.str1.1,"aMS",%progbits,1
 3677              	.LC27:
 3678 0000 28636F6E 		.ascii	"(conf->nFormatBytes == 1) || (conf->nFormatBytes =="
 3678      662D3E6E 
 3678      466F726D 
 3678      61744279 
 3678      74657320 
 3679 0033 20322900 		.ascii	" 2)\000"
 3680              		.section	.text.LL_Decun_Init,"ax",%progbits
 3681              		.align	1
 3682              		.global	LL_Decun_Init
 3683              		.syntax unified
 3684              		.thumb
 3685              		.thumb_func
 3687              	LL_Decun_Init:
 3688              	.LVL404:
 3689              	.LFB4843:
1567:Lib/AI_Runtime/Npu/ll_aton/ll_aton.c ****   uint32_t t;
 3690              		.loc 1 1567 1 is_stmt 1 view -0
 3691              		.cfi_startproc
 3692              		@ args = 0, pretend = 0, frame = 8
 3693              		@ frame_needed = 0, uses_anonymous_args = 0
1568:Lib/AI_Runtime/Npu/ll_aton/ll_aton.c **** 
 3694              		.loc 1 1568 3 view .LVU1193
1570:Lib/AI_Runtime/Npu/ll_aton/ll_aton.c ****     return LL_ATON_INVALID_ID;
 3695              		.loc 1 1570 3 view .LVU1194
1570:Lib/AI_Runtime/Npu/ll_aton/ll_aton.c ****     return LL_ATON_INVALID_ID;
 3696              		.loc 1 1570 6 is_stmt 0 view .LVU1195
 3697 0000 0128     		cmp	r0, #1
1567:Lib/AI_Runtime/Npu/ll_aton/ll_aton.c ****   uint32_t t;
 3698              		.loc 1 1567 1 view .LVU1196
 3699 0002 2DE9F74F 		push	{r0, r1, r2, r4, r5, r6, r7, r8, r9, r10, fp, lr}
 3700              		.cfi_def_cfa_offset 48
 3701              		.cfi_offset 4, -36
 3702              		.cfi_offset 5, -32
 3703              		.cfi_offset 6, -28
 3704              		.cfi_offset 7, -24
 3705              		.cfi_offset 8, -20
 3706              		.cfi_offset 9, -16
 3707              		.cfi_offset 10, -12
 3708              		.cfi_offset 11, -8
 3709              		.cfi_offset 14, -4
1567:Lib/AI_Runtime/Npu/ll_aton/ll_aton.c ****   uint32_t t;
 3710              		.loc 1 1567 1 view .LVU1197
 3711 0006 0446     		mov	r4, r0
 3712 0008 0E46     		mov	r6, r1
1570:Lib/AI_Runtime/Npu/ll_aton/ll_aton.c ****     return LL_ATON_INVALID_ID;
 3713              		.loc 1 1570 6 view .LVU1198
 3714 000a 00F38882 		bgt	.L349
1573:Lib/AI_Runtime/Npu/ll_aton/ll_aton.c **** 
 3715              		.loc 1 1573 3 is_stmt 1 view .LVU1199
 3716 000e 0E30     		adds	r0, r0, #14
 3717              	.LVL405:
1573:Lib/AI_Runtime/Npu/ll_aton/ll_aton.c **** 
 3718              		.loc 1 1573 3 is_stmt 0 view .LVU1200
 3719 0010 FFF7FEFF 		bl	LL_ATON_EnableClock
ARM GAS  /tmp/ccgbPSBw.s 			page 139


 3720              	.LVL406:
1575:Lib/AI_Runtime/Npu/ll_aton/ll_aton.c ****   t = ATON_DECUN_CTRL_SET_DUALIN(t, (conf->noDualInput != 0));
 3721              		.loc 1 1575 3 is_stmt 1 view .LVU1201
1576:Lib/AI_Runtime/Npu/ll_aton/ll_aton.c ****   t = ATON_DECUN_CTRL_SET_OW(t, (conf->noOverWrite != 0));
 3722              		.loc 1 1576 3 view .LVU1202
1577:Lib/AI_Runtime/Npu/ll_aton/ll_aton.c ****   ATON_DECUN_CTRL_SET(id, t);
 3723              		.loc 1 1577 3 view .LVU1203
1576:Lib/AI_Runtime/Npu/ll_aton/ll_aton.c ****   t = ATON_DECUN_CTRL_SET_OW(t, (conf->noOverWrite != 0));
 3724              		.loc 1 1576 7 is_stmt 0 view .LVU1204
 3725 0014 317A     		ldrb	r1, [r6, #8]	@ zero_extendqisi2
1578:Lib/AI_Runtime/Npu/ll_aton/ll_aton.c **** 
 3726              		.loc 1 1578 3 view .LVU1205
 3727 0016 04F5B028 		add	r8, r4, #360448
1576:Lib/AI_Runtime/Npu/ll_aton/ll_aton.c ****   t = ATON_DECUN_CTRL_SET_OW(t, (conf->noOverWrite != 0));
 3728              		.loc 1 1576 7 view .LVU1206
 3729 001a 8900     		lsls	r1, r1, #2
1578:Lib/AI_Runtime/Npu/ll_aton/ll_aton.c **** 
 3730              		.loc 1 1578 3 view .LVU1207
 3731 001c 08F1F308 		add	r8, r8, #243
1580:Lib/AI_Runtime/Npu/ll_aton/ll_aton.c ****   {
 3732              		.loc 1 1580 11 view .LVU1208
 3733 0020 3569     		ldr	r5, [r6, #16]
1577:Lib/AI_Runtime/Npu/ll_aton/ll_aton.c ****   ATON_DECUN_CTRL_SET(id, t);
 3734              		.loc 1 1577 5 view .LVU1209
 3735 0022 01F00C01 		and	r1, r1, #12
 3736              	.LVL407:
1578:Lib/AI_Runtime/Npu/ll_aton/ll_aton.c **** 
 3737              		.loc 1 1578 3 is_stmt 1 view .LVU1210
1578:Lib/AI_Runtime/Npu/ll_aton/ll_aton.c **** 
 3738              		.loc 1 1578 3 view .LVU1211
 3739 0026 4FEA0838 		lsl	r8, r8, #12
 3740 002a C8F80010 		str	r1, [r8]
1578:Lib/AI_Runtime/Npu/ll_aton/ll_aton.c **** 
 3741              		.loc 1 1578 3 view .LVU1212
1578:Lib/AI_Runtime/Npu/ll_aton/ll_aton.c **** 
 3742              		.loc 1 1578 29 view .LVU1213
1580:Lib/AI_Runtime/Npu/ll_aton/ll_aton.c ****   {
 3743              		.loc 1 1580 3 view .LVU1214
1580:Lib/AI_Runtime/Npu/ll_aton/ll_aton.c ****   {
 3744              		.loc 1 1580 6 is_stmt 0 view .LVU1215
 3745 002e DDB9     		cbnz	r5, .L288
 3746              	.LVL408:
 3747              	.L312:
1593:Lib/AI_Runtime/Npu/ll_aton/ll_aton.c ****   t = ATON_DECUN_BFORMAT_SET_CVS(t, conf->nCVperCB - 1);
 3748              		.loc 1 1593 3 is_stmt 1 view .LVU1216
1594:Lib/AI_Runtime/Npu/ll_aton/ll_aton.c ****   t = ATON_DECUN_BFORMAT_SET_CWS(t, conf->nCWperCV - 1);
 3749              		.loc 1 1594 3 view .LVU1217
1595:Lib/AI_Runtime/Npu/ll_aton/ll_aton.c ****   t = ATON_DECUN_BFORMAT_SET_OSAM(t, conf->nRCWlastCV);
 3750              		.loc 1 1595 3 view .LVU1218
1596:Lib/AI_Runtime/Npu/ll_aton/ll_aton.c ****   ATON_DECUN_BFORMAT_SET(id, t);
 3751              		.loc 1 1596 3 view .LVU1219
1594:Lib/AI_Runtime/Npu/ll_aton/ll_aton.c ****   t = ATON_DECUN_BFORMAT_SET_CWS(t, conf->nCWperCV - 1);
 3752              		.loc 1 1594 7 is_stmt 0 view .LVU1220
 3753 0030 3388     		ldrh	r3, [r6]
1596:Lib/AI_Runtime/Npu/ll_aton/ll_aton.c ****   ATON_DECUN_BFORMAT_SET(id, t);
 3754              		.loc 1 1596 7 view .LVU1221
 3755 0032 F278     		ldrb	r2, [r6, #3]	@ zero_extendqisi2
ARM GAS  /tmp/ccgbPSBw.s 			page 140


1594:Lib/AI_Runtime/Npu/ll_aton/ll_aton.c ****   t = ATON_DECUN_BFORMAT_SET_CWS(t, conf->nCWperCV - 1);
 3756              		.loc 1 1594 7 view .LVU1222
 3757 0034 013B     		subs	r3, r3, #1
1596:Lib/AI_Runtime/Npu/ll_aton/ll_aton.c ****   ATON_DECUN_BFORMAT_SET(id, t);
 3758              		.loc 1 1596 7 view .LVU1223
 3759 0036 1203     		lsls	r2, r2, #12
 3760 0038 02F4E042 		and	r2, r2, #28672
1594:Lib/AI_Runtime/Npu/ll_aton/ll_aton.c ****   t = ATON_DECUN_BFORMAT_SET_CWS(t, conf->nCWperCV - 1);
 3761              		.loc 1 1594 7 view .LVU1224
 3762 003c DBB2     		uxtb	r3, r3
1596:Lib/AI_Runtime/Npu/ll_aton/ll_aton.c ****   ATON_DECUN_BFORMAT_SET(id, t);
 3763              		.loc 1 1596 5 view .LVU1225
 3764 003e 1343     		orrs	r3, r3, r2
1595:Lib/AI_Runtime/Npu/ll_aton/ll_aton.c ****   t = ATON_DECUN_BFORMAT_SET_OSAM(t, conf->nRCWlastCV);
 3765              		.loc 1 1595 7 view .LVU1226
 3766 0040 B278     		ldrb	r2, [r6, #2]	@ zero_extendqisi2
 3767              	.LVL409:
1595:Lib/AI_Runtime/Npu/ll_aton/ll_aton.c ****   t = ATON_DECUN_BFORMAT_SET_OSAM(t, conf->nRCWlastCV);
 3768              		.loc 1 1595 7 view .LVU1227
 3769 0042 013A     		subs	r2, r2, #1
 3770              	.LVL410:
1595:Lib/AI_Runtime/Npu/ll_aton/ll_aton.c ****   t = ATON_DECUN_BFORMAT_SET_OSAM(t, conf->nRCWlastCV);
 3771              		.loc 1 1595 7 view .LVU1228
 3772 0044 1202     		lsls	r2, r2, #8
 3773              	.LVL411:
1595:Lib/AI_Runtime/Npu/ll_aton/ll_aton.c ****   t = ATON_DECUN_BFORMAT_SET_OSAM(t, conf->nRCWlastCV);
 3774              		.loc 1 1595 7 view .LVU1229
 3775 0046 02F4E062 		and	r2, r2, #1792
1596:Lib/AI_Runtime/Npu/ll_aton/ll_aton.c ****   ATON_DECUN_BFORMAT_SET(id, t);
 3776              		.loc 1 1596 5 view .LVU1230
 3777 004a 1343     		orrs	r3, r3, r2
 3778              	.LVL412:
1597:Lib/AI_Runtime/Npu/ll_aton/ll_aton.c **** 
 3779              		.loc 1 1597 3 is_stmt 1 view .LVU1231
1597:Lib/AI_Runtime/Npu/ll_aton/ll_aton.c **** 
 3780              		.loc 1 1597 3 view .LVU1232
 3781 004c C8F80830 		str	r3, [r8, #8]
1597:Lib/AI_Runtime/Npu/ll_aton/ll_aton.c **** 
 3782              		.loc 1 1597 3 view .LVU1233
1597:Lib/AI_Runtime/Npu/ll_aton/ll_aton.c **** 
 3783              		.loc 1 1597 32 view .LVU1234
1599:Lib/AI_Runtime/Npu/ll_aton/ll_aton.c **** 
 3784              		.loc 1 1599 3 view .LVU1235
 3785 0050 3379     		ldrb	r3, [r6, #4]	@ zero_extendqisi2
 3786              	.LVL413:
1599:Lib/AI_Runtime/Npu/ll_aton/ll_aton.c **** 
 3787              		.loc 1 1599 3 is_stmt 0 view .LVU1236
 3788 0052 5A1E     		subs	r2, r3, #1
 3789 0054 012A     		cmp	r2, #1
 3790 0056 40F25582 		bls	.L357
1599:Lib/AI_Runtime/Npu/ll_aton/ll_aton.c **** 
 3791              		.loc 1 1599 3 discriminator 1 view .LVU1237
 3792 005a 40F23F61 		movw	r1, #1599
 3793 005e B34B     		ldr	r3, .L362
 3794 0060 B34A     		ldr	r2, .L362+4
 3795 0062 B448     		ldr	r0, .L362+8
 3796 0064 FFF7FEFF 		bl	__assert_func
ARM GAS  /tmp/ccgbPSBw.s 			page 141


 3797              	.LVL414:
 3798              	.L288:
1582:Lib/AI_Runtime/Npu/ll_aton/ll_aton.c ****     {
 3799              		.loc 1 1582 5 is_stmt 1 view .LVU1238
1582:Lib/AI_Runtime/Npu/ll_aton/ll_aton.c ****     {
 3800              		.loc 1 1582 8 is_stmt 0 view .LVU1239
 3801 0068 3379     		ldrb	r3, [r6, #4]	@ zero_extendqisi2
 3802              	.LBB77:
 3803              	.LBB78:
1220:Lib/AI_Runtime/Npu/ll_aton/ll_aton.c ****   {
 3804              		.loc 1 1220 11 view .LVU1240
 3805 006a B778     		ldrb	r7, [r6, #2]	@ zero_extendqisi2
 3806              	.LBE78:
 3807              	.LBE77:
1582:Lib/AI_Runtime/Npu/ll_aton/ll_aton.c ****     {
 3808              		.loc 1 1582 8 view .LVU1241
 3809 006c 012B     		cmp	r3, #1
 3810 006e 40F00281 		bne	.L291
1584:Lib/AI_Runtime/Npu/ll_aton/ll_aton.c ****     }
 3811              		.loc 1 1584 7 is_stmt 1 view .LVU1242
 3812              	.LVL415:
 3813              	.LBB97:
 3814              	.LBI77:
1214:Lib/AI_Runtime/Npu/ll_aton/ll_aton.c **** {
 3815              		.loc 1 1214 13 view .LVU1243
 3816              	.LBB96:
1216:Lib/AI_Runtime/Npu/ll_aton/ll_aton.c ****   unsigned i, k;
 3817              		.loc 1 1216 3 view .LVU1244
1217:Lib/AI_Runtime/Npu/ll_aton/ll_aton.c ****   unsigned mem_idx_num = ATON_DECUN_MEM_LOW_IDX_MAX - ATON_DECUN_MEM_LOW_IDX_MIN + 1;
 3818              		.loc 1 1217 3 view .LVU1245
1218:Lib/AI_Runtime/Npu/ll_aton/ll_aton.c **** 
 3819              		.loc 1 1218 3 view .LVU1246
1220:Lib/AI_Runtime/Npu/ll_aton/ll_aton.c ****   {
 3820              		.loc 1 1220 3 view .LVU1247
1220:Lib/AI_Runtime/Npu/ll_aton/ll_aton.c ****   {
 3821              		.loc 1 1220 6 is_stmt 0 view .LVU1248
 3822 0072 012F     		cmp	r7, #1
 3823 0074 17D1     		bne	.L292
 3824              	.LBB79:
1222:Lib/AI_Runtime/Npu/ll_aton/ll_aton.c ****     for (i = 0, k = 0; i < CBsize; i++)
 3825              		.loc 1 1222 5 is_stmt 1 view .LVU1249
 3826              	.LVL416:
1223:Lib/AI_Runtime/Npu/ll_aton/ll_aton.c ****     {
 3827              		.loc 1 1223 5 view .LVU1250
1223:Lib/AI_Runtime/Npu/ll_aton/ll_aton.c ****     {
 3828              		.loc 1 1223 26 discriminator 1 view .LVU1251
 3829 0076 B04B     		ldr	r3, .L362+12
 3830 0078 F768     		ldr	r7, [r6, #12]
 3831 007a 03EB4429 		add	r9, r3, r4, lsl #9
1223:Lib/AI_Runtime/Npu/ll_aton/ll_aton.c ****     {
 3832              		.loc 1 1223 19 is_stmt 0 view .LVU1252
 3833 007e 0023     		movs	r3, #0
 3834 0080 3D44     		add	r5, r5, r7
 3835              	.LVL417:
 3836              	.L294:
 3837              	.LBB80:
1225:Lib/AI_Runtime/Npu/ll_aton/ll_aton.c ****       ATON_DECUN_MEM_LOW_SET(id, k, temp);
ARM GAS  /tmp/ccgbPSBw.s 			page 142


 3838              		.loc 1 1225 7 is_stmt 1 view .LVU1253
1226:Lib/AI_Runtime/Npu/ll_aton/ll_aton.c ****       k++;
 3839              		.loc 1 1226 7 is_stmt 0 view .LVU1254
 3840 0082 09EB0302 		add	r2, r9, r3
1225:Lib/AI_Runtime/Npu/ll_aton/ll_aton.c ****       ATON_DECUN_MEM_LOW_SET(id, k, temp);
 3841              		.loc 1 1225 26 view .LVU1255
 3842 0086 17F8010B 		ldrb	r0, [r7], #1	@ zero_extendqisi2
 3843              	.LVL418:
1226:Lib/AI_Runtime/Npu/ll_aton/ll_aton.c ****       k++;
 3844              		.loc 1 1226 7 is_stmt 1 view .LVU1256
1226:Lib/AI_Runtime/Npu/ll_aton/ll_aton.c ****       k++;
 3845              		.loc 1 1226 7 view .LVU1257
1227:Lib/AI_Runtime/Npu/ll_aton/ll_aton.c ****       if (k == mem_idx_num)
 3846              		.loc 1 1227 8 is_stmt 0 view .LVU1258
 3847 008a 0133     		adds	r3, r3, #1
 3848              	.LVL419:
1226:Lib/AI_Runtime/Npu/ll_aton/ll_aton.c ****       k++;
 3849              		.loc 1 1226 7 view .LVU1259
 3850 008c D200     		lsls	r2, r2, #3
1228:Lib/AI_Runtime/Npu/ll_aton/ll_aton.c ****       {
 3851              		.loc 1 1228 10 view .LVU1260
 3852 008e B3F5807F 		cmp	r3, #256
1226:Lib/AI_Runtime/Npu/ll_aton/ll_aton.c ****       k++;
 3853              		.loc 1 1226 7 view .LVU1261
 3854 0092 1060     		str	r0, [r2]
1226:Lib/AI_Runtime/Npu/ll_aton/ll_aton.c ****       k++;
 3855              		.loc 1 1226 7 is_stmt 1 view .LVU1262
1227:Lib/AI_Runtime/Npu/ll_aton/ll_aton.c ****       if (k == mem_idx_num)
 3856              		.loc 1 1227 7 view .LVU1263
 3857              	.LVL420:
1228:Lib/AI_Runtime/Npu/ll_aton/ll_aton.c ****       {
 3858              		.loc 1 1228 7 view .LVU1264
1228:Lib/AI_Runtime/Npu/ll_aton/ll_aton.c ****       {
 3859              		.loc 1 1228 10 is_stmt 0 view .LVU1265
 3860 0094 04D1     		bne	.L293
1230:Lib/AI_Runtime/Npu/ll_aton/ll_aton.c ****         k = 0;
 3861              		.loc 1 1230 9 is_stmt 1 view .LVU1266
1230:Lib/AI_Runtime/Npu/ll_aton/ll_aton.c ****         k = 0;
 3862              		.loc 1 1230 20 is_stmt 0 view .LVU1267
 3863 0096 2046     		mov	r0, r4
 3864              	.LVL421:
1230:Lib/AI_Runtime/Npu/ll_aton/ll_aton.c ****         k = 0;
 3865              		.loc 1 1230 20 view .LVU1268
 3866 0098 FFF7FEFF 		bl	decun_inc_page_addr
 3867              	.LVL422:
1231:Lib/AI_Runtime/Npu/ll_aton/ll_aton.c ****       }
 3868              		.loc 1 1231 11 view .LVU1269
 3869 009c 0023     		movs	r3, #0
1230:Lib/AI_Runtime/Npu/ll_aton/ll_aton.c ****         k = 0;
 3870              		.loc 1 1230 20 view .LVU1270
 3871 009e 0146     		mov	r1, r0
 3872              	.LVL423:
1231:Lib/AI_Runtime/Npu/ll_aton/ll_aton.c ****       }
 3873              		.loc 1 1231 9 is_stmt 1 view .LVU1271
 3874              	.L293:
1231:Lib/AI_Runtime/Npu/ll_aton/ll_aton.c ****       }
 3875              		.loc 1 1231 9 is_stmt 0 view .LVU1272
ARM GAS  /tmp/ccgbPSBw.s 			page 143


 3876              	.LBE80:
1223:Lib/AI_Runtime/Npu/ll_aton/ll_aton.c ****     {
 3877              		.loc 1 1223 37 is_stmt 1 discriminator 2 view .LVU1273
1223:Lib/AI_Runtime/Npu/ll_aton/ll_aton.c ****     {
 3878              		.loc 1 1223 26 discriminator 1 view .LVU1274
 3879 00a0 BD42     		cmp	r5, r7
 3880 00a2 EED1     		bne	.L294
1223:Lib/AI_Runtime/Npu/ll_aton/ll_aton.c ****     {
 3881              		.loc 1 1223 26 is_stmt 0 discriminator 1 view .LVU1275
 3882 00a4 C4E7     		b	.L312
 3883              	.LVL424:
 3884              	.L292:
1223:Lib/AI_Runtime/Npu/ll_aton/ll_aton.c ****     {
 3885              		.loc 1 1223 26 discriminator 1 view .LVU1276
 3886              	.LBE79:
1235:Lib/AI_Runtime/Npu/ll_aton/ll_aton.c ****   {
 3887              		.loc 1 1235 3 is_stmt 1 view .LVU1277
1235:Lib/AI_Runtime/Npu/ll_aton/ll_aton.c ****   {
 3888              		.loc 1 1235 6 is_stmt 0 view .LVU1278
 3889 00a6 022F     		cmp	r7, #2
 3890 00a8 18D1     		bne	.L296
 3891              	.LBB81:
1251:Lib/AI_Runtime/Npu/ll_aton/ll_aton.c ****     for (i = 0, k = 0; i < CBsize / 2; i++)
 3892              		.loc 1 1251 5 is_stmt 1 view .LVU1279
 3893              	.LVL425:
1252:Lib/AI_Runtime/Npu/ll_aton/ll_aton.c ****     {
 3894              		.loc 1 1252 5 view .LVU1280
1252:Lib/AI_Runtime/Npu/ll_aton/ll_aton.c ****     {
 3895              		.loc 1 1252 5 is_stmt 0 view .LVU1281
 3896 00aa A34B     		ldr	r3, .L362+12
 3897 00ac F768     		ldr	r7, [r6, #12]
 3898 00ae 25F00105 		bic	r5, r5, #1
 3899              	.LVL426:
1252:Lib/AI_Runtime/Npu/ll_aton/ll_aton.c ****     {
 3900              		.loc 1 1252 5 view .LVU1282
 3901 00b2 03EB4429 		add	r9, r3, r4, lsl #9
 3902 00b6 3D44     		add	r5, r5, r7
 3903              	.LVL427:
 3904              	.L358:
 3905              	.LBB82:
1260:Lib/AI_Runtime/Npu/ll_aton/ll_aton.c ****       }
 3906              		.loc 1 1260 9 is_stmt 1 view .LVU1283
1260:Lib/AI_Runtime/Npu/ll_aton/ll_aton.c ****       }
 3907              		.loc 1 1260 11 is_stmt 0 view .LVU1284
 3908 00b8 0023     		movs	r3, #0
 3909              	.LVL428:
1260:Lib/AI_Runtime/Npu/ll_aton/ll_aton.c ****       }
 3910              		.loc 1 1260 11 view .LVU1285
 3911              	.LBE82:
1252:Lib/AI_Runtime/Npu/ll_aton/ll_aton.c ****     {
 3912              		.loc 1 1252 41 is_stmt 1 discriminator 2 view .LVU1286
 3913              	.L297:
1252:Lib/AI_Runtime/Npu/ll_aton/ll_aton.c ****     {
 3914              		.loc 1 1252 26 discriminator 1 view .LVU1287
 3915 00ba BD42     		cmp	r5, r7
 3916 00bc B8D0     		beq	.L312
 3917              	.LBB83:
ARM GAS  /tmp/ccgbPSBw.s 			page 144


1254:Lib/AI_Runtime/Npu/ll_aton/ll_aton.c ****       ATON_DECUN_MEM_LOW_SET(id, k, temp);
 3918              		.loc 1 1254 7 view .LVU1288
1255:Lib/AI_Runtime/Npu/ll_aton/ll_aton.c ****       k++;
 3919              		.loc 1 1255 7 is_stmt 0 view .LVU1289
 3920 00be 03EB0902 		add	r2, r3, r9
1254:Lib/AI_Runtime/Npu/ll_aton/ll_aton.c ****       ATON_DECUN_MEM_LOW_SET(id, k, temp);
 3921              		.loc 1 1254 26 view .LVU1290
 3922 00c2 37F8020B 		ldrh	r0, [r7], #2
 3923              	.LVL429:
1255:Lib/AI_Runtime/Npu/ll_aton/ll_aton.c ****       k++;
 3924              		.loc 1 1255 7 is_stmt 1 view .LVU1291
1255:Lib/AI_Runtime/Npu/ll_aton/ll_aton.c ****       k++;
 3925              		.loc 1 1255 7 view .LVU1292
1256:Lib/AI_Runtime/Npu/ll_aton/ll_aton.c ****       if (k == mem_idx_num)
 3926              		.loc 1 1256 8 is_stmt 0 view .LVU1293
 3927 00c6 0133     		adds	r3, r3, #1
 3928              	.LVL430:
1255:Lib/AI_Runtime/Npu/ll_aton/ll_aton.c ****       k++;
 3929              		.loc 1 1255 7 view .LVU1294
 3930 00c8 D200     		lsls	r2, r2, #3
1257:Lib/AI_Runtime/Npu/ll_aton/ll_aton.c ****       {
 3931              		.loc 1 1257 10 view .LVU1295
 3932 00ca B3F5807F 		cmp	r3, #256
1255:Lib/AI_Runtime/Npu/ll_aton/ll_aton.c ****       k++;
 3933              		.loc 1 1255 7 view .LVU1296
 3934 00ce 1060     		str	r0, [r2]
1255:Lib/AI_Runtime/Npu/ll_aton/ll_aton.c ****       k++;
 3935              		.loc 1 1255 7 is_stmt 1 view .LVU1297
1256:Lib/AI_Runtime/Npu/ll_aton/ll_aton.c ****       if (k == mem_idx_num)
 3936              		.loc 1 1256 7 view .LVU1298
 3937              	.LVL431:
1257:Lib/AI_Runtime/Npu/ll_aton/ll_aton.c ****       {
 3938              		.loc 1 1257 7 view .LVU1299
1257:Lib/AI_Runtime/Npu/ll_aton/ll_aton.c ****       {
 3939              		.loc 1 1257 10 is_stmt 0 view .LVU1300
 3940 00d0 F3D1     		bne	.L297
1259:Lib/AI_Runtime/Npu/ll_aton/ll_aton.c ****         k = 0;
 3941              		.loc 1 1259 9 is_stmt 1 view .LVU1301
1259:Lib/AI_Runtime/Npu/ll_aton/ll_aton.c ****         k = 0;
 3942              		.loc 1 1259 20 is_stmt 0 view .LVU1302
 3943 00d2 2046     		mov	r0, r4
 3944              	.LVL432:
1259:Lib/AI_Runtime/Npu/ll_aton/ll_aton.c ****         k = 0;
 3945              		.loc 1 1259 20 view .LVU1303
 3946 00d4 FFF7FEFF 		bl	decun_inc_page_addr
 3947              	.LVL433:
1259:Lib/AI_Runtime/Npu/ll_aton/ll_aton.c ****         k = 0;
 3948              		.loc 1 1259 20 view .LVU1304
 3949 00d8 0146     		mov	r1, r0
 3950              	.LVL434:
1259:Lib/AI_Runtime/Npu/ll_aton/ll_aton.c ****         k = 0;
 3951              		.loc 1 1259 20 view .LVU1305
 3952 00da EDE7     		b	.L358
 3953              	.LVL435:
 3954              	.L296:
1259:Lib/AI_Runtime/Npu/ll_aton/ll_aton.c ****         k = 0;
 3955              		.loc 1 1259 20 view .LVU1306
ARM GAS  /tmp/ccgbPSBw.s 			page 145


 3956              	.LBE83:
 3957              	.LBE81:
1265:Lib/AI_Runtime/Npu/ll_aton/ll_aton.c ****   {
 3958              		.loc 1 1265 3 is_stmt 1 view .LVU1307
1265:Lib/AI_Runtime/Npu/ll_aton/ll_aton.c ****   {
 3959              		.loc 1 1265 6 is_stmt 0 view .LVU1308
 3960 00dc 032F     		cmp	r7, #3
 3961 00de 20D1     		bne	.L295
 3962              	.LBB84:
1267:Lib/AI_Runtime/Npu/ll_aton/ll_aton.c ****     for (i = 0, k = 0; i < CBsize; i += 3)
 3963              		.loc 1 1267 5 is_stmt 1 view .LVU1309
 3964              	.LVL436:
1268:Lib/AI_Runtime/Npu/ll_aton/ll_aton.c ****     {
 3965              		.loc 1 1268 5 view .LVU1310
1268:Lib/AI_Runtime/Npu/ll_aton/ll_aton.c ****     {
 3966              		.loc 1 1268 26 discriminator 1 view .LVU1311
 3967 00e0 D6F80CA0 		ldr	r10, [r6, #12]
1268:Lib/AI_Runtime/Npu/ll_aton/ll_aton.c ****     {
 3968              		.loc 1 1268 19 is_stmt 0 view .LVU1312
 3969 00e4 0022     		movs	r2, #0
 3970              	.LBB85:
1271:Lib/AI_Runtime/Npu/ll_aton/ll_aton.c ****       k++;
 3971              		.loc 1 1271 7 view .LVU1313
 3972 00e6 5746     		mov	r7, r10
 3973 00e8 934B     		ldr	r3, .L362+12
 3974 00ea 03EB4429 		add	r9, r3, r4, lsl #9
 3975              	.LVL437:
 3976              	.L302:
1270:Lib/AI_Runtime/Npu/ll_aton/ll_aton.c ****       ATON_DECUN_MEM_LOW_SET(id, k, temp);
 3977              		.loc 1 1270 7 is_stmt 1 view .LVU1314
1270:Lib/AI_Runtime/Npu/ll_aton/ll_aton.c ****       ATON_DECUN_MEM_LOW_SET(id, k, temp);
 3978              		.loc 1 1270 56 is_stmt 0 view .LVU1315
 3979 00ee BB78     		ldrb	r3, [r7, #2]	@ zero_extendqisi2
1270:Lib/AI_Runtime/Npu/ll_aton/ll_aton.c ****       ATON_DECUN_MEM_LOW_SET(id, k, temp);
 3980              		.loc 1 1270 36 view .LVU1316
 3981 00f0 7878     		ldrb	r0, [r7, #1]	@ zero_extendqisi2
1270:Lib/AI_Runtime/Npu/ll_aton/ll_aton.c ****       ATON_DECUN_MEM_LOW_SET(id, k, temp);
 3982              		.loc 1 1270 64 view .LVU1317
 3983 00f2 1B04     		lsls	r3, r3, #16
1270:Lib/AI_Runtime/Npu/ll_aton/ll_aton.c ****       ATON_DECUN_MEM_LOW_SET(id, k, temp);
 3984              		.loc 1 1270 50 view .LVU1318
 3985 00f4 43EA0023 		orr	r3, r3, r0, lsl #8
1270:Lib/AI_Runtime/Npu/ll_aton/ll_aton.c ****       ATON_DECUN_MEM_LOW_SET(id, k, temp);
 3986              		.loc 1 1270 26 view .LVU1319
 3987 00f8 3878     		ldrb	r0, [r7]	@ zero_extendqisi2
1270:Lib/AI_Runtime/Npu/ll_aton/ll_aton.c ****       ATON_DECUN_MEM_LOW_SET(id, k, temp);
 3988              		.loc 1 1270 50 view .LVU1320
 3989 00fa 0343     		orrs	r3, r3, r0
 3990              	.LVL438:
1271:Lib/AI_Runtime/Npu/ll_aton/ll_aton.c ****       k++;
 3991              		.loc 1 1271 7 is_stmt 1 view .LVU1321
1271:Lib/AI_Runtime/Npu/ll_aton/ll_aton.c ****       k++;
 3992              		.loc 1 1271 7 view .LVU1322
 3993 00fc 02EB0900 		add	r0, r2, r9
1272:Lib/AI_Runtime/Npu/ll_aton/ll_aton.c ****       if (k == mem_idx_num)
 3994              		.loc 1 1272 8 is_stmt 0 view .LVU1323
 3995 0100 0132     		adds	r2, r2, #1
ARM GAS  /tmp/ccgbPSBw.s 			page 146


 3996              	.LVL439:
1271:Lib/AI_Runtime/Npu/ll_aton/ll_aton.c ****       k++;
 3997              		.loc 1 1271 7 view .LVU1324
 3998 0102 C000     		lsls	r0, r0, #3
1273:Lib/AI_Runtime/Npu/ll_aton/ll_aton.c ****       {
 3999              		.loc 1 1273 10 view .LVU1325
 4000 0104 B2F5807F 		cmp	r2, #256
1271:Lib/AI_Runtime/Npu/ll_aton/ll_aton.c ****       k++;
 4001              		.loc 1 1271 7 view .LVU1326
 4002 0108 0360     		str	r3, [r0]
1271:Lib/AI_Runtime/Npu/ll_aton/ll_aton.c ****       k++;
 4003              		.loc 1 1271 7 is_stmt 1 view .LVU1327
1272:Lib/AI_Runtime/Npu/ll_aton/ll_aton.c ****       if (k == mem_idx_num)
 4004              		.loc 1 1272 7 view .LVU1328
 4005              	.LVL440:
1273:Lib/AI_Runtime/Npu/ll_aton/ll_aton.c ****       {
 4006              		.loc 1 1273 7 view .LVU1329
1273:Lib/AI_Runtime/Npu/ll_aton/ll_aton.c ****       {
 4007              		.loc 1 1273 10 is_stmt 0 view .LVU1330
 4008 010a 04D1     		bne	.L301
1275:Lib/AI_Runtime/Npu/ll_aton/ll_aton.c ****         k = 0;
 4009              		.loc 1 1275 9 is_stmt 1 view .LVU1331
1275:Lib/AI_Runtime/Npu/ll_aton/ll_aton.c ****         k = 0;
 4010              		.loc 1 1275 20 is_stmt 0 view .LVU1332
 4011 010c 2046     		mov	r0, r4
 4012 010e FFF7FEFF 		bl	decun_inc_page_addr
 4013              	.LVL441:
1276:Lib/AI_Runtime/Npu/ll_aton/ll_aton.c ****       }
 4014              		.loc 1 1276 11 view .LVU1333
 4015 0112 0022     		movs	r2, #0
1275:Lib/AI_Runtime/Npu/ll_aton/ll_aton.c ****         k = 0;
 4016              		.loc 1 1275 20 view .LVU1334
 4017 0114 0146     		mov	r1, r0
 4018              	.LVL442:
1276:Lib/AI_Runtime/Npu/ll_aton/ll_aton.c ****       }
 4019              		.loc 1 1276 9 is_stmt 1 view .LVU1335
 4020              	.L301:
1276:Lib/AI_Runtime/Npu/ll_aton/ll_aton.c ****       }
 4021              		.loc 1 1276 9 is_stmt 0 view .LVU1336
 4022              	.LBE85:
1268:Lib/AI_Runtime/Npu/ll_aton/ll_aton.c ****     {
 4023              		.loc 1 1268 38 is_stmt 1 discriminator 2 view .LVU1337
1268:Lib/AI_Runtime/Npu/ll_aton/ll_aton.c ****     {
 4024              		.loc 1 1268 26 discriminator 1 view .LVU1338
 4025 0116 0337     		adds	r7, r7, #3
 4026              	.LVL443:
1268:Lib/AI_Runtime/Npu/ll_aton/ll_aton.c ****     {
 4027              		.loc 1 1268 26 is_stmt 0 discriminator 1 view .LVU1339
 4028 0118 A7EB0A03 		sub	r3, r7, r10
 4029 011c 9D42     		cmp	r5, r3
 4030 011e E6D8     		bhi	.L302
1268:Lib/AI_Runtime/Npu/ll_aton/ll_aton.c ****     {
 4031              		.loc 1 1268 26 discriminator 1 view .LVU1340
 4032 0120 86E7     		b	.L312
 4033              	.LVL444:
 4034              	.L295:
1268:Lib/AI_Runtime/Npu/ll_aton/ll_aton.c ****     {
ARM GAS  /tmp/ccgbPSBw.s 			page 147


 4035              		.loc 1 1268 26 discriminator 1 view .LVU1341
 4036              	.LBE84:
1280:Lib/AI_Runtime/Npu/ll_aton/ll_aton.c ****   {
 4037              		.loc 1 1280 3 is_stmt 1 view .LVU1342
1280:Lib/AI_Runtime/Npu/ll_aton/ll_aton.c ****   {
 4038              		.loc 1 1280 6 is_stmt 0 view .LVU1343
 4039 0122 042F     		cmp	r7, #4
 4040 0124 01D0     		beq	.L304
 4041              	.LVL445:
1280:Lib/AI_Runtime/Npu/ll_aton/ll_aton.c ****   {
 4042              		.loc 1 1280 27 discriminator 1 view .LVU1344
 4043 0126 082F     		cmp	r7, #8
 4044 0128 4ED1     		bne	.L305
 4045              	.L304:
 4046              	.LBB86:
1282:Lib/AI_Runtime/Npu/ll_aton/ll_aton.c ****     for (i = 0, k = 0; i < CBsize / 4; i++)
 4047              		.loc 1 1282 5 is_stmt 1 view .LVU1345
 4048              	.LVL446:
1283:Lib/AI_Runtime/Npu/ll_aton/ll_aton.c ****     {
 4049              		.loc 1 1283 5 view .LVU1346
1283:Lib/AI_Runtime/Npu/ll_aton/ll_aton.c ****     {
 4050              		.loc 1 1283 5 is_stmt 0 view .LVU1347
 4051 012a 834B     		ldr	r3, .L362+12
 4052 012c D6F80C90 		ldr	r9, [r6, #12]
 4053 0130 25F0030A 		bic	r10, r5, #3
 4054 0134 03EB442B 		add	fp, r3, r4, lsl #9
 4055 0138 CA44     		add	r10, r10, r9
 4056              	.LVL447:
 4057              	.L359:
 4058              	.LBB87:
1291:Lib/AI_Runtime/Npu/ll_aton/ll_aton.c ****       }
 4059              		.loc 1 1291 9 is_stmt 1 view .LVU1348
1291:Lib/AI_Runtime/Npu/ll_aton/ll_aton.c ****       }
 4060              		.loc 1 1291 11 is_stmt 0 view .LVU1349
 4061 013a 0023     		movs	r3, #0
 4062              	.LVL448:
1291:Lib/AI_Runtime/Npu/ll_aton/ll_aton.c ****       }
 4063              		.loc 1 1291 11 view .LVU1350
 4064              	.LBE87:
1283:Lib/AI_Runtime/Npu/ll_aton/ll_aton.c ****     {
 4065              		.loc 1 1283 41 is_stmt 1 discriminator 2 view .LVU1351
 4066              	.L306:
1283:Lib/AI_Runtime/Npu/ll_aton/ll_aton.c ****     {
 4067              		.loc 1 1283 26 discriminator 1 view .LVU1352
 4068 013c CA45     		cmp	r10, r9
 4069 013e 34D1     		bne	.L308
 4070              	.LVL449:
 4071              	.L309:
1283:Lib/AI_Runtime/Npu/ll_aton/ll_aton.c ****     {
 4072              		.loc 1 1283 26 is_stmt 0 discriminator 1 view .LVU1353
 4073              	.LBE86:
1349:Lib/AI_Runtime/Npu/ll_aton/ll_aton.c ****   {
 4074              		.loc 1 1349 3 is_stmt 1 view .LVU1354
1349:Lib/AI_Runtime/Npu/ll_aton/ll_aton.c ****   {
 4075              		.loc 1 1349 6 is_stmt 0 view .LVU1355
 4076 0140 072F     		cmp	r7, #7
 4077 0142 7FF475AF 		bne	.L312
ARM GAS  /tmp/ccgbPSBw.s 			page 148


 4078              	.LBB89:
1351:Lib/AI_Runtime/Npu/ll_aton/ll_aton.c ****     for (i = 0, k = 0; i < CBsize; i += 7)
 4079              		.loc 1 1351 5 is_stmt 1 view .LVU1356
 4080              	.LVL450:
1352:Lib/AI_Runtime/Npu/ll_aton/ll_aton.c ****     {
 4081              		.loc 1 1352 5 view .LVU1357
1352:Lib/AI_Runtime/Npu/ll_aton/ll_aton.c ****     {
 4082              		.loc 1 1352 26 discriminator 1 view .LVU1358
 4083 0146 D6F80CB0 		ldr	fp, [r6, #12]
1352:Lib/AI_Runtime/Npu/ll_aton/ll_aton.c ****     {
 4084              		.loc 1 1352 19 is_stmt 0 view .LVU1359
 4085 014a 0022     		movs	r2, #0
 4086              	.LBB90:
1355:Lib/AI_Runtime/Npu/ll_aton/ll_aton.c ****       k++;
 4087              		.loc 1 1355 7 view .LVU1360
 4088 014c 5F46     		mov	r7, fp
 4089 014e 7A4B     		ldr	r3, .L362+12
 4090 0150 03EB4429 		add	r9, r3, r4, lsl #9
 4091 0154 0133     		adds	r3, r3, #1
 4092 0156 03EB442A 		add	r10, r3, r4, lsl #9
 4093              	.LVL451:
 4094              	.L317:
1354:Lib/AI_Runtime/Npu/ll_aton/ll_aton.c ****       ATON_DECUN_MEM_LOW_SET(id, k, temp);
 4095              		.loc 1 1354 7 is_stmt 1 view .LVU1361
1354:Lib/AI_Runtime/Npu/ll_aton/ll_aton.c ****       ATON_DECUN_MEM_LOW_SET(id, k, temp);
 4096              		.loc 1 1354 56 is_stmt 0 view .LVU1362
 4097 015a BB78     		ldrb	r3, [r7, #2]	@ zero_extendqisi2
1354:Lib/AI_Runtime/Npu/ll_aton/ll_aton.c ****       ATON_DECUN_MEM_LOW_SET(id, k, temp);
 4098              		.loc 1 1354 36 view .LVU1363
 4099 015c 7878     		ldrb	r0, [r7, #1]	@ zero_extendqisi2
1354:Lib/AI_Runtime/Npu/ll_aton/ll_aton.c ****       ATON_DECUN_MEM_LOW_SET(id, k, temp);
 4100              		.loc 1 1354 64 view .LVU1364
 4101 015e 1B04     		lsls	r3, r3, #16
1354:Lib/AI_Runtime/Npu/ll_aton/ll_aton.c ****       ATON_DECUN_MEM_LOW_SET(id, k, temp);
 4102              		.loc 1 1354 50 view .LVU1365
 4103 0160 43EA0023 		orr	r3, r3, r0, lsl #8
1354:Lib/AI_Runtime/Npu/ll_aton/ll_aton.c ****       ATON_DECUN_MEM_LOW_SET(id, k, temp);
 4104              		.loc 1 1354 26 view .LVU1366
 4105 0164 3878     		ldrb	r0, [r7]	@ zero_extendqisi2
1354:Lib/AI_Runtime/Npu/ll_aton/ll_aton.c ****       ATON_DECUN_MEM_LOW_SET(id, k, temp);
 4106              		.loc 1 1354 50 view .LVU1367
 4107 0166 0343     		orrs	r3, r3, r0
1354:Lib/AI_Runtime/Npu/ll_aton/ll_aton.c ****       ATON_DECUN_MEM_LOW_SET(id, k, temp);
 4108              		.loc 1 1354 77 view .LVU1368
 4109 0168 F878     		ldrb	r0, [r7, #3]	@ zero_extendqisi2
1354:Lib/AI_Runtime/Npu/ll_aton/ll_aton.c ****       ATON_DECUN_MEM_LOW_SET(id, k, temp);
 4110              		.loc 1 1354 71 view .LVU1369
 4111 016a 43EA0063 		orr	r3, r3, r0, lsl #24
 4112              	.LVL452:
1355:Lib/AI_Runtime/Npu/ll_aton/ll_aton.c ****       k++;
 4113              		.loc 1 1355 7 is_stmt 1 view .LVU1370
1355:Lib/AI_Runtime/Npu/ll_aton/ll_aton.c ****       k++;
 4114              		.loc 1 1355 7 view .LVU1371
 4115 016e 09EB0200 		add	r0, r9, r2
 4116 0172 C000     		lsls	r0, r0, #3
 4117 0174 0360     		str	r3, [r0]
1355:Lib/AI_Runtime/Npu/ll_aton/ll_aton.c ****       k++;
ARM GAS  /tmp/ccgbPSBw.s 			page 149


 4118              		.loc 1 1355 7 view .LVU1372
1356:Lib/AI_Runtime/Npu/ll_aton/ll_aton.c ****       temp = CBp[i + 4] | (CBp[i + 5] << 8) | (CBp[i + 6] << 16);
 4119              		.loc 1 1356 7 view .LVU1373
 4120              	.LVL453:
1357:Lib/AI_Runtime/Npu/ll_aton/ll_aton.c ****       ATON_DECUN_MEM_LOW_SET(id, k, temp);
 4121              		.loc 1 1357 7 view .LVU1374
1357:Lib/AI_Runtime/Npu/ll_aton/ll_aton.c ****       ATON_DECUN_MEM_LOW_SET(id, k, temp);
 4122              		.loc 1 1357 51 is_stmt 0 view .LVU1375
 4123 0176 BB79     		ldrb	r3, [r7, #6]	@ zero_extendqisi2
 4124              	.LVL454:
1357:Lib/AI_Runtime/Npu/ll_aton/ll_aton.c ****       ATON_DECUN_MEM_LOW_SET(id, k, temp);
 4125              		.loc 1 1357 31 view .LVU1376
 4126 0178 7879     		ldrb	r0, [r7, #5]	@ zero_extendqisi2
 4127              	.LVL455:
1357:Lib/AI_Runtime/Npu/ll_aton/ll_aton.c ****       ATON_DECUN_MEM_LOW_SET(id, k, temp);
 4128              		.loc 1 1357 59 view .LVU1377
 4129 017a 1B04     		lsls	r3, r3, #16
1357:Lib/AI_Runtime/Npu/ll_aton/ll_aton.c ****       ATON_DECUN_MEM_LOW_SET(id, k, temp);
 4130              		.loc 1 1357 45 view .LVU1378
 4131 017c 43EA0023 		orr	r3, r3, r0, lsl #8
1357:Lib/AI_Runtime/Npu/ll_aton/ll_aton.c ****       ATON_DECUN_MEM_LOW_SET(id, k, temp);
 4132              		.loc 1 1357 17 view .LVU1379
 4133 0180 3879     		ldrb	r0, [r7, #4]	@ zero_extendqisi2
1357:Lib/AI_Runtime/Npu/ll_aton/ll_aton.c ****       ATON_DECUN_MEM_LOW_SET(id, k, temp);
 4134              		.loc 1 1357 45 view .LVU1380
 4135 0182 0343     		orrs	r3, r3, r0
 4136              	.LVL456:
1358:Lib/AI_Runtime/Npu/ll_aton/ll_aton.c ****       k++;
 4137              		.loc 1 1358 7 is_stmt 1 view .LVU1381
1358:Lib/AI_Runtime/Npu/ll_aton/ll_aton.c ****       k++;
 4138              		.loc 1 1358 7 view .LVU1382
 4139 0184 0AEB0200 		add	r0, r10, r2
1359:Lib/AI_Runtime/Npu/ll_aton/ll_aton.c ****       if (k == mem_idx_num)
 4140              		.loc 1 1359 8 is_stmt 0 view .LVU1383
 4141 0188 0232     		adds	r2, r2, #2
 4142              	.LVL457:
1358:Lib/AI_Runtime/Npu/ll_aton/ll_aton.c ****       k++;
 4143              		.loc 1 1358 7 view .LVU1384
 4144 018a C000     		lsls	r0, r0, #3
1360:Lib/AI_Runtime/Npu/ll_aton/ll_aton.c ****       {
 4145              		.loc 1 1360 10 view .LVU1385
 4146 018c B2F5807F 		cmp	r2, #256
1358:Lib/AI_Runtime/Npu/ll_aton/ll_aton.c ****       k++;
 4147              		.loc 1 1358 7 view .LVU1386
 4148 0190 0360     		str	r3, [r0]
1358:Lib/AI_Runtime/Npu/ll_aton/ll_aton.c ****       k++;
 4149              		.loc 1 1358 7 is_stmt 1 view .LVU1387
1359:Lib/AI_Runtime/Npu/ll_aton/ll_aton.c ****       if (k == mem_idx_num)
 4150              		.loc 1 1359 7 view .LVU1388
 4151              	.LVL458:
1360:Lib/AI_Runtime/Npu/ll_aton/ll_aton.c ****       {
 4152              		.loc 1 1360 7 view .LVU1389
1360:Lib/AI_Runtime/Npu/ll_aton/ll_aton.c ****       {
 4153              		.loc 1 1360 10 is_stmt 0 view .LVU1390
 4154 0192 04D1     		bne	.L316
1362:Lib/AI_Runtime/Npu/ll_aton/ll_aton.c ****         k = 0;
 4155              		.loc 1 1362 9 is_stmt 1 view .LVU1391
ARM GAS  /tmp/ccgbPSBw.s 			page 150


1362:Lib/AI_Runtime/Npu/ll_aton/ll_aton.c ****         k = 0;
 4156              		.loc 1 1362 20 is_stmt 0 view .LVU1392
 4157 0194 2046     		mov	r0, r4
 4158 0196 FFF7FEFF 		bl	decun_inc_page_addr
 4159              	.LVL459:
1363:Lib/AI_Runtime/Npu/ll_aton/ll_aton.c ****       }
 4160              		.loc 1 1363 11 view .LVU1393
 4161 019a 0022     		movs	r2, #0
1362:Lib/AI_Runtime/Npu/ll_aton/ll_aton.c ****         k = 0;
 4162              		.loc 1 1362 20 view .LVU1394
 4163 019c 0146     		mov	r1, r0
 4164              	.LVL460:
1363:Lib/AI_Runtime/Npu/ll_aton/ll_aton.c ****       }
 4165              		.loc 1 1363 9 is_stmt 1 view .LVU1395
 4166              	.L316:
1363:Lib/AI_Runtime/Npu/ll_aton/ll_aton.c ****       }
 4167              		.loc 1 1363 9 is_stmt 0 view .LVU1396
 4168              	.LBE90:
1352:Lib/AI_Runtime/Npu/ll_aton/ll_aton.c ****     {
 4169              		.loc 1 1352 38 is_stmt 1 discriminator 2 view .LVU1397
1352:Lib/AI_Runtime/Npu/ll_aton/ll_aton.c ****     {
 4170              		.loc 1 1352 26 discriminator 1 view .LVU1398
 4171 019e 0737     		adds	r7, r7, #7
 4172              	.LVL461:
1352:Lib/AI_Runtime/Npu/ll_aton/ll_aton.c ****     {
 4173              		.loc 1 1352 26 is_stmt 0 discriminator 1 view .LVU1399
 4174 01a0 A7EB0B03 		sub	r3, r7, fp
 4175 01a4 9D42     		cmp	r5, r3
 4176 01a6 D8D8     		bhi	.L317
1352:Lib/AI_Runtime/Npu/ll_aton/ll_aton.c ****     {
 4177              		.loc 1 1352 26 discriminator 1 view .LVU1400
 4178 01a8 42E7     		b	.L312
 4179              	.LVL462:
 4180              	.L308:
1352:Lib/AI_Runtime/Npu/ll_aton/ll_aton.c ****     {
 4181              		.loc 1 1352 26 discriminator 1 view .LVU1401
 4182              	.LBE89:
 4183              	.LBB91:
 4184              	.LBB88:
1285:Lib/AI_Runtime/Npu/ll_aton/ll_aton.c ****       ATON_DECUN_MEM_LOW_SET(id, k, temp);
 4185              		.loc 1 1285 7 is_stmt 1 view .LVU1402
1286:Lib/AI_Runtime/Npu/ll_aton/ll_aton.c ****       k++;
 4186              		.loc 1 1286 7 is_stmt 0 view .LVU1403
 4187 01aa 0BEB0302 		add	r2, fp, r3
1285:Lib/AI_Runtime/Npu/ll_aton/ll_aton.c ****       ATON_DECUN_MEM_LOW_SET(id, k, temp);
 4188              		.loc 1 1285 16 view .LVU1404
 4189 01ae 59F8040B 		ldr	r0, [r9], #4
 4190              	.LVL463:
1286:Lib/AI_Runtime/Npu/ll_aton/ll_aton.c ****       k++;
 4191              		.loc 1 1286 7 is_stmt 1 view .LVU1405
1286:Lib/AI_Runtime/Npu/ll_aton/ll_aton.c ****       k++;
 4192              		.loc 1 1286 7 view .LVU1406
1287:Lib/AI_Runtime/Npu/ll_aton/ll_aton.c ****       if (k == mem_idx_num)
 4193              		.loc 1 1287 8 is_stmt 0 view .LVU1407
 4194 01b2 0133     		adds	r3, r3, #1
 4195              	.LVL464:
1286:Lib/AI_Runtime/Npu/ll_aton/ll_aton.c ****       k++;
ARM GAS  /tmp/ccgbPSBw.s 			page 151


 4196              		.loc 1 1286 7 view .LVU1408
 4197 01b4 D200     		lsls	r2, r2, #3
1288:Lib/AI_Runtime/Npu/ll_aton/ll_aton.c ****       {
 4198              		.loc 1 1288 10 view .LVU1409
 4199 01b6 B3F5807F 		cmp	r3, #256
1286:Lib/AI_Runtime/Npu/ll_aton/ll_aton.c ****       k++;
 4200              		.loc 1 1286 7 view .LVU1410
 4201 01ba 1060     		str	r0, [r2]
1286:Lib/AI_Runtime/Npu/ll_aton/ll_aton.c ****       k++;
 4202              		.loc 1 1286 7 is_stmt 1 view .LVU1411
1287:Lib/AI_Runtime/Npu/ll_aton/ll_aton.c ****       if (k == mem_idx_num)
 4203              		.loc 1 1287 7 view .LVU1412
 4204              	.LVL465:
1288:Lib/AI_Runtime/Npu/ll_aton/ll_aton.c ****       {
 4205              		.loc 1 1288 7 view .LVU1413
1288:Lib/AI_Runtime/Npu/ll_aton/ll_aton.c ****       {
 4206              		.loc 1 1288 10 is_stmt 0 view .LVU1414
 4207 01bc BED1     		bne	.L306
1290:Lib/AI_Runtime/Npu/ll_aton/ll_aton.c ****         k = 0;
 4208              		.loc 1 1290 9 is_stmt 1 view .LVU1415
1290:Lib/AI_Runtime/Npu/ll_aton/ll_aton.c ****         k = 0;
 4209              		.loc 1 1290 20 is_stmt 0 view .LVU1416
 4210 01be 2046     		mov	r0, r4
 4211              	.LVL466:
1290:Lib/AI_Runtime/Npu/ll_aton/ll_aton.c ****         k = 0;
 4212              		.loc 1 1290 20 view .LVU1417
 4213 01c0 FFF7FEFF 		bl	decun_inc_page_addr
 4214              	.LVL467:
1290:Lib/AI_Runtime/Npu/ll_aton/ll_aton.c ****         k = 0;
 4215              		.loc 1 1290 20 view .LVU1418
 4216 01c4 0146     		mov	r1, r0
 4217              	.LVL468:
1290:Lib/AI_Runtime/Npu/ll_aton/ll_aton.c ****         k = 0;
 4218              		.loc 1 1290 20 view .LVU1419
 4219 01c6 B8E7     		b	.L359
 4220              	.LVL469:
 4221              	.L305:
1290:Lib/AI_Runtime/Npu/ll_aton/ll_aton.c ****         k = 0;
 4222              		.loc 1 1290 20 view .LVU1420
 4223              	.LBE88:
 4224              	.LBE91:
1295:Lib/AI_Runtime/Npu/ll_aton/ll_aton.c ****   {
 4225              		.loc 1 1295 3 is_stmt 1 view .LVU1421
1295:Lib/AI_Runtime/Npu/ll_aton/ll_aton.c ****   {
 4226              		.loc 1 1295 6 is_stmt 0 view .LVU1422
 4227 01c8 052F     		cmp	r7, #5
 4228 01ca 2BD1     		bne	.L303
 4229              	.LBB92:
1297:Lib/AI_Runtime/Npu/ll_aton/ll_aton.c ****     for (i = 0, k = 0; i < CBsize; i += 5)
 4230              		.loc 1 1297 5 is_stmt 1 view .LVU1423
 4231              	.LVL470:
1298:Lib/AI_Runtime/Npu/ll_aton/ll_aton.c ****     {
 4232              		.loc 1 1298 5 view .LVU1424
1298:Lib/AI_Runtime/Npu/ll_aton/ll_aton.c ****     {
 4233              		.loc 1 1298 26 discriminator 1 view .LVU1425
 4234 01cc D6F80CB0 		ldr	fp, [r6, #12]
1298:Lib/AI_Runtime/Npu/ll_aton/ll_aton.c ****     {
ARM GAS  /tmp/ccgbPSBw.s 			page 152


 4235              		.loc 1 1298 19 is_stmt 0 view .LVU1426
 4236 01d0 0022     		movs	r2, #0
 4237              	.LBB93:
1301:Lib/AI_Runtime/Npu/ll_aton/ll_aton.c ****       k++;
 4238              		.loc 1 1301 7 view .LVU1427
 4239 01d2 5F46     		mov	r7, fp
 4240 01d4 584B     		ldr	r3, .L362+12
 4241 01d6 03EB4429 		add	r9, r3, r4, lsl #9
 4242 01da 0133     		adds	r3, r3, #1
 4243 01dc 03EB442A 		add	r10, r3, r4, lsl #9
 4244              	.LVL471:
 4245              	.L311:
1300:Lib/AI_Runtime/Npu/ll_aton/ll_aton.c ****       ATON_DECUN_MEM_LOW_SET(id, k, temp);
 4246              		.loc 1 1300 7 is_stmt 1 view .LVU1428
1300:Lib/AI_Runtime/Npu/ll_aton/ll_aton.c ****       ATON_DECUN_MEM_LOW_SET(id, k, temp);
 4247              		.loc 1 1300 56 is_stmt 0 view .LVU1429
 4248 01e0 BB78     		ldrb	r3, [r7, #2]	@ zero_extendqisi2
1300:Lib/AI_Runtime/Npu/ll_aton/ll_aton.c ****       ATON_DECUN_MEM_LOW_SET(id, k, temp);
 4249              		.loc 1 1300 36 view .LVU1430
 4250 01e2 7878     		ldrb	r0, [r7, #1]	@ zero_extendqisi2
1300:Lib/AI_Runtime/Npu/ll_aton/ll_aton.c ****       ATON_DECUN_MEM_LOW_SET(id, k, temp);
 4251              		.loc 1 1300 64 view .LVU1431
 4252 01e4 1B04     		lsls	r3, r3, #16
1300:Lib/AI_Runtime/Npu/ll_aton/ll_aton.c ****       ATON_DECUN_MEM_LOW_SET(id, k, temp);
 4253              		.loc 1 1300 50 view .LVU1432
 4254 01e6 43EA0023 		orr	r3, r3, r0, lsl #8
1300:Lib/AI_Runtime/Npu/ll_aton/ll_aton.c ****       ATON_DECUN_MEM_LOW_SET(id, k, temp);
 4255              		.loc 1 1300 26 view .LVU1433
 4256 01ea 3878     		ldrb	r0, [r7]	@ zero_extendqisi2
1300:Lib/AI_Runtime/Npu/ll_aton/ll_aton.c ****       ATON_DECUN_MEM_LOW_SET(id, k, temp);
 4257              		.loc 1 1300 50 view .LVU1434
 4258 01ec 0343     		orrs	r3, r3, r0
1300:Lib/AI_Runtime/Npu/ll_aton/ll_aton.c ****       ATON_DECUN_MEM_LOW_SET(id, k, temp);
 4259              		.loc 1 1300 77 view .LVU1435
 4260 01ee F878     		ldrb	r0, [r7, #3]	@ zero_extendqisi2
1300:Lib/AI_Runtime/Npu/ll_aton/ll_aton.c ****       ATON_DECUN_MEM_LOW_SET(id, k, temp);
 4261              		.loc 1 1300 71 view .LVU1436
 4262 01f0 43EA0063 		orr	r3, r3, r0, lsl #24
 4263              	.LVL472:
1301:Lib/AI_Runtime/Npu/ll_aton/ll_aton.c ****       k++;
 4264              		.loc 1 1301 7 is_stmt 1 view .LVU1437
1301:Lib/AI_Runtime/Npu/ll_aton/ll_aton.c ****       k++;
 4265              		.loc 1 1301 7 view .LVU1438
 4266 01f4 09EB0200 		add	r0, r9, r2
 4267 01f8 C000     		lsls	r0, r0, #3
 4268 01fa 0360     		str	r3, [r0]
1301:Lib/AI_Runtime/Npu/ll_aton/ll_aton.c ****       k++;
 4269              		.loc 1 1301 7 view .LVU1439
1302:Lib/AI_Runtime/Npu/ll_aton/ll_aton.c ****       temp = CBp[i + 4];
 4270              		.loc 1 1302 7 view .LVU1440
 4271              	.LVL473:
1303:Lib/AI_Runtime/Npu/ll_aton/ll_aton.c ****       ATON_DECUN_MEM_LOW_SET(id, k, temp);
 4272              		.loc 1 1303 7 view .LVU1441
1303:Lib/AI_Runtime/Npu/ll_aton/ll_aton.c ****       ATON_DECUN_MEM_LOW_SET(id, k, temp);
 4273              		.loc 1 1303 12 is_stmt 0 view .LVU1442
 4274 01fc 3879     		ldrb	r0, [r7, #4]	@ zero_extendqisi2
 4275              	.LVL474:
ARM GAS  /tmp/ccgbPSBw.s 			page 153


1304:Lib/AI_Runtime/Npu/ll_aton/ll_aton.c ****       k++;
 4276              		.loc 1 1304 7 is_stmt 1 view .LVU1443
1304:Lib/AI_Runtime/Npu/ll_aton/ll_aton.c ****       k++;
 4277              		.loc 1 1304 7 view .LVU1444
 4278 01fe 0AEB0203 		add	r3, r10, r2
1305:Lib/AI_Runtime/Npu/ll_aton/ll_aton.c ****       if (k == mem_idx_num)
 4279              		.loc 1 1305 8 is_stmt 0 view .LVU1445
 4280 0202 0232     		adds	r2, r2, #2
 4281              	.LVL475:
1304:Lib/AI_Runtime/Npu/ll_aton/ll_aton.c ****       k++;
 4282              		.loc 1 1304 7 view .LVU1446
 4283 0204 DB00     		lsls	r3, r3, #3
1306:Lib/AI_Runtime/Npu/ll_aton/ll_aton.c ****       {
 4284              		.loc 1 1306 10 view .LVU1447
 4285 0206 B2F5807F 		cmp	r2, #256
1304:Lib/AI_Runtime/Npu/ll_aton/ll_aton.c ****       k++;
 4286              		.loc 1 1304 7 view .LVU1448
 4287 020a 1860     		str	r0, [r3]
1304:Lib/AI_Runtime/Npu/ll_aton/ll_aton.c ****       k++;
 4288              		.loc 1 1304 7 is_stmt 1 view .LVU1449
1305:Lib/AI_Runtime/Npu/ll_aton/ll_aton.c ****       if (k == mem_idx_num)
 4289              		.loc 1 1305 7 view .LVU1450
 4290              	.LVL476:
1306:Lib/AI_Runtime/Npu/ll_aton/ll_aton.c ****       {
 4291              		.loc 1 1306 7 view .LVU1451
1306:Lib/AI_Runtime/Npu/ll_aton/ll_aton.c ****       {
 4292              		.loc 1 1306 10 is_stmt 0 view .LVU1452
 4293 020c 04D1     		bne	.L310
1308:Lib/AI_Runtime/Npu/ll_aton/ll_aton.c ****         k = 0;
 4294              		.loc 1 1308 9 is_stmt 1 view .LVU1453
1308:Lib/AI_Runtime/Npu/ll_aton/ll_aton.c ****         k = 0;
 4295              		.loc 1 1308 20 is_stmt 0 view .LVU1454
 4296 020e 2046     		mov	r0, r4
 4297              	.LVL477:
1308:Lib/AI_Runtime/Npu/ll_aton/ll_aton.c ****         k = 0;
 4298              		.loc 1 1308 20 view .LVU1455
 4299 0210 FFF7FEFF 		bl	decun_inc_page_addr
 4300              	.LVL478:
1309:Lib/AI_Runtime/Npu/ll_aton/ll_aton.c ****       }
 4301              		.loc 1 1309 11 view .LVU1456
 4302 0214 0022     		movs	r2, #0
1308:Lib/AI_Runtime/Npu/ll_aton/ll_aton.c ****         k = 0;
 4303              		.loc 1 1308 20 view .LVU1457
 4304 0216 0146     		mov	r1, r0
 4305              	.LVL479:
1309:Lib/AI_Runtime/Npu/ll_aton/ll_aton.c ****       }
 4306              		.loc 1 1309 9 is_stmt 1 view .LVU1458
 4307              	.L310:
1309:Lib/AI_Runtime/Npu/ll_aton/ll_aton.c ****       }
 4308              		.loc 1 1309 9 is_stmt 0 view .LVU1459
 4309              	.LBE93:
1298:Lib/AI_Runtime/Npu/ll_aton/ll_aton.c ****     {
 4310              		.loc 1 1298 38 is_stmt 1 discriminator 2 view .LVU1460
1298:Lib/AI_Runtime/Npu/ll_aton/ll_aton.c ****     {
 4311              		.loc 1 1298 26 discriminator 1 view .LVU1461
 4312 0218 0537     		adds	r7, r7, #5
 4313              	.LVL480:
ARM GAS  /tmp/ccgbPSBw.s 			page 154


1298:Lib/AI_Runtime/Npu/ll_aton/ll_aton.c ****     {
 4314              		.loc 1 1298 26 is_stmt 0 discriminator 1 view .LVU1462
 4315 021a A7EB0B03 		sub	r3, r7, fp
 4316 021e 9D42     		cmp	r5, r3
 4317 0220 DED8     		bhi	.L311
1298:Lib/AI_Runtime/Npu/ll_aton/ll_aton.c ****     {
 4318              		.loc 1 1298 26 discriminator 1 view .LVU1463
 4319 0222 05E7     		b	.L312
 4320              	.LVL481:
 4321              	.L303:
1298:Lib/AI_Runtime/Npu/ll_aton/ll_aton.c ****     {
 4322              		.loc 1 1298 26 discriminator 1 view .LVU1464
 4323              	.LBE92:
1313:Lib/AI_Runtime/Npu/ll_aton/ll_aton.c ****   {
 4324              		.loc 1 1313 3 is_stmt 1 view .LVU1465
1313:Lib/AI_Runtime/Npu/ll_aton/ll_aton.c ****   {
 4325              		.loc 1 1313 6 is_stmt 0 view .LVU1466
 4326 0224 062F     		cmp	r7, #6
 4327 0226 8BD1     		bne	.L309
 4328              	.LBB94:
1332:Lib/AI_Runtime/Npu/ll_aton/ll_aton.c ****     for (i = 0, k = 0; i < CBsize / 2; i += 3)
 4329              		.loc 1 1332 5 is_stmt 1 view .LVU1467
 4330              	.LVL482:
1333:Lib/AI_Runtime/Npu/ll_aton/ll_aton.c ****     {
 4331              		.loc 1 1333 5 view .LVU1468
1333:Lib/AI_Runtime/Npu/ll_aton/ll_aton.c ****     {
 4332              		.loc 1 1333 5 is_stmt 0 view .LVU1469
 4333 0228 434B     		ldr	r3, .L362+12
 4334 022a F768     		ldr	r7, [r6, #12]
 4335 022c 03EB442A 		add	r10, r3, r4, lsl #9
 4336 0230 0133     		adds	r3, r3, #1
 4337 0232 03EB442B 		add	fp, r3, r4, lsl #9
1333:Lib/AI_Runtime/Npu/ll_aton/ll_aton.c ****     {
 4338              		.loc 1 1333 19 view .LVU1470
 4339 0236 0023     		movs	r3, #0
1333:Lib/AI_Runtime/Npu/ll_aton/ll_aton.c ****     {
 4340              		.loc 1 1333 12 view .LVU1471
 4341 0238 9946     		mov	r9, r3
1333:Lib/AI_Runtime/Npu/ll_aton/ll_aton.c ****     {
 4342              		.loc 1 1333 35 discriminator 1 view .LVU1472
 4343 023a 6D08     		lsrs	r5, r5, #1
 4344              	.LVL483:
 4345              	.L313:
1333:Lib/AI_Runtime/Npu/ll_aton/ll_aton.c ****     {
 4346              		.loc 1 1333 26 is_stmt 1 discriminator 1 view .LVU1473
 4347 023c A945     		cmp	r9, r5
 4348 023e BFF4F7AE 		bcs	.L312
 4349              	.LBB95:
1335:Lib/AI_Runtime/Npu/ll_aton/ll_aton.c ****       ATON_DECUN_MEM_LOW_SET(id, k, temp);
 4350              		.loc 1 1335 7 view .LVU1474
1335:Lib/AI_Runtime/Npu/ll_aton/ll_aton.c ****       ATON_DECUN_MEM_LOW_SET(id, k, temp);
 4351              		.loc 1 1335 36 is_stmt 0 view .LVU1475
 4352 0242 7A88     		ldrh	r2, [r7, #2]
1335:Lib/AI_Runtime/Npu/ll_aton/ll_aton.c ****       ATON_DECUN_MEM_LOW_SET(id, k, temp);
 4353              		.loc 1 1335 26 view .LVU1476
 4354 0244 3888     		ldrh	r0, [r7]
1335:Lib/AI_Runtime/Npu/ll_aton/ll_aton.c ****       ATON_DECUN_MEM_LOW_SET(id, k, temp);
ARM GAS  /tmp/ccgbPSBw.s 			page 155


 4355              		.loc 1 1335 30 view .LVU1477
 4356 0246 40EA0240 		orr	r0, r0, r2, lsl #16
 4357              	.LVL484:
1336:Lib/AI_Runtime/Npu/ll_aton/ll_aton.c ****       k++;
 4358              		.loc 1 1336 7 is_stmt 1 view .LVU1478
1336:Lib/AI_Runtime/Npu/ll_aton/ll_aton.c ****       k++;
 4359              		.loc 1 1336 7 view .LVU1479
 4360 024a 0AEB0302 		add	r2, r10, r3
 4361 024e D200     		lsls	r2, r2, #3
 4362 0250 1060     		str	r0, [r2]
1336:Lib/AI_Runtime/Npu/ll_aton/ll_aton.c ****       k++;
 4363              		.loc 1 1336 7 view .LVU1480
1337:Lib/AI_Runtime/Npu/ll_aton/ll_aton.c ****       temp = CBp[i + 2];
 4364              		.loc 1 1337 7 view .LVU1481
 4365              	.LVL485:
1338:Lib/AI_Runtime/Npu/ll_aton/ll_aton.c ****       ATON_DECUN_MEM_LOW_SET(id, k, temp);
 4366              		.loc 1 1338 7 view .LVU1482
1339:Lib/AI_Runtime/Npu/ll_aton/ll_aton.c ****       k++;
 4367              		.loc 1 1339 7 is_stmt 0 view .LVU1483
 4368 0252 03EB0B02 		add	r2, r3, fp
1338:Lib/AI_Runtime/Npu/ll_aton/ll_aton.c ****       ATON_DECUN_MEM_LOW_SET(id, k, temp);
 4369              		.loc 1 1338 12 view .LVU1484
 4370 0256 B888     		ldrh	r0, [r7, #4]
 4371              	.LVL486:
1339:Lib/AI_Runtime/Npu/ll_aton/ll_aton.c ****       k++;
 4372              		.loc 1 1339 7 is_stmt 1 view .LVU1485
1339:Lib/AI_Runtime/Npu/ll_aton/ll_aton.c ****       k++;
 4373              		.loc 1 1339 7 view .LVU1486
1340:Lib/AI_Runtime/Npu/ll_aton/ll_aton.c ****       if (k == mem_idx_num)
 4374              		.loc 1 1340 8 is_stmt 0 view .LVU1487
 4375 0258 0233     		adds	r3, r3, #2
 4376              	.LVL487:
1339:Lib/AI_Runtime/Npu/ll_aton/ll_aton.c ****       k++;
 4377              		.loc 1 1339 7 view .LVU1488
 4378 025a D200     		lsls	r2, r2, #3
1341:Lib/AI_Runtime/Npu/ll_aton/ll_aton.c ****       {
 4379              		.loc 1 1341 10 view .LVU1489
 4380 025c B3F5807F 		cmp	r3, #256
1339:Lib/AI_Runtime/Npu/ll_aton/ll_aton.c ****       k++;
 4381              		.loc 1 1339 7 view .LVU1490
 4382 0260 1060     		str	r0, [r2]
1339:Lib/AI_Runtime/Npu/ll_aton/ll_aton.c ****       k++;
 4383              		.loc 1 1339 7 is_stmt 1 view .LVU1491
1340:Lib/AI_Runtime/Npu/ll_aton/ll_aton.c ****       if (k == mem_idx_num)
 4384              		.loc 1 1340 7 view .LVU1492
 4385              	.LVL488:
1341:Lib/AI_Runtime/Npu/ll_aton/ll_aton.c ****       {
 4386              		.loc 1 1341 7 view .LVU1493
1341:Lib/AI_Runtime/Npu/ll_aton/ll_aton.c ****       {
 4387              		.loc 1 1341 10 is_stmt 0 view .LVU1494
 4388 0262 04D1     		bne	.L314
1343:Lib/AI_Runtime/Npu/ll_aton/ll_aton.c ****         k = 0;
 4389              		.loc 1 1343 9 is_stmt 1 view .LVU1495
1343:Lib/AI_Runtime/Npu/ll_aton/ll_aton.c ****         k = 0;
 4390              		.loc 1 1343 20 is_stmt 0 view .LVU1496
 4391 0264 2046     		mov	r0, r4
 4392              	.LVL489:
ARM GAS  /tmp/ccgbPSBw.s 			page 156


1343:Lib/AI_Runtime/Npu/ll_aton/ll_aton.c ****         k = 0;
 4393              		.loc 1 1343 20 view .LVU1497
 4394 0266 FFF7FEFF 		bl	decun_inc_page_addr
 4395              	.LVL490:
1344:Lib/AI_Runtime/Npu/ll_aton/ll_aton.c ****       }
 4396              		.loc 1 1344 11 view .LVU1498
 4397 026a 0023     		movs	r3, #0
1343:Lib/AI_Runtime/Npu/ll_aton/ll_aton.c ****         k = 0;
 4398              		.loc 1 1343 20 view .LVU1499
 4399 026c 0146     		mov	r1, r0
 4400              	.LVL491:
1344:Lib/AI_Runtime/Npu/ll_aton/ll_aton.c ****       }
 4401              		.loc 1 1344 9 is_stmt 1 view .LVU1500
 4402              	.L314:
1344:Lib/AI_Runtime/Npu/ll_aton/ll_aton.c ****       }
 4403              		.loc 1 1344 9 is_stmt 0 view .LVU1501
 4404              	.LBE95:
1333:Lib/AI_Runtime/Npu/ll_aton/ll_aton.c ****     {
 4405              		.loc 1 1333 42 is_stmt 1 discriminator 2 view .LVU1502
 4406 026e 09F10309 		add	r9, r9, #3
 4407              	.LVL492:
1333:Lib/AI_Runtime/Npu/ll_aton/ll_aton.c ****     {
 4408              		.loc 1 1333 42 is_stmt 0 discriminator 2 view .LVU1503
 4409 0272 0637     		adds	r7, r7, #6
 4410 0274 E2E7     		b	.L313
 4411              	.LVL493:
 4412              	.L291:
1333:Lib/AI_Runtime/Npu/ll_aton/ll_aton.c ****     {
 4413              		.loc 1 1333 42 discriminator 2 view .LVU1504
 4414              	.LBE94:
 4415              	.LBE96:
 4416              	.LBE97:
1589:Lib/AI_Runtime/Npu/ll_aton/ll_aton.c ****     }
 4417              		.loc 1 1589 7 is_stmt 1 view .LVU1505
 4418              	.LBB98:
 4419              	.LBI98:
1369:Lib/AI_Runtime/Npu/ll_aton/ll_aton.c **** {
 4420              		.loc 1 1369 13 view .LVU1506
 4421              	.LBB99:
1371:Lib/AI_Runtime/Npu/ll_aton/ll_aton.c ****   unsigned i, k;
 4422              		.loc 1 1371 3 view .LVU1507
1375:Lib/AI_Runtime/Npu/ll_aton/ll_aton.c ****   {
 4423              		.loc 1 1375 6 is_stmt 0 view .LVU1508
 4424 0276 012F     		cmp	r7, #1
1371:Lib/AI_Runtime/Npu/ll_aton/ll_aton.c ****   unsigned i, k;
 4425              		.loc 1 1371 12 view .LVU1509
 4426 0278 4FEA5509 		lsr	r9, r5, #1
 4427              	.LVL494:
1372:Lib/AI_Runtime/Npu/ll_aton/ll_aton.c ****   unsigned mem_idx_num = ATON_DECUN_MEM_LOW_IDX_MAX - ATON_DECUN_MEM_LOW_IDX_MIN + 1;
 4428              		.loc 1 1372 3 is_stmt 1 view .LVU1510
1373:Lib/AI_Runtime/Npu/ll_aton/ll_aton.c **** 
 4429              		.loc 1 1373 3 view .LVU1511
1375:Lib/AI_Runtime/Npu/ll_aton/ll_aton.c ****   {
 4430              		.loc 1 1375 3 view .LVU1512
1375:Lib/AI_Runtime/Npu/ll_aton/ll_aton.c ****   {
 4431              		.loc 1 1375 6 is_stmt 0 view .LVU1513
 4432 027c 17D1     		bne	.L318
ARM GAS  /tmp/ccgbPSBw.s 			page 157


 4433              	.LBB100:
1377:Lib/AI_Runtime/Npu/ll_aton/ll_aton.c ****     for (i = 0, k = 0; i < CBsize; i++)
 4434              		.loc 1 1377 5 is_stmt 1 view .LVU1514
 4435              	.LVL495:
1378:Lib/AI_Runtime/Npu/ll_aton/ll_aton.c ****     {
 4436              		.loc 1 1378 5 view .LVU1515
1378:Lib/AI_Runtime/Npu/ll_aton/ll_aton.c ****     {
 4437              		.loc 1 1378 5 is_stmt 0 view .LVU1516
 4438 027e 2E4F     		ldr	r7, .L362+12
 4439 0280 F568     		ldr	r5, [r6, #12]
 4440 0282 07EB4427 		add	r7, r7, r4, lsl #9
 4441 0286 05EB4909 		add	r9, r5, r9, lsl #1
 4442              	.LVL496:
 4443              	.L360:
 4444              	.LBB101:
1386:Lib/AI_Runtime/Npu/ll_aton/ll_aton.c ****       }
 4445              		.loc 1 1386 9 is_stmt 1 view .LVU1517
1386:Lib/AI_Runtime/Npu/ll_aton/ll_aton.c ****       }
 4446              		.loc 1 1386 11 is_stmt 0 view .LVU1518
 4447 028a 0023     		movs	r3, #0
 4448              	.LVL497:
1386:Lib/AI_Runtime/Npu/ll_aton/ll_aton.c ****       }
 4449              		.loc 1 1386 11 view .LVU1519
 4450              	.LBE101:
1378:Lib/AI_Runtime/Npu/ll_aton/ll_aton.c ****     {
 4451              		.loc 1 1378 37 is_stmt 1 discriminator 2 view .LVU1520
 4452              	.L319:
1378:Lib/AI_Runtime/Npu/ll_aton/ll_aton.c ****     {
 4453              		.loc 1 1378 26 discriminator 1 view .LVU1521
 4454 028c A945     		cmp	r9, r5
 4455 028e 3FF4CFAE 		beq	.L312
 4456              	.LBB102:
1380:Lib/AI_Runtime/Npu/ll_aton/ll_aton.c ****       ATON_DECUN_MEM_LOW_SET(id, k, temp);
 4457              		.loc 1 1380 7 view .LVU1522
1381:Lib/AI_Runtime/Npu/ll_aton/ll_aton.c ****       k++;
 4458              		.loc 1 1381 7 is_stmt 0 view .LVU1523
 4459 0292 DA19     		adds	r2, r3, r7
1380:Lib/AI_Runtime/Npu/ll_aton/ll_aton.c ****       ATON_DECUN_MEM_LOW_SET(id, k, temp);
 4460              		.loc 1 1380 26 view .LVU1524
 4461 0294 35F8020B 		ldrh	r0, [r5], #2
 4462              	.LVL498:
1381:Lib/AI_Runtime/Npu/ll_aton/ll_aton.c ****       k++;
 4463              		.loc 1 1381 7 is_stmt 1 view .LVU1525
1381:Lib/AI_Runtime/Npu/ll_aton/ll_aton.c ****       k++;
 4464              		.loc 1 1381 7 view .LVU1526
1382:Lib/AI_Runtime/Npu/ll_aton/ll_aton.c ****       if (k == mem_idx_num)
 4465              		.loc 1 1382 8 is_stmt 0 view .LVU1527
 4466 0298 0133     		adds	r3, r3, #1
 4467              	.LVL499:
1381:Lib/AI_Runtime/Npu/ll_aton/ll_aton.c ****       k++;
 4468              		.loc 1 1381 7 view .LVU1528
 4469 029a D200     		lsls	r2, r2, #3
1383:Lib/AI_Runtime/Npu/ll_aton/ll_aton.c ****       {
 4470              		.loc 1 1383 10 view .LVU1529
 4471 029c B3F5807F 		cmp	r3, #256
1381:Lib/AI_Runtime/Npu/ll_aton/ll_aton.c ****       k++;
 4472              		.loc 1 1381 7 view .LVU1530
ARM GAS  /tmp/ccgbPSBw.s 			page 158


 4473 02a0 1060     		str	r0, [r2]
1381:Lib/AI_Runtime/Npu/ll_aton/ll_aton.c ****       k++;
 4474              		.loc 1 1381 7 is_stmt 1 view .LVU1531
1382:Lib/AI_Runtime/Npu/ll_aton/ll_aton.c ****       if (k == mem_idx_num)
 4475              		.loc 1 1382 7 view .LVU1532
 4476              	.LVL500:
1383:Lib/AI_Runtime/Npu/ll_aton/ll_aton.c ****       {
 4477              		.loc 1 1383 7 view .LVU1533
1383:Lib/AI_Runtime/Npu/ll_aton/ll_aton.c ****       {
 4478              		.loc 1 1383 10 is_stmt 0 view .LVU1534
 4479 02a2 F3D1     		bne	.L319
1385:Lib/AI_Runtime/Npu/ll_aton/ll_aton.c ****         k = 0;
 4480              		.loc 1 1385 9 is_stmt 1 view .LVU1535
1385:Lib/AI_Runtime/Npu/ll_aton/ll_aton.c ****         k = 0;
 4481              		.loc 1 1385 20 is_stmt 0 view .LVU1536
 4482 02a4 2046     		mov	r0, r4
 4483              	.LVL501:
1385:Lib/AI_Runtime/Npu/ll_aton/ll_aton.c ****         k = 0;
 4484              		.loc 1 1385 20 view .LVU1537
 4485 02a6 FFF7FEFF 		bl	decun_inc_page_addr
 4486              	.LVL502:
1385:Lib/AI_Runtime/Npu/ll_aton/ll_aton.c ****         k = 0;
 4487              		.loc 1 1385 20 view .LVU1538
 4488 02aa 0146     		mov	r1, r0
 4489              	.LVL503:
1385:Lib/AI_Runtime/Npu/ll_aton/ll_aton.c ****         k = 0;
 4490              		.loc 1 1385 20 view .LVU1539
 4491 02ac EDE7     		b	.L360
 4492              	.LVL504:
 4493              	.L318:
1385:Lib/AI_Runtime/Npu/ll_aton/ll_aton.c ****         k = 0;
 4494              		.loc 1 1385 20 view .LVU1540
 4495              	.LBE102:
 4496              	.LBE100:
1390:Lib/AI_Runtime/Npu/ll_aton/ll_aton.c ****   {
 4497              		.loc 1 1390 3 is_stmt 1 view .LVU1541
1390:Lib/AI_Runtime/Npu/ll_aton/ll_aton.c ****   {
 4498              		.loc 1 1390 6 is_stmt 0 view .LVU1542
 4499 02ae 022F     		cmp	r7, #2
 4500 02b0 19D1     		bne	.L323
 4501              	.LBB103:
1406:Lib/AI_Runtime/Npu/ll_aton/ll_aton.c ****     for (i = 0, k = 0; i < CBsize / 2; i++)
 4502              		.loc 1 1406 5 is_stmt 1 view .LVU1543
 4503              	.LVL505:
1407:Lib/AI_Runtime/Npu/ll_aton/ll_aton.c ****     {
 4504              		.loc 1 1407 5 view .LVU1544
1407:Lib/AI_Runtime/Npu/ll_aton/ll_aton.c ****     {
 4505              		.loc 1 1407 5 is_stmt 0 view .LVU1545
 4506 02b2 214B     		ldr	r3, .L362+12
 4507 02b4 F768     		ldr	r7, [r6, #12]
 4508 02b6 25F00305 		bic	r5, r5, #3
 4509 02ba 03EB4429 		add	r9, r3, r4, lsl #9
 4510              	.LVL506:
1407:Lib/AI_Runtime/Npu/ll_aton/ll_aton.c ****     {
 4511              		.loc 1 1407 5 view .LVU1546
 4512 02be 3D44     		add	r5, r5, r7
 4513              	.LVL507:
ARM GAS  /tmp/ccgbPSBw.s 			page 159


 4514              	.L361:
 4515              	.LBB104:
1415:Lib/AI_Runtime/Npu/ll_aton/ll_aton.c ****       }
 4516              		.loc 1 1415 9 is_stmt 1 view .LVU1547
1415:Lib/AI_Runtime/Npu/ll_aton/ll_aton.c ****       }
 4517              		.loc 1 1415 11 is_stmt 0 view .LVU1548
 4518 02c0 0023     		movs	r3, #0
 4519              	.LVL508:
1415:Lib/AI_Runtime/Npu/ll_aton/ll_aton.c ****       }
 4520              		.loc 1 1415 11 view .LVU1549
 4521              	.LBE104:
1407:Lib/AI_Runtime/Npu/ll_aton/ll_aton.c ****     {
 4522              		.loc 1 1407 41 is_stmt 1 discriminator 2 view .LVU1550
 4523              	.L324:
1407:Lib/AI_Runtime/Npu/ll_aton/ll_aton.c ****     {
 4524              		.loc 1 1407 26 discriminator 1 view .LVU1551
 4525 02c2 BD42     		cmp	r5, r7
 4526 02c4 3FF4B4AE 		beq	.L312
 4527              	.LBB105:
1409:Lib/AI_Runtime/Npu/ll_aton/ll_aton.c ****       ATON_DECUN_MEM_LOW_SET(id, k, temp);
 4528              		.loc 1 1409 7 view .LVU1552
1410:Lib/AI_Runtime/Npu/ll_aton/ll_aton.c ****       k++;
 4529              		.loc 1 1410 7 is_stmt 0 view .LVU1553
 4530 02c8 09EB0302 		add	r2, r9, r3
1409:Lib/AI_Runtime/Npu/ll_aton/ll_aton.c ****       ATON_DECUN_MEM_LOW_SET(id, k, temp);
 4531              		.loc 1 1409 16 view .LVU1554
 4532 02cc 57F8040B 		ldr	r0, [r7], #4
 4533              	.LVL509:
1410:Lib/AI_Runtime/Npu/ll_aton/ll_aton.c ****       k++;
 4534              		.loc 1 1410 7 is_stmt 1 view .LVU1555
1410:Lib/AI_Runtime/Npu/ll_aton/ll_aton.c ****       k++;
 4535              		.loc 1 1410 7 view .LVU1556
1411:Lib/AI_Runtime/Npu/ll_aton/ll_aton.c ****       if (k == mem_idx_num)
 4536              		.loc 1 1411 8 is_stmt 0 view .LVU1557
 4537 02d0 0133     		adds	r3, r3, #1
 4538              	.LVL510:
1410:Lib/AI_Runtime/Npu/ll_aton/ll_aton.c ****       k++;
 4539              		.loc 1 1410 7 view .LVU1558
 4540 02d2 D200     		lsls	r2, r2, #3
1412:Lib/AI_Runtime/Npu/ll_aton/ll_aton.c ****       {
 4541              		.loc 1 1412 10 view .LVU1559
 4542 02d4 B3F5807F 		cmp	r3, #256
1410:Lib/AI_Runtime/Npu/ll_aton/ll_aton.c ****       k++;
 4543              		.loc 1 1410 7 view .LVU1560
 4544 02d8 1060     		str	r0, [r2]
1410:Lib/AI_Runtime/Npu/ll_aton/ll_aton.c ****       k++;
 4545              		.loc 1 1410 7 is_stmt 1 view .LVU1561
1411:Lib/AI_Runtime/Npu/ll_aton/ll_aton.c ****       if (k == mem_idx_num)
 4546              		.loc 1 1411 7 view .LVU1562
 4547              	.LVL511:
1412:Lib/AI_Runtime/Npu/ll_aton/ll_aton.c ****       {
 4548              		.loc 1 1412 7 view .LVU1563
1412:Lib/AI_Runtime/Npu/ll_aton/ll_aton.c ****       {
 4549              		.loc 1 1412 10 is_stmt 0 view .LVU1564
 4550 02da F2D1     		bne	.L324
1414:Lib/AI_Runtime/Npu/ll_aton/ll_aton.c ****         k = 0;
 4551              		.loc 1 1414 9 is_stmt 1 view .LVU1565
ARM GAS  /tmp/ccgbPSBw.s 			page 160


1414:Lib/AI_Runtime/Npu/ll_aton/ll_aton.c ****         k = 0;
 4552              		.loc 1 1414 20 is_stmt 0 view .LVU1566
 4553 02dc 2046     		mov	r0, r4
 4554              	.LVL512:
1414:Lib/AI_Runtime/Npu/ll_aton/ll_aton.c ****         k = 0;
 4555              		.loc 1 1414 20 view .LVU1567
 4556 02de FFF7FEFF 		bl	decun_inc_page_addr
 4557              	.LVL513:
1414:Lib/AI_Runtime/Npu/ll_aton/ll_aton.c ****         k = 0;
 4558              		.loc 1 1414 20 view .LVU1568
 4559 02e2 0146     		mov	r1, r0
 4560              	.LVL514:
1414:Lib/AI_Runtime/Npu/ll_aton/ll_aton.c ****         k = 0;
 4561              		.loc 1 1414 20 view .LVU1569
 4562 02e4 ECE7     		b	.L361
 4563              	.LVL515:
 4564              	.L323:
1414:Lib/AI_Runtime/Npu/ll_aton/ll_aton.c ****         k = 0;
 4565              		.loc 1 1414 20 view .LVU1570
 4566              	.LBE105:
 4567              	.LBE103:
1420:Lib/AI_Runtime/Npu/ll_aton/ll_aton.c ****   {
 4568              		.loc 1 1420 3 is_stmt 1 view .LVU1571
1420:Lib/AI_Runtime/Npu/ll_aton/ll_aton.c ****   {
 4569              		.loc 1 1420 6 is_stmt 0 view .LVU1572
 4570 02e6 032F     		cmp	r7, #3
 4571 02e8 28D1     		bne	.L322
 4572              	.LBB106:
1422:Lib/AI_Runtime/Npu/ll_aton/ll_aton.c ****     for (i = 0, k = 0; i < CBsize; i += 3)
 4573              		.loc 1 1422 5 is_stmt 1 view .LVU1573
 4574              	.LVL516:
1423:Lib/AI_Runtime/Npu/ll_aton/ll_aton.c ****     {
 4575              		.loc 1 1423 5 view .LVU1574
1423:Lib/AI_Runtime/Npu/ll_aton/ll_aton.c ****     {
 4576              		.loc 1 1423 19 is_stmt 0 view .LVU1575
 4577 02ea 0023     		movs	r3, #0
1423:Lib/AI_Runtime/Npu/ll_aton/ll_aton.c ****     {
 4578              		.loc 1 1423 12 view .LVU1576
 4579 02ec 1F46     		mov	r7, r3
 4580 02ee F568     		ldr	r5, [r6, #12]
 4581              	.LBB107:
1426:Lib/AI_Runtime/Npu/ll_aton/ll_aton.c ****       temp = CBp[i + 2];
 4582              		.loc 1 1426 7 view .LVU1577
 4583 02f0 DFF844B0 		ldr	fp, .L362+12
 4584 02f4 4FEA442A 		lsl	r10, r4, #9
 4585              	.LVL517:
 4586              	.L328:
1426:Lib/AI_Runtime/Npu/ll_aton/ll_aton.c ****       temp = CBp[i + 2];
 4587              		.loc 1 1426 7 view .LVU1578
 4588              	.LBE107:
1423:Lib/AI_Runtime/Npu/ll_aton/ll_aton.c ****     {
 4589              		.loc 1 1423 26 is_stmt 1 discriminator 1 view .LVU1579
 4590 02f8 B945     		cmp	r9, r7
 4591 02fa 7FF699AE 		bls	.L312
 4592              	.LBB108:
1425:Lib/AI_Runtime/Npu/ll_aton/ll_aton.c ****       ATON_DECUN_MEM_LOW_SET(id, k, temp);
 4593              		.loc 1 1425 7 view .LVU1580
ARM GAS  /tmp/ccgbPSBw.s 			page 161


1425:Lib/AI_Runtime/Npu/ll_aton/ll_aton.c ****       ATON_DECUN_MEM_LOW_SET(id, k, temp);
 4594              		.loc 1 1425 36 is_stmt 0 view .LVU1581
 4595 02fe 6A88     		ldrh	r2, [r5, #2]
1425:Lib/AI_Runtime/Npu/ll_aton/ll_aton.c ****       ATON_DECUN_MEM_LOW_SET(id, k, temp);
 4596              		.loc 1 1425 26 view .LVU1582
 4597 0300 2888     		ldrh	r0, [r5]
1425:Lib/AI_Runtime/Npu/ll_aton/ll_aton.c ****       ATON_DECUN_MEM_LOW_SET(id, k, temp);
 4598              		.loc 1 1425 30 view .LVU1583
 4599 0302 40EA0240 		orr	r0, r0, r2, lsl #16
 4600              	.LVL518:
1426:Lib/AI_Runtime/Npu/ll_aton/ll_aton.c ****       temp = CBp[i + 2];
 4601              		.loc 1 1426 7 is_stmt 1 view .LVU1584
1426:Lib/AI_Runtime/Npu/ll_aton/ll_aton.c ****       temp = CBp[i + 2];
 4602              		.loc 1 1426 7 view .LVU1585
 4603 0306 0AEB0302 		add	r2, r10, r3
 4604 030a 5A44     		add	r2, r2, fp
 4605 030c D200     		lsls	r2, r2, #3
 4606 030e 1060     		str	r0, [r2]
1426:Lib/AI_Runtime/Npu/ll_aton/ll_aton.c ****       temp = CBp[i + 2];
 4607              		.loc 1 1426 7 view .LVU1586
1427:Lib/AI_Runtime/Npu/ll_aton/ll_aton.c ****       ATON_DECUN_MEM_HIGH_SET(id, k, temp);
 4608              		.loc 1 1427 7 view .LVU1587
1429:Lib/AI_Runtime/Npu/ll_aton/ll_aton.c ****       if (k == mem_idx_num)
 4609              		.loc 1 1429 8 is_stmt 0 view .LVU1588
 4610 0310 0133     		adds	r3, r3, #1
 4611              	.LVL519:
1427:Lib/AI_Runtime/Npu/ll_aton/ll_aton.c ****       ATON_DECUN_MEM_HIGH_SET(id, k, temp);
 4612              		.loc 1 1427 12 view .LVU1589
 4613 0312 A888     		ldrh	r0, [r5, #4]
 4614              	.LVL520:
1428:Lib/AI_Runtime/Npu/ll_aton/ll_aton.c ****       k++;
 4615              		.loc 1 1428 7 is_stmt 1 view .LVU1590
1428:Lib/AI_Runtime/Npu/ll_aton/ll_aton.c ****       k++;
 4616              		.loc 1 1428 7 view .LVU1591
1430:Lib/AI_Runtime/Npu/ll_aton/ll_aton.c ****       {
 4617              		.loc 1 1430 10 is_stmt 0 view .LVU1592
 4618 0314 B3F5807F 		cmp	r3, #256
1428:Lib/AI_Runtime/Npu/ll_aton/ll_aton.c ****       k++;
 4619              		.loc 1 1428 7 view .LVU1593
 4620 0318 5060     		str	r0, [r2, #4]
1428:Lib/AI_Runtime/Npu/ll_aton/ll_aton.c ****       k++;
 4621              		.loc 1 1428 7 is_stmt 1 view .LVU1594
1429:Lib/AI_Runtime/Npu/ll_aton/ll_aton.c ****       if (k == mem_idx_num)
 4622              		.loc 1 1429 7 view .LVU1595
 4623              	.LVL521:
1430:Lib/AI_Runtime/Npu/ll_aton/ll_aton.c ****       {
 4624              		.loc 1 1430 7 view .LVU1596
1430:Lib/AI_Runtime/Npu/ll_aton/ll_aton.c ****       {
 4625              		.loc 1 1430 10 is_stmt 0 view .LVU1597
 4626 031a 04D1     		bne	.L329
1432:Lib/AI_Runtime/Npu/ll_aton/ll_aton.c ****         k = 0;
 4627              		.loc 1 1432 9 is_stmt 1 view .LVU1598
1432:Lib/AI_Runtime/Npu/ll_aton/ll_aton.c ****         k = 0;
 4628              		.loc 1 1432 20 is_stmt 0 view .LVU1599
 4629 031c 2046     		mov	r0, r4
 4630              	.LVL522:
1432:Lib/AI_Runtime/Npu/ll_aton/ll_aton.c ****         k = 0;
ARM GAS  /tmp/ccgbPSBw.s 			page 162


 4631              		.loc 1 1432 20 view .LVU1600
 4632 031e FFF7FEFF 		bl	decun_inc_page_addr
 4633              	.LVL523:
1433:Lib/AI_Runtime/Npu/ll_aton/ll_aton.c ****       }
 4634              		.loc 1 1433 11 view .LVU1601
 4635 0322 0023     		movs	r3, #0
1432:Lib/AI_Runtime/Npu/ll_aton/ll_aton.c ****         k = 0;
 4636              		.loc 1 1432 20 view .LVU1602
 4637 0324 0146     		mov	r1, r0
 4638              	.LVL524:
1433:Lib/AI_Runtime/Npu/ll_aton/ll_aton.c ****       }
 4639              		.loc 1 1433 9 is_stmt 1 view .LVU1603
 4640              	.L329:
1433:Lib/AI_Runtime/Npu/ll_aton/ll_aton.c ****       }
 4641              		.loc 1 1433 9 is_stmt 0 view .LVU1604
 4642              	.LBE108:
1423:Lib/AI_Runtime/Npu/ll_aton/ll_aton.c ****     {
 4643              		.loc 1 1423 38 is_stmt 1 discriminator 2 view .LVU1605
 4644 0326 0337     		adds	r7, r7, #3
 4645              	.LVL525:
1423:Lib/AI_Runtime/Npu/ll_aton/ll_aton.c ****     {
 4646              		.loc 1 1423 38 is_stmt 0 discriminator 2 view .LVU1606
 4647 0328 0635     		adds	r5, r5, #6
 4648 032a E5E7     		b	.L328
 4649              	.L363:
 4650              		.align	2
 4651              	.L362:
 4652 032c 00000000 		.word	.LC27
 4653 0330 00000000 		.word	__func__.4
 4654 0334 05000000 		.word	.LC4
 4655 0338 00E7010B 		.word	184674048
 4656              	.LVL526:
 4657              	.L322:
1423:Lib/AI_Runtime/Npu/ll_aton/ll_aton.c ****     {
 4658              		.loc 1 1423 38 discriminator 2 view .LVU1607
 4659              	.LBE106:
1437:Lib/AI_Runtime/Npu/ll_aton/ll_aton.c ****   {
 4660              		.loc 1 1437 3 is_stmt 1 view .LVU1608
1437:Lib/AI_Runtime/Npu/ll_aton/ll_aton.c ****   {
 4661              		.loc 1 1437 6 is_stmt 0 view .LVU1609
 4662 033c 042F     		cmp	r7, #4
 4663 033e 21D1     		bne	.L327
 4664              	.LBB109:
1439:Lib/AI_Runtime/Npu/ll_aton/ll_aton.c ****     for (i = 0, k = 0; i < CBsize / 2; i += 2)
 4665              		.loc 1 1439 5 is_stmt 1 view .LVU1610
 4666              	.LVL527:
1440:Lib/AI_Runtime/Npu/ll_aton/ll_aton.c ****     {
 4667              		.loc 1 1440 5 view .LVU1611
1440:Lib/AI_Runtime/Npu/ll_aton/ll_aton.c ****     {
 4668              		.loc 1 1440 19 is_stmt 0 view .LVU1612
 4669 0340 0022     		movs	r2, #0
1440:Lib/AI_Runtime/Npu/ll_aton/ll_aton.c ****     {
 4670              		.loc 1 1440 12 view .LVU1613
 4671 0342 9146     		mov	r9, r2
 4672              	.LVL528:
1440:Lib/AI_Runtime/Npu/ll_aton/ll_aton.c ****     {
 4673              		.loc 1 1440 12 view .LVU1614
ARM GAS  /tmp/ccgbPSBw.s 			page 163


 4674 0344 F768     		ldr	r7, [r6, #12]
 4675              	.LBB110:
1443:Lib/AI_Runtime/Npu/ll_aton/ll_aton.c ****       temp = CBp[i + 1];
 4676              		.loc 1 1443 7 view .LVU1615
 4677 0346 DFF8E0B1 		ldr	fp, .L364+4
 4678              	.LBE110:
1440:Lib/AI_Runtime/Npu/ll_aton/ll_aton.c ****     {
 4679              		.loc 1 1440 35 discriminator 1 view .LVU1616
 4680 034a AD08     		lsrs	r5, r5, #2
 4681              	.LVL529:
 4682              	.LBB111:
1443:Lib/AI_Runtime/Npu/ll_aton/ll_aton.c ****       temp = CBp[i + 1];
 4683              		.loc 1 1443 7 view .LVU1617
 4684 034c 4FEA442A 		lsl	r10, r4, #9
 4685 0350 0437     		adds	r7, r7, #4
 4686              	.LVL530:
 4687              	.L332:
1443:Lib/AI_Runtime/Npu/ll_aton/ll_aton.c ****       temp = CBp[i + 1];
 4688              		.loc 1 1443 7 view .LVU1618
 4689              	.LBE111:
1440:Lib/AI_Runtime/Npu/ll_aton/ll_aton.c ****     {
 4690              		.loc 1 1440 26 is_stmt 1 discriminator 1 view .LVU1619
 4691 0352 A945     		cmp	r9, r5
 4692 0354 BFF46CAE 		bcs	.L312
 4693              	.LBB112:
1442:Lib/AI_Runtime/Npu/ll_aton/ll_aton.c ****       ATON_DECUN_MEM_LOW_SET(id, k, temp);
 4694              		.loc 1 1442 7 view .LVU1620
1443:Lib/AI_Runtime/Npu/ll_aton/ll_aton.c ****       temp = CBp[i + 1];
 4695              		.loc 1 1443 7 is_stmt 0 view .LVU1621
 4696 0358 0AEB0200 		add	r0, r10, r2
1442:Lib/AI_Runtime/Npu/ll_aton/ll_aton.c ****       ATON_DECUN_MEM_LOW_SET(id, k, temp);
 4697              		.loc 1 1442 16 view .LVU1622
 4698 035c 57F8043C 		ldr	r3, [r7, #-4]
 4699              	.LVL531:
1443:Lib/AI_Runtime/Npu/ll_aton/ll_aton.c ****       temp = CBp[i + 1];
 4700              		.loc 1 1443 7 is_stmt 1 view .LVU1623
1443:Lib/AI_Runtime/Npu/ll_aton/ll_aton.c ****       temp = CBp[i + 1];
 4701              		.loc 1 1443 7 view .LVU1624
 4702 0360 5844     		add	r0, r0, fp
 4703 0362 C000     		lsls	r0, r0, #3
 4704 0364 0360     		str	r3, [r0]
1443:Lib/AI_Runtime/Npu/ll_aton/ll_aton.c ****       temp = CBp[i + 1];
 4705              		.loc 1 1443 7 view .LVU1625
1444:Lib/AI_Runtime/Npu/ll_aton/ll_aton.c ****       ATON_DECUN_MEM_HIGH_SET(id, k, temp);
 4706              		.loc 1 1444 7 view .LVU1626
1444:Lib/AI_Runtime/Npu/ll_aton/ll_aton.c ****       ATON_DECUN_MEM_HIGH_SET(id, k, temp);
 4707              		.loc 1 1444 12 is_stmt 0 view .LVU1627
 4708 0366 3B68     		ldr	r3, [r7]
 4709              	.LVL532:
1445:Lib/AI_Runtime/Npu/ll_aton/ll_aton.c ****       k++;
 4710              		.loc 1 1445 7 is_stmt 1 view .LVU1628
1445:Lib/AI_Runtime/Npu/ll_aton/ll_aton.c ****       k++;
 4711              		.loc 1 1445 7 view .LVU1629
1446:Lib/AI_Runtime/Npu/ll_aton/ll_aton.c ****       if (k == mem_idx_num)
 4712              		.loc 1 1446 8 is_stmt 0 view .LVU1630
 4713 0368 0132     		adds	r2, r2, #1
 4714              	.LVL533:
ARM GAS  /tmp/ccgbPSBw.s 			page 164


1447:Lib/AI_Runtime/Npu/ll_aton/ll_aton.c ****       {
 4715              		.loc 1 1447 10 view .LVU1631
 4716 036a B2F5807F 		cmp	r2, #256
1445:Lib/AI_Runtime/Npu/ll_aton/ll_aton.c ****       k++;
 4717              		.loc 1 1445 7 view .LVU1632
 4718 036e 4360     		str	r3, [r0, #4]
1445:Lib/AI_Runtime/Npu/ll_aton/ll_aton.c ****       k++;
 4719              		.loc 1 1445 7 is_stmt 1 view .LVU1633
1446:Lib/AI_Runtime/Npu/ll_aton/ll_aton.c ****       if (k == mem_idx_num)
 4720              		.loc 1 1446 7 view .LVU1634
 4721              	.LVL534:
1447:Lib/AI_Runtime/Npu/ll_aton/ll_aton.c ****       {
 4722              		.loc 1 1447 7 view .LVU1635
1447:Lib/AI_Runtime/Npu/ll_aton/ll_aton.c ****       {
 4723              		.loc 1 1447 10 is_stmt 0 view .LVU1636
 4724 0370 04D1     		bne	.L333
1449:Lib/AI_Runtime/Npu/ll_aton/ll_aton.c ****         k = 0;
 4725              		.loc 1 1449 9 is_stmt 1 view .LVU1637
1449:Lib/AI_Runtime/Npu/ll_aton/ll_aton.c ****         k = 0;
 4726              		.loc 1 1449 20 is_stmt 0 view .LVU1638
 4727 0372 2046     		mov	r0, r4
 4728 0374 FFF7FEFF 		bl	decun_inc_page_addr
 4729              	.LVL535:
1450:Lib/AI_Runtime/Npu/ll_aton/ll_aton.c ****       }
 4730              		.loc 1 1450 11 view .LVU1639
 4731 0378 0022     		movs	r2, #0
1449:Lib/AI_Runtime/Npu/ll_aton/ll_aton.c ****         k = 0;
 4732              		.loc 1 1449 20 view .LVU1640
 4733 037a 0146     		mov	r1, r0
 4734              	.LVL536:
1450:Lib/AI_Runtime/Npu/ll_aton/ll_aton.c ****       }
 4735              		.loc 1 1450 9 is_stmt 1 view .LVU1641
 4736              	.L333:
1450:Lib/AI_Runtime/Npu/ll_aton/ll_aton.c ****       }
 4737              		.loc 1 1450 9 is_stmt 0 view .LVU1642
 4738              	.LBE112:
1440:Lib/AI_Runtime/Npu/ll_aton/ll_aton.c ****     {
 4739              		.loc 1 1440 42 is_stmt 1 discriminator 2 view .LVU1643
 4740 037c 09F10209 		add	r9, r9, #2
 4741              	.LVL537:
1440:Lib/AI_Runtime/Npu/ll_aton/ll_aton.c ****     {
 4742              		.loc 1 1440 42 is_stmt 0 discriminator 2 view .LVU1644
 4743 0380 0837     		adds	r7, r7, #8
 4744 0382 E6E7     		b	.L332
 4745              	.LVL538:
 4746              	.L327:
1440:Lib/AI_Runtime/Npu/ll_aton/ll_aton.c ****     {
 4747              		.loc 1 1440 42 discriminator 2 view .LVU1645
 4748              	.LBE109:
1454:Lib/AI_Runtime/Npu/ll_aton/ll_aton.c ****   {
 4749              		.loc 1 1454 3 is_stmt 1 view .LVU1646
1454:Lib/AI_Runtime/Npu/ll_aton/ll_aton.c ****   {
 4750              		.loc 1 1454 6 is_stmt 0 view .LVU1647
 4751 0384 052F     		cmp	r7, #5
 4752 0386 31D1     		bne	.L331
 4753              	.LBB113:
1456:Lib/AI_Runtime/Npu/ll_aton/ll_aton.c ****     for (i = 0, k = 0; i < CBsize; i += 5)
ARM GAS  /tmp/ccgbPSBw.s 			page 165


 4754              		.loc 1 1456 5 is_stmt 1 view .LVU1648
 4755              	.LVL539:
1457:Lib/AI_Runtime/Npu/ll_aton/ll_aton.c ****     {
 4756              		.loc 1 1457 5 view .LVU1649
1457:Lib/AI_Runtime/Npu/ll_aton/ll_aton.c ****     {
 4757              		.loc 1 1457 19 is_stmt 0 view .LVU1650
 4758 0388 0022     		movs	r2, #0
1457:Lib/AI_Runtime/Npu/ll_aton/ll_aton.c ****     {
 4759              		.loc 1 1457 12 view .LVU1651
 4760 038a 1746     		mov	r7, r2
 4761 038c 654B     		ldr	r3, .L364
 4762 038e F568     		ldr	r5, [r6, #12]
 4763              	.LBB114:
1460:Lib/AI_Runtime/Npu/ll_aton/ll_aton.c ****       temp = CBp[i + 2] | (CBp[i + 3] << 16);
 4764              		.loc 1 1460 7 view .LVU1652
 4765 0390 4FEA442B 		lsl	fp, r4, #9
 4766 0394 03EB442A 		add	r10, r3, r4, lsl #9
 4767              	.LVL540:
 4768              	.L336:
1460:Lib/AI_Runtime/Npu/ll_aton/ll_aton.c ****       temp = CBp[i + 2] | (CBp[i + 3] << 16);
 4769              		.loc 1 1460 7 view .LVU1653
 4770              	.LBE114:
1457:Lib/AI_Runtime/Npu/ll_aton/ll_aton.c ****     {
 4771              		.loc 1 1457 26 is_stmt 1 discriminator 1 view .LVU1654
 4772 0398 B945     		cmp	r9, r7
 4773 039a 7FF649AE 		bls	.L312
 4774              	.LBB115:
1459:Lib/AI_Runtime/Npu/ll_aton/ll_aton.c ****       ATON_DECUN_MEM_LOW_SET(id, k, temp);
 4775              		.loc 1 1459 7 view .LVU1655
1459:Lib/AI_Runtime/Npu/ll_aton/ll_aton.c ****       ATON_DECUN_MEM_LOW_SET(id, k, temp);
 4776              		.loc 1 1459 36 is_stmt 0 view .LVU1656
 4777 039e 6888     		ldrh	r0, [r5, #2]
1459:Lib/AI_Runtime/Npu/ll_aton/ll_aton.c ****       ATON_DECUN_MEM_LOW_SET(id, k, temp);
 4778              		.loc 1 1459 26 view .LVU1657
 4779 03a0 B5F800C0 		ldrh	ip, [r5]
1461:Lib/AI_Runtime/Npu/ll_aton/ll_aton.c ****       ATON_DECUN_MEM_HIGH_SET(id, k, temp);
 4780              		.loc 1 1461 31 view .LVU1658
 4781 03a4 B5F806E0 		ldrh	lr, [r5, #6]
1459:Lib/AI_Runtime/Npu/ll_aton/ll_aton.c ****       ATON_DECUN_MEM_LOW_SET(id, k, temp);
 4782              		.loc 1 1459 30 view .LVU1659
 4783 03a8 4CEA0043 		orr	r3, ip, r0, lsl #16
 4784              	.LVL541:
1460:Lib/AI_Runtime/Npu/ll_aton/ll_aton.c ****       temp = CBp[i + 2] | (CBp[i + 3] << 16);
 4785              		.loc 1 1460 7 is_stmt 1 view .LVU1660
1460:Lib/AI_Runtime/Npu/ll_aton/ll_aton.c ****       temp = CBp[i + 2] | (CBp[i + 3] << 16);
 4786              		.loc 1 1460 7 view .LVU1661
 4787 03ac 0BEB0200 		add	r0, fp, r2
 4788 03b0 00F13060 		add	r0, r0, #184549376
 4789 03b4 00F5F330 		add	r0, r0, #124416
1461:Lib/AI_Runtime/Npu/ll_aton/ll_aton.c ****       ATON_DECUN_MEM_HIGH_SET(id, k, temp);
 4790              		.loc 1 1461 17 is_stmt 0 view .LVU1662
 4791 03b8 B5F804C0 		ldrh	ip, [r5, #4]
1460:Lib/AI_Runtime/Npu/ll_aton/ll_aton.c ****       temp = CBp[i + 2] | (CBp[i + 3] << 16);
 4792              		.loc 1 1460 7 view .LVU1663
 4793 03bc 00F58070 		add	r0, r0, #256
 4794 03c0 C000     		lsls	r0, r0, #3
 4795 03c2 0360     		str	r3, [r0]
ARM GAS  /tmp/ccgbPSBw.s 			page 166


1460:Lib/AI_Runtime/Npu/ll_aton/ll_aton.c ****       temp = CBp[i + 2] | (CBp[i + 3] << 16);
 4796              		.loc 1 1460 7 is_stmt 1 view .LVU1664
1461:Lib/AI_Runtime/Npu/ll_aton/ll_aton.c ****       ATON_DECUN_MEM_HIGH_SET(id, k, temp);
 4797              		.loc 1 1461 7 view .LVU1665
1461:Lib/AI_Runtime/Npu/ll_aton/ll_aton.c ****       ATON_DECUN_MEM_HIGH_SET(id, k, temp);
 4798              		.loc 1 1461 25 is_stmt 0 view .LVU1666
 4799 03c4 4CEA0E43 		orr	r3, ip, lr, lsl #16
 4800              	.LVL542:
1462:Lib/AI_Runtime/Npu/ll_aton/ll_aton.c ****       k++;
 4801              		.loc 1 1462 7 is_stmt 1 view .LVU1667
1462:Lib/AI_Runtime/Npu/ll_aton/ll_aton.c ****       k++;
 4802              		.loc 1 1462 7 view .LVU1668
 4803 03c8 4360     		str	r3, [r0, #4]
1462:Lib/AI_Runtime/Npu/ll_aton/ll_aton.c ****       k++;
 4804              		.loc 1 1462 7 view .LVU1669
1463:Lib/AI_Runtime/Npu/ll_aton/ll_aton.c ****       temp = CBp[i + 4];
 4805              		.loc 1 1463 7 view .LVU1670
 4806              	.LVL543:
1464:Lib/AI_Runtime/Npu/ll_aton/ll_aton.c ****       ATON_DECUN_MEM_LOW_SET(id, k, temp);
 4807              		.loc 1 1464 7 view .LVU1671
1465:Lib/AI_Runtime/Npu/ll_aton/ll_aton.c ****       k++;
 4808              		.loc 1 1465 7 is_stmt 0 view .LVU1672
 4809 03ca 0AEB0200 		add	r0, r10, r2
1464:Lib/AI_Runtime/Npu/ll_aton/ll_aton.c ****       ATON_DECUN_MEM_LOW_SET(id, k, temp);
 4810              		.loc 1 1464 12 view .LVU1673
 4811 03ce 2B89     		ldrh	r3, [r5, #8]
 4812              	.LVL544:
1465:Lib/AI_Runtime/Npu/ll_aton/ll_aton.c ****       k++;
 4813              		.loc 1 1465 7 is_stmt 1 view .LVU1674
1465:Lib/AI_Runtime/Npu/ll_aton/ll_aton.c ****       k++;
 4814              		.loc 1 1465 7 view .LVU1675
1466:Lib/AI_Runtime/Npu/ll_aton/ll_aton.c ****       if (k == mem_idx_num)
 4815              		.loc 1 1466 8 is_stmt 0 view .LVU1676
 4816 03d0 0232     		adds	r2, r2, #2
 4817              	.LVL545:
1465:Lib/AI_Runtime/Npu/ll_aton/ll_aton.c ****       k++;
 4818              		.loc 1 1465 7 view .LVU1677
 4819 03d2 C000     		lsls	r0, r0, #3
1467:Lib/AI_Runtime/Npu/ll_aton/ll_aton.c ****       {
 4820              		.loc 1 1467 10 view .LVU1678
 4821 03d4 B2F5807F 		cmp	r2, #256
1465:Lib/AI_Runtime/Npu/ll_aton/ll_aton.c ****       k++;
 4822              		.loc 1 1465 7 view .LVU1679
 4823 03d8 0360     		str	r3, [r0]
1465:Lib/AI_Runtime/Npu/ll_aton/ll_aton.c ****       k++;
 4824              		.loc 1 1465 7 is_stmt 1 view .LVU1680
1466:Lib/AI_Runtime/Npu/ll_aton/ll_aton.c ****       if (k == mem_idx_num)
 4825              		.loc 1 1466 7 view .LVU1681
 4826              	.LVL546:
1467:Lib/AI_Runtime/Npu/ll_aton/ll_aton.c ****       {
 4827              		.loc 1 1467 7 view .LVU1682
1467:Lib/AI_Runtime/Npu/ll_aton/ll_aton.c ****       {
 4828              		.loc 1 1467 10 is_stmt 0 view .LVU1683
 4829 03da 04D1     		bne	.L337
1469:Lib/AI_Runtime/Npu/ll_aton/ll_aton.c ****         k = 0;
 4830              		.loc 1 1469 9 is_stmt 1 view .LVU1684
1469:Lib/AI_Runtime/Npu/ll_aton/ll_aton.c ****         k = 0;
ARM GAS  /tmp/ccgbPSBw.s 			page 167


 4831              		.loc 1 1469 20 is_stmt 0 view .LVU1685
 4832 03dc 2046     		mov	r0, r4
 4833 03de FFF7FEFF 		bl	decun_inc_page_addr
 4834              	.LVL547:
1470:Lib/AI_Runtime/Npu/ll_aton/ll_aton.c ****       }
 4835              		.loc 1 1470 11 view .LVU1686
 4836 03e2 0022     		movs	r2, #0
1469:Lib/AI_Runtime/Npu/ll_aton/ll_aton.c ****         k = 0;
 4837              		.loc 1 1469 20 view .LVU1687
 4838 03e4 0146     		mov	r1, r0
 4839              	.LVL548:
1470:Lib/AI_Runtime/Npu/ll_aton/ll_aton.c ****       }
 4840              		.loc 1 1470 9 is_stmt 1 view .LVU1688
 4841              	.L337:
1470:Lib/AI_Runtime/Npu/ll_aton/ll_aton.c ****       }
 4842              		.loc 1 1470 9 is_stmt 0 view .LVU1689
 4843              	.LBE115:
1457:Lib/AI_Runtime/Npu/ll_aton/ll_aton.c ****     {
 4844              		.loc 1 1457 38 is_stmt 1 discriminator 2 view .LVU1690
 4845 03e6 0537     		adds	r7, r7, #5
 4846              	.LVL549:
1457:Lib/AI_Runtime/Npu/ll_aton/ll_aton.c ****     {
 4847              		.loc 1 1457 38 is_stmt 0 discriminator 2 view .LVU1691
 4848 03e8 0A35     		adds	r5, r5, #10
 4849 03ea D5E7     		b	.L336
 4850              	.LVL550:
 4851              	.L331:
1457:Lib/AI_Runtime/Npu/ll_aton/ll_aton.c ****     {
 4852              		.loc 1 1457 38 discriminator 2 view .LVU1692
 4853              	.LBE113:
1474:Lib/AI_Runtime/Npu/ll_aton/ll_aton.c ****   {
 4854              		.loc 1 1474 3 is_stmt 1 view .LVU1693
1474:Lib/AI_Runtime/Npu/ll_aton/ll_aton.c ****   {
 4855              		.loc 1 1474 6 is_stmt 0 view .LVU1694
 4856 03ec 062F     		cmp	r7, #6
 4857 03ee 2CD1     		bne	.L335
 4858              	.LBB116:
1500:Lib/AI_Runtime/Npu/ll_aton/ll_aton.c ****     for (i = 0, k = 0; i < CBsize / 2; i += 3)
 4859              		.loc 1 1500 5 is_stmt 1 view .LVU1695
 4860              	.LVL551:
1501:Lib/AI_Runtime/Npu/ll_aton/ll_aton.c ****     {
 4861              		.loc 1 1501 5 view .LVU1696
1501:Lib/AI_Runtime/Npu/ll_aton/ll_aton.c ****     {
 4862              		.loc 1 1501 19 is_stmt 0 view .LVU1697
 4863 03f0 0020     		movs	r0, #0
1501:Lib/AI_Runtime/Npu/ll_aton/ll_aton.c ****     {
 4864              		.loc 1 1501 12 view .LVU1698
 4865 03f2 8146     		mov	r9, r0
 4866              	.LVL552:
1501:Lib/AI_Runtime/Npu/ll_aton/ll_aton.c ****     {
 4867              		.loc 1 1501 12 view .LVU1699
 4868 03f4 4B4B     		ldr	r3, .L364
 4869 03f6 F768     		ldr	r7, [r6, #12]
 4870 03f8 03EB442A 		add	r10, r3, r4, lsl #9
1501:Lib/AI_Runtime/Npu/ll_aton/ll_aton.c ****     {
 4871              		.loc 1 1501 35 discriminator 1 view .LVU1700
 4872 03fc AD08     		lsrs	r5, r5, #2
ARM GAS  /tmp/ccgbPSBw.s 			page 168


 4873              	.LVL553:
 4874              	.LBB117:
1504:Lib/AI_Runtime/Npu/ll_aton/ll_aton.c ****       temp = CBp[i + 1];
 4875              		.loc 1 1504 7 view .LVU1701
 4876 03fe 4FEA442B 		lsl	fp, r4, #9
 4877 0402 013B     		subs	r3, r3, #1
 4878              	.LVL554:
 4879              	.L340:
1504:Lib/AI_Runtime/Npu/ll_aton/ll_aton.c ****       temp = CBp[i + 1];
 4880              		.loc 1 1504 7 view .LVU1702
 4881              	.LBE117:
1501:Lib/AI_Runtime/Npu/ll_aton/ll_aton.c ****     {
 4882              		.loc 1 1501 26 is_stmt 1 discriminator 1 view .LVU1703
 4883 0404 A945     		cmp	r9, r5
 4884 0406 BFF413AE 		bcs	.L312
 4885              	.LBB118:
1503:Lib/AI_Runtime/Npu/ll_aton/ll_aton.c ****       ATON_DECUN_MEM_LOW_SET(id, k, temp);
 4886              		.loc 1 1503 7 view .LVU1704
1504:Lib/AI_Runtime/Npu/ll_aton/ll_aton.c ****       temp = CBp[i + 1];
 4887              		.loc 1 1504 7 is_stmt 0 view .LVU1705
 4888 040a 0BEB000C 		add	ip, fp, r0
1503:Lib/AI_Runtime/Npu/ll_aton/ll_aton.c ****       ATON_DECUN_MEM_LOW_SET(id, k, temp);
 4889              		.loc 1 1503 16 view .LVU1706
 4890 040e 3A68     		ldr	r2, [r7]
 4891              	.LVL555:
1504:Lib/AI_Runtime/Npu/ll_aton/ll_aton.c ****       temp = CBp[i + 1];
 4892              		.loc 1 1504 7 is_stmt 1 view .LVU1707
1504:Lib/AI_Runtime/Npu/ll_aton/ll_aton.c ****       temp = CBp[i + 1];
 4893              		.loc 1 1504 7 view .LVU1708
 4894 0410 9C44     		add	ip, ip, r3
 4895 0412 4FEACC0C 		lsl	ip, ip, #3
 4896 0416 CCF80020 		str	r2, [ip]
1504:Lib/AI_Runtime/Npu/ll_aton/ll_aton.c ****       temp = CBp[i + 1];
 4897              		.loc 1 1504 7 view .LVU1709
1505:Lib/AI_Runtime/Npu/ll_aton/ll_aton.c ****       ATON_DECUN_MEM_HIGH_SET(id, k, temp);
 4898              		.loc 1 1505 7 view .LVU1710
1505:Lib/AI_Runtime/Npu/ll_aton/ll_aton.c ****       ATON_DECUN_MEM_HIGH_SET(id, k, temp);
 4899              		.loc 1 1505 12 is_stmt 0 view .LVU1711
 4900 041a 7A68     		ldr	r2, [r7, #4]
 4901              	.LVL556:
1506:Lib/AI_Runtime/Npu/ll_aton/ll_aton.c ****       k++;
 4902              		.loc 1 1506 7 is_stmt 1 view .LVU1712
1506:Lib/AI_Runtime/Npu/ll_aton/ll_aton.c ****       k++;
 4903              		.loc 1 1506 7 view .LVU1713
 4904 041c CCF80420 		str	r2, [ip, #4]
1506:Lib/AI_Runtime/Npu/ll_aton/ll_aton.c ****       k++;
 4905              		.loc 1 1506 7 view .LVU1714
1507:Lib/AI_Runtime/Npu/ll_aton/ll_aton.c ****       temp = CBp[i + 2];
 4906              		.loc 1 1507 7 view .LVU1715
 4907              	.LVL557:
1508:Lib/AI_Runtime/Npu/ll_aton/ll_aton.c ****       ATON_DECUN_MEM_LOW_SET(id, k, temp);
 4908              		.loc 1 1508 7 view .LVU1716
1508:Lib/AI_Runtime/Npu/ll_aton/ll_aton.c ****       ATON_DECUN_MEM_LOW_SET(id, k, temp);
 4909              		.loc 1 1508 12 is_stmt 0 view .LVU1717
 4910 0420 BA68     		ldr	r2, [r7, #8]
 4911              	.LVL558:
1509:Lib/AI_Runtime/Npu/ll_aton/ll_aton.c ****       k++;
ARM GAS  /tmp/ccgbPSBw.s 			page 169


 4912              		.loc 1 1509 7 is_stmt 1 view .LVU1718
1509:Lib/AI_Runtime/Npu/ll_aton/ll_aton.c ****       k++;
 4913              		.loc 1 1509 7 view .LVU1719
 4914 0422 0AEB000C 		add	ip, r10, r0
1510:Lib/AI_Runtime/Npu/ll_aton/ll_aton.c ****       if (k == mem_idx_num)
 4915              		.loc 1 1510 8 is_stmt 0 view .LVU1720
 4916 0426 0230     		adds	r0, r0, #2
 4917              	.LVL559:
1509:Lib/AI_Runtime/Npu/ll_aton/ll_aton.c ****       k++;
 4918              		.loc 1 1509 7 view .LVU1721
 4919 0428 4FEACC0C 		lsl	ip, ip, #3
1511:Lib/AI_Runtime/Npu/ll_aton/ll_aton.c ****       {
 4920              		.loc 1 1511 10 view .LVU1722
 4921 042c B0F5807F 		cmp	r0, #256
1509:Lib/AI_Runtime/Npu/ll_aton/ll_aton.c ****       k++;
 4922              		.loc 1 1509 7 view .LVU1723
 4923 0430 CCF80020 		str	r2, [ip]
1509:Lib/AI_Runtime/Npu/ll_aton/ll_aton.c ****       k++;
 4924              		.loc 1 1509 7 is_stmt 1 view .LVU1724
1510:Lib/AI_Runtime/Npu/ll_aton/ll_aton.c ****       if (k == mem_idx_num)
 4925              		.loc 1 1510 7 view .LVU1725
 4926              	.LVL560:
1511:Lib/AI_Runtime/Npu/ll_aton/ll_aton.c ****       {
 4927              		.loc 1 1511 7 view .LVU1726
1511:Lib/AI_Runtime/Npu/ll_aton/ll_aton.c ****       {
 4928              		.loc 1 1511 10 is_stmt 0 view .LVU1727
 4929 0434 05D1     		bne	.L341
1513:Lib/AI_Runtime/Npu/ll_aton/ll_aton.c ****         k = 0;
 4930              		.loc 1 1513 9 is_stmt 1 view .LVU1728
1513:Lib/AI_Runtime/Npu/ll_aton/ll_aton.c ****         k = 0;
 4931              		.loc 1 1513 20 is_stmt 0 view .LVU1729
 4932 0436 2046     		mov	r0, r4
 4933              	.LVL561:
1513:Lib/AI_Runtime/Npu/ll_aton/ll_aton.c ****         k = 0;
 4934              		.loc 1 1513 20 view .LVU1730
 4935 0438 FFF7FEFF 		bl	decun_inc_page_addr
 4936              	.LVL562:
1513:Lib/AI_Runtime/Npu/ll_aton/ll_aton.c ****         k = 0;
 4937              		.loc 1 1513 20 view .LVU1731
 4938 043c 0146     		mov	r1, r0
 4939              	.LVL563:
1514:Lib/AI_Runtime/Npu/ll_aton/ll_aton.c ****       }
 4940              		.loc 1 1514 9 is_stmt 1 view .LVU1732
1514:Lib/AI_Runtime/Npu/ll_aton/ll_aton.c ****       }
 4941              		.loc 1 1514 11 is_stmt 0 view .LVU1733
 4942 043e 0020     		movs	r0, #0
 4943              	.LVL564:
1514:Lib/AI_Runtime/Npu/ll_aton/ll_aton.c ****       }
 4944              		.loc 1 1514 11 view .LVU1734
 4945 0440 394B     		ldr	r3, .L364+4
 4946              	.LVL565:
 4947              	.L341:
1514:Lib/AI_Runtime/Npu/ll_aton/ll_aton.c ****       }
 4948              		.loc 1 1514 11 view .LVU1735
 4949              	.LBE118:
1501:Lib/AI_Runtime/Npu/ll_aton/ll_aton.c ****     {
 4950              		.loc 1 1501 42 is_stmt 1 discriminator 2 view .LVU1736
ARM GAS  /tmp/ccgbPSBw.s 			page 170


 4951 0442 09F10309 		add	r9, r9, #3
 4952              	.LVL566:
1501:Lib/AI_Runtime/Npu/ll_aton/ll_aton.c ****     {
 4953              		.loc 1 1501 42 is_stmt 0 discriminator 2 view .LVU1737
 4954 0446 0C37     		adds	r7, r7, #12
 4955 0448 DCE7     		b	.L340
 4956              	.LVL567:
 4957              	.L335:
1501:Lib/AI_Runtime/Npu/ll_aton/ll_aton.c ****     {
 4958              		.loc 1 1501 42 discriminator 2 view .LVU1738
 4959              	.LBE116:
1519:Lib/AI_Runtime/Npu/ll_aton/ll_aton.c ****   {
 4960              		.loc 1 1519 3 is_stmt 1 view .LVU1739
1519:Lib/AI_Runtime/Npu/ll_aton/ll_aton.c ****   {
 4961              		.loc 1 1519 6 is_stmt 0 view .LVU1740
 4962 044a 072F     		cmp	r7, #7
 4963 044c 35D1     		bne	.L339
 4964              	.LBB119:
1521:Lib/AI_Runtime/Npu/ll_aton/ll_aton.c ****     for (i = 0, k = 0; i < CBsize; i += 7)
 4965              		.loc 1 1521 5 is_stmt 1 view .LVU1741
 4966              	.LVL568:
1522:Lib/AI_Runtime/Npu/ll_aton/ll_aton.c ****     {
 4967              		.loc 1 1522 5 view .LVU1742
1522:Lib/AI_Runtime/Npu/ll_aton/ll_aton.c ****     {
 4968              		.loc 1 1522 19 is_stmt 0 view .LVU1743
 4969 044e 0022     		movs	r2, #0
1522:Lib/AI_Runtime/Npu/ll_aton/ll_aton.c ****     {
 4970              		.loc 1 1522 12 view .LVU1744
 4971 0450 1746     		mov	r7, r2
 4972              	.LBB120:
1525:Lib/AI_Runtime/Npu/ll_aton/ll_aton.c ****       temp = CBp[i + 2] | (CBp[i + 3] << 16);
 4973              		.loc 1 1525 7 view .LVU1745
 4974 0452 4FEA442A 		lsl	r10, r4, #9
 4975 0456 0AF10103 		add	r3, r10, #1
 4976 045a F568     		ldr	r5, [r6, #12]
 4977 045c DFF8C8B0 		ldr	fp, .L364+4
 4978 0460 0193     		str	r3, [sp, #4]
 4979              	.LVL569:
 4980              	.L343:
1525:Lib/AI_Runtime/Npu/ll_aton/ll_aton.c ****       temp = CBp[i + 2] | (CBp[i + 3] << 16);
 4981              		.loc 1 1525 7 view .LVU1746
 4982              	.LBE120:
1522:Lib/AI_Runtime/Npu/ll_aton/ll_aton.c ****     {
 4983              		.loc 1 1522 26 is_stmt 1 discriminator 1 view .LVU1747
 4984 0462 B945     		cmp	r9, r7
 4985 0464 7FF6E4AD 		bls	.L312
 4986              	.LBB121:
1524:Lib/AI_Runtime/Npu/ll_aton/ll_aton.c ****       ATON_DECUN_MEM_LOW_SET(id, k, temp);
 4987              		.loc 1 1524 7 view .LVU1748
1524:Lib/AI_Runtime/Npu/ll_aton/ll_aton.c ****       ATON_DECUN_MEM_LOW_SET(id, k, temp);
 4988              		.loc 1 1524 36 is_stmt 0 view .LVU1749
 4989 0468 6888     		ldrh	r0, [r5, #2]
1524:Lib/AI_Runtime/Npu/ll_aton/ll_aton.c ****       ATON_DECUN_MEM_LOW_SET(id, k, temp);
 4990              		.loc 1 1524 26 view .LVU1750
 4991 046a B5F800C0 		ldrh	ip, [r5]
1526:Lib/AI_Runtime/Npu/ll_aton/ll_aton.c ****       ATON_DECUN_MEM_HIGH_SET(id, k, temp);
 4992              		.loc 1 1526 31 view .LVU1751
ARM GAS  /tmp/ccgbPSBw.s 			page 171


 4993 046e B5F806E0 		ldrh	lr, [r5, #6]
1524:Lib/AI_Runtime/Npu/ll_aton/ll_aton.c ****       ATON_DECUN_MEM_LOW_SET(id, k, temp);
 4994              		.loc 1 1524 30 view .LVU1752
 4995 0472 4CEA0043 		orr	r3, ip, r0, lsl #16
 4996              	.LVL570:
1525:Lib/AI_Runtime/Npu/ll_aton/ll_aton.c ****       temp = CBp[i + 2] | (CBp[i + 3] << 16);
 4997              		.loc 1 1525 7 is_stmt 1 view .LVU1753
1525:Lib/AI_Runtime/Npu/ll_aton/ll_aton.c ****       temp = CBp[i + 2] | (CBp[i + 3] << 16);
 4998              		.loc 1 1525 7 view .LVU1754
 4999 0476 0AEB0200 		add	r0, r10, r2
1526:Lib/AI_Runtime/Npu/ll_aton/ll_aton.c ****       ATON_DECUN_MEM_HIGH_SET(id, k, temp);
 5000              		.loc 1 1526 17 is_stmt 0 view .LVU1755
 5001 047a B5F804C0 		ldrh	ip, [r5, #4]
1525:Lib/AI_Runtime/Npu/ll_aton/ll_aton.c ****       temp = CBp[i + 2] | (CBp[i + 3] << 16);
 5002              		.loc 1 1525 7 view .LVU1756
 5003 047e 5844     		add	r0, r0, fp
 5004 0480 C000     		lsls	r0, r0, #3
 5005 0482 0360     		str	r3, [r0]
1525:Lib/AI_Runtime/Npu/ll_aton/ll_aton.c ****       temp = CBp[i + 2] | (CBp[i + 3] << 16);
 5006              		.loc 1 1525 7 is_stmt 1 view .LVU1757
1526:Lib/AI_Runtime/Npu/ll_aton/ll_aton.c ****       ATON_DECUN_MEM_HIGH_SET(id, k, temp);
 5007              		.loc 1 1526 7 view .LVU1758
1526:Lib/AI_Runtime/Npu/ll_aton/ll_aton.c ****       ATON_DECUN_MEM_HIGH_SET(id, k, temp);
 5008              		.loc 1 1526 25 is_stmt 0 view .LVU1759
 5009 0484 4CEA0E43 		orr	r3, ip, lr, lsl #16
 5010              	.LVL571:
1527:Lib/AI_Runtime/Npu/ll_aton/ll_aton.c ****       k++;
 5011              		.loc 1 1527 7 is_stmt 1 view .LVU1760
1527:Lib/AI_Runtime/Npu/ll_aton/ll_aton.c ****       k++;
 5012              		.loc 1 1527 7 view .LVU1761
 5013 0488 4360     		str	r3, [r0, #4]
1527:Lib/AI_Runtime/Npu/ll_aton/ll_aton.c ****       k++;
 5014              		.loc 1 1527 7 view .LVU1762
1528:Lib/AI_Runtime/Npu/ll_aton/ll_aton.c ****       temp = CBp[i + 4] | (CBp[i + 5] << 16);
 5015              		.loc 1 1528 7 view .LVU1763
 5016              	.LVL572:
1529:Lib/AI_Runtime/Npu/ll_aton/ll_aton.c ****       ATON_DECUN_MEM_LOW_SET(id, k, temp);
 5017              		.loc 1 1529 7 view .LVU1764
1529:Lib/AI_Runtime/Npu/ll_aton/ll_aton.c ****       ATON_DECUN_MEM_LOW_SET(id, k, temp);
 5018              		.loc 1 1529 17 is_stmt 0 view .LVU1765
 5019 048a B5F808C0 		ldrh	ip, [r5, #8]
1529:Lib/AI_Runtime/Npu/ll_aton/ll_aton.c ****       ATON_DECUN_MEM_LOW_SET(id, k, temp);
 5020              		.loc 1 1529 31 view .LVU1766
 5021 048e 6889     		ldrh	r0, [r5, #10]
1529:Lib/AI_Runtime/Npu/ll_aton/ll_aton.c ****       ATON_DECUN_MEM_LOW_SET(id, k, temp);
 5022              		.loc 1 1529 25 view .LVU1767
 5023 0490 4CEA0043 		orr	r3, ip, r0, lsl #16
 5024              	.LVL573:
1530:Lib/AI_Runtime/Npu/ll_aton/ll_aton.c ****       temp = CBp[i + 6];
 5025              		.loc 1 1530 7 is_stmt 1 view .LVU1768
1530:Lib/AI_Runtime/Npu/ll_aton/ll_aton.c ****       temp = CBp[i + 6];
 5026              		.loc 1 1530 7 view .LVU1769
 5027 0494 0198     		ldr	r0, [sp, #4]
 5028 0496 1044     		add	r0, r0, r2
 5029 0498 5844     		add	r0, r0, fp
 5030 049a C000     		lsls	r0, r0, #3
 5031 049c 0360     		str	r3, [r0]
ARM GAS  /tmp/ccgbPSBw.s 			page 172


1530:Lib/AI_Runtime/Npu/ll_aton/ll_aton.c ****       temp = CBp[i + 6];
 5032              		.loc 1 1530 7 view .LVU1770
1531:Lib/AI_Runtime/Npu/ll_aton/ll_aton.c ****       ATON_DECUN_MEM_HIGH_SET(id, k, temp);
 5033              		.loc 1 1531 7 view .LVU1771
1533:Lib/AI_Runtime/Npu/ll_aton/ll_aton.c ****       if (k == mem_idx_num)
 5034              		.loc 1 1533 8 is_stmt 0 view .LVU1772
 5035 049e 0232     		adds	r2, r2, #2
 5036              	.LVL574:
1531:Lib/AI_Runtime/Npu/ll_aton/ll_aton.c ****       ATON_DECUN_MEM_HIGH_SET(id, k, temp);
 5037              		.loc 1 1531 12 view .LVU1773
 5038 04a0 AB89     		ldrh	r3, [r5, #12]
 5039              	.LVL575:
1532:Lib/AI_Runtime/Npu/ll_aton/ll_aton.c ****       k++;
 5040              		.loc 1 1532 7 is_stmt 1 view .LVU1774
1532:Lib/AI_Runtime/Npu/ll_aton/ll_aton.c ****       k++;
 5041              		.loc 1 1532 7 view .LVU1775
1534:Lib/AI_Runtime/Npu/ll_aton/ll_aton.c ****       {
 5042              		.loc 1 1534 10 is_stmt 0 view .LVU1776
 5043 04a2 B2F5807F 		cmp	r2, #256
1532:Lib/AI_Runtime/Npu/ll_aton/ll_aton.c ****       k++;
 5044              		.loc 1 1532 7 view .LVU1777
 5045 04a6 4360     		str	r3, [r0, #4]
1532:Lib/AI_Runtime/Npu/ll_aton/ll_aton.c ****       k++;
 5046              		.loc 1 1532 7 is_stmt 1 view .LVU1778
1533:Lib/AI_Runtime/Npu/ll_aton/ll_aton.c ****       if (k == mem_idx_num)
 5047              		.loc 1 1533 7 view .LVU1779
 5048              	.LVL576:
1534:Lib/AI_Runtime/Npu/ll_aton/ll_aton.c ****       {
 5049              		.loc 1 1534 7 view .LVU1780
1534:Lib/AI_Runtime/Npu/ll_aton/ll_aton.c ****       {
 5050              		.loc 1 1534 10 is_stmt 0 view .LVU1781
 5051 04a8 04D1     		bne	.L344
1536:Lib/AI_Runtime/Npu/ll_aton/ll_aton.c ****         k = 0;
 5052              		.loc 1 1536 9 is_stmt 1 view .LVU1782
1536:Lib/AI_Runtime/Npu/ll_aton/ll_aton.c ****         k = 0;
 5053              		.loc 1 1536 20 is_stmt 0 view .LVU1783
 5054 04aa 2046     		mov	r0, r4
 5055 04ac FFF7FEFF 		bl	decun_inc_page_addr
 5056              	.LVL577:
1537:Lib/AI_Runtime/Npu/ll_aton/ll_aton.c ****       }
 5057              		.loc 1 1537 11 view .LVU1784
 5058 04b0 0022     		movs	r2, #0
1536:Lib/AI_Runtime/Npu/ll_aton/ll_aton.c ****         k = 0;
 5059              		.loc 1 1536 20 view .LVU1785
 5060 04b2 0146     		mov	r1, r0
 5061              	.LVL578:
1537:Lib/AI_Runtime/Npu/ll_aton/ll_aton.c ****       }
 5062              		.loc 1 1537 9 is_stmt 1 view .LVU1786
 5063              	.L344:
1537:Lib/AI_Runtime/Npu/ll_aton/ll_aton.c ****       }
 5064              		.loc 1 1537 9 is_stmt 0 view .LVU1787
 5065              	.LBE121:
1522:Lib/AI_Runtime/Npu/ll_aton/ll_aton.c ****     {
 5066              		.loc 1 1522 38 is_stmt 1 discriminator 2 view .LVU1788
 5067 04b4 0737     		adds	r7, r7, #7
 5068              	.LVL579:
1522:Lib/AI_Runtime/Npu/ll_aton/ll_aton.c ****     {
ARM GAS  /tmp/ccgbPSBw.s 			page 173


 5069              		.loc 1 1522 38 is_stmt 0 discriminator 2 view .LVU1789
 5070 04b6 0E35     		adds	r5, r5, #14
 5071 04b8 D3E7     		b	.L343
 5072              	.LVL580:
 5073              	.L339:
1522:Lib/AI_Runtime/Npu/ll_aton/ll_aton.c ****     {
 5074              		.loc 1 1522 38 discriminator 2 view .LVU1790
 5075              	.LBE119:
1541:Lib/AI_Runtime/Npu/ll_aton/ll_aton.c ****   {
 5076              		.loc 1 1541 3 is_stmt 1 view .LVU1791
1541:Lib/AI_Runtime/Npu/ll_aton/ll_aton.c ****   {
 5077              		.loc 1 1541 6 is_stmt 0 view .LVU1792
 5078 04ba 082F     		cmp	r7, #8
 5079 04bc 7FF4B8AD 		bne	.L312
 5080              	.LBB122:
1543:Lib/AI_Runtime/Npu/ll_aton/ll_aton.c ****     for (i = 0, k = 0; i < CBsize / 2; i += 2)
 5081              		.loc 1 1543 5 is_stmt 1 view .LVU1793
 5082              	.LVL581:
1544:Lib/AI_Runtime/Npu/ll_aton/ll_aton.c ****     {
 5083              		.loc 1 1544 5 view .LVU1794
1544:Lib/AI_Runtime/Npu/ll_aton/ll_aton.c ****     {
 5084              		.loc 1 1544 19 is_stmt 0 view .LVU1795
 5085 04c0 0022     		movs	r2, #0
1544:Lib/AI_Runtime/Npu/ll_aton/ll_aton.c ****     {
 5086              		.loc 1 1544 12 view .LVU1796
 5087 04c2 9146     		mov	r9, r2
 5088              	.LVL582:
1544:Lib/AI_Runtime/Npu/ll_aton/ll_aton.c ****     {
 5089              		.loc 1 1544 12 view .LVU1797
 5090 04c4 F768     		ldr	r7, [r6, #12]
 5091              	.LBB123:
1547:Lib/AI_Runtime/Npu/ll_aton/ll_aton.c ****       temp = CBp[i + 1];
 5092              		.loc 1 1547 7 view .LVU1798
 5093 04c6 DFF860B0 		ldr	fp, .L364+4
 5094              	.LBE123:
1544:Lib/AI_Runtime/Npu/ll_aton/ll_aton.c ****     {
 5095              		.loc 1 1544 35 discriminator 1 view .LVU1799
 5096 04ca AD08     		lsrs	r5, r5, #2
 5097              	.LVL583:
 5098              	.LBB124:
1547:Lib/AI_Runtime/Npu/ll_aton/ll_aton.c ****       temp = CBp[i + 1];
 5099              		.loc 1 1547 7 view .LVU1800
 5100 04cc 4FEA442A 		lsl	r10, r4, #9
 5101 04d0 0437     		adds	r7, r7, #4
 5102              	.LVL584:
 5103              	.L346:
1547:Lib/AI_Runtime/Npu/ll_aton/ll_aton.c ****       temp = CBp[i + 1];
 5104              		.loc 1 1547 7 view .LVU1801
 5105              	.LBE124:
1544:Lib/AI_Runtime/Npu/ll_aton/ll_aton.c ****     {
 5106              		.loc 1 1544 26 is_stmt 1 discriminator 1 view .LVU1802
 5107 04d2 A945     		cmp	r9, r5
 5108 04d4 BFF4ACAD 		bcs	.L312
 5109              	.LBB125:
1546:Lib/AI_Runtime/Npu/ll_aton/ll_aton.c ****       ATON_DECUN_MEM_LOW_SET(id, k, temp);
 5110              		.loc 1 1546 7 view .LVU1803
1547:Lib/AI_Runtime/Npu/ll_aton/ll_aton.c ****       temp = CBp[i + 1];
ARM GAS  /tmp/ccgbPSBw.s 			page 174


 5111              		.loc 1 1547 7 is_stmt 0 view .LVU1804
 5112 04d8 0AEB0200 		add	r0, r10, r2
1546:Lib/AI_Runtime/Npu/ll_aton/ll_aton.c ****       ATON_DECUN_MEM_LOW_SET(id, k, temp);
 5113              		.loc 1 1546 16 view .LVU1805
 5114 04dc 57F8043C 		ldr	r3, [r7, #-4]
 5115              	.LVL585:
1547:Lib/AI_Runtime/Npu/ll_aton/ll_aton.c ****       temp = CBp[i + 1];
 5116              		.loc 1 1547 7 is_stmt 1 view .LVU1806
1547:Lib/AI_Runtime/Npu/ll_aton/ll_aton.c ****       temp = CBp[i + 1];
 5117              		.loc 1 1547 7 view .LVU1807
 5118 04e0 5844     		add	r0, r0, fp
 5119 04e2 C000     		lsls	r0, r0, #3
 5120 04e4 0360     		str	r3, [r0]
1547:Lib/AI_Runtime/Npu/ll_aton/ll_aton.c ****       temp = CBp[i + 1];
 5121              		.loc 1 1547 7 view .LVU1808
1548:Lib/AI_Runtime/Npu/ll_aton/ll_aton.c ****       ATON_DECUN_MEM_HIGH_SET(id, k, temp);
 5122              		.loc 1 1548 7 view .LVU1809
1548:Lib/AI_Runtime/Npu/ll_aton/ll_aton.c ****       ATON_DECUN_MEM_HIGH_SET(id, k, temp);
 5123              		.loc 1 1548 12 is_stmt 0 view .LVU1810
 5124 04e6 3B68     		ldr	r3, [r7]
 5125              	.LVL586:
1549:Lib/AI_Runtime/Npu/ll_aton/ll_aton.c ****       k++;
 5126              		.loc 1 1549 7 is_stmt 1 view .LVU1811
1549:Lib/AI_Runtime/Npu/ll_aton/ll_aton.c ****       k++;
 5127              		.loc 1 1549 7 view .LVU1812
1550:Lib/AI_Runtime/Npu/ll_aton/ll_aton.c ****       if (k == mem_idx_num)
 5128              		.loc 1 1550 8 is_stmt 0 view .LVU1813
 5129 04e8 0132     		adds	r2, r2, #1
 5130              	.LVL587:
1551:Lib/AI_Runtime/Npu/ll_aton/ll_aton.c ****       {
 5131              		.loc 1 1551 10 view .LVU1814
 5132 04ea B2F5807F 		cmp	r2, #256
1549:Lib/AI_Runtime/Npu/ll_aton/ll_aton.c ****       k++;
 5133              		.loc 1 1549 7 view .LVU1815
 5134 04ee 4360     		str	r3, [r0, #4]
1549:Lib/AI_Runtime/Npu/ll_aton/ll_aton.c ****       k++;
 5135              		.loc 1 1549 7 is_stmt 1 view .LVU1816
1550:Lib/AI_Runtime/Npu/ll_aton/ll_aton.c ****       if (k == mem_idx_num)
 5136              		.loc 1 1550 7 view .LVU1817
 5137              	.LVL588:
1551:Lib/AI_Runtime/Npu/ll_aton/ll_aton.c ****       {
 5138              		.loc 1 1551 7 view .LVU1818
1551:Lib/AI_Runtime/Npu/ll_aton/ll_aton.c ****       {
 5139              		.loc 1 1551 10 is_stmt 0 view .LVU1819
 5140 04f0 04D1     		bne	.L347
1553:Lib/AI_Runtime/Npu/ll_aton/ll_aton.c ****         k = 0;
 5141              		.loc 1 1553 9 is_stmt 1 view .LVU1820
1553:Lib/AI_Runtime/Npu/ll_aton/ll_aton.c ****         k = 0;
 5142              		.loc 1 1553 20 is_stmt 0 view .LVU1821
 5143 04f2 2046     		mov	r0, r4
 5144 04f4 FFF7FEFF 		bl	decun_inc_page_addr
 5145              	.LVL589:
1554:Lib/AI_Runtime/Npu/ll_aton/ll_aton.c ****       }
 5146              		.loc 1 1554 11 view .LVU1822
 5147 04f8 0022     		movs	r2, #0
1553:Lib/AI_Runtime/Npu/ll_aton/ll_aton.c ****         k = 0;
 5148              		.loc 1 1553 20 view .LVU1823
ARM GAS  /tmp/ccgbPSBw.s 			page 175


 5149 04fa 0146     		mov	r1, r0
 5150              	.LVL590:
1554:Lib/AI_Runtime/Npu/ll_aton/ll_aton.c ****       }
 5151              		.loc 1 1554 9 is_stmt 1 view .LVU1824
 5152              	.L347:
1554:Lib/AI_Runtime/Npu/ll_aton/ll_aton.c ****       }
 5153              		.loc 1 1554 9 is_stmt 0 view .LVU1825
 5154              	.LBE125:
1544:Lib/AI_Runtime/Npu/ll_aton/ll_aton.c ****     {
 5155              		.loc 1 1544 42 is_stmt 1 discriminator 2 view .LVU1826
 5156 04fc 09F10209 		add	r9, r9, #2
 5157              	.LVL591:
1544:Lib/AI_Runtime/Npu/ll_aton/ll_aton.c ****     {
 5158              		.loc 1 1544 42 is_stmt 0 discriminator 2 view .LVU1827
 5159 0500 0837     		adds	r7, r7, #8
 5160 0502 E6E7     		b	.L346
 5161              	.LVL592:
 5162              	.L357:
1544:Lib/AI_Runtime/Npu/ll_aton/ll_aton.c ****     {
 5163              		.loc 1 1544 42 discriminator 2 view .LVU1828
 5164              	.LBE122:
 5165              	.LBE99:
 5166              	.LBE98:
1601:Lib/AI_Runtime/Npu/ll_aton/ll_aton.c ****   t = ATON_DECUN_DFORMAT_SET_CV8(t, conf->nFormatBytes & 0x1);
 5167              		.loc 1 1601 3 is_stmt 1 view .LVU1829
1602:Lib/AI_Runtime/Npu/ll_aton/ll_aton.c ****   ATON_DECUN_DFORMAT_SET(id, t);
 5168              		.loc 1 1602 3 view .LVU1830
1609:Lib/AI_Runtime/Npu/ll_aton/ll_aton.c **** }
 5169              		.loc 1 1609 10 is_stmt 0 view .LVU1831
 5170 0504 0020     		movs	r0, #0
1602:Lib/AI_Runtime/Npu/ll_aton/ll_aton.c ****   ATON_DECUN_DFORMAT_SET(id, t);
 5171              		.loc 1 1602 7 view .LVU1832
 5172 0506 03F00103 		and	r3, r3, #1
 5173              	.LVL593:
1603:Lib/AI_Runtime/Npu/ll_aton/ll_aton.c **** 
 5174              		.loc 1 1603 3 is_stmt 1 view .LVU1833
1603:Lib/AI_Runtime/Npu/ll_aton/ll_aton.c **** 
 5175              		.loc 1 1603 3 view .LVU1834
 5176 050a C8F80C30 		str	r3, [r8, #12]
1603:Lib/AI_Runtime/Npu/ll_aton/ll_aton.c **** 
 5177              		.loc 1 1603 3 view .LVU1835
1603:Lib/AI_Runtime/Npu/ll_aton/ll_aton.c **** 
 5178              		.loc 1 1603 32 view .LVU1836
1605:Lib/AI_Runtime/Npu/ll_aton/ll_aton.c ****   t = ATON_DECUN_FFORMAT_SET_BN(t, conf->nBatches);
 5179              		.loc 1 1605 3 view .LVU1837
 5180              	.LVL594:
1606:Lib/AI_Runtime/Npu/ll_aton/ll_aton.c ****   ATON_DECUN_FFORMAT_SET(id, t);
 5181              		.loc 1 1606 3 view .LVU1838
1606:Lib/AI_Runtime/Npu/ll_aton/ll_aton.c ****   ATON_DECUN_FFORMAT_SET(id, t);
 5182              		.loc 1 1606 7 is_stmt 0 view .LVU1839
 5183 050e F388     		ldrh	r3, [r6, #6]
 5184 0510 C3F30903 		ubfx	r3, r3, #0, #10
 5185              	.LVL595:
1607:Lib/AI_Runtime/Npu/ll_aton/ll_aton.c **** 
 5186              		.loc 1 1607 3 is_stmt 1 view .LVU1840
1607:Lib/AI_Runtime/Npu/ll_aton/ll_aton.c **** 
 5187              		.loc 1 1607 3 view .LVU1841
ARM GAS  /tmp/ccgbPSBw.s 			page 176


 5188 0514 C8F81030 		str	r3, [r8, #16]
1607:Lib/AI_Runtime/Npu/ll_aton/ll_aton.c **** 
 5189              		.loc 1 1607 3 view .LVU1842
1607:Lib/AI_Runtime/Npu/ll_aton/ll_aton.c **** 
 5190              		.loc 1 1607 32 view .LVU1843
1609:Lib/AI_Runtime/Npu/ll_aton/ll_aton.c **** }
 5191              		.loc 1 1609 3 view .LVU1844
 5192              	.LVL596:
 5193              	.L286:
1610:Lib/AI_Runtime/Npu/ll_aton/ll_aton.c **** #endif // ATON_DECUN_NUM
 5194              		.loc 1 1610 1 is_stmt 0 view .LVU1845
 5195 0518 03B0     		add	sp, sp, #12
 5196              		.cfi_remember_state
 5197              		.cfi_def_cfa_offset 36
 5198              		@ sp needed
 5199 051a BDE8F08F 		pop	{r4, r5, r6, r7, r8, r9, r10, fp, pc}
 5200              	.LVL597:
 5201              	.L349:
 5202              		.cfi_restore_state
1571:Lib/AI_Runtime/Npu/ll_aton/ll_aton.c **** 
 5203              		.loc 1 1571 12 view .LVU1846
 5204 051e 4FF0FF30 		mov	r0, #-1
 5205              	.LVL598:
1571:Lib/AI_Runtime/Npu/ll_aton/ll_aton.c **** 
 5206              		.loc 1 1571 12 view .LVU1847
 5207 0522 F9E7     		b	.L286
 5208              	.L365:
 5209              		.align	2
 5210              	.L364:
 5211 0524 01E7010B 		.word	184674049
 5212 0528 00E7010B 		.word	184674048
 5213              		.cfi_endproc
 5214              	.LFE4843:
 5216              		.section	.text.LL_Convacc_Init,"ax",%progbits
 5217              		.align	1
 5218              		.global	LL_Convacc_Init
 5219              		.syntax unified
 5220              		.thumb
 5221              		.thumb_func
 5223              	LL_Convacc_Init:
 5224              	.LVL599:
 5225              	.LFB4844:
1621:Lib/AI_Runtime/Npu/ll_aton/ll_aton.c ****   uint32_t t;
 5226              		.loc 1 1621 1 is_stmt 1 view -0
 5227              		.cfi_startproc
 5228              		@ args = 0, pretend = 0, frame = 0
 5229              		@ frame_needed = 0, uses_anonymous_args = 0
1622:Lib/AI_Runtime/Npu/ll_aton/ll_aton.c **** 
 5230              		.loc 1 1622 3 view .LVU1849
1624:Lib/AI_Runtime/Npu/ll_aton/ll_aton.c ****     return LL_ATON_INVALID_ID;
 5231              		.loc 1 1624 3 view .LVU1850
1624:Lib/AI_Runtime/Npu/ll_aton/ll_aton.c ****     return LL_ATON_INVALID_ID;
 5232              		.loc 1 1624 6 is_stmt 0 view .LVU1851
 5233 0000 0328     		cmp	r0, #3
1621:Lib/AI_Runtime/Npu/ll_aton/ll_aton.c ****   uint32_t t;
 5234              		.loc 1 1621 1 view .LVU1852
 5235 0002 2DE9F047 		push	{r4, r5, r6, r7, r8, r9, r10, lr}
ARM GAS  /tmp/ccgbPSBw.s 			page 177


 5236              		.cfi_def_cfa_offset 32
 5237              		.cfi_offset 4, -32
 5238              		.cfi_offset 5, -28
 5239              		.cfi_offset 6, -24
 5240              		.cfi_offset 7, -20
 5241              		.cfi_offset 8, -16
 5242              		.cfi_offset 9, -12
 5243              		.cfi_offset 10, -8
 5244              		.cfi_offset 14, -4
1621:Lib/AI_Runtime/Npu/ll_aton/ll_aton.c ****   uint32_t t;
 5245              		.loc 1 1621 1 view .LVU1853
 5246 0006 0646     		mov	r6, r0
 5247 0008 0C46     		mov	r4, r1
1624:Lib/AI_Runtime/Npu/ll_aton/ll_aton.c ****     return LL_ATON_INVALID_ID;
 5248              		.loc 1 1624 6 view .LVU1854
 5249 000a 00F34E81 		bgt	.L382
1627:Lib/AI_Runtime/Npu/ll_aton/ll_aton.c **** 
 5250              		.loc 1 1627 3 is_stmt 1 view .LVU1855
 5251 000e 0A30     		adds	r0, r0, #10
 5252              	.LVL600:
1627:Lib/AI_Runtime/Npu/ll_aton/ll_aton.c **** 
 5253              		.loc 1 1627 3 is_stmt 0 view .LVU1856
 5254 0010 FFF7FEFF 		bl	LL_ATON_EnableClock
 5255              	.LVL601:
1629:Lib/AI_Runtime/Npu/ll_aton/ll_aton.c ****   t = ATON_CONVACC_CTRL_SET_NOSUM(t, (conf->accumulate == 0));
 5256              		.loc 1 1629 3 is_stmt 1 view .LVU1857
1630:Lib/AI_Runtime/Npu/ll_aton/ll_aton.c ****   t = ATON_CONVACC_CTRL_SET_NO1SUM(t, (conf->accumulate_first == 0));
 5257              		.loc 1 1630 3 view .LVU1858
1631:Lib/AI_Runtime/Npu/ll_aton/ll_aton.c ****   t = ATON_CONVACC_CTRL_SET_GEN1SUM(t, (conf->accumulate_gen_first != 0));
 5258              		.loc 1 1631 3 view .LVU1859
1632:Lib/AI_Runtime/Npu/ll_aton/ll_aton.c ****   t = ATON_CONVACC_CTRL_SET_AFILTMODE(t, conf->afilt_mode);
 5259              		.loc 1 1632 3 view .LVU1860
1632:Lib/AI_Runtime/Npu/ll_aton/ll_aton.c ****   t = ATON_CONVACC_CTRL_SET_AFILTMODE(t, conf->afilt_mode);
 5260              		.loc 1 1632 7 is_stmt 0 view .LVU1861
 5261 0014 A578     		ldrb	r5, [r4, #2]	@ zero_extendqisi2
 5262              	.LVL602:
1633:Lib/AI_Runtime/Npu/ll_aton/ll_aton.c ****   t = ATON_CONVACC_CTRL_SET_SIMD(t, (conf->simd));
 5263              		.loc 1 1633 3 is_stmt 1 view .LVU1862
1634:Lib/AI_Runtime/Npu/ll_aton/ll_aton.c ****   t = ATON_CONVACC_CTRL_SET_KT1(t, (conf->kt1_mode != 0));
 5264              		.loc 1 1634 7 is_stmt 0 view .LVU1863
 5265 0016 6278     		ldrb	r2, [r4, #1]	@ zero_extendqisi2
1635:Lib/AI_Runtime/Npu/ll_aton/ll_aton.c ****   t = ATON_CONVACC_CTRL_SET_KSETEN(t, conf->kseten);
 5266              		.loc 1 1635 7 view .LVU1864
 5267 0018 05F00803 		and	r3, r5, #8
1634:Lib/AI_Runtime/Npu/ll_aton/ll_aton.c ****   t = ATON_CONVACC_CTRL_SET_KT1(t, (conf->kt1_mode != 0));
 5268              		.loc 1 1634 7 view .LVU1865
 5269 001c C2F30111 		ubfx	r1, r2, #4, #2
1638:Lib/AI_Runtime/Npu/ll_aton/ll_aton.c **** #if defined(ATON_CONVACC_CTRL_SET_FSTAT)
 5270              		.loc 1 1638 5 view .LVU1866
 5271 0020 43EA4113 		orr	r3, r3, r1, lsl #5
1636:Lib/AI_Runtime/Npu/ll_aton/ll_aton.c ****   t = ATON_CONVACC_CTRL_SET_FUNSIGNED(t, conf->f_unsigned);
 5272              		.loc 1 1636 7 view .LVU1867
 5273 0024 E178     		ldrb	r1, [r4, #3]	@ zero_extendqisi2
1633:Lib/AI_Runtime/Npu/ll_aton/ll_aton.c ****   t = ATON_CONVACC_CTRL_SET_SIMD(t, (conf->simd));
 5274              		.loc 1 1633 7 view .LVU1868
 5275 0026 94F82A00 		ldrb	r0, [r4, #42]	@ zero_extendqisi2
 5276              	.LVL603:
ARM GAS  /tmp/ccgbPSBw.s 			page 178


1634:Lib/AI_Runtime/Npu/ll_aton/ll_aton.c ****   t = ATON_CONVACC_CTRL_SET_KT1(t, (conf->kt1_mode != 0));
 5277              		.loc 1 1634 3 is_stmt 1 view .LVU1869
1635:Lib/AI_Runtime/Npu/ll_aton/ll_aton.c ****   t = ATON_CONVACC_CTRL_SET_KSETEN(t, conf->kseten);
 5278              		.loc 1 1635 3 view .LVU1870
1636:Lib/AI_Runtime/Npu/ll_aton/ll_aton.c ****   t = ATON_CONVACC_CTRL_SET_FUNSIGNED(t, conf->f_unsigned);
 5279              		.loc 1 1636 3 view .LVU1871
1637:Lib/AI_Runtime/Npu/ll_aton/ll_aton.c ****   t = ATON_CONVACC_CTRL_SET_KUNSIGNED(t, conf->k_unsigned);
 5280              		.loc 1 1637 3 view .LVU1872
1638:Lib/AI_Runtime/Npu/ll_aton/ll_aton.c **** #if defined(ATON_CONVACC_CTRL_SET_FSTAT)
 5281              		.loc 1 1638 3 view .LVU1873
1636:Lib/AI_Runtime/Npu/ll_aton/ll_aton.c ****   t = ATON_CONVACC_CTRL_SET_FUNSIGNED(t, conf->f_unsigned);
 5282              		.loc 1 1636 7 is_stmt 0 view .LVU1874
 5283 002a 01F00301 		and	r1, r1, #3
1638:Lib/AI_Runtime/Npu/ll_aton/ll_aton.c **** #if defined(ATON_CONVACC_CTRL_SET_FSTAT)
 5284              		.loc 1 1638 5 view .LVU1875
 5285 002e 43EA8153 		orr	r3, r3, r1, lsl #22
1637:Lib/AI_Runtime/Npu/ll_aton/ll_aton.c ****   t = ATON_CONVACC_CTRL_SET_KUNSIGNED(t, conf->k_unsigned);
 5286              		.loc 1 1637 7 view .LVU1876
 5287 0032 C5F38011 		ubfx	r1, r5, #6, #1
1638:Lib/AI_Runtime/Npu/ll_aton/ll_aton.c **** #if defined(ATON_CONVACC_CTRL_SET_FSTAT)
 5288              		.loc 1 1638 5 view .LVU1877
 5289 0036 43EA0153 		orr	r3, r3, r1, lsl #20
1638:Lib/AI_Runtime/Npu/ll_aton/ll_aton.c **** #if defined(ATON_CONVACC_CTRL_SET_FSTAT)
 5290              		.loc 1 1638 7 view .LVU1878
 5291 003a E909     		lsrs	r1, r5, #7
1638:Lib/AI_Runtime/Npu/ll_aton/ll_aton.c **** #if defined(ATON_CONVACC_CTRL_SET_FSTAT)
 5292              		.loc 1 1638 5 view .LVU1879
 5293 003c 43EA4153 		orr	r3, r3, r1, lsl #21
1630:Lib/AI_Runtime/Npu/ll_aton/ll_aton.c ****   t = ATON_CONVACC_CTRL_SET_NO1SUM(t, (conf->accumulate_first == 0));
 5294              		.loc 1 1630 7 view .LVU1880
 5295 0040 C2F38011 		ubfx	r1, r2, #6, #1
 5296 0044 81F00101 		eor	r1, r1, #1
 5297 0048 C9B2     		uxtb	r1, r1
1638:Lib/AI_Runtime/Npu/ll_aton/ll_aton.c **** #if defined(ATON_CONVACC_CTRL_SET_FSTAT)
 5298              		.loc 1 1638 5 view .LVU1881
 5299 004a 43EA8103 		orr	r3, r3, r1, lsl #2
1631:Lib/AI_Runtime/Npu/ll_aton/ll_aton.c ****   t = ATON_CONVACC_CTRL_SET_GEN1SUM(t, (conf->accumulate_gen_first != 0));
 5300              		.loc 1 1631 7 view .LVU1882
 5301 004e 82F08001 		eor	r1, r2, #128
 5302 0052 C909     		lsrs	r1, r1, #7
1638:Lib/AI_Runtime/Npu/ll_aton/ll_aton.c **** #if defined(ATON_CONVACC_CTRL_SET_FSTAT)
 5303              		.loc 1 1638 5 view .LVU1883
 5304 0054 43EA0113 		orr	r3, r3, r1, lsl #4
1632:Lib/AI_Runtime/Npu/ll_aton/ll_aton.c ****   t = ATON_CONVACC_CTRL_SET_AFILTMODE(t, conf->afilt_mode);
 5305              		.loc 1 1632 7 view .LVU1884
 5306 0058 A902     		lsls	r1, r5, #10
 5307 005a 01F48061 		and	r1, r1, #1024
1638:Lib/AI_Runtime/Npu/ll_aton/ll_aton.c **** #if defined(ATON_CONVACC_CTRL_SET_FSTAT)
 5308              		.loc 1 1638 5 view .LVU1885
 5309 005e 0B43     		orrs	r3, r3, r1
1633:Lib/AI_Runtime/Npu/ll_aton/ll_aton.c ****   t = ATON_CONVACC_CTRL_SET_SIMD(t, (conf->simd));
 5310              		.loc 1 1633 7 view .LVU1886
 5311 0060 0102     		lsls	r1, r0, #8
 5312 0062 01F44071 		and	r1, r1, #768
1638:Lib/AI_Runtime/Npu/ll_aton/ll_aton.c **** #if defined(ATON_CONVACC_CTRL_SET_FSTAT)
 5313              		.loc 1 1638 5 view .LVU1887
 5314 0066 0B43     		orrs	r3, r3, r1
ARM GAS  /tmp/ccgbPSBw.s 			page 179


 5315              	.LVL604:
1640:Lib/AI_Runtime/Npu/ll_aton/ll_aton.c **** #endif
 5316              		.loc 1 1640 3 is_stmt 1 view .LVU1888
1640:Lib/AI_Runtime/Npu/ll_aton/ll_aton.c **** #endif
 5317              		.loc 1 1640 7 is_stmt 0 view .LVU1889
 5318 0068 E905     		lsls	r1, r5, #23
 5319 006a 01F08071 		and	r1, r1, #16777216
1640:Lib/AI_Runtime/Npu/ll_aton/ll_aton.c **** #endif
 5320              		.loc 1 1640 5 view .LVU1890
 5321 006e 1943     		orrs	r1, r1, r3
 5322              	.LVL605:
1644:Lib/AI_Runtime/Npu/ll_aton/ll_aton.c **** #if defined(ATON_CONVACC_CTRL_SET_FSTAT)
 5323              		.loc 1 1644 3 is_stmt 1 view .LVU1891
1644:Lib/AI_Runtime/Npu/ll_aton/ll_aton.c **** #if defined(ATON_CONVACC_CTRL_SET_FSTAT)
 5324              		.loc 1 1644 7 is_stmt 0 view .LVU1892
 5325 0070 2B06     		lsls	r3, r5, #24
 5326 0072 03F08057 		and	r7, r3, #268435456
1644:Lib/AI_Runtime/Npu/ll_aton/ll_aton.c **** #if defined(ATON_CONVACC_CTRL_SET_FSTAT)
 5327              		.loc 1 1644 5 view .LVU1893
 5328 0076 3943     		orrs	r1, r1, r7
 5329              	.LVL606:
1647:Lib/AI_Runtime/Npu/ll_aton/ll_aton.c ****   {
 5330              		.loc 1 1647 3 is_stmt 1 view .LVU1894
1647:Lib/AI_Runtime/Npu/ll_aton/ll_aton.c ****   {
 5331              		.loc 1 1647 6 is_stmt 0 view .LVU1895
 5332 0078 05F01207 		and	r7, r5, #18
 5333 007c 122F     		cmp	r7, #18
 5334 007e 00F01781 		beq	.L385
1655:Lib/AI_Runtime/Npu/ll_aton/ll_aton.c **** #if defined(ATON_CONVACC_CTRL_SET_FSTAT)
 5335              		.loc 1 1655 3 is_stmt 1 view .LVU1896
1655:Lib/AI_Runtime/Npu/ll_aton/ll_aton.c **** #if defined(ATON_CONVACC_CTRL_SET_FSTAT)
 5336              		.loc 1 1655 7 is_stmt 0 view .LVU1897
 5337 0082 03F00053 		and	r3, r3, #536870912
1655:Lib/AI_Runtime/Npu/ll_aton/ll_aton.c **** #if defined(ATON_CONVACC_CTRL_SET_FSTAT)
 5338              		.loc 1 1655 5 view .LVU1898
 5339 0086 0B43     		orrs	r3, r3, r1
 5340              	.LVL607:
1658:Lib/AI_Runtime/Npu/ll_aton/ll_aton.c ****   {
 5341              		.loc 1 1658 3 is_stmt 1 view .LVU1899
1658:Lib/AI_Runtime/Npu/ll_aton/ll_aton.c ****   {
 5342              		.loc 1 1658 6 is_stmt 0 view .LVU1900
 5343 0088 05F02201 		and	r1, r5, #34
 5344 008c 2229     		cmp	r1, #34
 5345 008e 00F00F81 		beq	.L385
1667:Lib/AI_Runtime/Npu/ll_aton/ll_aton.c ****   {
 5346              		.loc 1 1667 3 is_stmt 1 view .LVU1901
1667:Lib/AI_Runtime/Npu/ll_aton/ll_aton.c ****   {
 5347              		.loc 1 1667 6 is_stmt 0 view .LVU1902
 5348 0092 05F03001 		and	r1, r5, #48
 5349 0096 3029     		cmp	r1, #48
 5350 0098 00F00A81 		beq	.L385
1673:Lib/AI_Runtime/Npu/ll_aton/ll_aton.c ****   Conv_ctrl_bits[id] = t;
 5351              		.loc 1 1673 3 is_stmt 1 view .LVU1903
1673:Lib/AI_Runtime/Npu/ll_aton/ll_aton.c ****   Conv_ctrl_bits[id] = t;
 5352              		.loc 1 1673 3 view .LVU1904
 5353 009c 06F5B021 		add	r1, r6, #360448
1674:Lib/AI_Runtime/Npu/ll_aton/ll_aton.c **** 
ARM GAS  /tmp/ccgbPSBw.s 			page 180


 5354              		.loc 1 1674 22 is_stmt 0 view .LVU1905
 5355 00a0 854F     		ldr	r7, .L408
1673:Lib/AI_Runtime/Npu/ll_aton/ll_aton.c ****   Conv_ctrl_bits[id] = t;
 5356              		.loc 1 1673 3 view .LVU1906
 5357 00a2 EF31     		adds	r1, r1, #239
 5358 00a4 0903     		lsls	r1, r1, #12
 5359 00a6 0B60     		str	r3, [r1]
1673:Lib/AI_Runtime/Npu/ll_aton/ll_aton.c ****   Conv_ctrl_bits[id] = t;
 5360              		.loc 1 1673 3 is_stmt 1 view .LVU1907
1673:Lib/AI_Runtime/Npu/ll_aton/ll_aton.c ****   Conv_ctrl_bits[id] = t;
 5361              		.loc 1 1673 31 view .LVU1908
1674:Lib/AI_Runtime/Npu/ll_aton/ll_aton.c **** 
 5362              		.loc 1 1674 3 view .LVU1909
1674:Lib/AI_Runtime/Npu/ll_aton/ll_aton.c **** 
 5363              		.loc 1 1674 22 is_stmt 0 view .LVU1910
 5364 00a8 47F82630 		str	r3, [r7, r6, lsl #2]
1676:Lib/AI_Runtime/Npu/ll_aton/ll_aton.c ****   {
 5365              		.loc 1 1676 3 is_stmt 1 view .LVU1911
1676:Lib/AI_Runtime/Npu/ll_aton/ll_aton.c ****   {
 5366              		.loc 1 1676 6 is_stmt 0 view .LVU1912
 5367 00ac 50B1     		cbz	r0, .L368
1678:Lib/AI_Runtime/Npu/ll_aton/ll_aton.c ****     t = ATON_CONVACC_AFILT_SET_TOT(t, conf->afilt_tot);
 5368              		.loc 1 1678 5 is_stmt 1 view .LVU1913
 5369              	.LVL608:
1679:Lib/AI_Runtime/Npu/ll_aton/ll_aton.c ****     t = ATON_CONVACC_AFILT_SET_FIRST(t, conf->afilt_first);
 5370              		.loc 1 1679 5 view .LVU1914
1680:Lib/AI_Runtime/Npu/ll_aton/ll_aton.c ****     t = ATON_CONVACC_AFILT_SET_LAST(t, conf->afilt_last);
 5371              		.loc 1 1680 5 view .LVU1915
1681:Lib/AI_Runtime/Npu/ll_aton/ll_aton.c ****     ATON_CONVACC_AFILT_SET(id, t);
 5372              		.loc 1 1681 5 view .LVU1916
1681:Lib/AI_Runtime/Npu/ll_aton/ll_aton.c ****     ATON_CONVACC_AFILT_SET(id, t);
 5373              		.loc 1 1681 9 is_stmt 0 view .LVU1917
 5374 00ae 94F82D30 		ldrb	r3, [r4, #45]	@ zero_extendqisi2
1680:Lib/AI_Runtime/Npu/ll_aton/ll_aton.c ****     t = ATON_CONVACC_AFILT_SET_LAST(t, conf->afilt_last);
 5375              		.loc 1 1680 9 view .LVU1918
 5376 00b2 94F82C00 		ldrb	r0, [r4, #44]	@ zero_extendqisi2
1681:Lib/AI_Runtime/Npu/ll_aton/ll_aton.c ****     ATON_CONVACC_AFILT_SET(id, t);
 5377              		.loc 1 1681 9 view .LVU1919
 5378 00b6 1B04     		lsls	r3, r3, #16
1681:Lib/AI_Runtime/Npu/ll_aton/ll_aton.c ****     ATON_CONVACC_AFILT_SET(id, t);
 5379              		.loc 1 1681 7 view .LVU1920
 5380 00b8 43EA0023 		orr	r3, r3, r0, lsl #8
1679:Lib/AI_Runtime/Npu/ll_aton/ll_aton.c ****     t = ATON_CONVACC_AFILT_SET_FIRST(t, conf->afilt_first);
 5381              		.loc 1 1679 9 view .LVU1921
 5382 00bc 94F82B00 		ldrb	r0, [r4, #43]	@ zero_extendqisi2
1681:Lib/AI_Runtime/Npu/ll_aton/ll_aton.c ****     ATON_CONVACC_AFILT_SET(id, t);
 5383              		.loc 1 1681 7 view .LVU1922
 5384 00c0 0343     		orrs	r3, r3, r0
 5385              	.LVL609:
1682:Lib/AI_Runtime/Npu/ll_aton/ll_aton.c ****   }
 5386              		.loc 1 1682 5 is_stmt 1 view .LVU1923
1682:Lib/AI_Runtime/Npu/ll_aton/ll_aton.c ****   }
 5387              		.loc 1 1682 5 view .LVU1924
 5388 00c2 4B62     		str	r3, [r1, #36]
 5389              	.L368:
1682:Lib/AI_Runtime/Npu/ll_aton/ll_aton.c ****   }
 5390              		.loc 1 1682 5 discriminator 1 view .LVU1925
ARM GAS  /tmp/ccgbPSBw.s 			page 181


1682:Lib/AI_Runtime/Npu/ll_aton/ll_aton.c ****   }
 5391              		.loc 1 1682 34 discriminator 1 view .LVU1926
1685:Lib/AI_Runtime/Npu/ll_aton/ll_aton.c ****   {
 5392              		.loc 1 1685 3 view .LVU1927
1685:Lib/AI_Runtime/Npu/ll_aton/ll_aton.c ****   {
 5393              		.loc 1 1685 11 is_stmt 0 view .LVU1928
 5394 00c4 94F82E00 		ldrb	r0, [r4, #46]	@ zero_extendqisi2
1685:Lib/AI_Runtime/Npu/ll_aton/ll_aton.c ****   {
 5395              		.loc 1 1685 6 view .LVU1929
 5396 00c8 40B1     		cbz	r0, .L369
1687:Lib/AI_Runtime/Npu/ll_aton/ll_aton.c ****     t = ATON_CONVACC_KFILT_SET_TOT(t, conf->kfilt_tot);
 5397              		.loc 1 1687 5 is_stmt 1 view .LVU1930
 5398              	.LVL610:
1688:Lib/AI_Runtime/Npu/ll_aton/ll_aton.c ****     t = ATON_CONVACC_KFILT_SET_FIRST(t, conf->kfilt_first);
 5399              		.loc 1 1688 5 view .LVU1931
1689:Lib/AI_Runtime/Npu/ll_aton/ll_aton.c ****     t = ATON_CONVACC_KFILT_SET_LAST(t, conf->kfilt_last);
 5400              		.loc 1 1689 5 view .LVU1932
1690:Lib/AI_Runtime/Npu/ll_aton/ll_aton.c ****     ATON_CONVACC_KFILT_SET(id, t);
 5401              		.loc 1 1690 5 view .LVU1933
1690:Lib/AI_Runtime/Npu/ll_aton/ll_aton.c ****     ATON_CONVACC_KFILT_SET(id, t);
 5402              		.loc 1 1690 9 is_stmt 0 view .LVU1934
 5403 00ca 94F83030 		ldrb	r3, [r4, #48]	@ zero_extendqisi2
1689:Lib/AI_Runtime/Npu/ll_aton/ll_aton.c ****     t = ATON_CONVACC_KFILT_SET_LAST(t, conf->kfilt_last);
 5404              		.loc 1 1689 9 view .LVU1935
 5405 00ce 94F82F60 		ldrb	r6, [r4, #47]	@ zero_extendqisi2
 5406              	.LVL611:
1690:Lib/AI_Runtime/Npu/ll_aton/ll_aton.c ****     ATON_CONVACC_KFILT_SET(id, t);
 5407              		.loc 1 1690 9 view .LVU1936
 5408 00d2 1B04     		lsls	r3, r3, #16
1690:Lib/AI_Runtime/Npu/ll_aton/ll_aton.c ****     ATON_CONVACC_KFILT_SET(id, t);
 5409              		.loc 1 1690 7 view .LVU1937
 5410 00d4 43EA0623 		orr	r3, r3, r6, lsl #8
 5411 00d8 0343     		orrs	r3, r3, r0
 5412              	.LVL612:
1691:Lib/AI_Runtime/Npu/ll_aton/ll_aton.c ****   }
 5413              		.loc 1 1691 5 is_stmt 1 view .LVU1938
1691:Lib/AI_Runtime/Npu/ll_aton/ll_aton.c ****   }
 5414              		.loc 1 1691 5 view .LVU1939
 5415 00da 0B62     		str	r3, [r1, #32]
 5416              	.L369:
1691:Lib/AI_Runtime/Npu/ll_aton/ll_aton.c ****   }
 5417              		.loc 1 1691 5 discriminator 1 view .LVU1940
1691:Lib/AI_Runtime/Npu/ll_aton/ll_aton.c ****   }
 5418              		.loc 1 1691 34 discriminator 1 view .LVU1941
1694:Lib/AI_Runtime/Npu/ll_aton/ll_aton.c ****   t = ATON_CONVACC_DFORMAT_SET_FROUND(t, conf->rounding_f);
 5419              		.loc 1 1694 3 view .LVU1942
 5420              	.LVL613:
1695:Lib/AI_Runtime/Npu/ll_aton/ll_aton.c ****   t = ATON_CONVACC_DFORMAT_SET_FSAT(t, conf->saturation_f);
 5421              		.loc 1 1695 3 view .LVU1943
1696:Lib/AI_Runtime/Npu/ll_aton/ll_aton.c ****   t = ATON_CONVACC_DFORMAT_SET_FRNDMODE(t, conf->round_mode_f);
 5422              		.loc 1 1696 3 view .LVU1944
1697:Lib/AI_Runtime/Npu/ll_aton/ll_aton.c ****   t = ATON_CONVACC_DFORMAT_SET_FBYTES(t, conf->inbytes_f);
 5423              		.loc 1 1697 3 view .LVU1945
1698:Lib/AI_Runtime/Npu/ll_aton/ll_aton.c ****   t = ATON_CONVACC_DFORMAT_SET_FSHIFT(t, ATON_SHIFT(conf->shift_f));
 5424              		.loc 1 1698 3 view .LVU1946
1699:Lib/AI_Runtime/Npu/ll_aton/ll_aton.c **** 
 5425              		.loc 1 1699 3 view .LVU1947
ARM GAS  /tmp/ccgbPSBw.s 			page 182


1701:Lib/AI_Runtime/Npu/ll_aton/ll_aton.c ****   t = ATON_CONVACC_DFORMAT_SET_SAT(t, conf->saturation_o);
 5426              		.loc 1 1701 3 view .LVU1948
1702:Lib/AI_Runtime/Npu/ll_aton/ll_aton.c ****   t = ATON_CONVACC_DFORMAT_SET_ORNDMODE(t, (conf->relu_mode_o << 1) | conf->round_mode_o);
 5427              		.loc 1 1702 3 view .LVU1949
1703:Lib/AI_Runtime/Npu/ll_aton/ll_aton.c ****   t = ATON_CONVACC_DFORMAT_SET_OBYTES(t, conf->outbytes_o);
 5428              		.loc 1 1703 3 view .LVU1950
1704:Lib/AI_Runtime/Npu/ll_aton/ll_aton.c ****   t = ATON_CONVACC_DFORMAT_SET_OUTSHIFT(t, conf->shift_o); // shift right only
 5429              		.loc 1 1704 3 view .LVU1951
1699:Lib/AI_Runtime/Npu/ll_aton/ll_aton.c **** 
 5430              		.loc 1 1699 7 is_stmt 0 view .LVU1952
 5431 00dc 2379     		ldrb	r3, [r4, #4]	@ zero_extendqisi2
 5432              	.LVL614:
1701:Lib/AI_Runtime/Npu/ll_aton/ll_aton.c ****   t = ATON_CONVACC_DFORMAT_SET_SAT(t, conf->saturation_o);
 5433              		.loc 1 1701 7 view .LVU1953
 5434 00de 2678     		ldrb	r6, [r4]	@ zero_extendqisi2
1699:Lib/AI_Runtime/Npu/ll_aton/ll_aton.c **** 
 5435              		.loc 1 1699 7 view .LVU1954
 5436 00e0 1033     		adds	r3, r3, #16
 5437              	.LVL615:
1702:Lib/AI_Runtime/Npu/ll_aton/ll_aton.c ****   t = ATON_CONVACC_DFORMAT_SET_ORNDMODE(t, (conf->relu_mode_o << 1) | conf->round_mode_o);
 5438              		.loc 1 1702 7 view .LVU1955
 5439 00e2 B002     		lsls	r0, r6, #10
1699:Lib/AI_Runtime/Npu/ll_aton/ll_aton.c **** 
 5440              		.loc 1 1699 7 view .LVU1956
 5441 00e4 1B06     		lsls	r3, r3, #24
 5442              	.LVL616:
1699:Lib/AI_Runtime/Npu/ll_aton/ll_aton.c **** 
 5443              		.loc 1 1699 7 view .LVU1957
 5444 00e6 03F07C53 		and	r3, r3, #1056964608
1703:Lib/AI_Runtime/Npu/ll_aton/ll_aton.c ****   t = ATON_CONVACC_DFORMAT_SET_OBYTES(t, conf->outbytes_o);
 5445              		.loc 1 1703 5 view .LVU1958
 5446 00ea 00F44030 		and	r0, r0, #196608
 5447 00ee 1843     		orrs	r0, r0, r3
1703:Lib/AI_Runtime/Npu/ll_aton/ll_aton.c ****   t = ATON_CONVACC_DFORMAT_SET_OBYTES(t, conf->outbytes_o);
 5448              		.loc 1 1703 7 view .LVU1959
 5449 00f0 02F00303 		and	r3, r2, #3
1703:Lib/AI_Runtime/Npu/ll_aton/ll_aton.c ****   t = ATON_CONVACC_DFORMAT_SET_OBYTES(t, conf->outbytes_o);
 5450              		.loc 1 1703 5 view .LVU1960
 5451 00f4 40EA8330 		orr	r0, r0, r3, lsl #14
1698:Lib/AI_Runtime/Npu/ll_aton/ll_aton.c ****   t = ATON_CONVACC_DFORMAT_SET_FSHIFT(t, ATON_SHIFT(conf->shift_f));
 5452              		.loc 1 1698 7 view .LVU1961
 5453 00f8 C6F30113 		ubfx	r3, r6, #4, #2
1695:Lib/AI_Runtime/Npu/ll_aton/ll_aton.c ****   t = ATON_CONVACC_DFORMAT_SET_FSAT(t, conf->saturation_f);
 5454              		.loc 1 1695 7 view .LVU1962
 5455 00fc 06F00107 		and	r7, r6, #1
1698:Lib/AI_Runtime/Npu/ll_aton/ll_aton.c ****   t = ATON_CONVACC_DFORMAT_SET_FSHIFT(t, ATON_SHIFT(conf->shift_f));
 5456              		.loc 1 1698 7 view .LVU1963
 5457 0100 9B05     		lsls	r3, r3, #22
1699:Lib/AI_Runtime/Npu/ll_aton/ll_aton.c **** 
 5458              		.loc 1 1699 7 view .LVU1964
 5459 0102 43EA8773 		orr	r3, r3, r7, lsl #30
1696:Lib/AI_Runtime/Npu/ll_aton/ll_aton.c ****   t = ATON_CONVACC_DFORMAT_SET_FRNDMODE(t, conf->round_mode_f);
 5460              		.loc 1 1696 7 view .LVU1965
 5461 0106 C6F34007 		ubfx	r7, r6, #1, #1
1699:Lib/AI_Runtime/Npu/ll_aton/ll_aton.c **** 
 5462              		.loc 1 1699 7 view .LVU1966
 5463 010a 43EAC773 		orr	r3, r3, r7, lsl #31
ARM GAS  /tmp/ccgbPSBw.s 			page 183


1697:Lib/AI_Runtime/Npu/ll_aton/ll_aton.c ****   t = ATON_CONVACC_DFORMAT_SET_FBYTES(t, conf->inbytes_f);
 5464              		.loc 1 1697 7 view .LVU1967
 5465 010e C6F38106 		ubfx	r6, r6, #2, #2
1699:Lib/AI_Runtime/Npu/ll_aton/ll_aton.c **** 
 5466              		.loc 1 1699 7 view .LVU1968
 5467 0112 43EA8613 		orr	r3, r3, r6, lsl #6
1703:Lib/AI_Runtime/Npu/ll_aton/ll_aton.c ****   t = ATON_CONVACC_DFORMAT_SET_OBYTES(t, conf->outbytes_o);
 5468              		.loc 1 1703 5 view .LVU1969
 5469 0116 0343     		orrs	r3, r3, r0
 5470              	.LVL617:
1705:Lib/AI_Runtime/Npu/ll_aton/ll_aton.c ****   t = ATON_CONVACC_DFORMAT_SET_RAW(t, conf->raw_o);
 5471              		.loc 1 1705 3 is_stmt 1 view .LVU1970
1704:Lib/AI_Runtime/Npu/ll_aton/ll_aton.c ****   t = ATON_CONVACC_DFORMAT_SET_OUTSHIFT(t, conf->shift_o); // shift right only
 5472              		.loc 1 1704 7 is_stmt 0 view .LVU1971
 5473 0118 C2F38102 		ubfx	r2, r2, #2, #2
1704:Lib/AI_Runtime/Npu/ll_aton/ll_aton.c ****   t = ATON_CONVACC_DFORMAT_SET_OUTSHIFT(t, conf->shift_o); // shift right only
 5474              		.loc 1 1704 5 view .LVU1972
 5475 011c 43EA0253 		orr	r3, r3, r2, lsl #20
 5476              	.LVL618:
1706:Lib/AI_Runtime/Npu/ll_aton/ll_aton.c **** 
 5477              		.loc 1 1706 3 is_stmt 1 view .LVU1973
1708:Lib/AI_Runtime/Npu/ll_aton/ll_aton.c ****   ATON_CONVACC_DFORMAT_SET(id, t);
 5478              		.loc 1 1708 3 view .LVU1974
1705:Lib/AI_Runtime/Npu/ll_aton/ll_aton.c ****   t = ATON_CONVACC_DFORMAT_SET_RAW(t, conf->raw_o);
 5479              		.loc 1 1705 7 is_stmt 0 view .LVU1975
 5480 0120 A279     		ldrb	r2, [r4, #6]	@ zero_extendqisi2
 5481              	.LVL619:
1706:Lib/AI_Runtime/Npu/ll_aton/ll_aton.c **** 
 5482              		.loc 1 1706 7 view .LVU1976
 5483 0122 C5F38000 		ubfx	r0, r5, #2, #1
1705:Lib/AI_Runtime/Npu/ll_aton/ll_aton.c ****   t = ATON_CONVACC_DFORMAT_SET_RAW(t, conf->raw_o);
 5484              		.loc 1 1705 7 view .LVU1977
 5485 0126 1202     		lsls	r2, r2, #8
 5486              	.LVL620:
1705:Lib/AI_Runtime/Npu/ll_aton/ll_aton.c ****   t = ATON_CONVACC_DFORMAT_SET_RAW(t, conf->raw_o);
 5487              		.loc 1 1705 7 view .LVU1978
 5488 0128 02F47C52 		and	r2, r2, #16128
1706:Lib/AI_Runtime/Npu/ll_aton/ll_aton.c **** 
 5489              		.loc 1 1706 5 view .LVU1979
 5490 012c 42EA8042 		orr	r2, r2, r0, lsl #18
1708:Lib/AI_Runtime/Npu/ll_aton/ll_aton.c ****   ATON_CONVACC_DFORMAT_SET(id, t);
 5491              		.loc 1 1708 7 view .LVU1980
 5492 0130 1343     		orrs	r3, r3, r2
 5493              	.LVL621:
1708:Lib/AI_Runtime/Npu/ll_aton/ll_aton.c ****   ATON_CONVACC_DFORMAT_SET(id, t);
 5494              		.loc 1 1708 7 view .LVU1981
 5495 0132 6279     		ldrb	r2, [r4, #5]	@ zero_extendqisi2
1712:Lib/AI_Runtime/Npu/ll_aton/ll_aton.c ****   t = ATON_CONVACC_FFORMAT_SET_HEIGHT(t, conf->fHeight);
 5496              		.loc 1 1712 7 view .LVU1982
 5497 0134 A08A     		ldrh	r0, [r4, #20]
1708:Lib/AI_Runtime/Npu/ll_aton/ll_aton.c ****   ATON_CONVACC_DFORMAT_SET(id, t);
 5498              		.loc 1 1708 7 view .LVU1983
 5499 0136 02F03F02 		and	r2, r2, #63
1708:Lib/AI_Runtime/Npu/ll_aton/ll_aton.c ****   ATON_CONVACC_DFORMAT_SET(id, t);
 5500              		.loc 1 1708 5 view .LVU1984
 5501 013a 1343     		orrs	r3, r3, r2
 5502              	.LVL622:
ARM GAS  /tmp/ccgbPSBw.s 			page 184


1709:Lib/AI_Runtime/Npu/ll_aton/ll_aton.c **** 
 5503              		.loc 1 1709 3 is_stmt 1 view .LVU1985
1709:Lib/AI_Runtime/Npu/ll_aton/ll_aton.c **** 
 5504              		.loc 1 1709 3 view .LVU1986
 5505 013c 0B61     		str	r3, [r1, #16]
1709:Lib/AI_Runtime/Npu/ll_aton/ll_aton.c **** 
 5506              		.loc 1 1709 3 view .LVU1987
1709:Lib/AI_Runtime/Npu/ll_aton/ll_aton.c **** 
 5507              		.loc 1 1709 34 view .LVU1988
1711:Lib/AI_Runtime/Npu/ll_aton/ll_aton.c ****   t = ATON_CONVACC_FFORMAT_SET_WIDTH(t, conf->fWidth * conf->batchDepth);
 5508              		.loc 1 1711 3 view .LVU1989
 5509              	.LVL623:
1712:Lib/AI_Runtime/Npu/ll_aton/ll_aton.c ****   t = ATON_CONVACC_FFORMAT_SET_HEIGHT(t, conf->fHeight);
 5510              		.loc 1 1712 3 view .LVU1990
1713:Lib/AI_Runtime/Npu/ll_aton/ll_aton.c ****   ATON_CONVACC_FFORMAT_SET(id, t);
 5511              		.loc 1 1713 3 view .LVU1991
1712:Lib/AI_Runtime/Npu/ll_aton/ll_aton.c ****   t = ATON_CONVACC_FFORMAT_SET_HEIGHT(t, conf->fHeight);
 5512              		.loc 1 1712 7 is_stmt 0 view .LVU1992
 5513 013e A368     		ldr	r3, [r4, #8]
1713:Lib/AI_Runtime/Npu/ll_aton/ll_aton.c ****   ATON_CONVACC_FFORMAT_SET(id, t);
 5514              		.loc 1 1713 7 view .LVU1993
 5515 0140 E268     		ldr	r2, [r4, #12]
1712:Lib/AI_Runtime/Npu/ll_aton/ll_aton.c ****   t = ATON_CONVACC_FFORMAT_SET_HEIGHT(t, conf->fHeight);
 5516              		.loc 1 1712 7 view .LVU1994
 5517 0142 4343     		muls	r3, r0, r3
 5518 0144 9BB2     		uxth	r3, r3
1713:Lib/AI_Runtime/Npu/ll_aton/ll_aton.c ****   ATON_CONVACC_FFORMAT_SET(id, t);
 5519              		.loc 1 1713 5 view .LVU1995
 5520 0146 43EA0243 		orr	r3, r3, r2, lsl #16
 5521              	.LVL624:
1714:Lib/AI_Runtime/Npu/ll_aton/ll_aton.c **** 
 5522              		.loc 1 1714 3 is_stmt 1 view .LVU1996
1714:Lib/AI_Runtime/Npu/ll_aton/ll_aton.c **** 
 5523              		.loc 1 1714 3 view .LVU1997
 5524 014a 4B61     		str	r3, [r1, #20]
1714:Lib/AI_Runtime/Npu/ll_aton/ll_aton.c **** 
 5525              		.loc 1 1714 3 view .LVU1998
1714:Lib/AI_Runtime/Npu/ll_aton/ll_aton.c **** 
 5526              		.loc 1 1714 34 view .LVU1999
1716:Lib/AI_Runtime/Npu/ll_aton/ll_aton.c ****   t = ATON_CONVACC_KFORMAT_SET_WIDTH(t, conf->kernelWidth);
 5527              		.loc 1 1716 3 view .LVU2000
 5528              	.LVL625:
1717:Lib/AI_Runtime/Npu/ll_aton/ll_aton.c ****   t = ATON_CONVACC_KFORMAT_SET_HEIGHT(t, conf->kernelHeight);
 5529              		.loc 1 1717 3 view .LVU2001
1720:Lib/AI_Runtime/Npu/ll_aton/ll_aton.c ****   ATON_CONVACC_KFORMAT_SET(id, t);
 5530              		.loc 1 1720 5 is_stmt 0 view .LVU2002
 5531 014c 278A     		ldrh	r7, [r4, #16]
1719:Lib/AI_Runtime/Npu/ll_aton/ll_aton.c ****   t = ATON_CONVACC_KFORMAT_SET_NR(t, conf->nKernels);
 5532              		.loc 1 1719 7 view .LVU2003
 5533 014e 0304     		lsls	r3, r0, #16
 5534 0150 03F47F03 		and	r3, r3, #16711680
1718:Lib/AI_Runtime/Npu/ll_aton/ll_aton.c ****   t = ATON_CONVACC_KFORMAT_SET_BTCDEPTH(t, conf->batchDepth);
 5535              		.loc 1 1718 7 view .LVU2004
 5536 0154 627C     		ldrb	r2, [r4, #17]	@ zero_extendqisi2
1727:Lib/AI_Runtime/Npu/ll_aton/ll_aton.c ****   int p_bot = (conf->bot_padding < conf->kernelHeight ? conf->bot_padding : conf->kernelHeight - 1)
 5537              		.loc 1 1727 20 view .LVU2005
 5538 0156 B4F81C80 		ldrh	r8, [r4, #28]
ARM GAS  /tmp/ccgbPSBw.s 			page 185


1720:Lib/AI_Runtime/Npu/ll_aton/ll_aton.c ****   ATON_CONVACC_KFORMAT_SET(id, t);
 5539              		.loc 1 1720 5 view .LVU2006
 5540 015a 3B43     		orrs	r3, r3, r7
1720:Lib/AI_Runtime/Npu/ll_aton/ll_aton.c ****   ATON_CONVACC_KFORMAT_SET(id, t);
 5541              		.loc 1 1720 7 view .LVU2007
 5542 015c A77C     		ldrb	r7, [r4, #18]	@ zero_extendqisi2
1728:Lib/AI_Runtime/Npu/ll_aton/ll_aton.c ****   int p_left = (conf->left_padding < conf->kernelWidth ? conf->left_padding : conf->kernelWidth - 1
 5543              		.loc 1 1728 20 view .LVU2008
 5544 015e B4F81EA0 		ldrh	r10, [r4, #30]
1717:Lib/AI_Runtime/Npu/ll_aton/ll_aton.c ****   t = ATON_CONVACC_KFORMAT_SET_HEIGHT(t, conf->kernelHeight);
 5545              		.loc 1 1717 7 view .LVU2009
 5546 0162 267C     		ldrb	r6, [r4, #16]	@ zero_extendqisi2
 5547              	.LVL626:
1718:Lib/AI_Runtime/Npu/ll_aton/ll_aton.c ****   t = ATON_CONVACC_KFORMAT_SET_BTCDEPTH(t, conf->batchDepth);
 5548              		.loc 1 1718 3 is_stmt 1 view .LVU2010
1719:Lib/AI_Runtime/Npu/ll_aton/ll_aton.c ****   t = ATON_CONVACC_KFORMAT_SET_NR(t, conf->nKernels);
 5549              		.loc 1 1719 3 view .LVU2011
1720:Lib/AI_Runtime/Npu/ll_aton/ll_aton.c ****   ATON_CONVACC_KFORMAT_SET(id, t);
 5550              		.loc 1 1720 3 view .LVU2012
1727:Lib/AI_Runtime/Npu/ll_aton/ll_aton.c ****   int p_bot = (conf->bot_padding < conf->kernelHeight ? conf->bot_padding : conf->kernelHeight - 1)
 5551              		.loc 1 1727 75 is_stmt 0 discriminator 2 view .LVU2013
 5552 0164 9045     		cmp	r8, r2
1720:Lib/AI_Runtime/Npu/ll_aton/ll_aton.c ****   ATON_CONVACC_KFORMAT_SET(id, t);
 5553              		.loc 1 1720 5 view .LVU2014
 5554 0166 43EA0763 		orr	r3, r3, r7, lsl #24
 5555              	.LVL627:
1721:Lib/AI_Runtime/Npu/ll_aton/ll_aton.c **** 
 5556              		.loc 1 1721 3 is_stmt 1 view .LVU2015
1721:Lib/AI_Runtime/Npu/ll_aton/ll_aton.c **** 
 5557              		.loc 1 1721 3 view .LVU2016
1729:Lib/AI_Runtime/Npu/ll_aton/ll_aton.c ****   int p_right = (conf->right_padding < conf->kernelWidth ? conf->right_padding : conf->kernelWidth 
 5558              		.loc 1 1729 21 is_stmt 0 view .LVU2017
 5559 016a B4F81890 		ldrh	r9, [r4, #24]
1727:Lib/AI_Runtime/Npu/ll_aton/ll_aton.c ****   int p_bot = (conf->bot_padding < conf->kernelHeight ? conf->bot_padding : conf->kernelHeight - 1)
 5560              		.loc 1 1727 75 discriminator 2 view .LVU2018
 5561 016e 02F1FF37 		add	r7, r2, #-1
 5562 0172 2CBF     		ite	cs
 5563 0174 BC46     		movcs	ip, r7
 5564 0176 C446     		movcc	ip, r8
1728:Lib/AI_Runtime/Npu/ll_aton/ll_aton.c ****   int p_left = (conf->left_padding < conf->kernelWidth ? conf->left_padding : conf->kernelWidth - 1
 5565              		.loc 1 1728 75 discriminator 2 view .LVU2019
 5566 0178 5245     		cmp	r2, r10
1730:Lib/AI_Runtime/Npu/ll_aton/ll_aton.c **** 
 5567              		.loc 1 1730 22 view .LVU2020
 5568 017a 628B     		ldrh	r2, [r4, #26]
1728:Lib/AI_Runtime/Npu/ll_aton/ll_aton.c ****   int p_left = (conf->left_padding < conf->kernelWidth ? conf->left_padding : conf->kernelWidth - 1
 5569              		.loc 1 1728 75 discriminator 2 view .LVU2021
 5570 017c 88BF     		it	hi
 5571 017e 5746     		movhi	r7, r10
1721:Lib/AI_Runtime/Npu/ll_aton/ll_aton.c **** 
 5572              		.loc 1 1721 3 view .LVU2022
 5573 0180 8B60     		str	r3, [r1, #8]
1721:Lib/AI_Runtime/Npu/ll_aton/ll_aton.c **** 
 5574              		.loc 1 1721 3 is_stmt 1 view .LVU2023
1721:Lib/AI_Runtime/Npu/ll_aton/ll_aton.c **** 
 5575              		.loc 1 1721 34 view .LVU2024
1727:Lib/AI_Runtime/Npu/ll_aton/ll_aton.c ****   int p_bot = (conf->bot_padding < conf->kernelHeight ? conf->bot_padding : conf->kernelHeight - 1)
ARM GAS  /tmp/ccgbPSBw.s 			page 186


 5576              		.loc 1 1727 3 view .LVU2025
 5577              	.LVL628:
1728:Lib/AI_Runtime/Npu/ll_aton/ll_aton.c ****   int p_left = (conf->left_padding < conf->kernelWidth ? conf->left_padding : conf->kernelWidth - 1
 5578              		.loc 1 1728 3 view .LVU2026
1729:Lib/AI_Runtime/Npu/ll_aton/ll_aton.c ****   int p_right = (conf->right_padding < conf->kernelWidth ? conf->right_padding : conf->kernelWidth 
 5579              		.loc 1 1729 3 view .LVU2027
1729:Lib/AI_Runtime/Npu/ll_aton/ll_aton.c ****   int p_right = (conf->right_padding < conf->kernelWidth ? conf->right_padding : conf->kernelWidth 
 5580              		.loc 1 1729 77 is_stmt 0 discriminator 2 view .LVU2028
 5581 0182 B145     		cmp	r9, r6
 5582 0184 06F1FF33 		add	r3, r6, #-1
 5583              	.LVL629:
1729:Lib/AI_Runtime/Npu/ll_aton/ll_aton.c ****   int p_right = (conf->right_padding < conf->kernelWidth ? conf->right_padding : conf->kernelWidth 
 5584              		.loc 1 1729 77 discriminator 2 view .LVU2029
 5585 0188 2CBF     		ite	cs
 5586 018a 9E46     		movcs	lr, r3
 5587 018c CE46     		movcc	lr, r9
 5588              	.LVL630:
1730:Lib/AI_Runtime/Npu/ll_aton/ll_aton.c **** 
 5589              		.loc 1 1730 3 is_stmt 1 view .LVU2030
1730:Lib/AI_Runtime/Npu/ll_aton/ll_aton.c **** 
 5590              		.loc 1 1730 80 is_stmt 0 discriminator 2 view .LVU2031
 5591 018e 9642     		cmp	r6, r2
 5592 0190 88BF     		it	hi
 5593 0192 1346     		movhi	r3, r2
 5594              	.LVL631:
1732:Lib/AI_Runtime/Npu/ll_aton/ll_aton.c ****   p_bot = (p_bot <= 2 ? p_bot : 2);
 5595              		.loc 1 1732 3 is_stmt 1 view .LVU2032
1733:Lib/AI_Runtime/Npu/ll_aton/ll_aton.c ****   p_left = (p_left <= 2 ? p_left : 2);
 5596              		.loc 1 1733 3 view .LVU2033
1734:Lib/AI_Runtime/Npu/ll_aton/ll_aton.c ****   p_right = (p_right <= 2 ? p_right : 2);
 5597              		.loc 1 1734 3 view .LVU2034
1735:Lib/AI_Runtime/Npu/ll_aton/ll_aton.c ****   // LL_ATON_PRINTF("p_t=%d p_b=%d p_l=%d p_r=%d\n",p_top,p_bot,p_left,p_right);
 5598              		.loc 1 1735 3 view .LVU2035
1741:Lib/AI_Runtime/Npu/ll_aton/ll_aton.c ****     p_top = p_bot = p_left = p_right = 0;
 5599              		.loc 1 1741 3 view .LVU2036
1741:Lib/AI_Runtime/Npu/ll_aton/ll_aton.c ****     p_top = p_bot = p_left = p_right = 0;
 5600              		.loc 1 1741 6 is_stmt 0 view .LVU2037
 5601 0194 EE06     		lsls	r6, r5, #27
 5602 0196 00F18380 		bmi	.L390
1732:Lib/AI_Runtime/Npu/ll_aton/ll_aton.c ****   p_bot = (p_bot <= 2 ? p_bot : 2);
 5603              		.loc 1 1732 9 view .LVU2038
 5604 019a BCF1020F 		cmp	ip, #2
 5605 019e A8BF     		it	ge
 5606 01a0 4FF0020C 		movge	ip, #2
 5607              	.LVL632:
1733:Lib/AI_Runtime/Npu/ll_aton/ll_aton.c ****   p_left = (p_left <= 2 ? p_left : 2);
 5608              		.loc 1 1733 9 view .LVU2039
 5609 01a4 022F     		cmp	r7, #2
 5610 01a6 A8BF     		it	ge
 5611 01a8 0227     		movge	r7, #2
 5612              	.LVL633:
1734:Lib/AI_Runtime/Npu/ll_aton/ll_aton.c ****   p_right = (p_right <= 2 ? p_right : 2);
 5613              		.loc 1 1734 10 view .LVU2040
 5614 01aa BEF1020F 		cmp	lr, #2
 5615 01ae A8BF     		it	ge
 5616 01b0 4FF0020E 		movge	lr, #2
 5617              	.LVL634:
ARM GAS  /tmp/ccgbPSBw.s 			page 187


1735:Lib/AI_Runtime/Npu/ll_aton/ll_aton.c ****   // LL_ATON_PRINTF("p_t=%d p_b=%d p_l=%d p_r=%d\n",p_top,p_bot,p_left,p_right);
 5618              		.loc 1 1735 11 view .LVU2041
 5619 01b4 022B     		cmp	r3, #2
 5620 01b6 A8BF     		it	ge
 5621 01b8 0223     		movge	r3, #2
 5622              	.LVL635:
 5623              	.L374:
1747:Lib/AI_Runtime/Npu/ll_aton/ll_aton.c ****     p_top = p_bot = p_left = p_right = 0;
 5624              		.loc 1 1747 3 is_stmt 1 view .LVU2042
1747:Lib/AI_Runtime/Npu/ll_aton/ll_aton.c ****     p_top = p_bot = p_left = p_right = 0;
 5625              		.loc 1 1747 6 is_stmt 0 view .LVU2043
 5626 01ba AE06     		lsls	r6, r5, #26
1748:Lib/AI_Runtime/Npu/ll_aton/ll_aton.c **** #endif
 5627              		.loc 1 1748 38 view .LVU2044
 5628 01bc 48BF     		it	mi
 5629 01be 0023     		movmi	r3, #0
 5630              	.LVL636:
1753:Lib/AI_Runtime/Npu/ll_aton/ll_aton.c ****     p_top = p_bot = p_left = p_right = 0;
 5631              		.loc 1 1753 11 view .LVU2045
 5632 01c0 B4F93860 		ldrsh	r6, [r4, #56]
1748:Lib/AI_Runtime/Npu/ll_aton/ll_aton.c **** #endif
 5633              		.loc 1 1748 28 view .LVU2046
 5634 01c4 42BF     		ittt	mi
 5635 01c6 9E46     		movmi	lr, r3
 5636              	.LVL637:
1748:Lib/AI_Runtime/Npu/ll_aton/ll_aton.c **** #endif
 5637              		.loc 1 1748 19 view .LVU2047
 5638 01c8 1F46     		movmi	r7, r3
 5639              	.LVL638:
1748:Lib/AI_Runtime/Npu/ll_aton/ll_aton.c **** #endif
 5640              		.loc 1 1748 11 view .LVU2048
 5641 01ca 9C46     		movmi	ip, r3
 5642              	.LVL639:
1753:Lib/AI_Runtime/Npu/ll_aton/ll_aton.c ****     p_top = p_bot = p_left = p_right = 0;
 5643              		.loc 1 1753 3 is_stmt 1 view .LVU2049
1753:Lib/AI_Runtime/Npu/ll_aton/ll_aton.c ****     p_top = p_bot = p_left = p_right = 0;
 5644              		.loc 1 1753 6 is_stmt 0 view .LVU2050
 5645 01cc 1EB1     		cbz	r6, .L376
1754:Lib/AI_Runtime/Npu/ll_aton/ll_aton.c **** #endif
 5646              		.loc 1 1754 38 view .LVU2051
 5647 01ce 0023     		movs	r3, #0
 5648              	.LVL640:
1754:Lib/AI_Runtime/Npu/ll_aton/ll_aton.c **** #endif
 5649              		.loc 1 1754 28 view .LVU2052
 5650 01d0 9E46     		mov	lr, r3
 5651              	.LVL641:
1754:Lib/AI_Runtime/Npu/ll_aton/ll_aton.c **** #endif
 5652              		.loc 1 1754 19 view .LVU2053
 5653 01d2 1F46     		mov	r7, r3
 5654              	.LVL642:
1754:Lib/AI_Runtime/Npu/ll_aton/ll_aton.c **** #endif
 5655              		.loc 1 1754 11 view .LVU2054
 5656 01d4 9C46     		mov	ip, r3
 5657              	.LVL643:
 5658              	.L376:
1757:Lib/AI_Runtime/Npu/ll_aton/ll_aton.c ****   int z_bot = (conf->bot_padding - p_bot);
 5659              		.loc 1 1757 3 is_stmt 1 view .LVU2055
ARM GAS  /tmp/ccgbPSBw.s 			page 188


1758:Lib/AI_Runtime/Npu/ll_aton/ll_aton.c ****   int z_left = (conf->left_padding - p_left);
 5660              		.loc 1 1758 3 view .LVU2056
1759:Lib/AI_Runtime/Npu/ll_aton/ll_aton.c ****   int z_right = (conf->right_padding - p_right);
 5661              		.loc 1 1759 3 view .LVU2057
1760:Lib/AI_Runtime/Npu/ll_aton/ll_aton.c ****   // LL_ATON_PRINTF("z_t=%d z_b=%d z_l=%d z_r=%d\n",z_top,z_bot,z_left*conf->batchDepth,z_right*con
 5662              		.loc 1 1760 3 view .LVU2058
1763:Lib/AI_Runtime/Npu/ll_aton/ll_aton.c ****   t = ATON_CONVACC_ZFRAME_SET_TOP(t, z_top);
 5663              		.loc 1 1763 3 view .LVU2059
1764:Lib/AI_Runtime/Npu/ll_aton/ll_aton.c ****   t = ATON_CONVACC_ZFRAME_SET_BOTTOM(t, z_bot);
 5664              		.loc 1 1764 3 view .LVU2060
1765:Lib/AI_Runtime/Npu/ll_aton/ll_aton.c ****   t = ATON_CONVACC_ZFRAME_SET_LEFT(t, z_left * conf->batchDepth);
 5665              		.loc 1 1765 3 view .LVU2061
1766:Lib/AI_Runtime/Npu/ll_aton/ll_aton.c ****   t = ATON_CONVACC_ZFRAME_SET_RIGHT(t, z_right * conf->batchDepth);
 5666              		.loc 1 1766 3 view .LVU2062
1759:Lib/AI_Runtime/Npu/ll_aton/ll_aton.c ****   int z_right = (conf->right_padding - p_right);
 5667              		.loc 1 1759 7 is_stmt 0 view .LVU2063
 5668 01d6 A9EB0E09 		sub	r9, r9, lr
 5669              	.LVL644:
1766:Lib/AI_Runtime/Npu/ll_aton/ll_aton.c ****   t = ATON_CONVACC_ZFRAME_SET_RIGHT(t, z_right * conf->batchDepth);
 5670              		.loc 1 1766 7 view .LVU2064
 5671 01da 00FB09F9 		mul	r9, r0, r9
 5672              	.LVL645:
1760:Lib/AI_Runtime/Npu/ll_aton/ll_aton.c ****   // LL_ATON_PRINTF("z_t=%d z_b=%d z_l=%d z_r=%d\n",z_top,z_bot,z_left*conf->batchDepth,z_right*con
 5673              		.loc 1 1760 7 view .LVU2065
 5674 01de D21A     		subs	r2, r2, r3
 5675              	.LVL646:
1767:Lib/AI_Runtime/Npu/ll_aton/ll_aton.c ****   ATON_CONVACC_ZFRAME_SET(id, t);
 5676              		.loc 1 1767 7 view .LVU2066
 5677 01e0 4243     		muls	r2, r0, r2
 5678              	.LVL647:
1757:Lib/AI_Runtime/Npu/ll_aton/ll_aton.c ****   int z_bot = (conf->bot_padding - p_bot);
 5679              		.loc 1 1757 7 view .LVU2067
 5680 01e2 A8EB0C08 		sub	r8, r8, ip
 5681              	.LVL648:
1764:Lib/AI_Runtime/Npu/ll_aton/ll_aton.c ****   t = ATON_CONVACC_ZFRAME_SET_BOTTOM(t, z_bot);
 5682              		.loc 1 1764 7 view .LVU2068
 5683 01e6 4FEA0848 		lsl	r8, r8, #16
 5684              	.LVL649:
1764:Lib/AI_Runtime/Npu/ll_aton/ll_aton.c ****   t = ATON_CONVACC_ZFRAME_SET_BOTTOM(t, z_bot);
 5685              		.loc 1 1764 7 view .LVU2069
 5686 01ea 08F47F08 		and	r8, r8, #16711680
1766:Lib/AI_Runtime/Npu/ll_aton/ll_aton.c ****   t = ATON_CONVACC_ZFRAME_SET_RIGHT(t, z_right * conf->batchDepth);
 5687              		.loc 1 1766 7 view .LVU2070
 5688 01ee 5FFA89F9 		uxtb	r9, r9
1758:Lib/AI_Runtime/Npu/ll_aton/ll_aton.c ****   int z_left = (conf->left_padding - p_left);
 5689              		.loc 1 1758 7 view .LVU2071
 5690 01f2 AAEB070A 		sub	r10, r10, r7
 5691              	.LVL650:
1766:Lib/AI_Runtime/Npu/ll_aton/ll_aton.c ****   t = ATON_CONVACC_ZFRAME_SET_RIGHT(t, z_right * conf->batchDepth);
 5692              		.loc 1 1766 5 view .LVU2072
 5693 01f6 48EA0908 		orr	r8, r8, r9
1767:Lib/AI_Runtime/Npu/ll_aton/ll_aton.c ****   ATON_CONVACC_ZFRAME_SET(id, t);
 5694              		.loc 1 1767 7 view .LVU2073
 5695 01fa 1202     		lsls	r2, r2, #8
1766:Lib/AI_Runtime/Npu/ll_aton/ll_aton.c ****   t = ATON_CONVACC_ZFRAME_SET_RIGHT(t, z_right * conf->batchDepth);
 5696              		.loc 1 1766 5 view .LVU2074
 5697 01fc 48EA0A68 		orr	r8, r8, r10, lsl #24
ARM GAS  /tmp/ccgbPSBw.s 			page 189


 5698              	.LVL651:
1767:Lib/AI_Runtime/Npu/ll_aton/ll_aton.c ****   ATON_CONVACC_ZFRAME_SET(id, t);
 5699              		.loc 1 1767 3 is_stmt 1 view .LVU2075
1767:Lib/AI_Runtime/Npu/ll_aton/ll_aton.c ****   ATON_CONVACC_ZFRAME_SET(id, t);
 5700              		.loc 1 1767 7 is_stmt 0 view .LVU2076
 5701 0200 92B2     		uxth	r2, r2
1767:Lib/AI_Runtime/Npu/ll_aton/ll_aton.c ****   ATON_CONVACC_ZFRAME_SET(id, t);
 5702              		.loc 1 1767 5 view .LVU2077
 5703 0202 42EA0802 		orr	r2, r2, r8
 5704              	.LVL652:
1768:Lib/AI_Runtime/Npu/ll_aton/ll_aton.c **** 
 5705              		.loc 1 1768 3 is_stmt 1 view .LVU2078
1768:Lib/AI_Runtime/Npu/ll_aton/ll_aton.c **** 
 5706              		.loc 1 1768 3 view .LVU2079
 5707 0206 8A62     		str	r2, [r1, #40]
1768:Lib/AI_Runtime/Npu/ll_aton/ll_aton.c **** 
 5708              		.loc 1 1768 3 view .LVU2080
1768:Lib/AI_Runtime/Npu/ll_aton/ll_aton.c **** 
 5709              		.loc 1 1768 33 view .LVU2081
1770:Lib/AI_Runtime/Npu/ll_aton/ll_aton.c ****   t = ATON_CONVACC_SAMPLE_SET_TPAD(t, p_top);
 5710              		.loc 1 1770 3 view .LVU2082
 5711              	.LVL653:
1771:Lib/AI_Runtime/Npu/ll_aton/ll_aton.c ****   t = ATON_CONVACC_SAMPLE_SET_BPAD(t, p_bot);
 5712              		.loc 1 1771 3 view .LVU2083
1772:Lib/AI_Runtime/Npu/ll_aton/ll_aton.c ****   t = ATON_CONVACC_SAMPLE_SET_LPAD(t, p_left);
 5713              		.loc 1 1772 3 view .LVU2084
1773:Lib/AI_Runtime/Npu/ll_aton/ll_aton.c ****   t = ATON_CONVACC_SAMPLE_SET_RPAD(t, p_right);
 5714              		.loc 1 1773 3 view .LVU2085
1774:Lib/AI_Runtime/Npu/ll_aton/ll_aton.c ****   t = ATON_CONVACC_SAMPLE_SET_HSTRD(t, conf->hstride);
 5715              		.loc 1 1774 3 view .LVU2086
1775:Lib/AI_Runtime/Npu/ll_aton/ll_aton.c ****   t = ATON_CONVACC_SAMPLE_SET_VSTRD(t, conf->vstride);
 5716              		.loc 1 1775 3 view .LVU2087
1776:Lib/AI_Runtime/Npu/ll_aton/ll_aton.c **** #if defined(ATON_CONVACC_SAMPLE_SET_FSTATCNT)
 5717              		.loc 1 1776 3 view .LVU2088
1775:Lib/AI_Runtime/Npu/ll_aton/ll_aton.c ****   t = ATON_CONVACC_SAMPLE_SET_VSTRD(t, conf->vstride);
 5718              		.loc 1 1775 7 is_stmt 0 view .LVU2089
 5719 0208 A27D     		ldrb	r2, [r4, #22]	@ zero_extendqisi2
1774:Lib/AI_Runtime/Npu/ll_aton/ll_aton.c ****   t = ATON_CONVACC_SAMPLE_SET_HSTRD(t, conf->hstride);
 5720              		.loc 1 1774 7 view .LVU2090
 5721 020a 9B00     		lsls	r3, r3, #2
 5722              	.LVL654:
1775:Lib/AI_Runtime/Npu/ll_aton/ll_aton.c ****   t = ATON_CONVACC_SAMPLE_SET_VSTRD(t, conf->vstride);
 5723              		.loc 1 1775 7 view .LVU2091
 5724 020c 1202     		lsls	r2, r2, #8
 5725 020e 02F4E062 		and	r2, r2, #1792
1774:Lib/AI_Runtime/Npu/ll_aton/ll_aton.c ****   t = ATON_CONVACC_SAMPLE_SET_HSTRD(t, conf->hstride);
 5726              		.loc 1 1774 7 view .LVU2092
 5727 0212 03F00C03 		and	r3, r3, #12
1776:Lib/AI_Runtime/Npu/ll_aton/ll_aton.c **** #if defined(ATON_CONVACC_SAMPLE_SET_FSTATCNT)
 5728              		.loc 1 1776 5 view .LVU2093
 5729 0216 1343     		orrs	r3, r3, r2
1773:Lib/AI_Runtime/Npu/ll_aton/ll_aton.c ****   t = ATON_CONVACC_SAMPLE_SET_RPAD(t, p_right);
 5730              		.loc 1 1773 7 view .LVU2094
 5731 0218 0EF0030E 		and	lr, lr, #3
 5732              	.LVL655:
1776:Lib/AI_Runtime/Npu/ll_aton/ll_aton.c **** #if defined(ATON_CONVACC_SAMPLE_SET_FSTATCNT)
 5733              		.loc 1 1776 7 view .LVU2095
ARM GAS  /tmp/ccgbPSBw.s 			page 190


 5734 021c E27D     		ldrb	r2, [r4, #23]	@ zero_extendqisi2
1771:Lib/AI_Runtime/Npu/ll_aton/ll_aton.c ****   t = ATON_CONVACC_SAMPLE_SET_BPAD(t, p_bot);
 5735              		.loc 1 1771 7 view .LVU2096
 5736 021e 4FEA0C1C 		lsl	ip, ip, #4
 5737              	.LVL656:
1771:Lib/AI_Runtime/Npu/ll_aton/ll_aton.c ****   t = ATON_CONVACC_SAMPLE_SET_BPAD(t, p_bot);
 5738              		.loc 1 1771 7 view .LVU2097
 5739 0222 0CF0300C 		and	ip, ip, #48
1776:Lib/AI_Runtime/Npu/ll_aton/ll_aton.c **** #if defined(ATON_CONVACC_SAMPLE_SET_FSTATCNT)
 5740              		.loc 1 1776 5 view .LVU2098
 5741 0226 43EA0E03 		orr	r3, r3, lr
1772:Lib/AI_Runtime/Npu/ll_aton/ll_aton.c ****   t = ATON_CONVACC_SAMPLE_SET_LPAD(t, p_left);
 5742              		.loc 1 1772 7 view .LVU2099
 5743 022a BF01     		lsls	r7, r7, #6
 5744              	.LVL657:
1776:Lib/AI_Runtime/Npu/ll_aton/ll_aton.c **** #if defined(ATON_CONVACC_SAMPLE_SET_FSTATCNT)
 5745              		.loc 1 1776 5 view .LVU2100
 5746 022c 43EA0C03 		orr	r3, r3, ip
1772:Lib/AI_Runtime/Npu/ll_aton/ll_aton.c ****   t = ATON_CONVACC_SAMPLE_SET_LPAD(t, p_left);
 5747              		.loc 1 1772 7 view .LVU2101
 5748 0230 FFB2     		uxtb	r7, r7
1776:Lib/AI_Runtime/Npu/ll_aton/ll_aton.c **** #if defined(ATON_CONVACC_SAMPLE_SET_FSTATCNT)
 5749              		.loc 1 1776 7 view .LVU2102
 5750 0232 1203     		lsls	r2, r2, #12
 5751 0234 02F4E042 		and	r2, r2, #28672
1776:Lib/AI_Runtime/Npu/ll_aton/ll_aton.c **** #if defined(ATON_CONVACC_SAMPLE_SET_FSTATCNT)
 5752              		.loc 1 1776 5 view .LVU2103
 5753 0238 3B43     		orrs	r3, r3, r7
 5754 023a 1343     		orrs	r3, r3, r2
 5755              	.LVL658:
1778:Lib/AI_Runtime/Npu/ll_aton/ll_aton.c ****     t = ATON_CONVACC_SAMPLE_SET_FSTATCNT(t, conf->fstatcnt);
 5756              		.loc 1 1778 3 is_stmt 1 view .LVU2104
1778:Lib/AI_Runtime/Npu/ll_aton/ll_aton.c ****     t = ATON_CONVACC_SAMPLE_SET_FSTATCNT(t, conf->fstatcnt);
 5757              		.loc 1 1778 6 is_stmt 0 view .LVU2105
 5758 023c AA07     		lsls	r2, r5, #30
1779:Lib/AI_Runtime/Npu/ll_aton/ll_aton.c **** #endif
 5759              		.loc 1 1779 5 is_stmt 1 view .LVU2106
1779:Lib/AI_Runtime/Npu/ll_aton/ll_aton.c **** #endif
 5760              		.loc 1 1779 9 is_stmt 0 view .LVU2107
 5761 023e 48BF     		it	mi
 5762 0240 228D     		ldrhmi	r2, [r4, #40]
1786:Lib/AI_Runtime/Npu/ll_aton/ll_aton.c ****   if (conf->right_crop > 0)
 5763              		.loc 1 1786 7 view .LVU2108
 5764 0242 1E4F     		ldr	r7, .L408+4
1779:Lib/AI_Runtime/Npu/ll_aton/ll_aton.c **** #endif
 5765              		.loc 1 1779 7 view .LVU2109
 5766 0244 48BF     		it	mi
 5767 0246 43EA0243 		orrmi	r3, r3, r2, lsl #16
 5768              	.LVL659:
1781:Lib/AI_Runtime/Npu/ll_aton/ll_aton.c **** 
 5769              		.loc 1 1781 3 is_stmt 1 view .LVU2110
1781:Lib/AI_Runtime/Npu/ll_aton/ll_aton.c **** 
 5770              		.loc 1 1781 3 view .LVU2111
1785:Lib/AI_Runtime/Npu/ll_aton/ll_aton.c ****     t = ATON_CONVACC_FHCROP_SET_LEFT(t, conf->left_crop * conf->batchDepth);
 5771              		.loc 1 1785 11 is_stmt 0 view .LVU2112
 5772 024a 228C     		ldrh	r2, [r4, #32]
1781:Lib/AI_Runtime/Npu/ll_aton/ll_aton.c **** 
ARM GAS  /tmp/ccgbPSBw.s 			page 191


 5773              		.loc 1 1781 3 view .LVU2113
 5774 024c CB60     		str	r3, [r1, #12]
1781:Lib/AI_Runtime/Npu/ll_aton/ll_aton.c **** 
 5775              		.loc 1 1781 3 is_stmt 1 view .LVU2114
1781:Lib/AI_Runtime/Npu/ll_aton/ll_aton.c **** 
 5776              		.loc 1 1781 33 view .LVU2115
1784:Lib/AI_Runtime/Npu/ll_aton/ll_aton.c ****   if (conf->left_crop > 0)
 5777              		.loc 1 1784 3 view .LVU2116
 5778              	.LVL660:
1785:Lib/AI_Runtime/Npu/ll_aton/ll_aton.c ****     t = ATON_CONVACC_FHCROP_SET_LEFT(t, conf->left_crop * conf->batchDepth);
 5779              		.loc 1 1785 3 view .LVU2117
1786:Lib/AI_Runtime/Npu/ll_aton/ll_aton.c ****   if (conf->right_crop > 0)
 5780              		.loc 1 1786 7 is_stmt 0 view .LVU2118
 5781 024e 00FB02F3 		mul	r3, r0, r2
 5782 0252 6FEA0343 		mvn	r3, r3, lsl #16
 5783 0256 002A     		cmp	r2, #0
 5784 0258 6FEA1343 		mvn	r3, r3, lsr #16
 5785 025c 08BF     		it	eq
 5786 025e 3B46     		moveq	r3, r7
 5787              	.LVL661:
1787:Lib/AI_Runtime/Npu/ll_aton/ll_aton.c ****     t = ATON_CONVACC_FHCROP_SET_RIGHT(t, conf->right_crop * conf->batchDepth + (conf->batchDepth - 
 5788              		.loc 1 1787 3 is_stmt 1 view .LVU2119
1787:Lib/AI_Runtime/Npu/ll_aton/ll_aton.c ****     t = ATON_CONVACC_FHCROP_SET_RIGHT(t, conf->right_crop * conf->batchDepth + (conf->batchDepth - 
 5789              		.loc 1 1787 11 is_stmt 0 view .LVU2120
 5790 0260 B4F822C0 		ldrh	ip, [r4, #34]
1788:Lib/AI_Runtime/Npu/ll_aton/ll_aton.c ****   ATON_CONVACC_FHCROP_SET(id, t);
 5791              		.loc 1 1788 7 view .LVU2121
 5792 0264 451E     		subs	r5, r0, #1
 5793 0266 00FB0C50 		mla	r0, r0, ip, r5
 5794 026a 9AB2     		uxth	r2, r3
 5795 026c 42EA0042 		orr	r2, r2, r0, lsl #16
 5796 0270 BCF1000F 		cmp	ip, #0
 5797 0274 18BF     		it	ne
 5798 0276 1346     		movne	r3, r2
 5799              	.LVL662:
1789:Lib/AI_Runtime/Npu/ll_aton/ll_aton.c **** 
 5800              		.loc 1 1789 3 is_stmt 1 view .LVU2122
1789:Lib/AI_Runtime/Npu/ll_aton/ll_aton.c **** 
 5801              		.loc 1 1789 3 view .LVU2123
1794:Lib/AI_Runtime/Npu/ll_aton/ll_aton.c ****     t = ATON_CONVACC_FVCROP_SET_BOTTOM(t, conf->bot_crop);
 5802              		.loc 1 1794 6 is_stmt 0 view .LVU2124
 5803 0278 E08C     		ldrh	r0, [r4, #38]
1792:Lib/AI_Runtime/Npu/ll_aton/ll_aton.c ****     t = ATON_CONVACC_FVCROP_SET_TOP(t, conf->top_crop);
 5804              		.loc 1 1792 11 view .LVU2125
 5805 027a A28C     		ldrh	r2, [r4, #36]
1793:Lib/AI_Runtime/Npu/ll_aton/ll_aton.c ****   if (conf->bot_crop > 0)
 5806              		.loc 1 1793 7 view .LVU2126
 5807 027c 0028     		cmp	r0, #0
 5808 027e 42EA0702 		orr	r2, r2, r7
1789:Lib/AI_Runtime/Npu/ll_aton/ll_aton.c **** 
 5809              		.loc 1 1789 3 view .LVU2127
 5810 0282 8B61     		str	r3, [r1, #24]
1789:Lib/AI_Runtime/Npu/ll_aton/ll_aton.c **** 
 5811              		.loc 1 1789 3 is_stmt 1 view .LVU2128
1789:Lib/AI_Runtime/Npu/ll_aton/ll_aton.c **** 
 5812              		.loc 1 1789 33 view .LVU2129
1791:Lib/AI_Runtime/Npu/ll_aton/ll_aton.c ****   if (conf->top_crop > 0)
ARM GAS  /tmp/ccgbPSBw.s 			page 192


 5813              		.loc 1 1791 3 view .LVU2130
 5814              	.LVL663:
1792:Lib/AI_Runtime/Npu/ll_aton/ll_aton.c ****     t = ATON_CONVACC_FVCROP_SET_TOP(t, conf->top_crop);
 5815              		.loc 1 1792 3 view .LVU2131
1794:Lib/AI_Runtime/Npu/ll_aton/ll_aton.c ****     t = ATON_CONVACC_FVCROP_SET_BOTTOM(t, conf->bot_crop);
 5816              		.loc 1 1794 3 view .LVU2132
1795:Lib/AI_Runtime/Npu/ll_aton/ll_aton.c ****   ATON_CONVACC_FVCROP_SET(id, t);
 5817              		.loc 1 1795 7 is_stmt 0 view .LVU2133
 5818 0284 636A     		ldr	r3, [r4, #36]
1793:Lib/AI_Runtime/Npu/ll_aton/ll_aton.c ****   if (conf->bot_crop > 0)
 5819              		.loc 1 1793 7 view .LVU2134
 5820 0286 08BF     		it	eq
 5821 0288 1346     		moveq	r3, r2
 5822              	.LVL664:
1796:Lib/AI_Runtime/Npu/ll_aton/ll_aton.c ****   // LL_ATON_PRINTF("c_t=%d c_b=%d c_l=%d c_r=%d\n",conf->top_crop,conf->bot_crop,conf->left_crop  
 5823              		.loc 1 1796 3 is_stmt 1 view .LVU2135
1796:Lib/AI_Runtime/Npu/ll_aton/ll_aton.c ****   // LL_ATON_PRINTF("c_t=%d c_b=%d c_l=%d c_r=%d\n",conf->top_crop,conf->bot_crop,conf->left_crop  
 5824              		.loc 1 1796 3 view .LVU2136
 5825 028a CB61     		str	r3, [r1, #28]
1796:Lib/AI_Runtime/Npu/ll_aton/ll_aton.c ****   // LL_ATON_PRINTF("c_t=%d c_b=%d c_l=%d c_r=%d\n",conf->top_crop,conf->bot_crop,conf->left_crop  
 5826              		.loc 1 1796 3 view .LVU2137
1796:Lib/AI_Runtime/Npu/ll_aton/ll_aton.c ****   // LL_ATON_PRINTF("c_t=%d c_b=%d c_l=%d c_r=%d\n",conf->top_crop,conf->bot_crop,conf->left_crop  
 5827              		.loc 1 1796 33 view .LVU2138
1801:Lib/AI_Runtime/Npu/ll_aton/ll_aton.c ****   {
 5828              		.loc 1 1801 3 view .LVU2139
1801:Lib/AI_Runtime/Npu/ll_aton/ll_aton.c ****   {
 5829              		.loc 1 1801 11 is_stmt 0 view .LVU2140
 5830 028c 636B     		ldr	r3, [r4, #52]
 5831              	.LVL665:
1801:Lib/AI_Runtime/Npu/ll_aton/ll_aton.c ****   {
 5832              		.loc 1 1801 6 view .LVU2141
 5833 028e 13B1     		cbz	r3, .L381
1803:Lib/AI_Runtime/Npu/ll_aton/ll_aton.c ****     t = ATON_CONVACC_FSUB_SET_FSUB(t, conf->fsub);
 5834              		.loc 1 1803 5 is_stmt 1 view .LVU2142
 5835              	.LVL666:
1804:Lib/AI_Runtime/Npu/ll_aton/ll_aton.c ****     ATON_CONVACC_FSUB_SET(id, t);
 5836              		.loc 1 1804 5 view .LVU2143
1804:Lib/AI_Runtime/Npu/ll_aton/ll_aton.c ****     ATON_CONVACC_FSUB_SET(id, t);
 5837              		.loc 1 1804 9 is_stmt 0 view .LVU2144
 5838 0290 23F07F43 		bic	r3, r3, #-16777216
 5839              	.LVL667:
1805:Lib/AI_Runtime/Npu/ll_aton/ll_aton.c ****   }
 5840              		.loc 1 1805 5 is_stmt 1 view .LVU2145
1805:Lib/AI_Runtime/Npu/ll_aton/ll_aton.c ****   }
 5841              		.loc 1 1805 5 view .LVU2146
 5842 0294 0B63     		str	r3, [r1, #48]
 5843              	.LVL668:
 5844              	.L381:
1805:Lib/AI_Runtime/Npu/ll_aton/ll_aton.c ****   }
 5845              		.loc 1 1805 5 discriminator 1 view .LVU2147
1805:Lib/AI_Runtime/Npu/ll_aton/ll_aton.c ****   }
 5846              		.loc 1 1805 33 discriminator 1 view .LVU2148
1809:Lib/AI_Runtime/Npu/ll_aton/ll_aton.c ****   if (conf->zfbias != 0)
 5847              		.loc 1 1809 3 view .LVU2149
1810:Lib/AI_Runtime/Npu/ll_aton/ll_aton.c ****   {
 5848              		.loc 1 1810 3 view .LVU2150
1824:Lib/AI_Runtime/Npu/ll_aton/ll_aton.c **** }
ARM GAS  /tmp/ccgbPSBw.s 			page 193


 5849              		.loc 1 1824 10 is_stmt 0 view .LVU2151
 5850 0296 0020     		movs	r0, #0
1812:Lib/AI_Runtime/Npu/ll_aton/ll_aton.c ****   }
 5851              		.loc 1 1812 9 view .LVU2152
 5852 0298 B6B2     		uxth	r6, r6
 5853              	.LVL669:
1821:Lib/AI_Runtime/Npu/ll_aton/ll_aton.c **** #endif
 5854              		.loc 1 1821 3 is_stmt 1 view .LVU2153
1821:Lib/AI_Runtime/Npu/ll_aton/ll_aton.c **** #endif
 5855              		.loc 1 1821 3 view .LVU2154
 5856 029a 4E63     		str	r6, [r1, #52]
1821:Lib/AI_Runtime/Npu/ll_aton/ll_aton.c **** #endif
 5857              		.loc 1 1821 3 view .LVU2155
1821:Lib/AI_Runtime/Npu/ll_aton/ll_aton.c **** #endif
 5858              		.loc 1 1821 33 view .LVU2156
1824:Lib/AI_Runtime/Npu/ll_aton/ll_aton.c **** }
 5859              		.loc 1 1824 3 view .LVU2157
 5860              	.LVL670:
 5861              	.L366:
1825:Lib/AI_Runtime/Npu/ll_aton/ll_aton.c **** #endif // ATON_CONVACC_NUM
 5862              		.loc 1 1825 1 is_stmt 0 view .LVU2158
 5863 029c BDE8F087 		pop	{r4, r5, r6, r7, r8, r9, r10, pc}
 5864              	.LVL671:
 5865              	.L390:
1742:Lib/AI_Runtime/Npu/ll_aton/ll_aton.c **** #endif
 5866              		.loc 1 1742 38 view .LVU2159
 5867 02a0 0023     		movs	r3, #0
 5868              	.LVL672:
1742:Lib/AI_Runtime/Npu/ll_aton/ll_aton.c **** #endif
 5869              		.loc 1 1742 28 view .LVU2160
 5870 02a2 9E46     		mov	lr, r3
 5871              	.LVL673:
1742:Lib/AI_Runtime/Npu/ll_aton/ll_aton.c **** #endif
 5872              		.loc 1 1742 19 view .LVU2161
 5873 02a4 1F46     		mov	r7, r3
 5874              	.LVL674:
1742:Lib/AI_Runtime/Npu/ll_aton/ll_aton.c **** #endif
 5875              		.loc 1 1742 11 view .LVU2162
 5876 02a6 9C46     		mov	ip, r3
 5877              	.LVL675:
1742:Lib/AI_Runtime/Npu/ll_aton/ll_aton.c **** #endif
 5878              		.loc 1 1742 11 view .LVU2163
 5879 02a8 87E7     		b	.L374
 5880              	.LVL676:
 5881              	.L382:
1625:Lib/AI_Runtime/Npu/ll_aton/ll_aton.c **** 
 5882              		.loc 1 1625 12 view .LVU2164
 5883 02aa 4FF0FF30 		mov	r0, #-1
 5884              	.LVL677:
1625:Lib/AI_Runtime/Npu/ll_aton/ll_aton.c **** 
 5885              		.loc 1 1625 12 view .LVU2165
 5886 02ae F5E7     		b	.L366
 5887              	.LVL678:
 5888              	.L385:
1649:Lib/AI_Runtime/Npu/ll_aton/ll_aton.c ****   }
 5889              		.loc 1 1649 12 view .LVU2166
 5890 02b0 6FF00100 		mvn	r0, #1
ARM GAS  /tmp/ccgbPSBw.s 			page 194


 5891 02b4 F2E7     		b	.L366
 5892              	.L409:
 5893 02b6 00BF     		.align	2
 5894              	.L408:
 5895 02b8 00000000 		.word	Conv_ctrl_bits
 5896 02bc 0000FFFF 		.word	-65536
 5897              		.cfi_endproc
 5898              	.LFE4844:
 5900              		.section	.text.LL_Activacc_Init,"ax",%progbits
 5901              		.align	1
 5902              		.global	LL_Activacc_Init
 5903              		.syntax unified
 5904              		.thumb
 5905              		.thumb_func
 5907              	LL_Activacc_Init:
 5908              	.LVL679:
 5909              	.LFB4846:
1860:Lib/AI_Runtime/Npu/ll_aton/ll_aton.c ****   uint32_t t;
 5910              		.loc 1 1860 1 is_stmt 1 view -0
 5911              		.cfi_startproc
 5912              		@ args = 0, pretend = 0, frame = 0
 5913              		@ frame_needed = 0, uses_anonymous_args = 0
1861:Lib/AI_Runtime/Npu/ll_aton/ll_aton.c **** 
 5914              		.loc 1 1861 3 view .LVU2168
1863:Lib/AI_Runtime/Npu/ll_aton/ll_aton.c ****     return LL_ATON_INVALID_ID;
 5915              		.loc 1 1863 3 view .LVU2169
1863:Lib/AI_Runtime/Npu/ll_aton/ll_aton.c ****     return LL_ATON_INVALID_ID;
 5916              		.loc 1 1863 6 is_stmt 0 view .LVU2170
 5917 0000 0128     		cmp	r0, #1
1860:Lib/AI_Runtime/Npu/ll_aton/ll_aton.c ****   uint32_t t;
 5918              		.loc 1 1860 1 view .LVU2171
 5919 0002 F8B5     		push	{r3, r4, r5, r6, r7, lr}
 5920              		.cfi_def_cfa_offset 24
 5921              		.cfi_offset 3, -24
 5922              		.cfi_offset 4, -20
 5923              		.cfi_offset 5, -16
 5924              		.cfi_offset 6, -12
 5925              		.cfi_offset 7, -8
 5926              		.cfi_offset 14, -4
1860:Lib/AI_Runtime/Npu/ll_aton/ll_aton.c ****   uint32_t t;
 5927              		.loc 1 1860 1 view .LVU2172
 5928 0004 0446     		mov	r4, r0
 5929 0006 0D46     		mov	r5, r1
1863:Lib/AI_Runtime/Npu/ll_aton/ll_aton.c ****     return LL_ATON_INVALID_ID;
 5930              		.loc 1 1863 6 view .LVU2173
 5931 0008 00F39E80 		bgt	.L421
1866:Lib/AI_Runtime/Npu/ll_aton/ll_aton.c **** 
 5932              		.loc 1 1866 3 is_stmt 1 view .LVU2174
 5933 000c 1030     		adds	r0, r0, #16
 5934              	.LVL680:
1866:Lib/AI_Runtime/Npu/ll_aton/ll_aton.c **** 
 5935              		.loc 1 1866 3 is_stmt 0 view .LVU2175
 5936 000e FFF7FEFF 		bl	LL_ATON_EnableClock
 5937              	.LVL681:
1868:Lib/AI_Runtime/Npu/ll_aton/ll_aton.c ****   t = ATON_ACTIV_CTRL_SET_TYPE(t, get_Activacc_type(conf->operation));
 5938              		.loc 1 1868 3 is_stmt 1 view .LVU2176
1869:Lib/AI_Runtime/Npu/ll_aton/ll_aton.c ****   t = ATON_ACTIV_CTRL_SET_FBYTES(t, conf->inbytes_f);
ARM GAS  /tmp/ccgbPSBw.s 			page 195


 5939              		.loc 1 1869 3 view .LVU2177
1869:Lib/AI_Runtime/Npu/ll_aton/ll_aton.c ****   t = ATON_ACTIV_CTRL_SET_FBYTES(t, conf->inbytes_f);
 5940              		.loc 1 1869 7 is_stmt 0 view .LVU2178
 5941 0012 95F82C10 		ldrb	r1, [r5, #44]	@ zero_extendqisi2
 5942              	.LVL682:
 5943              	.LBB132:
 5944              	.LBI132:
1830:Lib/AI_Runtime/Npu/ll_aton/ll_aton.c **** {
 5945              		.loc 1 1830 16 is_stmt 1 view .LVU2179
 5946              	.LBB133:
1832:Lib/AI_Runtime/Npu/ll_aton/ll_aton.c ****   {
 5947              		.loc 1 1832 3 view .LVU2180
 5948 0016 4F1E     		subs	r7, r1, #1
 5949 0018 FBB2     		uxtb	r3, r7
 5950 001a 032B     		cmp	r3, #3
 5951 001c 42D8     		bhi	.L412
 5952              	.LVL683:
1832:Lib/AI_Runtime/Npu/ll_aton/ll_aton.c ****   {
 5953              		.loc 1 1832 3 is_stmt 0 view .LVU2181
 5954              	.LBE133:
 5955              	.LBE132:
1870:Lib/AI_Runtime/Npu/ll_aton/ll_aton.c ****   t = ATON_ACTIV_CTRL_SET_FSHIFT(t, ATON_SHIFT(conf->shift_f));
 5956              		.loc 1 1870 3 is_stmt 1 view .LVU2182
1871:Lib/AI_Runtime/Npu/ll_aton/ll_aton.c ****   t = ATON_ACTIV_CTRL_SET_FROUND(t, conf->rounding_f);
 5957              		.loc 1 1871 3 view .LVU2183
1872:Lib/AI_Runtime/Npu/ll_aton/ll_aton.c ****   t = ATON_ACTIV_CTRL_SET_FSAT(t, (conf->saturation_f != 0));
 5958              		.loc 1 1872 3 view .LVU2184
1873:Lib/AI_Runtime/Npu/ll_aton/ll_aton.c ****   t = ATON_ACTIV_CTRL_SET_FRNDMODE(t, conf->round_mode_f);
 5959              		.loc 1 1873 3 view .LVU2185
1874:Lib/AI_Runtime/Npu/ll_aton/ll_aton.c ****   t = ATON_ACTIV_CTRL_SET_FOBYTES(t, conf->outbytes_f);
 5960              		.loc 1 1874 3 view .LVU2186
1875:Lib/AI_Runtime/Npu/ll_aton/ll_aton.c **** 
 5961              		.loc 1 1875 3 view .LVU2187
1877:Lib/AI_Runtime/Npu/ll_aton/ll_aton.c ****   t = ATON_ACTIV_CTRL_SET_SAT(t, (conf->saturation_o != 0));
 5962              		.loc 1 1877 3 view .LVU2188
1870:Lib/AI_Runtime/Npu/ll_aton/ll_aton.c ****   t = ATON_ACTIV_CTRL_SET_FSHIFT(t, ATON_SHIFT(conf->shift_f));
 5963              		.loc 1 1870 7 is_stmt 0 view .LVU2189
 5964 001e 2878     		ldrb	r0, [r5]	@ zero_extendqisi2
1877:Lib/AI_Runtime/Npu/ll_aton/ll_aton.c ****   t = ATON_ACTIV_CTRL_SET_SAT(t, (conf->saturation_o != 0));
 5965              		.loc 1 1877 7 view .LVU2190
 5966 0020 6A78     		ldrb	r2, [r5, #1]	@ zero_extendqisi2
 5967              	.LVL684:
1878:Lib/AI_Runtime/Npu/ll_aton/ll_aton.c ****   t = ATON_ACTIV_CTRL_SET_OBYTES(t, conf->outbytes_o);
 5968              		.loc 1 1878 3 is_stmt 1 view .LVU2191
1879:Lib/AI_Runtime/Npu/ll_aton/ll_aton.c ****   t = ATON_ACTIV_CTRL_SET_ORNDMODE(t, (conf->relu_mode_o << 1) | conf->round_mode_o);
 5969              		.loc 1 1879 3 view .LVU2192
1872:Lib/AI_Runtime/Npu/ll_aton/ll_aton.c ****   t = ATON_ACTIV_CTRL_SET_FSAT(t, (conf->saturation_f != 0));
 5970              		.loc 1 1872 7 is_stmt 0 view .LVU2193
 5971 0022 00F00103 		and	r3, r0, #1
1870:Lib/AI_Runtime/Npu/ll_aton/ll_aton.c ****   t = ATON_ACTIV_CTRL_SET_FSHIFT(t, ATON_SHIFT(conf->shift_f));
 5972              		.loc 1 1870 7 view .LVU2194
 5973 0026 C0F30116 		ubfx	r6, r0, #4, #2
1872:Lib/AI_Runtime/Npu/ll_aton/ll_aton.c ****   t = ATON_ACTIV_CTRL_SET_FSAT(t, (conf->saturation_f != 0));
 5974              		.loc 1 1872 7 view .LVU2195
 5975 002a 9B03     		lsls	r3, r3, #14
1875:Lib/AI_Runtime/Npu/ll_aton/ll_aton.c **** 
 5976              		.loc 1 1875 7 view .LVU2196
ARM GAS  /tmp/ccgbPSBw.s 			page 196


 5977 002c 43EA8613 		orr	r3, r3, r6, lsl #6
1871:Lib/AI_Runtime/Npu/ll_aton/ll_aton.c ****   t = ATON_ACTIV_CTRL_SET_FROUND(t, conf->rounding_f);
 5978              		.loc 1 1871 7 view .LVU2197
 5979 0030 AE78     		ldrb	r6, [r5, #2]	@ zero_extendqisi2
 5980 0032 1036     		adds	r6, r6, #16
 5981              	.LVL685:
1871:Lib/AI_Runtime/Npu/ll_aton/ll_aton.c ****   t = ATON_ACTIV_CTRL_SET_FROUND(t, conf->rounding_f);
 5982              		.loc 1 1871 7 view .LVU2198
 5983 0034 3602     		lsls	r6, r6, #8
 5984              	.LVL686:
1871:Lib/AI_Runtime/Npu/ll_aton/ll_aton.c ****   t = ATON_ACTIV_CTRL_SET_FROUND(t, conf->rounding_f);
 5985              		.loc 1 1871 7 view .LVU2199
 5986 0036 06F47C56 		and	r6, r6, #16128
1875:Lib/AI_Runtime/Npu/ll_aton/ll_aton.c **** 
 5987              		.loc 1 1875 7 view .LVU2200
 5988 003a 3343     		orrs	r3, r3, r6
1874:Lib/AI_Runtime/Npu/ll_aton/ll_aton.c ****   t = ATON_ACTIV_CTRL_SET_FOBYTES(t, conf->outbytes_f);
 5989              		.loc 1 1874 7 view .LVU2201
 5990 003c C0F38106 		ubfx	r6, r0, #2, #2
1875:Lib/AI_Runtime/Npu/ll_aton/ll_aton.c **** 
 5991              		.loc 1 1875 7 view .LVU2202
 5992 0040 43EA0643 		orr	r3, r3, r6, lsl #16
1873:Lib/AI_Runtime/Npu/ll_aton/ll_aton.c ****   t = ATON_ACTIV_CTRL_SET_FRNDMODE(t, conf->round_mode_f);
 5993              		.loc 1 1873 7 view .LVU2203
 5994 0044 8603     		lsls	r6, r0, #14
 5995 0046 06F40046 		and	r6, r6, #32768
 5996              	.LVL687:
1875:Lib/AI_Runtime/Npu/ll_aton/ll_aton.c **** 
 5997              		.loc 1 1875 7 view .LVU2204
 5998 004a 43EA8703 		orr	r3, r3, r7, lsl #2
 5999 004e 3343     		orrs	r3, r3, r6
1877:Lib/AI_Runtime/Npu/ll_aton/ll_aton.c ****   t = ATON_ACTIV_CTRL_SET_SAT(t, (conf->saturation_o != 0));
 6000              		.loc 1 1877 7 view .LVU2205
 6001 0050 1605     		lsls	r6, r2, #20
 6002              	.LVL688:
1878:Lib/AI_Runtime/Npu/ll_aton/ll_aton.c ****   t = ATON_ACTIV_CTRL_SET_OBYTES(t, conf->outbytes_o);
 6003              		.loc 1 1878 5 view .LVU2206
 6004 0052 06F44016 		and	r6, r6, #3145728
1875:Lib/AI_Runtime/Npu/ll_aton/ll_aton.c **** 
 6005              		.loc 1 1875 7 view .LVU2207
 6006 0056 8009     		lsrs	r0, r0, #6
1878:Lib/AI_Runtime/Npu/ll_aton/ll_aton.c ****   t = ATON_ACTIV_CTRL_SET_OBYTES(t, conf->outbytes_o);
 6007              		.loc 1 1878 5 view .LVU2208
 6008 0058 23F44003 		bic	r3, r3, #12582912
 6009 005c 46EA8040 		orr	r0, r6, r0, lsl #18
 6010 0060 23F00303 		bic	r3, r3, #3
1879:Lib/AI_Runtime/Npu/ll_aton/ll_aton.c ****   t = ATON_ACTIV_CTRL_SET_ORNDMODE(t, (conf->relu_mode_o << 1) | conf->round_mode_o);
 6011              		.loc 1 1879 7 view .LVU2209
 6012 0064 0343     		orrs	r3, r3, r0
 6013              	.LVL689:
1880:Lib/AI_Runtime/Npu/ll_aton/ll_aton.c ****   ATON_ACTIV_CTRL_SET(id, t);
 6014              		.loc 1 1880 3 is_stmt 1 view .LVU2210
1879:Lib/AI_Runtime/Npu/ll_aton/ll_aton.c ****   t = ATON_ACTIV_CTRL_SET_ORNDMODE(t, (conf->relu_mode_o << 1) | conf->round_mode_o);
 6015              		.loc 1 1879 7 is_stmt 0 view .LVU2211
 6016 0066 C2F30110 		ubfx	r0, r2, #4, #2
1880:Lib/AI_Runtime/Npu/ll_aton/ll_aton.c ****   ATON_ACTIV_CTRL_SET(id, t);
 6017              		.loc 1 1880 7 view .LVU2212
ARM GAS  /tmp/ccgbPSBw.s 			page 197


 6018 006a C2F38106 		ubfx	r6, r2, #2, #2
1879:Lib/AI_Runtime/Npu/ll_aton/ll_aton.c ****   t = ATON_ACTIV_CTRL_SET_ORNDMODE(t, (conf->relu_mode_o << 1) | conf->round_mode_o);
 6019              		.loc 1 1879 7 view .LVU2213
 6020 006e 8005     		lsls	r0, r0, #22
1880:Lib/AI_Runtime/Npu/ll_aton/ll_aton.c ****   ATON_ACTIV_CTRL_SET(id, t);
 6021              		.loc 1 1880 5 view .LVU2214
 6022 0070 40EA0660 		orr	r0, r0, r6, lsl #24
 6023 0074 1843     		orrs	r0, r0, r3
 6024              	.LVL690:
1881:Lib/AI_Runtime/Npu/ll_aton/ll_aton.c **** 
 6025              		.loc 1 1881 3 is_stmt 1 view .LVU2215
1881:Lib/AI_Runtime/Npu/ll_aton/ll_aton.c **** 
 6026              		.loc 1 1881 3 view .LVU2216
 6027 0076 04F5B023 		add	r3, r4, #360448
 6028 007a F533     		adds	r3, r3, #245
 6029 007c 1B03     		lsls	r3, r3, #12
 6030 007e 1860     		str	r0, [r3]
1881:Lib/AI_Runtime/Npu/ll_aton/ll_aton.c **** 
 6031              		.loc 1 1881 3 view .LVU2217
1881:Lib/AI_Runtime/Npu/ll_aton/ll_aton.c **** 
 6032              		.loc 1 1881 29 view .LVU2218
1884:Lib/AI_Runtime/Npu/ll_aton/ll_aton.c ****   {
 6033              		.loc 1 1884 3 view .LVU2219
1884:Lib/AI_Runtime/Npu/ll_aton/ll_aton.c ****   {
 6034              		.loc 1 1884 11 is_stmt 0 view .LVU2220
 6035 0080 A86A     		ldr	r0, [r5, #40]
 6036              	.LVL691:
1884:Lib/AI_Runtime/Npu/ll_aton/ll_aton.c ****   {
 6037              		.loc 1 1884 6 view .LVU2221
 6038 0082 B0B9     		cbnz	r0, .L413
 6039              	.LVL692:
 6040              	.L414:
1888:Lib/AI_Runtime/Npu/ll_aton/ll_aton.c ****   }
 6041              		.loc 1 1888 5 is_stmt 1 discriminator 1 view .LVU2222
1888:Lib/AI_Runtime/Npu/ll_aton/ll_aton.c ****   }
 6042              		.loc 1 1888 31 discriminator 1 view .LVU2223
1892:Lib/AI_Runtime/Npu/ll_aton/ll_aton.c ****   {
 6043              		.loc 1 1892 3 view .LVU2224
1907:Lib/AI_Runtime/Npu/ll_aton/ll_aton.c ****     ATON_ACTIV_FUNC_SET(id, t);
 6044              		.loc 1 1907 9 is_stmt 0 view .LVU2225
 6045 0084 EE78     		ldrb	r6, [r5, #3]	@ zero_extendqisi2
1906:Lib/AI_Runtime/Npu/ll_aton/ll_aton.c ****     t = ATON_ACTIV_FUNC_SET_OUTSHIFT(t, conf->shift_o);
 6046              		.loc 1 1906 9 view .LVU2226
 6047 0086 9203     		lsls	r2, r2, #14
1892:Lib/AI_Runtime/Npu/ll_aton/ll_aton.c ****   {
 6048              		.loc 1 1892 3 view .LVU2227
 6049 0088 0429     		cmp	r1, #4
1898:Lib/AI_Runtime/Npu/ll_aton/ll_aton.c ****     ATON_ACTIV_ACTIVPARAM_SET(id, t);
 6050              		.loc 1 1898 9 view .LVU2228
 6051 008a A888     		ldrh	r0, [r5, #4]
1906:Lib/AI_Runtime/Npu/ll_aton/ll_aton.c ****     t = ATON_ACTIV_FUNC_SET_OUTSHIFT(t, conf->shift_o);
 6052              		.loc 1 1906 9 view .LVU2229
 6053 008c 02F48012 		and	r2, r2, #1048576
1907:Lib/AI_Runtime/Npu/ll_aton/ll_aton.c ****     ATON_ACTIV_FUNC_SET(id, t);
 6054              		.loc 1 1907 9 view .LVU2230
 6055 0090 06F03F06 		and	r6, r6, #63
1892:Lib/AI_Runtime/Npu/ll_aton/ll_aton.c ****   {
ARM GAS  /tmp/ccgbPSBw.s 			page 198


 6056              		.loc 1 1892 3 view .LVU2231
 6057 0094 11D0     		beq	.L415
1897:Lib/AI_Runtime/Npu/ll_aton/ll_aton.c ****     t = ATON_ACTIV_ACTIVPARAM_SET_PARAM(t, conf->parameter);
 6058              		.loc 1 1897 5 is_stmt 1 view .LVU2232
 6059              	.LVL693:
1898:Lib/AI_Runtime/Npu/ll_aton/ll_aton.c ****     ATON_ACTIV_ACTIVPARAM_SET(id, t);
 6060              		.loc 1 1898 5 view .LVU2233
1899:Lib/AI_Runtime/Npu/ll_aton/ll_aton.c **** 
 6061              		.loc 1 1899 5 view .LVU2234
1899:Lib/AI_Runtime/Npu/ll_aton/ll_aton.c **** 
 6062              		.loc 1 1899 5 view .LVU2235
1902:Lib/AI_Runtime/Npu/ll_aton/ll_aton.c ****     ATON_ACTIV_ACTIVPARAM2_SET(id, t);
 6063              		.loc 1 1902 9 is_stmt 0 view .LVU2236
 6064 0096 2989     		ldrh	r1, [r5, #8]
1907:Lib/AI_Runtime/Npu/ll_aton/ll_aton.c ****     ATON_ACTIV_FUNC_SET(id, t);
 6065              		.loc 1 1907 7 view .LVU2237
 6066 0098 3243     		orrs	r2, r2, r6
1899:Lib/AI_Runtime/Npu/ll_aton/ll_aton.c **** 
 6067              		.loc 1 1899 5 view .LVU2238
 6068 009a 9860     		str	r0, [r3, #8]
1899:Lib/AI_Runtime/Npu/ll_aton/ll_aton.c **** 
 6069              		.loc 1 1899 5 is_stmt 1 view .LVU2239
1899:Lib/AI_Runtime/Npu/ll_aton/ll_aton.c **** 
 6070              		.loc 1 1899 37 view .LVU2240
1901:Lib/AI_Runtime/Npu/ll_aton/ll_aton.c ****     t = ATON_ACTIV_ACTIVPARAM2_SET_PARAM2(t, conf->parameter_2);
 6071              		.loc 1 1901 5 view .LVU2241
 6072              	.LVL694:
1902:Lib/AI_Runtime/Npu/ll_aton/ll_aton.c ****     ATON_ACTIV_ACTIVPARAM2_SET(id, t);
 6073              		.loc 1 1902 5 view .LVU2242
1903:Lib/AI_Runtime/Npu/ll_aton/ll_aton.c **** 
 6074              		.loc 1 1903 5 view .LVU2243
1903:Lib/AI_Runtime/Npu/ll_aton/ll_aton.c **** 
 6075              		.loc 1 1903 5 view .LVU2244
 6076 009c 1961     		str	r1, [r3, #16]
1903:Lib/AI_Runtime/Npu/ll_aton/ll_aton.c **** 
 6077              		.loc 1 1903 5 view .LVU2245
1903:Lib/AI_Runtime/Npu/ll_aton/ll_aton.c **** 
 6078              		.loc 1 1903 38 view .LVU2246
1905:Lib/AI_Runtime/Npu/ll_aton/ll_aton.c ****     t = ATON_ACTIV_FUNC_SET_SIGNEDOP(t, (conf->signedop != 0));
 6079              		.loc 1 1905 5 view .LVU2247
 6080              	.LVL695:
1906:Lib/AI_Runtime/Npu/ll_aton/ll_aton.c ****     t = ATON_ACTIV_FUNC_SET_OUTSHIFT(t, conf->shift_o);
 6081              		.loc 1 1906 5 view .LVU2248
1907:Lib/AI_Runtime/Npu/ll_aton/ll_aton.c ****     ATON_ACTIV_FUNC_SET(id, t);
 6082              		.loc 1 1907 5 view .LVU2249
1908:Lib/AI_Runtime/Npu/ll_aton/ll_aton.c ****     break;
 6083              		.loc 1 1908 5 view .LVU2250
1908:Lib/AI_Runtime/Npu/ll_aton/ll_aton.c ****     break;
 6084              		.loc 1 1908 5 view .LVU2251
 6085 009e DA60     		str	r2, [r3, #12]
1908:Lib/AI_Runtime/Npu/ll_aton/ll_aton.c ****     break;
 6086              		.loc 1 1908 5 view .LVU2252
1908:Lib/AI_Runtime/Npu/ll_aton/ll_aton.c ****     break;
 6087              		.loc 1 1908 31 view .LVU2253
1909:Lib/AI_Runtime/Npu/ll_aton/ll_aton.c ****   case ACTIV_FUNC:
 6088              		.loc 1 1909 5 view .LVU2254
 6089              	.LVL696:
ARM GAS  /tmp/ccgbPSBw.s 			page 199


 6090              	.L420:
1973:Lib/AI_Runtime/Npu/ll_aton/ll_aton.c **** }
 6091              		.loc 1 1973 10 is_stmt 0 view .LVU2255
 6092 00a0 0020     		movs	r0, #0
 6093              	.L410:
1974:Lib/AI_Runtime/Npu/ll_aton/ll_aton.c **** #endif // ATON_ACTIV_NUM
 6094              		.loc 1 1974 1 view .LVU2256
 6095 00a2 F8BD     		pop	{r3, r4, r5, r6, r7, pc}
 6096              	.LVL697:
 6097              	.L412:
 6098              	.LBB135:
 6099              	.LBB134:
1847:Lib/AI_Runtime/Npu/ll_aton/ll_aton.c ****   }
 6100              		.loc 1 1847 5 is_stmt 1 view .LVU2257
1849:Lib/AI_Runtime/Npu/ll_aton/ll_aton.c ****   return 0;
 6101              		.loc 1 1849 3 view .LVU2258
 6102 00a4 40F23971 		movw	r1, #1849
 6103              	.LVL698:
1849:Lib/AI_Runtime/Npu/ll_aton/ll_aton.c ****   return 0;
 6104              		.loc 1 1849 3 is_stmt 0 view .LVU2259
 6105 00a8 294B     		ldr	r3, .L422
 6106 00aa 2A4A     		ldr	r2, .L422+4
 6107 00ac 2A48     		ldr	r0, .L422+8
 6108 00ae FFF7FEFF 		bl	__assert_func
 6109              	.LVL699:
 6110              	.L413:
1849:Lib/AI_Runtime/Npu/ll_aton/ll_aton.c ****   return 0;
 6111              		.loc 1 1849 3 view .LVU2260
 6112              	.LBE134:
 6113              	.LBE135:
1886:Lib/AI_Runtime/Npu/ll_aton/ll_aton.c ****     t = ATON_ACTIV_FSUB_SET_FSUB(t, conf->fsub);
 6114              		.loc 1 1886 5 is_stmt 1 view .LVU2261
1887:Lib/AI_Runtime/Npu/ll_aton/ll_aton.c ****     ATON_ACTIV_FSUB_SET(id, t);
 6115              		.loc 1 1887 5 view .LVU2262
1887:Lib/AI_Runtime/Npu/ll_aton/ll_aton.c ****     ATON_ACTIV_FSUB_SET(id, t);
 6116              		.loc 1 1887 9 is_stmt 0 view .LVU2263
 6117 00b2 20F07F40 		bic	r0, r0, #-16777216
 6118              	.LVL700:
1888:Lib/AI_Runtime/Npu/ll_aton/ll_aton.c ****   }
 6119              		.loc 1 1888 5 is_stmt 1 view .LVU2264
1888:Lib/AI_Runtime/Npu/ll_aton/ll_aton.c ****   }
 6120              		.loc 1 1888 5 view .LVU2265
 6121 00b6 5861     		str	r0, [r3, #20]
 6122 00b8 E4E7     		b	.L414
 6123              	.LVL701:
 6124              	.L415:
1912:Lib/AI_Runtime/Npu/ll_aton/ll_aton.c ****     t = ATON_ACTIV_FUNC_SET_SIGNEDOP(t, (conf->signedop != 0));
 6125              		.loc 1 1912 5 view .LVU2266
1913:Lib/AI_Runtime/Npu/ll_aton/ll_aton.c ****     t = ATON_ACTIV_FUNC_SET_OUTSHIFT(t, conf->shift_o);
 6126              		.loc 1 1913 5 view .LVU2267
1914:Lib/AI_Runtime/Npu/ll_aton/ll_aton.c ****     t = ATON_ACTIV_FUNC_SET_BSHIFT(t, conf->shift_b);
 6127              		.loc 1 1914 5 view .LVU2268
1915:Lib/AI_Runtime/Npu/ll_aton/ll_aton.c ****     t = ATON_ACTIV_FUNC_SET_CSHIFT(t, conf->shift_c);
 6128              		.loc 1 1915 5 view .LVU2269
1915:Lib/AI_Runtime/Npu/ll_aton/ll_aton.c ****     t = ATON_ACTIV_FUNC_SET_CSHIFT(t, conf->shift_c);
 6129              		.loc 1 1915 9 is_stmt 0 view .LVU2270
 6130 00ba 95F82410 		ldrb	r1, [r5, #36]	@ zero_extendqisi2
ARM GAS  /tmp/ccgbPSBw.s 			page 200


 6131 00be 0903     		lsls	r1, r1, #12
 6132 00c0 01F4F831 		and	r1, r1, #126976
1915:Lib/AI_Runtime/Npu/ll_aton/ll_aton.c ****     t = ATON_ACTIV_FUNC_SET_CSHIFT(t, conf->shift_c);
 6133              		.loc 1 1915 7 view .LVU2271
 6134 00c4 0A43     		orrs	r2, r2, r1
1916:Lib/AI_Runtime/Npu/ll_aton/ll_aton.c ****     t = ATON_ACTIV_FUNC_SET_BWIDTH(t, conf->bwidth);
 6135              		.loc 1 1916 9 view .LVU2272
 6136 00c6 95F82510 		ldrb	r1, [r5, #37]	@ zero_extendqisi2
1915:Lib/AI_Runtime/Npu/ll_aton/ll_aton.c ****     t = ATON_ACTIV_FUNC_SET_CSHIFT(t, conf->shift_c);
 6137              		.loc 1 1915 7 view .LVU2273
 6138 00ca 3243     		orrs	r2, r2, r6
 6139              	.LVL702:
1916:Lib/AI_Runtime/Npu/ll_aton/ll_aton.c ****     t = ATON_ACTIV_FUNC_SET_BWIDTH(t, conf->bwidth);
 6140              		.loc 1 1916 5 is_stmt 1 view .LVU2274
1916:Lib/AI_Runtime/Npu/ll_aton/ll_aton.c ****     t = ATON_ACTIV_FUNC_SET_BWIDTH(t, conf->bwidth);
 6141              		.loc 1 1916 9 is_stmt 0 view .LVU2275
 6142 00cc 8901     		lsls	r1, r1, #6
 6143 00ce 01F47C61 		and	r1, r1, #4032
1916:Lib/AI_Runtime/Npu/ll_aton/ll_aton.c ****     t = ATON_ACTIV_FUNC_SET_BWIDTH(t, conf->bwidth);
 6144              		.loc 1 1916 7 view .LVU2276
 6145 00d2 1143     		orrs	r1, r1, r2
 6146              	.LVL703:
1917:Lib/AI_Runtime/Npu/ll_aton/ll_aton.c ****     ATON_ACTIV_FUNC_SET(id, t);
 6147              		.loc 1 1917 5 is_stmt 1 view .LVU2277
1917:Lib/AI_Runtime/Npu/ll_aton/ll_aton.c ****     ATON_ACTIV_FUNC_SET(id, t);
 6148              		.loc 1 1917 9 is_stmt 0 view .LVU2278
 6149 00d4 95F82720 		ldrb	r2, [r5, #39]	@ zero_extendqisi2
 6150 00d8 D205     		lsls	r2, r2, #23
 6151 00da 02F06072 		and	r2, r2, #58720256
1917:Lib/AI_Runtime/Npu/ll_aton/ll_aton.c ****     ATON_ACTIV_FUNC_SET(id, t);
 6152              		.loc 1 1917 7 view .LVU2279
 6153 00de 0A43     		orrs	r2, r2, r1
 6154              	.LVL704:
1918:Lib/AI_Runtime/Npu/ll_aton/ll_aton.c **** 
 6155              		.loc 1 1918 5 is_stmt 1 view .LVU2280
1918:Lib/AI_Runtime/Npu/ll_aton/ll_aton.c **** 
 6156              		.loc 1 1918 5 view .LVU2281
 6157 00e0 DA60     		str	r2, [r3, #12]
1918:Lib/AI_Runtime/Npu/ll_aton/ll_aton.c **** 
 6158              		.loc 1 1918 5 view .LVU2282
1918:Lib/AI_Runtime/Npu/ll_aton/ll_aton.c **** 
 6159              		.loc 1 1918 31 view .LVU2283
1920:Lib/AI_Runtime/Npu/ll_aton/ll_aton.c ****     t = ATON_ACTIV_ACTIVPARAM_SET_PARAM(t, conf->parameter);
 6160              		.loc 1 1920 5 view .LVU2284
 6161              	.LVL705:
1921:Lib/AI_Runtime/Npu/ll_aton/ll_aton.c ****     t = ATON_ACTIV_ACTIVPARAM_SET_FUNC(t, conf->shift_norm);
 6162              		.loc 1 1921 5 view .LVU2285
1922:Lib/AI_Runtime/Npu/ll_aton/ll_aton.c ****     ATON_ACTIV_ACTIVPARAM_SET(id, t);
 6163              		.loc 1 1922 5 view .LVU2286
1922:Lib/AI_Runtime/Npu/ll_aton/ll_aton.c ****     ATON_ACTIV_ACTIVPARAM_SET(id, t);
 6164              		.loc 1 1922 9 is_stmt 0 view .LVU2287
 6165 00e2 95F82620 		ldrb	r2, [r5, #38]	@ zero_extendqisi2
 6166 00e6 2969     		ldr	r1, [r5, #16]
 6167 00e8 1204     		lsls	r2, r2, #16
 6168 00ea 02F47022 		and	r2, r2, #983040
1922:Lib/AI_Runtime/Npu/ll_aton/ll_aton.c ****     ATON_ACTIV_ACTIVPARAM_SET(id, t);
 6169              		.loc 1 1922 7 view .LVU2288
ARM GAS  /tmp/ccgbPSBw.s 			page 201


 6170 00ee 0243     		orrs	r2, r2, r0
 6171              	.LVL706:
1923:Lib/AI_Runtime/Npu/ll_aton/ll_aton.c **** 
 6172              		.loc 1 1923 5 is_stmt 1 view .LVU2289
1923:Lib/AI_Runtime/Npu/ll_aton/ll_aton.c **** 
 6173              		.loc 1 1923 5 view .LVU2290
 6174 00f0 9A60     		str	r2, [r3, #8]
1923:Lib/AI_Runtime/Npu/ll_aton/ll_aton.c **** 
 6175              		.loc 1 1923 5 view .LVU2291
1923:Lib/AI_Runtime/Npu/ll_aton/ll_aton.c **** 
 6176              		.loc 1 1923 37 view .LVU2292
 6177              	.LBB136:
1926:Lib/AI_Runtime/Npu/ll_aton/ll_aton.c ****       unsigned ROM0_rows = conf->ROM0_nbytes / (1 * 1);
 6178              		.loc 1 1926 7 view .LVU2293
 6179              	.LVL707:
1927:Lib/AI_Runtime/Npu/ll_aton/ll_aton.c ****       for (int i = 0; i < ROM0_rows; i++)
 6180              		.loc 1 1927 7 view .LVU2294
1928:Lib/AI_Runtime/Npu/ll_aton/ll_aton.c ****       {
 6181              		.loc 1 1928 7 view .LVU2295
 6182              	.LBB137:
1928:Lib/AI_Runtime/Npu/ll_aton/ll_aton.c ****       {
 6183              		.loc 1 1928 12 view .LVU2296
1928:Lib/AI_Runtime/Npu/ll_aton/ll_aton.c ****       {
 6184              		.loc 1 1928 12 is_stmt 0 view .LVU2297
 6185 00f2 EA69     		ldr	r2, [r5, #28]
 6186              	.LVL708:
1928:Lib/AI_Runtime/Npu/ll_aton/ll_aton.c ****       {
 6187              		.loc 1 1928 12 view .LVU2298
 6188 00f4 03F58060 		add	r0, r3, #1024
 6189 00f8 0132     		adds	r2, r2, #1
 6190              	.LVL709:
 6191              	.L416:
1928:Lib/AI_Runtime/Npu/ll_aton/ll_aton.c ****       {
 6192              		.loc 1 1928 25 is_stmt 1 discriminator 1 view .LVU2299
 6193 00fa 013A     		subs	r2, r2, #1
 6194 00fc 1FD1     		bne	.L417
 6195              	.LBE137:
 6196              	.LBE136:
 6197              	.LBB139:
1936:Lib/AI_Runtime/Npu/ll_aton/ll_aton.c ****       unsigned ROM1_rows = conf->ROM1_nbytes / (3 * 2);
 6198              		.loc 1 1936 7 view .LVU2300
 6199              	.LVL710:
1937:Lib/AI_Runtime/Npu/ll_aton/ll_aton.c ****       for (int i = 0; i < ROM1_rows; i++)
 6200              		.loc 1 1937 7 view .LVU2301
1938:Lib/AI_Runtime/Npu/ll_aton/ll_aton.c ****       {
 6201              		.loc 1 1938 7 view .LVU2302
 6202              	.LBB140:
1938:Lib/AI_Runtime/Npu/ll_aton/ll_aton.c ****       {
 6203              		.loc 1 1938 12 view .LVU2303
1938:Lib/AI_Runtime/Npu/ll_aton/ll_aton.c ****       {
 6204              		.loc 1 1938 12 is_stmt 0 view .LVU2304
 6205              	.LBE140:
1937:Lib/AI_Runtime/Npu/ll_aton/ll_aton.c ****       for (int i = 0; i < ROM1_rows; i++)
 6206              		.loc 1 1937 16 view .LVU2305
 6207 00fe 0622     		movs	r2, #6
 6208 0100 296A     		ldr	r1, [r5, #32]
 6209              	.LVL711:
ARM GAS  /tmp/ccgbPSBw.s 			page 202


1937:Lib/AI_Runtime/Npu/ll_aton/ll_aton.c ****       for (int i = 0; i < ROM1_rows; i++)
 6210              		.loc 1 1937 16 view .LVU2306
 6211 0102 03F60403 		addw	r3, r3, #2052
 6212 0106 B1FBF2F1 		udiv	r1, r1, r2
 6213              	.LVL712:
1937:Lib/AI_Runtime/Npu/ll_aton/ll_aton.c ****       for (int i = 0; i < ROM1_rows; i++)
 6214              		.loc 1 1937 16 view .LVU2307
 6215 010a 144A     		ldr	r2, .L422+12
 6216 010c 01EB4421 		add	r1, r1, r4, lsl #9
 6217              	.LVL713:
1937:Lib/AI_Runtime/Npu/ll_aton/ll_aton.c ****       for (int i = 0; i < ROM1_rows; i++)
 6218              		.loc 1 1937 16 view .LVU2308
 6219 0110 C3EBC101 		rsb	r1, r3, r1, lsl #3
 6220 0114 0A44     		add	r2, r2, r1
 6221 0116 D208     		lsrs	r2, r2, #3
 6222 0118 6869     		ldr	r0, [r5, #20]
 6223 011a 0132     		adds	r2, r2, #1
 6224              	.LVL714:
 6225              	.L418:
 6226              	.LBB141:
1938:Lib/AI_Runtime/Npu/ll_aton/ll_aton.c ****       {
 6227              		.loc 1 1938 25 is_stmt 1 discriminator 1 view .LVU2309
 6228 011c 013A     		subs	r2, r2, #1
 6229 011e 00F10600 		add	r0, r0, #6
 6230 0122 BDD0     		beq	.L420
1940:Lib/AI_Runtime/Npu/ll_aton/ll_aton.c ****         t = ATON_ACTIV_ROM1_AB_SET_A(t, R1p[3 * i + 0]);
 6231              		.loc 1 1940 9 view .LVU2310
 6232              	.LVL715:
1941:Lib/AI_Runtime/Npu/ll_aton/ll_aton.c ****         t = ATON_ACTIV_ROM1_AB_SET_B(t, R1p[3 * i + 1]);
 6233              		.loc 1 1941 9 view .LVU2311
1942:Lib/AI_Runtime/Npu/ll_aton/ll_aton.c ****         ATON_ACTIV_ROM1_AB_SET(id, i, t);
 6234              		.loc 1 1942 9 view .LVU2312
1942:Lib/AI_Runtime/Npu/ll_aton/ll_aton.c ****         ATON_ACTIV_ROM1_AB_SET(id, i, t);
 6235              		.loc 1 1942 13 is_stmt 0 view .LVU2313
 6236 0124 30F8044C 		ldrh	r4, [r0, #-4]
1941:Lib/AI_Runtime/Npu/ll_aton/ll_aton.c ****         t = ATON_ACTIV_ROM1_AB_SET_B(t, R1p[3 * i + 1]);
 6237              		.loc 1 1941 13 view .LVU2314
 6238 0128 30F8061C 		ldrh	r1, [r0, #-6]
 6239              	.LVL716:
1942:Lib/AI_Runtime/Npu/ll_aton/ll_aton.c ****         ATON_ACTIV_ROM1_AB_SET(id, i, t);
 6240              		.loc 1 1942 11 view .LVU2315
 6241 012c 41EA0441 		orr	r1, r1, r4, lsl #16
 6242              	.LVL717:
1943:Lib/AI_Runtime/Npu/ll_aton/ll_aton.c ****         t = ATON_ACTIV_ROM1_C_DT;
 6243              		.loc 1 1943 9 is_stmt 1 view .LVU2316
1943:Lib/AI_Runtime/Npu/ll_aton/ll_aton.c ****         t = ATON_ACTIV_ROM1_C_DT;
 6244              		.loc 1 1943 9 view .LVU2317
 6245 0130 43F8041C 		str	r1, [r3, #-4]
1943:Lib/AI_Runtime/Npu/ll_aton/ll_aton.c ****         t = ATON_ACTIV_ROM1_C_DT;
 6246              		.loc 1 1943 9 view .LVU2318
1944:Lib/AI_Runtime/Npu/ll_aton/ll_aton.c ****         t = ATON_ACTIV_ROM1_C_SET_C(t, R1p[3 * i + 2]);
 6247              		.loc 1 1944 9 view .LVU2319
 6248              	.LVL718:
1945:Lib/AI_Runtime/Npu/ll_aton/ll_aton.c ****         ATON_ACTIV_ROM1_C_SET(id, i, t);
 6249              		.loc 1 1945 9 view .LVU2320
1945:Lib/AI_Runtime/Npu/ll_aton/ll_aton.c ****         ATON_ACTIV_ROM1_C_SET(id, i, t);
 6250              		.loc 1 1945 13 is_stmt 0 view .LVU2321
ARM GAS  /tmp/ccgbPSBw.s 			page 203


 6251 0134 30F8021C 		ldrh	r1, [r0, #-2]
 6252              	.LVL719:
1946:Lib/AI_Runtime/Npu/ll_aton/ll_aton.c ****       }
 6253              		.loc 1 1946 9 is_stmt 1 view .LVU2322
1946:Lib/AI_Runtime/Npu/ll_aton/ll_aton.c ****       }
 6254              		.loc 1 1946 9 view .LVU2323
 6255 0138 43F8081B 		str	r1, [r3], #8
1946:Lib/AI_Runtime/Npu/ll_aton/ll_aton.c ****       }
 6256              		.loc 1 1946 9 view .LVU2324
1938:Lib/AI_Runtime/Npu/ll_aton/ll_aton.c ****       {
 6257              		.loc 1 1938 39 discriminator 3 view .LVU2325
 6258 013c EEE7     		b	.L418
 6259              	.LVL720:
 6260              	.L417:
1938:Lib/AI_Runtime/Npu/ll_aton/ll_aton.c ****       {
 6261              		.loc 1 1938 39 is_stmt 0 discriminator 3 view .LVU2326
 6262              	.LBE141:
 6263              	.LBE139:
 6264              	.LBB142:
 6265              	.LBB138:
1930:Lib/AI_Runtime/Npu/ll_aton/ll_aton.c ****         t = ATON_ACTIV_ROM0_SET_ENTRY(t, R0p[i]);
 6266              		.loc 1 1930 9 is_stmt 1 view .LVU2327
1931:Lib/AI_Runtime/Npu/ll_aton/ll_aton.c ****         ATON_ACTIV_ROM0_SET(id, i, t);
 6267              		.loc 1 1931 9 view .LVU2328
1931:Lib/AI_Runtime/Npu/ll_aton/ll_aton.c ****         ATON_ACTIV_ROM0_SET(id, i, t);
 6268              		.loc 1 1931 13 is_stmt 0 view .LVU2329
 6269 013e 11F8016B 		ldrb	r6, [r1], #1	@ zero_extendqisi2
 6270              	.LVL721:
1932:Lib/AI_Runtime/Npu/ll_aton/ll_aton.c ****       }
 6271              		.loc 1 1932 9 is_stmt 1 view .LVU2330
1932:Lib/AI_Runtime/Npu/ll_aton/ll_aton.c ****       }
 6272              		.loc 1 1932 9 view .LVU2331
 6273 0142 40F8046B 		str	r6, [r0], #4
1932:Lib/AI_Runtime/Npu/ll_aton/ll_aton.c ****       }
 6274              		.loc 1 1932 9 view .LVU2332
1928:Lib/AI_Runtime/Npu/ll_aton/ll_aton.c ****       {
 6275              		.loc 1 1928 39 discriminator 3 view .LVU2333
 6276              	.LVL722:
1928:Lib/AI_Runtime/Npu/ll_aton/ll_aton.c ****       {
 6277              		.loc 1 1928 39 is_stmt 0 discriminator 3 view .LVU2334
 6278 0146 D8E7     		b	.L416
 6279              	.LVL723:
 6280              	.L421:
1928:Lib/AI_Runtime/Npu/ll_aton/ll_aton.c ****       {
 6281              		.loc 1 1928 39 discriminator 3 view .LVU2335
 6282              	.LBE138:
 6283              	.LBE142:
1864:Lib/AI_Runtime/Npu/ll_aton/ll_aton.c **** 
 6284              		.loc 1 1864 12 view .LVU2336
 6285 0148 4FF0FF30 		mov	r0, #-1
 6286              	.LVL724:
1864:Lib/AI_Runtime/Npu/ll_aton/ll_aton.c **** 
 6287              		.loc 1 1864 12 view .LVU2337
 6288 014c A9E7     		b	.L410
 6289              	.L423:
 6290 014e 00BF     		.align	2
 6291              	.L422:
ARM GAS  /tmp/ccgbPSBw.s 			page 204


 6292 0150 95000000 		.word	.LC7
 6293 0154 00000000 		.word	__func__.3
 6294 0158 05000000 		.word	.LC4
 6295 015c 04580F58 		.word	1477400580
 6296              		.cfi_endproc
 6297              	.LFE4846:
 6299              		.section	.text.LL_Arithacc_Init,"ax",%progbits
 6300              		.align	1
 6301              		.global	LL_Arithacc_Init
 6302              		.syntax unified
 6303              		.thumb
 6304              		.thumb_func
 6306              	LL_Arithacc_Init:
 6307              	.LVL725:
 6308              	.LFB4848:
2029:Lib/AI_Runtime/Npu/ll_aton/ll_aton.c ****   uint32_t t;
 6309              		.loc 1 2029 1 is_stmt 1 view -0
 6310              		.cfi_startproc
 6311              		@ args = 0, pretend = 0, frame = 40
 6312              		@ frame_needed = 0, uses_anonymous_args = 0
2030:Lib/AI_Runtime/Npu/ll_aton/ll_aton.c ****   char sshift;
 6313              		.loc 1 2030 3 view .LVU2339
2031:Lib/AI_Runtime/Npu/ll_aton/ll_aton.c **** 
 6314              		.loc 1 2031 3 view .LVU2340
2033:Lib/AI_Runtime/Npu/ll_aton/ll_aton.c ****     return LL_ATON_INVALID_ID;
 6315              		.loc 1 2033 3 view .LVU2341
2029:Lib/AI_Runtime/Npu/ll_aton/ll_aton.c ****   uint32_t t;
 6316              		.loc 1 2029 1 is_stmt 0 view .LVU2342
 6317 0000 2DE9F04F 		push	{r4, r5, r6, r7, r8, r9, r10, fp, lr}
 6318              		.cfi_def_cfa_offset 36
 6319              		.cfi_offset 4, -36
 6320              		.cfi_offset 5, -32
 6321              		.cfi_offset 6, -28
 6322              		.cfi_offset 7, -24
 6323              		.cfi_offset 8, -20
 6324              		.cfi_offset 9, -16
 6325              		.cfi_offset 10, -12
 6326              		.cfi_offset 11, -8
 6327              		.cfi_offset 14, -4
2033:Lib/AI_Runtime/Npu/ll_aton/ll_aton.c ****     return LL_ATON_INVALID_ID;
 6328              		.loc 1 2033 6 view .LVU2343
 6329 0004 0328     		cmp	r0, #3
2029:Lib/AI_Runtime/Npu/ll_aton/ll_aton.c ****   uint32_t t;
 6330              		.loc 1 2029 1 view .LVU2344
 6331 0006 0546     		mov	r5, r0
 6332 0008 0C46     		mov	r4, r1
 6333 000a 8BB0     		sub	sp, sp, #44
 6334              		.cfi_def_cfa_offset 80
2033:Lib/AI_Runtime/Npu/ll_aton/ll_aton.c ****     return LL_ATON_INVALID_ID;
 6335              		.loc 1 2033 6 view .LVU2345
 6336 000c 00F39D81 		bgt	.L451
2037:Lib/AI_Runtime/Npu/ll_aton/ll_aton.c ****     sshift = 16;
 6337              		.loc 1 2037 3 is_stmt 1 view .LVU2346
2040:Lib/AI_Runtime/Npu/ll_aton/ll_aton.c **** 
 6338              		.loc 1 2040 5 view .LVU2347
 6339              	.LVL726:
2042:Lib/AI_Runtime/Npu/ll_aton/ll_aton.c **** 
ARM GAS  /tmp/ccgbPSBw.s 			page 205


 6340              		.loc 1 2042 3 view .LVU2348
 6341 0010 1230     		adds	r0, r0, #18
 6342              	.LVL727:
2042:Lib/AI_Runtime/Npu/ll_aton/ll_aton.c **** 
 6343              		.loc 1 2042 3 is_stmt 0 view .LVU2349
 6344 0012 FFF7FEFF 		bl	LL_ATON_EnableClock
 6345              	.LVL728:
2044:Lib/AI_Runtime/Npu/ll_aton/ll_aton.c ****   ATON_ARITH_CTRL_SET(id, t);
 6346              		.loc 1 2044 3 is_stmt 1 view .LVU2350
2045:Lib/AI_Runtime/Npu/ll_aton/ll_aton.c **** 
 6347              		.loc 1 2045 3 view .LVU2351
2045:Lib/AI_Runtime/Npu/ll_aton/ll_aton.c **** 
 6348              		.loc 1 2045 3 view .LVU2352
2048:Lib/AI_Runtime/Npu/ll_aton/ll_aton.c ****   t = ATON_ARITH_CTRL_SET_CNT2(t, (conf->scalar == 0) && (conf->bcast == ARITH_BCAST_CHAN));
 6349              		.loc 1 2048 7 is_stmt 0 view .LVU2353
 6350 0016 E179     		ldrb	r1, [r4, #7]	@ zero_extendqisi2
2045:Lib/AI_Runtime/Npu/ll_aton/ll_aton.c **** 
 6351              		.loc 1 2045 3 view .LVU2354
 6352 0018 4FF00063 		mov	r3, #134217728
2048:Lib/AI_Runtime/Npu/ll_aton/ll_aton.c ****   t = ATON_ARITH_CTRL_SET_CNT2(t, (conf->scalar == 0) && (conf->bcast == ARITH_BCAST_CHAN));
 6353              		.loc 1 2048 7 view .LVU2355
 6354 001c C843     		mvns	r0, r1
2045:Lib/AI_Runtime/Npu/ll_aton/ll_aton.c **** 
 6355              		.loc 1 2045 3 view .LVU2356
 6356 001e 05F5B025 		add	r5, r5, #360448
 6357              	.LVL729:
2045:Lib/AI_Runtime/Npu/ll_aton/ll_aton.c **** 
 6358              		.loc 1 2045 3 view .LVU2357
 6359 0022 F735     		adds	r5, r5, #247
 6360              	.LVL730:
2045:Lib/AI_Runtime/Npu/ll_aton/ll_aton.c **** 
 6361              		.loc 1 2045 3 view .LVU2358
 6362 0024 4FEA0539 		lsl	r9, r5, #12
 6363 0028 C9F80030 		str	r3, [r9]
2045:Lib/AI_Runtime/Npu/ll_aton/ll_aton.c **** 
 6364              		.loc 1 2045 3 is_stmt 1 view .LVU2359
2045:Lib/AI_Runtime/Npu/ll_aton/ll_aton.c **** 
 6365              		.loc 1 2045 29 view .LVU2360
2047:Lib/AI_Runtime/Npu/ll_aton/ll_aton.c ****   t = ATON_ARITH_CTRL_SET_CNT1(t, (conf->scalar == 0)); // these must be handled yet FIXME !!!
 6366              		.loc 1 2047 3 view .LVU2361
2048:Lib/AI_Runtime/Npu/ll_aton/ll_aton.c ****   t = ATON_ARITH_CTRL_SET_CNT2(t, (conf->scalar == 0) && (conf->bcast == ARITH_BCAST_CHAN));
 6367              		.loc 1 2048 3 view .LVU2362
2048:Lib/AI_Runtime/Npu/ll_aton/ll_aton.c ****   t = ATON_ARITH_CTRL_SET_CNT2(t, (conf->scalar == 0) && (conf->bcast == ARITH_BCAST_CHAN));
 6368              		.loc 1 2048 7 is_stmt 0 view .LVU2363
 6369 002c 00F00100 		and	r0, r0, #1
2049:Lib/AI_Runtime/Npu/ll_aton/ll_aton.c ****   t = ATON_ARITH_CTRL_SET_CNT3(t, (conf->scalar == 0) && (conf->bcast == ARITH_BCAST_CHAN));
 6370              		.loc 1 2049 7 view .LVU2364
 6371 0030 11F00103 		ands	r3, r1, #1
2048:Lib/AI_Runtime/Npu/ll_aton/ll_aton.c ****   t = ATON_ARITH_CTRL_SET_CNT2(t, (conf->scalar == 0) && (conf->bcast == ARITH_BCAST_CHAN));
 6372              		.loc 1 2048 7 view .LVU2365
 6373 0034 4FEA8007 		lsl	r7, r0, #2
 6374              	.LVL731:
2049:Lib/AI_Runtime/Npu/ll_aton/ll_aton.c ****   t = ATON_ARITH_CTRL_SET_CNT3(t, (conf->scalar == 0) && (conf->bcast == ARITH_BCAST_CHAN));
 6375              		.loc 1 2049 3 is_stmt 1 view .LVU2366
2049:Lib/AI_Runtime/Npu/ll_aton/ll_aton.c ****   t = ATON_ARITH_CTRL_SET_CNT3(t, (conf->scalar == 0) && (conf->bcast == ARITH_BCAST_CHAN));
 6376              		.loc 1 2049 7 is_stmt 0 view .LVU2367
 6377 0038 0093     		str	r3, [sp]
ARM GAS  /tmp/ccgbPSBw.s 			page 206


 6378 003a 40F0A680 		bne	.L452
2049:Lib/AI_Runtime/Npu/ll_aton/ll_aton.c ****   t = ATON_ARITH_CTRL_SET_CNT3(t, (conf->scalar == 0) && (conf->bcast == ARITH_BCAST_CHAN));
 6379              		.loc 1 2049 7 discriminator 1 view .LVU2368
 6380 003e 657A     		ldrb	r5, [r4, #9]	@ zero_extendqisi2
 6381              	.LVL732:
2049:Lib/AI_Runtime/Npu/ll_aton/ll_aton.c ****   t = ATON_ARITH_CTRL_SET_CNT3(t, (conf->scalar == 0) && (conf->bcast == ARITH_BCAST_CHAN));
 6382              		.loc 1 2049 7 discriminator 1 view .LVU2369
 6383 0040 6A1E     		subs	r2, r5, #1
 6384 0042 5542     		rsbs	r5, r2, #0
 6385 0044 5541     		adcs	r5, r5, r2
 6386              	.L426:
2051:Lib/AI_Runtime/Npu/ll_aton/ll_aton.c ****   t = ATON_ARITH_CTRL_SET_ORNDMODE(t, (conf->relu_mode_o << 1) | conf->round_mode_o);
 6387              		.loc 1 2051 7 view .LVU2370
 6388 0046 6379     		ldrb	r3, [r4, #5]	@ zero_extendqisi2
2064:Lib/AI_Runtime/Npu/ll_aton/ll_aton.c ****   if (conf->operation == ARITH_NOT_X)
 6389              		.loc 1 2064 7 view .LVU2371
 6390 0048 94F80880 		ldrb	r8, [r4, #8]	@ zero_extendqisi2
2051:Lib/AI_Runtime/Npu/ll_aton/ll_aton.c ****   t = ATON_ARITH_CTRL_SET_ORNDMODE(t, (conf->relu_mode_o << 1) | conf->round_mode_o);
 6391              		.loc 1 2051 7 view .LVU2372
 6392 004c 5E01     		lsls	r6, r3, #5
 6393 004e 06F02002 		and	r2, r6, #32
2052:Lib/AI_Runtime/Npu/ll_aton/ll_aton.c ****   // t = ATON_ARITH_CTRL_SET_OBYTES(t,((conf->dataw_o + 7) >> 3));
 6394              		.loc 1 2052 7 view .LVU2373
 6395 0052 C3F3810C 		ubfx	ip, r3, #2, #2
 6396 0056 3A43     		orrs	r2, r2, r7
2054:Lib/AI_Runtime/Npu/ll_aton/ll_aton.c ****   t = ATON_ARITH_CTRL_SET_SAT(t, (conf->saturation_o != 0));
 6397              		.loc 1 2054 7 view .LVU2374
 6398 0058 C3F30113 		ubfx	r3, r3, #4, #2
 6399 005c 42EA8362 		orr	r2, r2, r3, lsl #26
2055:Lib/AI_Runtime/Npu/ll_aton/ll_aton.c ****   t = ATON_ARITH_CTRL_SET_COEFFA(t, (conf->scalar == 0));
 6400              		.loc 1 2055 7 view .LVU2375
 6401 0060 06F04006 		and	r6, r6, #64
 6402 0064 3243     		orrs	r2, r2, r6
2060:Lib/AI_Runtime/Npu/ll_aton/ll_aton.c **** #ifdef ATON_ARITH_CTRL_SET_CLIPOUT
 6403              		.loc 1 2060 7 view .LVU2376
 6404 0066 94F803E0 		ldrb	lr, [r4, #3]	@ zero_extendqisi2
 6405 006a 08F1FF36 		add	r6, r8, #-1
 6406 006e F6B2     		uxtb	r6, r6
 6407 0070 4FEA0E77 		lsl	r7, lr, #28
 6408              	.LVL733:
2059:Lib/AI_Runtime/Npu/ll_aton/ll_aton.c ****   t = ATON_ARITH_CTRL_SET_COMBINEBC(t, (conf->combinebc != 0));
 6409              		.loc 1 2059 7 view .LVU2377
 6410 0074 C901     		lsls	r1, r1, #7
 6411 0076 0F2E     		cmp	r6, #15
2049:Lib/AI_Runtime/Npu/ll_aton/ll_aton.c ****   t = ATON_ARITH_CTRL_SET_CNT3(t, (conf->scalar == 0) && (conf->bcast == ARITH_BCAST_CHAN));
 6412              		.loc 1 2049 7 discriminator 6 view .LVU2378
 6413 0078 4FEAC50A 		lsl	r10, r5, #3
 6414              	.LVL734:
2050:Lib/AI_Runtime/Npu/ll_aton/ll_aton.c ****   t = ATON_ARITH_CTRL_SET_ROUND(t, (conf->rounding_o != 0));
 6415              		.loc 1 2050 3 is_stmt 1 view .LVU2379
 6416 007c 42EAC012 		orr	r2, r2, r0, lsl #7
2057:Lib/AI_Runtime/Npu/ll_aton/ll_aton.c ****   t = ATON_ARITH_CTRL_SET_COEFFC(t, (conf->scalar == 0));
 6417              		.loc 1 2057 7 is_stmt 0 view .LVU2380
 6418 0080 4FEA4053 		lsl	r3, r0, #21
2060:Lib/AI_Runtime/Npu/ll_aton/ll_aton.c **** #ifdef ATON_ARITH_CTRL_SET_CLIPOUT
 6419              		.loc 1 2060 7 view .LVU2381
 6420 0084 07F0805B 		and	fp, r7, #268435456
ARM GAS  /tmp/ccgbPSBw.s 			page 207


2050:Lib/AI_Runtime/Npu/ll_aton/ll_aton.c ****   t = ATON_ARITH_CTRL_SET_ROUND(t, (conf->rounding_o != 0));
 6421              		.loc 1 2050 7 discriminator 6 view .LVU2382
 6422 0088 4FEA0515 		lsl	r5, r5, #4
 6423              	.LVL735:
2051:Lib/AI_Runtime/Npu/ll_aton/ll_aton.c ****   t = ATON_ARITH_CTRL_SET_ORNDMODE(t, (conf->relu_mode_o << 1) | conf->round_mode_o);
 6424              		.loc 1 2051 3 is_stmt 1 view .LVU2383
2052:Lib/AI_Runtime/Npu/ll_aton/ll_aton.c ****   // t = ATON_ARITH_CTRL_SET_OBYTES(t,((conf->dataw_o + 7) >> 3));
 6425              		.loc 1 2052 3 view .LVU2384
2052:Lib/AI_Runtime/Npu/ll_aton/ll_aton.c ****   // t = ATON_ARITH_CTRL_SET_OBYTES(t,((conf->dataw_o + 7) >> 3));
 6426              		.loc 1 2052 7 is_stmt 0 view .LVU2385
 6427 008c 4FEA0C6C 		lsl	ip, ip, #24
2054:Lib/AI_Runtime/Npu/ll_aton/ll_aton.c ****   t = ATON_ARITH_CTRL_SET_SAT(t, (conf->saturation_o != 0));
 6428              		.loc 1 2054 3 is_stmt 1 view .LVU2386
2055:Lib/AI_Runtime/Npu/ll_aton/ll_aton.c ****   t = ATON_ARITH_CTRL_SET_COEFFA(t, (conf->scalar == 0));
 6429              		.loc 1 2055 3 view .LVU2387
2056:Lib/AI_Runtime/Npu/ll_aton/ll_aton.c ****   t = ATON_ARITH_CTRL_SET_COEFFB(t, (conf->scalar == 0));
 6430              		.loc 1 2056 3 view .LVU2388
2057:Lib/AI_Runtime/Npu/ll_aton/ll_aton.c ****   t = ATON_ARITH_CTRL_SET_COEFFC(t, (conf->scalar == 0));
 6431              		.loc 1 2057 3 view .LVU2389
2058:Lib/AI_Runtime/Npu/ll_aton/ll_aton.c ****   t = ATON_ARITH_CTRL_SET_DUALIN(t, (conf->dualinput != 0));
 6432              		.loc 1 2058 3 view .LVU2390
2058:Lib/AI_Runtime/Npu/ll_aton/ll_aton.c ****   t = ATON_ARITH_CTRL_SET_DUALIN(t, (conf->dualinput != 0));
 6433              		.loc 1 2058 7 is_stmt 0 view .LVU2391
 6434 0090 4FEA8050 		lsl	r0, r0, #22
2059:Lib/AI_Runtime/Npu/ll_aton/ll_aton.c ****   t = ATON_ARITH_CTRL_SET_COMBINEBC(t, (conf->combinebc != 0));
 6435              		.loc 1 2059 3 is_stmt 1 view .LVU2392
2059:Lib/AI_Runtime/Npu/ll_aton/ll_aton.c ****   t = ATON_ARITH_CTRL_SET_COMBINEBC(t, (conf->combinebc != 0));
 6436              		.loc 1 2059 7 is_stmt 0 view .LVU2393
 6437 0094 01F48071 		and	r1, r1, #256
2060:Lib/AI_Runtime/Npu/ll_aton/ll_aton.c **** #ifdef ATON_ARITH_CTRL_SET_CLIPOUT
 6438              		.loc 1 2060 3 is_stmt 1 view .LVU2394
2062:Lib/AI_Runtime/Npu/ll_aton/ll_aton.c **** #endif
 6439              		.loc 1 2062 3 view .LVU2395
2062:Lib/AI_Runtime/Npu/ll_aton/ll_aton.c **** #endif
 6440              		.loc 1 2062 7 is_stmt 0 view .LVU2396
 6441 0098 07F00057 		and	r7, r7, #536870912
2064:Lib/AI_Runtime/Npu/ll_aton/ll_aton.c ****   if (conf->operation == ARITH_NOT_X)
 6442              		.loc 1 2064 3 is_stmt 1 view .LVU2397
 6443              	.LVL736:
 6444              	.LBB147:
 6445              	.LBI147:
1979:Lib/AI_Runtime/Npu/ll_aton/ll_aton.c **** {
 6446              		.loc 1 1979 16 view .LVU2398
 6447              	.LBB148:
1981:Lib/AI_Runtime/Npu/ll_aton/ll_aton.c ****   {
 6448              		.loc 1 1981 3 view .LVU2399
 6449 009c 77D8     		bhi	.L427
 6450              	.LVL737:
1981:Lib/AI_Runtime/Npu/ll_aton/ll_aton.c ****   {
 6451              		.loc 1 1981 3 is_stmt 0 view .LVU2400
 6452              	.LBE148:
 6453              	.LBE147:
2064:Lib/AI_Runtime/Npu/ll_aton/ll_aton.c ****   if (conf->operation == ARITH_NOT_X)
 6454              		.loc 1 2064 5 discriminator 1 view .LVU2401
 6455 009e 1343     		orrs	r3, r3, r2
2064:Lib/AI_Runtime/Npu/ll_aton/ll_aton.c ****   if (conf->operation == ARITH_NOT_X)
 6456              		.loc 1 2064 7 discriminator 1 view .LVU2402
ARM GAS  /tmp/ccgbPSBw.s 			page 208


 6457 00a0 AD4A     		ldr	r2, .L465
2064:Lib/AI_Runtime/Npu/ll_aton/ll_aton.c ****   if (conf->operation == ARITH_NOT_X)
 6458              		.loc 1 2064 5 discriminator 1 view .LVU2403
 6459 00a2 0343     		orrs	r3, r3, r0
 6460 00a4 0B43     		orrs	r3, r3, r1
2064:Lib/AI_Runtime/Npu/ll_aton/ll_aton.c ****   if (conf->operation == ARITH_NOT_X)
 6461              		.loc 1 2064 7 discriminator 1 view .LVU2404
 6462 00a6 9257     		ldrsb	r2, [r2, r6]
2064:Lib/AI_Runtime/Npu/ll_aton/ll_aton.c ****   if (conf->operation == ARITH_NOT_X)
 6463              		.loc 1 2064 5 discriminator 1 view .LVU2405
 6464 00a8 43EA0B03 		orr	r3, r3, fp
 6465 00ac 3B43     		orrs	r3, r3, r7
2064:Lib/AI_Runtime/Npu/ll_aton/ll_aton.c ****   if (conf->operation == ARITH_NOT_X)
 6466              		.loc 1 2064 7 discriminator 1 view .LVU2406
 6467 00ae 5202     		lsls	r2, r2, #9
 6468 00b0 02F4FC42 		and	r2, r2, #32256
2064:Lib/AI_Runtime/Npu/ll_aton/ll_aton.c ****   if (conf->operation == ARITH_NOT_X)
 6469              		.loc 1 2064 5 discriminator 1 view .LVU2407
 6470 00b4 43EA0C03 		orr	r3, r3, ip
 6471 00b8 1343     		orrs	r3, r3, r2
 6472 00ba 43EA0A03 		orr	r3, r3, r10
 6473 00be 2B43     		orrs	r3, r3, r5
 6474              	.LVL738:
2065:Lib/AI_Runtime/Npu/ll_aton/ll_aton.c ****   { // WORKAROUND
 6475              		.loc 1 2065 3 is_stmt 1 view .LVU2408
2067:Lib/AI_Runtime/Npu/ll_aton/ll_aton.c ****   }
 6476              		.loc 1 2067 7 is_stmt 0 view .LVU2409
 6477 00c0 43F40002 		orr	r2, r3, #8388608
 6478 00c4 B8F1070F 		cmp	r8, #7
 6479 00c8 08BF     		it	eq
 6480 00ca 1346     		moveq	r3, r2
 6481              	.LVL739:
2069:Lib/AI_Runtime/Npu/ll_aton/ll_aton.c **** 
 6482              		.loc 1 2069 3 is_stmt 1 view .LVU2410
2069:Lib/AI_Runtime/Npu/ll_aton/ll_aton.c **** 
 6483              		.loc 1 2069 3 view .LVU2411
 6484 00cc C9F80030 		str	r3, [r9]
2069:Lib/AI_Runtime/Npu/ll_aton/ll_aton.c **** 
 6485              		.loc 1 2069 3 view .LVU2412
2069:Lib/AI_Runtime/Npu/ll_aton/ll_aton.c **** 
 6486              		.loc 1 2069 29 view .LVU2413
2071:Lib/AI_Runtime/Npu/ll_aton/ll_aton.c ****   t = ATON_ARITH_INSHIFTER_SET_FBYTESX(t, conf->inbytes_x);
 6487              		.loc 1 2071 3 view .LVU2414
 6488              	.LVL740:
2072:Lib/AI_Runtime/Npu/ll_aton/ll_aton.c ****   t = ATON_ARITH_INSHIFTER_SET_FSHIFTX(t, ATON_SHIFT(conf->shift_x));
 6489              		.loc 1 2072 3 view .LVU2415
2073:Lib/AI_Runtime/Npu/ll_aton/ll_aton.c ****   t = ATON_ARITH_INSHIFTER_SET_FROUNDX(t, (conf->rounding_x != 0));
 6490              		.loc 1 2073 3 view .LVU2416
2074:Lib/AI_Runtime/Npu/ll_aton/ll_aton.c ****   t = ATON_ARITH_INSHIFTER_SET_FSATX(t, (conf->saturation_x != 0));
 6491              		.loc 1 2074 3 view .LVU2417
2073:Lib/AI_Runtime/Npu/ll_aton/ll_aton.c ****   t = ATON_ARITH_INSHIFTER_SET_FROUNDX(t, (conf->rounding_x != 0));
 6492              		.loc 1 2073 7 is_stmt 0 view .LVU2418
 6493 00d0 94F90130 		ldrsb	r3, [r4, #1]
2074:Lib/AI_Runtime/Npu/ll_aton/ll_aton.c ****   t = ATON_ARITH_INSHIFTER_SET_FSATX(t, (conf->saturation_x != 0));
 6494              		.loc 1 2074 7 view .LVU2419
 6495 00d4 2178     		ldrb	r1, [r4]	@ zero_extendqisi2
2073:Lib/AI_Runtime/Npu/ll_aton/ll_aton.c ****   t = ATON_ARITH_INSHIFTER_SET_FROUNDX(t, (conf->rounding_x != 0));
ARM GAS  /tmp/ccgbPSBw.s 			page 209


 6496              		.loc 1 2073 7 view .LVU2420
 6497 00d6 1033     		adds	r3, r3, #16
 6498 00d8 9B00     		lsls	r3, r3, #2
2072:Lib/AI_Runtime/Npu/ll_aton/ll_aton.c ****   t = ATON_ARITH_INSHIFTER_SET_FSHIFTX(t, ATON_SHIFT(conf->shift_x));
 6499              		.loc 1 2072 7 view .LVU2421
 6500 00da C1F30110 		ubfx	r0, r1, #4, #2
2073:Lib/AI_Runtime/Npu/ll_aton/ll_aton.c ****   t = ATON_ARITH_INSHIFTER_SET_FROUNDX(t, (conf->rounding_x != 0));
 6501              		.loc 1 2073 7 view .LVU2422
 6502 00de DBB2     		uxtb	r3, r3
2079:Lib/AI_Runtime/Npu/ll_aton/ll_aton.c ****   t = ATON_ARITH_INSHIFTER_SET_FSHIFTY(t, ATON_SHIFT(conf->shift_y));
 6503              		.loc 1 2079 7 view .LVU2423
 6504 00e0 0343     		orrs	r3, r3, r0
2076:Lib/AI_Runtime/Npu/ll_aton/ll_aton.c ****   t = ATON_ARITH_INSHIFTER_SET_FOBYTESX(t, conf->outbytes_x);
 6505              		.loc 1 2076 7 view .LVU2424
 6506 00e2 C1F38100 		ubfx	r0, r1, #2, #2
2074:Lib/AI_Runtime/Npu/ll_aton/ll_aton.c ****   t = ATON_ARITH_INSHIFTER_SET_FSATX(t, (conf->saturation_x != 0));
 6507              		.loc 1 2074 7 view .LVU2425
 6508 00e6 0A02     		lsls	r2, r1, #8
 6509              	.LVL741:
2075:Lib/AI_Runtime/Npu/ll_aton/ll_aton.c ****   t = ATON_ARITH_INSHIFTER_SET_FRNDMODEX(t, conf->round_mode_x);
 6510              		.loc 1 2075 3 is_stmt 1 view .LVU2426
2076:Lib/AI_Runtime/Npu/ll_aton/ll_aton.c ****   t = ATON_ARITH_INSHIFTER_SET_FOBYTESX(t, conf->outbytes_x);
 6511              		.loc 1 2076 3 view .LVU2427
2077:Lib/AI_Runtime/Npu/ll_aton/ll_aton.c **** 
 6512              		.loc 1 2077 3 view .LVU2428
2079:Lib/AI_Runtime/Npu/ll_aton/ll_aton.c ****   t = ATON_ARITH_INSHIFTER_SET_FSHIFTY(t, ATON_SHIFT(conf->shift_y));
 6513              		.loc 1 2079 3 view .LVU2429
2080:Lib/AI_Runtime/Npu/ll_aton/ll_aton.c ****   t = ATON_ARITH_INSHIFTER_SET_FROUNDY(t, (conf->rounding_y != 0));
 6514              		.loc 1 2080 3 view .LVU2430
2079:Lib/AI_Runtime/Npu/ll_aton/ll_aton.c ****   t = ATON_ARITH_INSHIFTER_SET_FSHIFTY(t, ATON_SHIFT(conf->shift_y));
 6515              		.loc 1 2079 7 is_stmt 0 view .LVU2431
 6516 00e8 43EA8023 		orr	r3, r3, r0, lsl #10
2077:Lib/AI_Runtime/Npu/ll_aton/ll_aton.c **** 
 6517              		.loc 1 2077 7 view .LVU2432
 6518 00ec 8909     		lsrs	r1, r1, #6
2079:Lib/AI_Runtime/Npu/ll_aton/ll_aton.c ****   t = ATON_ARITH_INSHIFTER_SET_FSHIFTY(t, ATON_SHIFT(conf->shift_y));
 6519              		.loc 1 2079 7 view .LVU2433
 6520 00ee 43EA0133 		orr	r3, r3, r1, lsl #12
 6521 00f2 A178     		ldrb	r1, [r4, #2]	@ zero_extendqisi2
2075:Lib/AI_Runtime/Npu/ll_aton/ll_aton.c ****   t = ATON_ARITH_INSHIFTER_SET_FRNDMODEX(t, conf->round_mode_x);
 6522              		.loc 1 2075 7 view .LVU2434
 6523 00f4 02F44072 		and	r2, r2, #768
 6524              	.LVL742:
2079:Lib/AI_Runtime/Npu/ll_aton/ll_aton.c ****   t = ATON_ARITH_INSHIFTER_SET_FSHIFTY(t, ATON_SHIFT(conf->shift_y));
 6525              		.loc 1 2079 7 view .LVU2435
 6526 00f8 1343     		orrs	r3, r3, r2
 6527 00fa C1F30112 		ubfx	r2, r1, #4, #2
2079:Lib/AI_Runtime/Npu/ll_aton/ll_aton.c ****   t = ATON_ARITH_INSHIFTER_SET_FSHIFTY(t, ATON_SHIFT(conf->shift_y));
 6528              		.loc 1 2079 5 view .LVU2436
 6529 00fe 43EA0243 		orr	r3, r3, r2, lsl #16
 6530              	.LVL743:
2081:Lib/AI_Runtime/Npu/ll_aton/ll_aton.c ****   t = ATON_ARITH_INSHIFTER_SET_FSATY(t, (conf->saturation_y != 0));
 6531              		.loc 1 2081 3 is_stmt 1 view .LVU2437
2082:Lib/AI_Runtime/Npu/ll_aton/ll_aton.c ****   t = ATON_ARITH_INSHIFTER_SET_FRNDMODEY(t, conf->round_mode_y);
 6532              		.loc 1 2082 3 view .LVU2438
2083:Lib/AI_Runtime/Npu/ll_aton/ll_aton.c ****   t = ATON_ARITH_INSHIFTER_SET_FOBYTESY(t, conf->outbytes_y);
 6533              		.loc 1 2083 3 view .LVU2439
ARM GAS  /tmp/ccgbPSBw.s 			page 210


2084:Lib/AI_Runtime/Npu/ll_aton/ll_aton.c ****   ATON_ARITH_INSHIFTER_SET(id, t);
 6534              		.loc 1 2084 3 view .LVU2440
2083:Lib/AI_Runtime/Npu/ll_aton/ll_aton.c ****   t = ATON_ARITH_INSHIFTER_SET_FOBYTESY(t, conf->outbytes_y);
 6535              		.loc 1 2083 7 is_stmt 0 view .LVU2441
 6536 0102 0A06     		lsls	r2, r1, #24
 6537              	.LVL744:
2083:Lib/AI_Runtime/Npu/ll_aton/ll_aton.c ****   t = ATON_ARITH_INSHIFTER_SET_FOBYTESY(t, conf->outbytes_y);
 6538              		.loc 1 2083 5 view .LVU2442
 6539 0104 02F07060 		and	r0, r2, #251658240
2080:Lib/AI_Runtime/Npu/ll_aton/ll_aton.c ****   t = ATON_ARITH_INSHIFTER_SET_FROUNDY(t, (conf->rounding_y != 0));
 6540              		.loc 1 2080 7 view .LVU2443
 6541 0108 94F90420 		ldrsb	r2, [r4, #4]
 6542              	.LVL745:
2084:Lib/AI_Runtime/Npu/ll_aton/ll_aton.c ****   ATON_ARITH_INSHIFTER_SET(id, t);
 6543              		.loc 1 2084 7 view .LVU2444
 6544 010c 8909     		lsrs	r1, r1, #6
2080:Lib/AI_Runtime/Npu/ll_aton/ll_aton.c ****   t = ATON_ARITH_INSHIFTER_SET_FROUNDY(t, (conf->rounding_y != 0));
 6545              		.loc 1 2080 7 view .LVU2445
 6546 010e 1032     		adds	r2, r2, #16
 6547 0110 9204     		lsls	r2, r2, #18
 6548 0112 02F47C02 		and	r2, r2, #16515072
2083:Lib/AI_Runtime/Npu/ll_aton/ll_aton.c ****   t = ATON_ARITH_INSHIFTER_SET_FOBYTESY(t, conf->outbytes_y);
 6549              		.loc 1 2083 5 view .LVU2446
 6550 0116 0243     		orrs	r2, r2, r0
2084:Lib/AI_Runtime/Npu/ll_aton/ll_aton.c ****   ATON_ARITH_INSHIFTER_SET(id, t);
 6551              		.loc 1 2084 7 view .LVU2447
 6552 0118 1343     		orrs	r3, r3, r2
 6553              	.LVL746:
2084:Lib/AI_Runtime/Npu/ll_aton/ll_aton.c ****   ATON_ARITH_INSHIFTER_SET(id, t);
 6554              		.loc 1 2084 5 view .LVU2448
 6555 011a 43EA0173 		orr	r3, r3, r1, lsl #28
 6556              	.LVL747:
2085:Lib/AI_Runtime/Npu/ll_aton/ll_aton.c **** 
 6557              		.loc 1 2085 3 is_stmt 1 view .LVU2449
2085:Lib/AI_Runtime/Npu/ll_aton/ll_aton.c **** 
 6558              		.loc 1 2085 3 view .LVU2450
 6559 011e C9F83430 		str	r3, [r9, #52]
2085:Lib/AI_Runtime/Npu/ll_aton/ll_aton.c **** 
 6560              		.loc 1 2085 3 view .LVU2451
2085:Lib/AI_Runtime/Npu/ll_aton/ll_aton.c **** 
 6561              		.loc 1 2085 34 view .LVU2452
2087:Lib/AI_Runtime/Npu/ll_aton/ll_aton.c ****   t = ATON_ARITH_SHIFT_SET_AX(t, conf->Ax_shift + sshift);
 6562              		.loc 1 2087 3 view .LVU2453
 6563              	.LVL748:
2088:Lib/AI_Runtime/Npu/ll_aton/ll_aton.c ****   t = ATON_ARITH_SHIFT_SET_BY(t, conf->By_shift + sshift);
 6564              		.loc 1 2088 3 view .LVU2454
2089:Lib/AI_Runtime/Npu/ll_aton/ll_aton.c ****   t = ATON_ARITH_SHIFT_SET_C(t, conf->C_shift + sshift);
 6565              		.loc 1 2089 3 view .LVU2455
2090:Lib/AI_Runtime/Npu/ll_aton/ll_aton.c ****   t = ATON_ARITH_SHIFT_SET_RES(t, conf->shift_o); // right shift only
 6566              		.loc 1 2090 3 view .LVU2456
2089:Lib/AI_Runtime/Npu/ll_aton/ll_aton.c ****   t = ATON_ARITH_SHIFT_SET_C(t, conf->C_shift + sshift);
 6567              		.loc 1 2089 7 is_stmt 0 view .LVU2457
 6568 0122 E37A     		ldrb	r3, [r4, #11]	@ zero_extendqisi2
2090:Lib/AI_Runtime/Npu/ll_aton/ll_aton.c ****   t = ATON_ARITH_SHIFT_SET_RES(t, conf->shift_o); // right shift only
 6569              		.loc 1 2090 7 view .LVU2458
 6570 0124 227B     		ldrb	r2, [r4, #12]	@ zero_extendqisi2
2089:Lib/AI_Runtime/Npu/ll_aton/ll_aton.c ****   t = ATON_ARITH_SHIFT_SET_C(t, conf->C_shift + sshift);
ARM GAS  /tmp/ccgbPSBw.s 			page 211


 6571              		.loc 1 2089 7 view .LVU2459
 6572 0126 5B01     		lsls	r3, r3, #5
2090:Lib/AI_Runtime/Npu/ll_aton/ll_aton.c ****   t = ATON_ARITH_SHIFT_SET_RES(t, conf->shift_o); // right shift only
 6573              		.loc 1 2090 7 view .LVU2460
 6574 0128 9202     		lsls	r2, r2, #10
 6575 012a 02F4F842 		and	r2, r2, #31744
2089:Lib/AI_Runtime/Npu/ll_aton/ll_aton.c ****   t = ATON_ARITH_SHIFT_SET_C(t, conf->C_shift + sshift);
 6576              		.loc 1 2089 7 view .LVU2461
 6577 012e 03F47873 		and	r3, r3, #992
2090:Lib/AI_Runtime/Npu/ll_aton/ll_aton.c ****   t = ATON_ARITH_SHIFT_SET_RES(t, conf->shift_o); // right shift only
 6578              		.loc 1 2090 5 view .LVU2462
 6579 0132 1343     		orrs	r3, r3, r2
2088:Lib/AI_Runtime/Npu/ll_aton/ll_aton.c ****   t = ATON_ARITH_SHIFT_SET_BY(t, conf->By_shift + sshift);
 6580              		.loc 1 2088 7 view .LVU2463
 6581 0134 A27A     		ldrb	r2, [r4, #10]	@ zero_extendqisi2
2104:Lib/AI_Runtime/Npu/ll_aton/ll_aton.c ****   {
 6582              		.loc 1 2104 6 view .LVU2464
 6583 0136 1EF0020F 		tst	lr, #2
2088:Lib/AI_Runtime/Npu/ll_aton/ll_aton.c ****   t = ATON_ARITH_SHIFT_SET_BY(t, conf->By_shift + sshift);
 6584              		.loc 1 2088 7 view .LVU2465
 6585 013a 02F01F02 		and	r2, r2, #31
2090:Lib/AI_Runtime/Npu/ll_aton/ll_aton.c ****   t = ATON_ARITH_SHIFT_SET_RES(t, conf->shift_o); // right shift only
 6586              		.loc 1 2090 5 view .LVU2466
 6587 013e 43EA0203 		orr	r3, r3, r2
 6588              	.LVL749:
2091:Lib/AI_Runtime/Npu/ll_aton/ll_aton.c ****   ATON_ARITH_SHIFT_SET(id, t);
 6589              		.loc 1 2091 3 is_stmt 1 view .LVU2467
2091:Lib/AI_Runtime/Npu/ll_aton/ll_aton.c ****   ATON_ARITH_SHIFT_SET(id, t);
 6590              		.loc 1 2091 7 is_stmt 0 view .LVU2468
 6591 0142 A279     		ldrb	r2, [r4, #6]	@ zero_extendqisi2
 6592 0144 4FEAC232 		lsl	r2, r2, #15
 6593 0148 02F4FC12 		and	r2, r2, #2064384
2091:Lib/AI_Runtime/Npu/ll_aton/ll_aton.c ****   ATON_ARITH_SHIFT_SET(id, t);
 6594              		.loc 1 2091 5 view .LVU2469
 6595 014c 43EA0203 		orr	r3, r3, r2
 6596              	.LVL750:
2092:Lib/AI_Runtime/Npu/ll_aton/ll_aton.c **** 
 6597              		.loc 1 2092 3 is_stmt 1 view .LVU2470
2092:Lib/AI_Runtime/Npu/ll_aton/ll_aton.c **** 
 6598              		.loc 1 2092 3 view .LVU2471
 6599 0150 C9F80830 		str	r3, [r9, #8]
2092:Lib/AI_Runtime/Npu/ll_aton/ll_aton.c **** 
 6600              		.loc 1 2092 3 view .LVU2472
2092:Lib/AI_Runtime/Npu/ll_aton/ll_aton.c **** 
 6601              		.loc 1 2092 30 view .LVU2473
2094:Lib/AI_Runtime/Npu/ll_aton/ll_aton.c ****   t = ATON_ARITH_COEFFAC_SET_A(t, conf->A_scalar);
 6602              		.loc 1 2094 3 view .LVU2474
 6603              	.LVL751:
2095:Lib/AI_Runtime/Npu/ll_aton/ll_aton.c ****   t = ATON_ARITH_COEFFAC_SET_C(t, conf->C_scalar);
 6604              		.loc 1 2095 3 view .LVU2475
2096:Lib/AI_Runtime/Npu/ll_aton/ll_aton.c ****   ATON_ARITH_COEFFAC_SET(id, t);
 6605              		.loc 1 2096 3 view .LVU2476
2096:Lib/AI_Runtime/Npu/ll_aton/ll_aton.c ****   ATON_ARITH_COEFFAC_SET(id, t);
 6606              		.loc 1 2096 7 is_stmt 0 view .LVU2477
 6607 0154 B4F92420 		ldrsh	r2, [r4, #36]
2095:Lib/AI_Runtime/Npu/ll_aton/ll_aton.c ****   t = ATON_ARITH_COEFFAC_SET_C(t, conf->C_scalar);
 6608              		.loc 1 2095 7 view .LVU2478
ARM GAS  /tmp/ccgbPSBw.s 			page 212


 6609 0158 238C     		ldrh	r3, [r4, #32]
 6610              	.LVL752:
2096:Lib/AI_Runtime/Npu/ll_aton/ll_aton.c ****   ATON_ARITH_COEFFAC_SET(id, t);
 6611              		.loc 1 2096 5 view .LVU2479
 6612 015a 43EA0243 		orr	r3, r3, r2, lsl #16
 6613              	.LVL753:
2097:Lib/AI_Runtime/Npu/ll_aton/ll_aton.c **** 
 6614              		.loc 1 2097 3 is_stmt 1 view .LVU2480
2097:Lib/AI_Runtime/Npu/ll_aton/ll_aton.c **** 
 6615              		.loc 1 2097 3 view .LVU2481
 6616 015e C9F81C30 		str	r3, [r9, #28]
2097:Lib/AI_Runtime/Npu/ll_aton/ll_aton.c **** 
 6617              		.loc 1 2097 3 view .LVU2482
2097:Lib/AI_Runtime/Npu/ll_aton/ll_aton.c **** 
 6618              		.loc 1 2097 32 view .LVU2483
2099:Lib/AI_Runtime/Npu/ll_aton/ll_aton.c ****   t = ATON_ARITH_COEFFB_SET_B(t, conf->B_scalar);
 6619              		.loc 1 2099 3 view .LVU2484
 6620              	.LVL754:
2100:Lib/AI_Runtime/Npu/ll_aton/ll_aton.c ****   ATON_ARITH_COEFFB_SET(id, t);
 6621              		.loc 1 2100 3 view .LVU2485
2100:Lib/AI_Runtime/Npu/ll_aton/ll_aton.c ****   ATON_ARITH_COEFFB_SET(id, t);
 6622              		.loc 1 2100 7 is_stmt 0 view .LVU2486
 6623 0162 638C     		ldrh	r3, [r4, #34]
 6624              	.LVL755:
2101:Lib/AI_Runtime/Npu/ll_aton/ll_aton.c **** 
 6625              		.loc 1 2101 3 is_stmt 1 view .LVU2487
2101:Lib/AI_Runtime/Npu/ll_aton/ll_aton.c **** 
 6626              		.loc 1 2101 3 view .LVU2488
 6627 0164 C9F82030 		str	r3, [r9, #32]
2101:Lib/AI_Runtime/Npu/ll_aton/ll_aton.c **** 
 6628              		.loc 1 2101 3 view .LVU2489
2101:Lib/AI_Runtime/Npu/ll_aton/ll_aton.c **** 
 6629              		.loc 1 2101 31 view .LVU2490
2104:Lib/AI_Runtime/Npu/ll_aton/ll_aton.c ****   {
 6630              		.loc 1 2104 3 view .LVU2491
2104:Lib/AI_Runtime/Npu/ll_aton/ll_aton.c ****   {
 6631              		.loc 1 2104 6 is_stmt 0 view .LVU2492
 6632 0168 06D0     		beq	.L430
2106:Lib/AI_Runtime/Npu/ll_aton/ll_aton.c ****     t = ATON_ARITH_CLIPRANGE_SET_CLIPMAX(t, (conf->clipmax & 0xFFFFU));
 6633              		.loc 1 2106 5 is_stmt 1 view .LVU2493
 6634              	.LVL756:
2107:Lib/AI_Runtime/Npu/ll_aton/ll_aton.c ****     t = ATON_ARITH_CLIPRANGE_SET_CLIPMIN(t, (conf->clipmin & 0xFFFFU));
 6635              		.loc 1 2107 5 view .LVU2494
2108:Lib/AI_Runtime/Npu/ll_aton/ll_aton.c ****     ATON_ARITH_CLIPRANGE_SET(id, t);
 6636              		.loc 1 2108 5 view .LVU2495
2107:Lib/AI_Runtime/Npu/ll_aton/ll_aton.c ****     t = ATON_ARITH_CLIPRANGE_SET_CLIPMIN(t, (conf->clipmin & 0xFFFFU));
 6637              		.loc 1 2107 9 is_stmt 0 view .LVU2496
 6638 016a E38B     		ldrh	r3, [r4, #30]
 6639              	.LVL757:
2108:Lib/AI_Runtime/Npu/ll_aton/ll_aton.c ****     ATON_ARITH_CLIPRANGE_SET(id, t);
 6640              		.loc 1 2108 9 view .LVU2497
 6641 016c B4F91C10 		ldrsh	r1, [r4, #28]
2108:Lib/AI_Runtime/Npu/ll_aton/ll_aton.c ****     ATON_ARITH_CLIPRANGE_SET(id, t);
 6642              		.loc 1 2108 7 view .LVU2498
 6643 0170 43EA0143 		orr	r3, r3, r1, lsl #16
 6644              	.LVL758:
2109:Lib/AI_Runtime/Npu/ll_aton/ll_aton.c **** 
ARM GAS  /tmp/ccgbPSBw.s 			page 213


 6645              		.loc 1 2109 5 is_stmt 1 view .LVU2499
2109:Lib/AI_Runtime/Npu/ll_aton/ll_aton.c **** 
 6646              		.loc 1 2109 5 view .LVU2500
 6647 0174 C9F83830 		str	r3, [r9, #56]
 6648              	.L430:
2109:Lib/AI_Runtime/Npu/ll_aton/ll_aton.c **** 
 6649              		.loc 1 2109 5 discriminator 1 view .LVU2501
2109:Lib/AI_Runtime/Npu/ll_aton/ll_aton.c **** 
 6650              		.loc 1 2109 36 discriminator 1 view .LVU2502
2120:Lib/AI_Runtime/Npu/ll_aton/ll_aton.c **** 
 6651              		.loc 1 2120 3 view .LVU2503
2120:Lib/AI_Runtime/Npu/ll_aton/ll_aton.c **** 
 6652              		.loc 1 2120 3 view .LVU2504
 6653 0178 0023     		movs	r3, #0
 6654              	.LVL759:
2123:Lib/AI_Runtime/Npu/ll_aton/ll_aton.c ****   { // vector mode
 6655              		.loc 1 2123 6 is_stmt 0 view .LVU2505
 6656 017a 0099     		ldr	r1, [sp]
2120:Lib/AI_Runtime/Npu/ll_aton/ll_aton.c **** 
 6657              		.loc 1 2120 3 view .LVU2506
 6658 017c C9F83030 		str	r3, [r9, #48]
2120:Lib/AI_Runtime/Npu/ll_aton/ll_aton.c **** 
 6659              		.loc 1 2120 3 is_stmt 1 view .LVU2507
2120:Lib/AI_Runtime/Npu/ll_aton/ll_aton.c **** 
 6660              		.loc 1 2120 34 view .LVU2508
2122:Lib/AI_Runtime/Npu/ll_aton/ll_aton.c ****   if (conf->scalar == 0)
 6661              		.loc 1 2122 3 view .LVU2509
 6662              	.LVL760:
2123:Lib/AI_Runtime/Npu/ll_aton/ll_aton.c ****   { // vector mode
 6663              		.loc 1 2123 3 view .LVU2510
2123:Lib/AI_Runtime/Npu/ll_aton/ll_aton.c ****   { // vector mode
 6664              		.loc 1 2123 6 is_stmt 0 view .LVU2511
 6665 0180 61B1     		cbz	r1, .L431
 6666              	.LVL761:
 6667              	.L450:
2256:Lib/AI_Runtime/Npu/ll_aton/ll_aton.c **** }
 6668              		.loc 1 2256 10 view .LVU2512
 6669 0182 0020     		movs	r0, #0
 6670              	.LVL762:
 6671              	.L424:
2257:Lib/AI_Runtime/Npu/ll_aton/ll_aton.c **** #endif // ATON_ARITH_NUM
 6672              		.loc 1 2257 1 view .LVU2513
 6673 0184 0BB0     		add	sp, sp, #44
 6674              		.cfi_remember_state
 6675              		.cfi_def_cfa_offset 36
 6676              		@ sp needed
 6677 0186 BDE8F08F 		pop	{r4, r5, r6, r7, r8, r9, r10, fp, pc}
 6678              	.LVL763:
 6679              	.L452:
 6680              		.cfi_restore_state
2049:Lib/AI_Runtime/Npu/ll_aton/ll_aton.c ****   t = ATON_ARITH_CTRL_SET_CNT3(t, (conf->scalar == 0) && (conf->bcast == ARITH_BCAST_CHAN));
 6681              		.loc 1 2049 7 discriminator 4 view .LVU2514
 6682 018a 0025     		movs	r5, #0
 6683 018c 5BE7     		b	.L426
 6684              	.LVL764:
 6685              	.L427:
 6686              	.LBB150:
ARM GAS  /tmp/ccgbPSBw.s 			page 214


 6687              	.LBB149:
2016:Lib/AI_Runtime/Npu/ll_aton/ll_aton.c ****   }
 6688              		.loc 1 2016 5 is_stmt 1 view .LVU2515
2018:Lib/AI_Runtime/Npu/ll_aton/ll_aton.c ****   return 0;
 6689              		.loc 1 2018 3 view .LVU2516
 6690 018e 40F2E271 		movw	r1, #2018
 6691 0192 724B     		ldr	r3, .L465+4
 6692 0194 724A     		ldr	r2, .L465+8
 6693 0196 7348     		ldr	r0, .L465+12
 6694 0198 FFF7FEFF 		bl	__assert_func
 6695              	.LVL765:
 6696              	.L431:
2018:Lib/AI_Runtime/Npu/ll_aton/ll_aton.c ****   return 0;
 6697              		.loc 1 2018 3 is_stmt 0 view .LVU2517
 6698              	.LBE149:
 6699              	.LBE150:
 6700              	.LBB151:
2125:Lib/AI_Runtime/Npu/ll_aton/ll_aton.c ****     {
 6701              		.loc 1 2125 5 is_stmt 1 view .LVU2518
 6702 019c 617A     		ldrb	r1, [r4, #9]	@ zero_extendqisi2
 6703 019e 0139     		subs	r1, r1, #1
 6704 01a0 0429     		cmp	r1, #4
 6705 01a2 00F2D580 		bhi	.L453
 6706 01a6 DFE801F0 		tbb	[pc, r1]
 6707              	.L433:
 6708 01aa 03       		.byte	(.L437-.L433)/2
 6709 01ab 96       		.byte	(.L436-.L433)/2
 6710 01ac AE       		.byte	(.L435-.L433)/2
 6711 01ad B7       		.byte	(.L434-.L433)/2
 6712 01ae C1       		.byte	(.L432-.L433)/2
 6713 01af 00       		.p2align 1
 6714              	.L437:
2128:Lib/AI_Runtime/Npu/ll_aton/ll_aton.c ****       ATON_ARITH_INCCNT_SET(id, t);
 6715              		.loc 1 2128 7 view .LVU2519
 6716              	.LVL766:
2129:Lib/AI_Runtime/Npu/ll_aton/ll_aton.c **** 
 6717              		.loc 1 2129 7 view .LVU2520
2129:Lib/AI_Runtime/Npu/ll_aton/ll_aton.c **** 
 6718              		.loc 1 2129 7 view .LVU2521
2131:Lib/AI_Runtime/Npu/ll_aton/ll_aton.c ****       ATON_ARITH_RSTCNT1_SET(id, t);
 6719              		.loc 1 2131 11 is_stmt 0 view .LVU2522
 6720 01b0 608B     		ldrh	r0, [r4, #26]
2129:Lib/AI_Runtime/Npu/ll_aton/ll_aton.c **** 
 6721              		.loc 1 2129 7 view .LVU2523
 6722 01b2 C9F80C30 		str	r3, [r9, #12]
2129:Lib/AI_Runtime/Npu/ll_aton/ll_aton.c **** 
 6723              		.loc 1 2129 7 is_stmt 1 view .LVU2524
2129:Lib/AI_Runtime/Npu/ll_aton/ll_aton.c **** 
 6724              		.loc 1 2129 35 view .LVU2525
2131:Lib/AI_Runtime/Npu/ll_aton/ll_aton.c ****       ATON_ARITH_RSTCNT1_SET(id, t);
 6725              		.loc 1 2131 7 view .LVU2526
2131:Lib/AI_Runtime/Npu/ll_aton/ll_aton.c ****       ATON_ARITH_RSTCNT1_SET(id, t);
 6726              		.loc 1 2131 11 is_stmt 0 view .LVU2527
 6727 01b6 431E     		subs	r3, r0, #1
2131:Lib/AI_Runtime/Npu/ll_aton/ll_aton.c ****       ATON_ARITH_RSTCNT1_SET(id, t);
 6728              		.loc 1 2131 9 view .LVU2528
 6729 01b8 23F07843 		bic	r3, r3, #-134217728
ARM GAS  /tmp/ccgbPSBw.s 			page 215


 6730              	.LVL767:
2132:Lib/AI_Runtime/Npu/ll_aton/ll_aton.c **** 
 6731              		.loc 1 2132 7 is_stmt 1 view .LVU2529
2132:Lib/AI_Runtime/Npu/ll_aton/ll_aton.c **** 
 6732              		.loc 1 2132 7 view .LVU2530
 6733 01bc C9F81030 		str	r3, [r9, #16]
2132:Lib/AI_Runtime/Npu/ll_aton/ll_aton.c **** 
 6734              		.loc 1 2132 7 view .LVU2531
2132:Lib/AI_Runtime/Npu/ll_aton/ll_aton.c **** 
 6735              		.loc 1 2132 36 view .LVU2532
2134:Lib/AI_Runtime/Npu/ll_aton/ll_aton.c ****           0, (conf->fWidth * conf->fHeight * conf->batchDepth - 1)); // must check this fits into 2
 6736              		.loc 1 2134 7 view .LVU2533
2134:Lib/AI_Runtime/Npu/ll_aton/ll_aton.c ****           0, (conf->fWidth * conf->fHeight * conf->batchDepth - 1)); // must check this fits into 2
 6737              		.loc 1 2134 11 is_stmt 0 view .LVU2534
 6738 01c0 D4E90413 		ldrd	r1, r3, [r4, #16]
 6739              	.LVL768:
2134:Lib/AI_Runtime/Npu/ll_aton/ll_aton.c ****           0, (conf->fWidth * conf->fHeight * conf->batchDepth - 1)); // must check this fits into 2
 6740              		.loc 1 2134 11 view .LVU2535
 6741 01c4 5943     		muls	r1, r3, r1
 6742 01c6 01FB00F3 		mul	r3, r1, r0
 6743 01ca 013B     		subs	r3, r3, #1
2134:Lib/AI_Runtime/Npu/ll_aton/ll_aton.c ****           0, (conf->fWidth * conf->fHeight * conf->batchDepth - 1)); // must check this fits into 2
 6744              		.loc 1 2134 9 view .LVU2536
 6745 01cc 23F07843 		bic	r3, r3, #-134217728
 6746              	.LVL769:
2136:Lib/AI_Runtime/Npu/ll_aton/ll_aton.c **** 
 6747              		.loc 1 2136 7 is_stmt 1 view .LVU2537
2136:Lib/AI_Runtime/Npu/ll_aton/ll_aton.c **** 
 6748              		.loc 1 2136 7 view .LVU2538
 6749 01d0 C9F81430 		str	r3, [r9, #20]
2136:Lib/AI_Runtime/Npu/ll_aton/ll_aton.c **** 
 6750              		.loc 1 2136 7 view .LVU2539
2136:Lib/AI_Runtime/Npu/ll_aton/ll_aton.c **** 
 6751              		.loc 1 2136 36 view .LVU2540
2138:Lib/AI_Runtime/Npu/ll_aton/ll_aton.c ****           0, (conf->fWidth * conf->fHeight * conf->fChannels - 1)); // must check this fits into 27
 6752              		.loc 1 2138 7 view .LVU2541
2138:Lib/AI_Runtime/Npu/ll_aton/ll_aton.c ****           0, (conf->fWidth * conf->fHeight * conf->fChannels - 1)); // must check this fits into 27
 6753              		.loc 1 2138 11 is_stmt 0 view .LVU2542
 6754 01d4 238B     		ldrh	r3, [r4, #24]
 6755              	.LVL770:
2138:Lib/AI_Runtime/Npu/ll_aton/ll_aton.c ****           0, (conf->fWidth * conf->fHeight * conf->fChannels - 1)); // must check this fits into 27
 6756              		.loc 1 2138 11 view .LVU2543
 6757 01d6 5943     		muls	r1, r3, r1
 6758 01d8 0139     		subs	r1, r1, #1
2138:Lib/AI_Runtime/Npu/ll_aton/ll_aton.c ****           0, (conf->fWidth * conf->fHeight * conf->fChannels - 1)); // must check this fits into 27
 6759              		.loc 1 2138 9 view .LVU2544
 6760 01da 21F07841 		bic	r1, r1, #-134217728
 6761              	.LVL771:
2140:Lib/AI_Runtime/Npu/ll_aton/ll_aton.c **** 
 6762              		.loc 1 2140 7 is_stmt 1 view .LVU2545
2140:Lib/AI_Runtime/Npu/ll_aton/ll_aton.c **** 
 6763              		.loc 1 2140 7 view .LVU2546
 6764 01de C9F81810 		str	r1, [r9, #24]
2140:Lib/AI_Runtime/Npu/ll_aton/ll_aton.c **** 
 6765              		.loc 1 2140 7 view .LVU2547
2140:Lib/AI_Runtime/Npu/ll_aton/ll_aton.c **** 
 6766              		.loc 1 2140 36 view .LVU2548
ARM GAS  /tmp/ccgbPSBw.s 			page 216


2142:Lib/AI_Runtime/Npu/ll_aton/ll_aton.c ****       ATON_ARITH_INCOFFSET_SET(id, t);
 6767              		.loc 1 2142 7 view .LVU2549
 6768              	.LVL772:
2143:Lib/AI_Runtime/Npu/ll_aton/ll_aton.c **** 
 6769              		.loc 1 2143 7 view .LVU2550
2143:Lib/AI_Runtime/Npu/ll_aton/ll_aton.c **** 
 6770              		.loc 1 2143 7 view .LVU2551
 6771 01e2 0121     		movs	r1, #1
2145:Lib/AI_Runtime/Npu/ll_aton/ll_aton.c ****       t = ATON_ARITH_ADDROFFSET_SET_OFFSET2(t, 1);
 6772              		.loc 1 2145 11 is_stmt 0 view .LVU2552
 6773 01e4 081A     		subs	r0, r1, r0
2147:Lib/AI_Runtime/Npu/ll_aton/ll_aton.c ****       ATON_ARITH_ADDROFFSET_SET(id, t);
 6774              		.loc 1 2147 11 view .LVU2553
 6775 01e6 CD1A     		subs	r5, r1, r3
2143:Lib/AI_Runtime/Npu/ll_aton/ll_aton.c **** 
 6776              		.loc 1 2143 7 view .LVU2554
 6777 01e8 C9F82810 		str	r1, [r9, #40]
2143:Lib/AI_Runtime/Npu/ll_aton/ll_aton.c **** 
 6778              		.loc 1 2143 7 is_stmt 1 view .LVU2555
2143:Lib/AI_Runtime/Npu/ll_aton/ll_aton.c **** 
 6779              		.loc 1 2143 38 view .LVU2556
2145:Lib/AI_Runtime/Npu/ll_aton/ll_aton.c ****       t = ATON_ARITH_ADDROFFSET_SET_OFFSET2(t, 1);
 6780              		.loc 1 2145 7 view .LVU2557
 6781              	.LVL773:
2146:Lib/AI_Runtime/Npu/ll_aton/ll_aton.c ****       t = ATON_ARITH_ADDROFFSET_SET_OFFSET3(t, -(conf->fChannels - 1));
 6782              		.loc 1 2146 7 view .LVU2558
2147:Lib/AI_Runtime/Npu/ll_aton/ll_aton.c ****       ATON_ARITH_ADDROFFSET_SET(id, t);
 6783              		.loc 1 2147 11 is_stmt 0 view .LVU2559
 6784 01ec 5E49     		ldr	r1, .L465+16
2146:Lib/AI_Runtime/Npu/ll_aton/ll_aton.c ****       t = ATON_ARITH_ADDROFFSET_SET_OFFSET3(t, -(conf->fChannels - 1));
 6785              		.loc 1 2146 9 view .LVU2560
 6786 01ee C0F30800 		ubfx	r0, r0, #0, #9
 6787 01f2 40F40070 		orr	r0, r0, #512
 6788              	.LVL774:
2147:Lib/AI_Runtime/Npu/ll_aton/ll_aton.c ****       ATON_ARITH_ADDROFFSET_SET(id, t);
 6789              		.loc 1 2147 7 is_stmt 1 view .LVU2561
2147:Lib/AI_Runtime/Npu/ll_aton/ll_aton.c ****       ATON_ARITH_ADDROFFSET_SET(id, t);
 6790              		.loc 1 2147 11 is_stmt 0 view .LVU2562
 6791 01f6 01EA8541 		and	r1, r1, r5, lsl #18
2147:Lib/AI_Runtime/Npu/ll_aton/ll_aton.c ****       ATON_ARITH_ADDROFFSET_SET(id, t);
 6792              		.loc 1 2147 9 view .LVU2563
 6793 01fa 0143     		orrs	r1, r1, r0
 6794              	.LVL775:
2148:Lib/AI_Runtime/Npu/ll_aton/ll_aton.c ****       maxc = conf->fChannels;
 6795              		.loc 1 2148 7 is_stmt 1 view .LVU2564
2148:Lib/AI_Runtime/Npu/ll_aton/ll_aton.c ****       maxc = conf->fChannels;
 6796              		.loc 1 2148 7 view .LVU2565
 6797              	.L462:
2162:Lib/AI_Runtime/Npu/ll_aton/ll_aton.c ****       maxc = conf->fHeight;
 6798              		.loc 1 2162 7 view .LVU2566
2162:Lib/AI_Runtime/Npu/ll_aton/ll_aton.c ****       maxc = conf->fHeight;
 6799              		.loc 1 2162 7 view .LVU2567
 6800 01fc C9F82410 		str	r1, [r9, #36]
2162:Lib/AI_Runtime/Npu/ll_aton/ll_aton.c ****       maxc = conf->fHeight;
 6801              		.loc 1 2162 7 view .LVU2568
2162:Lib/AI_Runtime/Npu/ll_aton/ll_aton.c ****       maxc = conf->fHeight;
 6802              		.loc 1 2162 39 view .LVU2569
ARM GAS  /tmp/ccgbPSBw.s 			page 217


2163:Lib/AI_Runtime/Npu/ll_aton/ll_aton.c ****       break;
 6803              		.loc 1 2163 7 view .LVU2570
 6804              	.LVL776:
2164:Lib/AI_Runtime/Npu/ll_aton/ll_aton.c ****     case ARITH_BCAST_WIDTH:
 6805              		.loc 1 2164 7 view .LVU2571
 6806              	.L438:
2206:Lib/AI_Runtime/Npu/ll_aton/ll_aton.c ****     int i, k;
 6807              		.loc 1 2206 5 view .LVU2572
2206:Lib/AI_Runtime/Npu/ll_aton/ll_aton.c ****     int i, k;
 6808              		.loc 1 2206 10 is_stmt 0 view .LVU2573
 6809 0200 B3F5007F 		cmp	r3, #512
 6810 0204 A8BF     		it	ge
 6811 0206 4FF40073 		movge	r3, #512
 6812              	.LVL777:
2206:Lib/AI_Runtime/Npu/ll_aton/ll_aton.c ****     int i, k;
 6813              		.loc 1 2206 10 view .LVU2574
 6814 020a 0993     		str	r3, [sp, #36]
 6815              	.LVL778:
2207:Lib/AI_Runtime/Npu/ll_aton/ll_aton.c ****     uint32_t *Ap = (uint32_t *)conf->A_vector.p;
 6816              		.loc 1 2207 5 is_stmt 1 view .LVU2575
2208:Lib/AI_Runtime/Npu/ll_aton/ll_aton.c ****     uint32_t *Bp = (uint32_t *)conf->B_vector.p;
 6817              		.loc 1 2208 5 view .LVU2576
2208:Lib/AI_Runtime/Npu/ll_aton/ll_aton.c ****     uint32_t *Bp = (uint32_t *)conf->B_vector.p;
 6818              		.loc 1 2208 15 is_stmt 0 view .LVU2577
 6819 020c A36A     		ldr	r3, [r4, #40]
 6820              	.LVL779:
2219:Lib/AI_Runtime/Npu/ll_aton/ll_aton.c **** #if (LL_ATON_PLATFORM == LL_ATON_PLAT_EC_TRACE)
 6821              		.loc 1 2219 49 discriminator 1 view .LVU2578
 6822 020e 0132     		adds	r2, r2, #1
2208:Lib/AI_Runtime/Npu/ll_aton/ll_aton.c ****     uint32_t *Bp = (uint32_t *)conf->B_vector.p;
 6823              		.loc 1 2208 15 view .LVU2579
 6824 0210 0193     		str	r3, [sp, #4]
 6825              	.LVL780:
2209:Lib/AI_Runtime/Npu/ll_aton/ll_aton.c ****     uint32_t *Cp = (uint32_t *)conf->C_vector.p;
 6826              		.loc 1 2209 5 is_stmt 1 view .LVU2580
2209:Lib/AI_Runtime/Npu/ll_aton/ll_aton.c ****     uint32_t *Cp = (uint32_t *)conf->C_vector.p;
 6827              		.loc 1 2209 15 is_stmt 0 view .LVU2581
 6828 0212 E36A     		ldr	r3, [r4, #44]
 6829              	.LVL781:
2216:Lib/AI_Runtime/Npu/ll_aton/ll_aton.c ****     int mem_idx_num = ATON_ARITH_COEFF_AB_IDX_MAX - ATON_ARITH_COEFF_AB_IDX_MIN + 1;
 6830              		.loc 1 2216 9 view .LVU2582
 6831 0214 4FF00005 		mov	r5, #0
2209:Lib/AI_Runtime/Npu/ll_aton/ll_aton.c ****     uint32_t *Cp = (uint32_t *)conf->C_vector.p;
 6832              		.loc 1 2209 15 view .LVU2583
 6833 0218 0293     		str	r3, [sp, #8]
 6834              	.LVL782:
2210:Lib/AI_Runtime/Npu/ll_aton/ll_aton.c ****     int nbits_A = conf->vec_precision[0];
 6835              		.loc 1 2210 5 is_stmt 1 view .LVU2584
2210:Lib/AI_Runtime/Npu/ll_aton/ll_aton.c ****     int nbits_A = conf->vec_precision[0];
 6836              		.loc 1 2210 15 is_stmt 0 view .LVU2585
 6837 021a 236B     		ldr	r3, [r4, #48]
 6838              	.LVL783:
2215:Lib/AI_Runtime/Npu/ll_aton/ll_aton.c ****     int bitcnt_C = 0;
 6839              		.loc 1 2215 9 view .LVU2586
 6840 021c AA46     		mov	r10, r5
2210:Lib/AI_Runtime/Npu/ll_aton/ll_aton.c ****     int nbits_A = conf->vec_precision[0];
 6841              		.loc 1 2210 15 view .LVU2587
ARM GAS  /tmp/ccgbPSBw.s 			page 218


 6842 021e 0393     		str	r3, [sp, #12]
 6843              	.LVL784:
2211:Lib/AI_Runtime/Npu/ll_aton/ll_aton.c ****     int nbits_B = conf->vec_precision[1];
 6844              		.loc 1 2211 5 is_stmt 1 view .LVU2588
2211:Lib/AI_Runtime/Npu/ll_aton/ll_aton.c ****     int nbits_B = conf->vec_precision[1];
 6845              		.loc 1 2211 9 is_stmt 0 view .LVU2589
 6846 0220 94F83430 		ldrb	r3, [r4, #52]	@ zero_extendqisi2
 6847              	.LVL785:
2224:Lib/AI_Runtime/Npu/ll_aton/ll_aton.c ****     {
 6848              		.loc 1 2224 19 view .LVU2590
 6849 0224 2F46     		mov	r7, r5
2211:Lib/AI_Runtime/Npu/ll_aton/ll_aton.c ****     int nbits_B = conf->vec_precision[1];
 6850              		.loc 1 2211 9 view .LVU2591
 6851 0226 0493     		str	r3, [sp, #16]
 6852              	.LVL786:
2212:Lib/AI_Runtime/Npu/ll_aton/ll_aton.c ****     int nbits_C = conf->vec_precision[2];
 6853              		.loc 1 2212 5 is_stmt 1 view .LVU2592
2212:Lib/AI_Runtime/Npu/ll_aton/ll_aton.c ****     int nbits_C = conf->vec_precision[2];
 6854              		.loc 1 2212 9 is_stmt 0 view .LVU2593
 6855 0228 94F83530 		ldrb	r3, [r4, #53]	@ zero_extendqisi2
 6856              	.LVL787:
2224:Lib/AI_Runtime/Npu/ll_aton/ll_aton.c ****     {
 6857              		.loc 1 2224 12 view .LVU2594
 6858 022c A846     		mov	r8, r5
2212:Lib/AI_Runtime/Npu/ll_aton/ll_aton.c ****     int nbits_C = conf->vec_precision[2];
 6859              		.loc 1 2212 9 view .LVU2595
 6860 022e 0593     		str	r3, [sp, #20]
 6861              	.LVL788:
2213:Lib/AI_Runtime/Npu/ll_aton/ll_aton.c ****     int bitcnt_A = 0;
 6862              		.loc 1 2213 5 is_stmt 1 view .LVU2596
2213:Lib/AI_Runtime/Npu/ll_aton/ll_aton.c ****     int bitcnt_A = 0;
 6863              		.loc 1 2213 9 is_stmt 0 view .LVU2597
 6864 0230 94F83630 		ldrb	r3, [r4, #54]	@ zero_extendqisi2
 6865              	.LVL789:
2214:Lib/AI_Runtime/Npu/ll_aton/ll_aton.c ****     int bitcnt_B = 0;
 6866              		.loc 1 2214 9 view .LVU2598
 6867 0234 0095     		str	r5, [sp]
2213:Lib/AI_Runtime/Npu/ll_aton/ll_aton.c ****     int bitcnt_A = 0;
 6868              		.loc 1 2213 9 view .LVU2599
 6869 0236 0693     		str	r3, [sp, #24]
 6870              	.LVL790:
2214:Lib/AI_Runtime/Npu/ll_aton/ll_aton.c ****     int bitcnt_B = 0;
 6871              		.loc 1 2214 5 is_stmt 1 view .LVU2600
2215:Lib/AI_Runtime/Npu/ll_aton/ll_aton.c ****     int bitcnt_C = 0;
 6872              		.loc 1 2215 5 view .LVU2601
2216:Lib/AI_Runtime/Npu/ll_aton/ll_aton.c ****     int mem_idx_num = ATON_ARITH_COEFF_AB_IDX_MAX - ATON_ARITH_COEFF_AB_IDX_MIN + 1;
 6873              		.loc 1 2216 5 view .LVU2602
2217:Lib/AI_Runtime/Npu/ll_aton/ll_aton.c **** 
 6874              		.loc 1 2217 5 view .LVU2603
2219:Lib/AI_Runtime/Npu/ll_aton/ll_aton.c **** #if (LL_ATON_PLATFORM == LL_ATON_PLAT_EC_TRACE)
 6875              		.loc 1 2219 5 view .LVU2604
2219:Lib/AI_Runtime/Npu/ll_aton/ll_aton.c **** #if (LL_ATON_PLATFORM == LL_ATON_PLAT_EC_TRACE)
 6876              		.loc 1 2219 49 is_stmt 0 discriminator 1 view .LVU2605
 6877 0238 14BF     		ite	ne
 6878 023a 0123     		movne	r3, #1
 6879              	.LVL791:
2219:Lib/AI_Runtime/Npu/ll_aton/ll_aton.c **** #if (LL_ATON_PLATFORM == LL_ATON_PLAT_EC_TRACE)
ARM GAS  /tmp/ccgbPSBw.s 			page 219


 6880              		.loc 1 2219 49 discriminator 1 view .LVU2606
 6881 023c 4FF0FF33 		moveq	r3, #-1
 6882 0240 0893     		str	r3, [sp, #32]
 6883              	.LVL792:
2223:Lib/AI_Runtime/Npu/ll_aton/ll_aton.c ****     for (i = 0, k = 0; i < maxc; i++, k++)
 6884              		.loc 1 2223 5 is_stmt 1 view .LVU2607
2223:Lib/AI_Runtime/Npu/ll_aton/ll_aton.c ****     for (i = 0, k = 0; i < maxc; i++, k++)
 6885              		.loc 1 2223 5 view .LVU2608
 6886 0242 09F12C03 		add	r3, r9, #44
 6887              	.LVL793:
2223:Lib/AI_Runtime/Npu/ll_aton/ll_aton.c ****     for (i = 0, k = 0; i < maxc; i++, k++)
 6888              		.loc 1 2223 5 is_stmt 0 view .LVU2609
 6889 0246 0793     		str	r3, [sp, #28]
 6890 0248 0123     		movs	r3, #1
 6891 024a C9F82C30 		str	r3, [r9, #44]
2223:Lib/AI_Runtime/Npu/ll_aton/ll_aton.c ****     for (i = 0, k = 0; i < maxc; i++, k++)
 6892              		.loc 1 2223 5 is_stmt 1 view .LVU2610
2223:Lib/AI_Runtime/Npu/ll_aton/ll_aton.c ****     for (i = 0, k = 0; i < maxc; i++, k++)
 6893              		.loc 1 2223 40 view .LVU2611
2224:Lib/AI_Runtime/Npu/ll_aton/ll_aton.c ****     {
 6894              		.loc 1 2224 5 view .LVU2612
 6895              	.LVL794:
 6896              	.L440:
2224:Lib/AI_Runtime/Npu/ll_aton/ll_aton.c ****     {
 6897              		.loc 1 2224 26 discriminator 1 view .LVU2613
 6898 024e 099B     		ldr	r3, [sp, #36]
 6899 0250 9845     		cmp	r8, r3
 6900 0252 96DA     		bge	.L450
 6901              	.LBB152:
2226:Lib/AI_Runtime/Npu/ll_aton/ll_aton.c ****       uint32_t A = Ap != NULL ? LL_ATON_getbits(Ap, bitcnt_A, nbits_A) : (uint32_t)conf->A_scalar;
 6902              		.loc 1 2226 7 view .LVU2614
2227:Lib/AI_Runtime/Npu/ll_aton/ll_aton.c ****       uint32_t B = Bp != NULL ? LL_ATON_getbits(Bp, bitcnt_B, nbits_B) : (uint32_t)conf->B_scalar;
 6903              		.loc 1 2227 7 view .LVU2615
2227:Lib/AI_Runtime/Npu/ll_aton/ll_aton.c ****       uint32_t B = Bp != NULL ? LL_ATON_getbits(Bp, bitcnt_B, nbits_B) : (uint32_t)conf->B_scalar;
 6904              		.loc 1 2227 72 is_stmt 0 view .LVU2616
 6905 0254 019B     		ldr	r3, [sp, #4]
 6906 0256 002B     		cmp	r3, #0
 6907 0258 6ED0     		beq	.L441
2227:Lib/AI_Runtime/Npu/ll_aton/ll_aton.c ****       uint32_t B = Bp != NULL ? LL_ATON_getbits(Bp, bitcnt_B, nbits_B) : (uint32_t)conf->B_scalar;
 6908              		.loc 1 2227 33 discriminator 1 view .LVU2617
 6909 025a 1846     		mov	r0, r3
 6910 025c 049A     		ldr	r2, [sp, #16]
 6911 025e 0099     		ldr	r1, [sp]
 6912 0260 FFF7FEFF 		bl	LL_ATON_getbits
 6913              	.LVL795:
 6914 0264 0646     		mov	r6, r0
 6915              	.L442:
 6916              	.LVL796:
2228:Lib/AI_Runtime/Npu/ll_aton/ll_aton.c ****       uint32_t C = Cp != NULL ? (c_sign * LL_ATON_getbits(Cp, bitcnt_C, nbits_C)) : (uint32_t)conf-
 6917              		.loc 1 2228 7 is_stmt 1 view .LVU2618
2228:Lib/AI_Runtime/Npu/ll_aton/ll_aton.c ****       uint32_t C = Cp != NULL ? (c_sign * LL_ATON_getbits(Cp, bitcnt_C, nbits_C)) : (uint32_t)conf-
 6918              		.loc 1 2228 72 is_stmt 0 view .LVU2619
 6919 0266 029B     		ldr	r3, [sp, #8]
 6920 0268 002B     		cmp	r3, #0
 6921 026a 68D0     		beq	.L443
2228:Lib/AI_Runtime/Npu/ll_aton/ll_aton.c ****       uint32_t C = Cp != NULL ? (c_sign * LL_ATON_getbits(Cp, bitcnt_C, nbits_C)) : (uint32_t)conf-
 6922              		.loc 1 2228 33 discriminator 1 view .LVU2620
ARM GAS  /tmp/ccgbPSBw.s 			page 220


 6923 026c 5146     		mov	r1, r10
 6924 026e 1846     		mov	r0, r3
 6925 0270 059A     		ldr	r2, [sp, #20]
 6926 0272 FFF7FEFF 		bl	LL_ATON_getbits
 6927              	.LVL797:
 6928 0276 8346     		mov	fp, r0
 6929              	.L444:
 6930              	.LVL798:
2229:Lib/AI_Runtime/Npu/ll_aton/ll_aton.c ****       if (conf->combinebc)
 6931              		.loc 1 2229 7 is_stmt 1 view .LVU2621
2229:Lib/AI_Runtime/Npu/ll_aton/ll_aton.c ****       if (conf->combinebc)
 6932              		.loc 1 2229 83 is_stmt 0 view .LVU2622
 6933 0278 039B     		ldr	r3, [sp, #12]
 6934 027a 002B     		cmp	r3, #0
 6935 027c 62D0     		beq	.L445
2229:Lib/AI_Runtime/Npu/ll_aton/ll_aton.c ****       if (conf->combinebc)
 6936              		.loc 1 2229 43 discriminator 1 view .LVU2623
 6937 027e 1846     		mov	r0, r3
 6938 0280 2946     		mov	r1, r5
 6939 0282 069A     		ldr	r2, [sp, #24]
 6940 0284 FFF7FEFF 		bl	LL_ATON_getbits
 6941              	.LVL799:
2229:Lib/AI_Runtime/Npu/ll_aton/ll_aton.c ****       if (conf->combinebc)
 6942              		.loc 1 2229 83 discriminator 1 view .LVU2624
 6943 0288 089B     		ldr	r3, [sp, #32]
 6944 028a 5843     		muls	r0, r3, r0
 6945              	.L446:
 6946              	.LVL800:
2230:Lib/AI_Runtime/Npu/ll_aton/ll_aton.c ****       {
 6947              		.loc 1 2230 7 is_stmt 1 view .LVU2625
2232:Lib/AI_Runtime/Npu/ll_aton/ll_aton.c ****         C = (C & 0xFFFF);
 6948              		.loc 1 2232 9 view .LVU2626
2230:Lib/AI_Runtime/Npu/ll_aton/ll_aton.c ****       {
 6949              		.loc 1 2230 11 is_stmt 0 view .LVU2627
 6950 028c E378     		ldrb	r3, [r4, #3]	@ zero_extendqisi2
2244:Lib/AI_Runtime/Npu/ll_aton/ll_aton.c ****       t = ATON_ARITH_COEFF_AB_SET_B(t, B);
 6951              		.loc 1 2244 11 view .LVU2628
 6952 028e B6B2     		uxth	r6, r6
 6953              	.LVL801:
2230:Lib/AI_Runtime/Npu/ll_aton/ll_aton.c ****       {
 6954              		.loc 1 2230 10 view .LVU2629
 6955 0290 DB07     		lsls	r3, r3, #31
2232:Lib/AI_Runtime/Npu/ll_aton/ll_aton.c ****         C = (C & 0xFFFF);
 6956              		.loc 1 2232 11 view .LVU2630
 6957 0292 44BF     		itt	mi
 6958 0294 4FEA104B 		lsrmi	fp, r0, #16
 6959              	.LVL802:
2233:Lib/AI_Runtime/Npu/ll_aton/ll_aton.c ****       }
 6960              		.loc 1 2233 9 is_stmt 1 view .LVU2631
2233:Lib/AI_Runtime/Npu/ll_aton/ll_aton.c ****       }
 6961              		.loc 1 2233 11 is_stmt 0 view .LVU2632
 6962 0298 80B2     		uxthmi	r0, r0
 6963              	.LVL803:
2235:Lib/AI_Runtime/Npu/ll_aton/ll_aton.c ****       {
 6964              		.loc 1 2235 7 is_stmt 1 view .LVU2633
2235:Lib/AI_Runtime/Npu/ll_aton/ll_aton.c ****       {
 6965              		.loc 1 2235 10 is_stmt 0 view .LVU2634
ARM GAS  /tmp/ccgbPSBw.s 			page 221


 6966 029a B7F5C07F 		cmp	r7, #384
2240:Lib/AI_Runtime/Npu/ll_aton/ll_aton.c ****         k -= (256 / 2);
 6967              		.loc 1 2240 9 is_stmt 1 view .LVU2635
2240:Lib/AI_Runtime/Npu/ll_aton/ll_aton.c ****         k -= (256 / 2);
 6968              		.loc 1 2240 9 view .LVU2636
 6969 029e 02BF     		ittt	eq
 6970 02a0 0022     		moveq	r2, #0
2241:Lib/AI_Runtime/Npu/ll_aton/ll_aton.c ****       }
 6971              		.loc 1 2241 11 is_stmt 0 view .LVU2637
 6972 02a2 4FF48077 		moveq	r7, #256
 6973              	.LVL804:
2240:Lib/AI_Runtime/Npu/ll_aton/ll_aton.c ****         k -= (256 / 2);
 6974              		.loc 1 2240 9 view .LVU2638
 6975 02a6 079B     		ldreq	r3, [sp, #28]
2245:Lib/AI_Runtime/Npu/ll_aton/ll_aton.c ****       ATON_ARITH_COEFF_AB_SET(id, k, t);
 6976              		.loc 1 2245 9 view .LVU2639
 6977 02a8 46EA0B46 		orr	r6, r6, fp, lsl #16
2240:Lib/AI_Runtime/Npu/ll_aton/ll_aton.c ****         k -= (256 / 2);
 6978              		.loc 1 2240 9 view .LVU2640
 6979 02ac 08BF     		it	eq
 6980 02ae 1A60     		streq	r2, [r3]
2240:Lib/AI_Runtime/Npu/ll_aton/ll_aton.c ****         k -= (256 / 2);
 6981              		.loc 1 2240 9 is_stmt 1 view .LVU2641
2240:Lib/AI_Runtime/Npu/ll_aton/ll_aton.c ****         k -= (256 / 2);
 6982              		.loc 1 2240 44 view .LVU2642
2241:Lib/AI_Runtime/Npu/ll_aton/ll_aton.c ****       }
 6983              		.loc 1 2241 9 view .LVU2643
 6984              	.LVL805:
2243:Lib/AI_Runtime/Npu/ll_aton/ll_aton.c ****       t = ATON_ARITH_COEFF_AB_SET_A(t, A);
 6985              		.loc 1 2243 7 view .LVU2644
2244:Lib/AI_Runtime/Npu/ll_aton/ll_aton.c ****       t = ATON_ARITH_COEFF_AB_SET_B(t, B);
 6986              		.loc 1 2244 7 view .LVU2645
2245:Lib/AI_Runtime/Npu/ll_aton/ll_aton.c ****       ATON_ARITH_COEFF_AB_SET(id, k, t);
 6987              		.loc 1 2245 7 view .LVU2646
2246:Lib/AI_Runtime/Npu/ll_aton/ll_aton.c ****       t = ATON_ARITH_COEFF_C_DT;
 6988              		.loc 1 2246 7 view .LVU2647
2246:Lib/AI_Runtime/Npu/ll_aton/ll_aton.c ****       t = ATON_ARITH_COEFF_C_DT;
 6989              		.loc 1 2246 7 view .LVU2648
2248:Lib/AI_Runtime/Npu/ll_aton/ll_aton.c ****       ATON_ARITH_COEFF_C_SET(id, k, t);
 6990              		.loc 1 2248 11 is_stmt 0 view .LVU2649
 6991 02b0 80B2     		uxth	r0, r0
2246:Lib/AI_Runtime/Npu/ll_aton/ll_aton.c ****       t = ATON_ARITH_COEFF_C_DT;
 6992              		.loc 1 2246 7 view .LVU2650
 6993 02b2 09EBC703 		add	r3, r9, r7, lsl #3
 6994 02b6 C3F80064 		str	r6, [r3, #1024]
2246:Lib/AI_Runtime/Npu/ll_aton/ll_aton.c ****       t = ATON_ARITH_COEFF_C_DT;
 6995              		.loc 1 2246 7 is_stmt 1 view .LVU2651
2247:Lib/AI_Runtime/Npu/ll_aton/ll_aton.c ****       t = ATON_ARITH_COEFF_C_SET_C(t, C);
 6996              		.loc 1 2247 7 view .LVU2652
 6997              	.LVL806:
2248:Lib/AI_Runtime/Npu/ll_aton/ll_aton.c ****       ATON_ARITH_COEFF_C_SET(id, k, t);
 6998              		.loc 1 2248 7 view .LVU2653
2249:Lib/AI_Runtime/Npu/ll_aton/ll_aton.c **** 
 6999              		.loc 1 2249 7 view .LVU2654
2249:Lib/AI_Runtime/Npu/ll_aton/ll_aton.c **** 
 7000              		.loc 1 2249 7 view .LVU2655
2251:Lib/AI_Runtime/Npu/ll_aton/ll_aton.c ****       bitcnt_B += nbits_B;
ARM GAS  /tmp/ccgbPSBw.s 			page 222


 7001              		.loc 1 2251 16 is_stmt 0 view .LVU2656
 7002 02ba 049A     		ldr	r2, [sp, #16]
2249:Lib/AI_Runtime/Npu/ll_aton/ll_aton.c **** 
 7003              		.loc 1 2249 7 view .LVU2657
 7004 02bc C3F80404 		str	r0, [r3, #1028]
2249:Lib/AI_Runtime/Npu/ll_aton/ll_aton.c **** 
 7005              		.loc 1 2249 7 is_stmt 1 view .LVU2658
2251:Lib/AI_Runtime/Npu/ll_aton/ll_aton.c ****       bitcnt_B += nbits_B;
 7006              		.loc 1 2251 7 view .LVU2659
2251:Lib/AI_Runtime/Npu/ll_aton/ll_aton.c ****       bitcnt_B += nbits_B;
 7007              		.loc 1 2251 16 is_stmt 0 view .LVU2660
 7008 02c0 009B     		ldr	r3, [sp]
 7009              	.LBE152:
2224:Lib/AI_Runtime/Npu/ll_aton/ll_aton.c ****     {
 7010              		.loc 1 2224 35 discriminator 2 view .LVU2661
 7011 02c2 08F10108 		add	r8, r8, #1
 7012              	.LVL807:
 7013              	.LBB153:
2251:Lib/AI_Runtime/Npu/ll_aton/ll_aton.c ****       bitcnt_B += nbits_B;
 7014              		.loc 1 2251 16 view .LVU2662
 7015 02c6 1344     		add	r3, r3, r2
 7016 02c8 0093     		str	r3, [sp]
 7017              	.LVL808:
2252:Lib/AI_Runtime/Npu/ll_aton/ll_aton.c ****       bitcnt_C += nbits_C;
 7018              		.loc 1 2252 7 is_stmt 1 view .LVU2663
2252:Lib/AI_Runtime/Npu/ll_aton/ll_aton.c ****       bitcnt_C += nbits_C;
 7019              		.loc 1 2252 16 is_stmt 0 view .LVU2664
 7020 02ca 059B     		ldr	r3, [sp, #20]
 7021              	.LVL809:
2252:Lib/AI_Runtime/Npu/ll_aton/ll_aton.c ****       bitcnt_C += nbits_C;
 7022              		.loc 1 2252 16 view .LVU2665
 7023              	.LBE153:
2224:Lib/AI_Runtime/Npu/ll_aton/ll_aton.c ****     {
 7024              		.loc 1 2224 40 discriminator 2 view .LVU2666
 7025 02cc 0137     		adds	r7, r7, #1
 7026              	.LVL810:
 7027              	.LBB154:
2252:Lib/AI_Runtime/Npu/ll_aton/ll_aton.c ****       bitcnt_C += nbits_C;
 7028              		.loc 1 2252 16 view .LVU2667
 7029 02ce 9A44     		add	r10, r10, r3
 7030              	.LVL811:
2253:Lib/AI_Runtime/Npu/ll_aton/ll_aton.c ****     }
 7031              		.loc 1 2253 7 is_stmt 1 view .LVU2668
2253:Lib/AI_Runtime/Npu/ll_aton/ll_aton.c ****     }
 7032              		.loc 1 2253 16 is_stmt 0 view .LVU2669
 7033 02d0 069B     		ldr	r3, [sp, #24]
 7034 02d2 1D44     		add	r5, r5, r3
 7035              	.LVL812:
2253:Lib/AI_Runtime/Npu/ll_aton/ll_aton.c ****     }
 7036              		.loc 1 2253 16 view .LVU2670
 7037              	.LBE154:
2224:Lib/AI_Runtime/Npu/ll_aton/ll_aton.c ****     {
 7038              		.loc 1 2224 37 is_stmt 1 discriminator 2 view .LVU2671
2224:Lib/AI_Runtime/Npu/ll_aton/ll_aton.c ****     {
 7039              		.loc 1 2224 37 is_stmt 0 discriminator 2 view .LVU2672
 7040 02d4 BBE7     		b	.L440
 7041              	.LVL813:
ARM GAS  /tmp/ccgbPSBw.s 			page 223


 7042              	.L436:
2152:Lib/AI_Runtime/Npu/ll_aton/ll_aton.c ****       ATON_ARITH_INCCNT_SET(id, t);
 7043              		.loc 1 2152 7 is_stmt 1 view .LVU2673
2152:Lib/AI_Runtime/Npu/ll_aton/ll_aton.c ****       ATON_ARITH_INCCNT_SET(id, t);
 7044              		.loc 1 2152 11 is_stmt 0 view .LVU2674
 7045 02d6 2169     		ldr	r1, [r4, #16]
 7046 02d8 608B     		ldrh	r0, [r4, #26]
 7047 02da 00FB01F3 		mul	r3, r0, r1
 7048 02de 013B     		subs	r3, r3, #1
2152:Lib/AI_Runtime/Npu/ll_aton/ll_aton.c ****       ATON_ARITH_INCCNT_SET(id, t);
 7049              		.loc 1 2152 9 view .LVU2675
 7050 02e0 23F07843 		bic	r3, r3, #-134217728
 7051              	.LVL814:
2153:Lib/AI_Runtime/Npu/ll_aton/ll_aton.c **** 
 7052              		.loc 1 2153 7 is_stmt 1 view .LVU2676
2153:Lib/AI_Runtime/Npu/ll_aton/ll_aton.c **** 
 7053              		.loc 1 2153 7 view .LVU2677
 7054 02e4 C9F80C30 		str	r3, [r9, #12]
2153:Lib/AI_Runtime/Npu/ll_aton/ll_aton.c **** 
 7055              		.loc 1 2153 7 view .LVU2678
2153:Lib/AI_Runtime/Npu/ll_aton/ll_aton.c **** 
 7056              		.loc 1 2153 35 view .LVU2679
2155:Lib/AI_Runtime/Npu/ll_aton/ll_aton.c ****       ATON_ARITH_RSTCNT1_SET(id, t);
 7057              		.loc 1 2155 7 view .LVU2680
2155:Lib/AI_Runtime/Npu/ll_aton/ll_aton.c ****       ATON_ARITH_RSTCNT1_SET(id, t);
 7058              		.loc 1 2155 11 is_stmt 0 view .LVU2681
 7059 02e8 6369     		ldr	r3, [r4, #20]
 7060              	.LVL815:
2155:Lib/AI_Runtime/Npu/ll_aton/ll_aton.c ****       ATON_ARITH_RSTCNT1_SET(id, t);
 7061              		.loc 1 2155 11 view .LVU2682
 7062 02ea 5943     		muls	r1, r3, r1
 7063 02ec 4143     		muls	r1, r0, r1
 7064              	.LVL816:
 7065              	.L463:
2155:Lib/AI_Runtime/Npu/ll_aton/ll_aton.c ****       ATON_ARITH_RSTCNT1_SET(id, t);
 7066              		.loc 1 2155 11 view .LVU2683
 7067 02ee 0139     		subs	r1, r1, #1
2155:Lib/AI_Runtime/Npu/ll_aton/ll_aton.c ****       ATON_ARITH_RSTCNT1_SET(id, t);
 7068              		.loc 1 2155 9 view .LVU2684
 7069 02f0 21F07841 		bic	r1, r1, #-134217728
 7070              	.LVL817:
2156:Lib/AI_Runtime/Npu/ll_aton/ll_aton.c **** 
 7071              		.loc 1 2156 7 is_stmt 1 view .LVU2685
2156:Lib/AI_Runtime/Npu/ll_aton/ll_aton.c **** 
 7072              		.loc 1 2156 7 view .LVU2686
 7073 02f4 C9F81010 		str	r1, [r9, #16]
2156:Lib/AI_Runtime/Npu/ll_aton/ll_aton.c **** 
 7074              		.loc 1 2156 7 view .LVU2687
2156:Lib/AI_Runtime/Npu/ll_aton/ll_aton.c **** 
 7075              		.loc 1 2156 36 view .LVU2688
2158:Lib/AI_Runtime/Npu/ll_aton/ll_aton.c ****       ATON_ARITH_INCOFFSET_SET(id, t);
 7076              		.loc 1 2158 7 view .LVU2689
 7077              	.LVL818:
2159:Lib/AI_Runtime/Npu/ll_aton/ll_aton.c **** 
 7078              		.loc 1 2159 7 view .LVU2690
2159:Lib/AI_Runtime/Npu/ll_aton/ll_aton.c **** 
 7079              		.loc 1 2159 7 view .LVU2691
ARM GAS  /tmp/ccgbPSBw.s 			page 224


 7080 02f8 0121     		movs	r1, #1
 7081 02fa C9F82810 		str	r1, [r9, #40]
2159:Lib/AI_Runtime/Npu/ll_aton/ll_aton.c **** 
 7082              		.loc 1 2159 7 view .LVU2692
2159:Lib/AI_Runtime/Npu/ll_aton/ll_aton.c **** 
 7083              		.loc 1 2159 38 view .LVU2693
2161:Lib/AI_Runtime/Npu/ll_aton/ll_aton.c ****       ATON_ARITH_ADDROFFSET_SET(id, t);
 7084              		.loc 1 2161 7 view .LVU2694
2161:Lib/AI_Runtime/Npu/ll_aton/ll_aton.c ****       ATON_ARITH_ADDROFFSET_SET(id, t);
 7085              		.loc 1 2161 11 is_stmt 0 view .LVU2695
 7086 02fe C91A     		subs	r1, r1, r3
2161:Lib/AI_Runtime/Npu/ll_aton/ll_aton.c ****       ATON_ARITH_ADDROFFSET_SET(id, t);
 7087              		.loc 1 2161 9 view .LVU2696
 7088 0300 C1F30801 		ubfx	r1, r1, #0, #9
 7089 0304 7AE7     		b	.L462
 7090              	.LVL819:
 7091              	.L435:
2166:Lib/AI_Runtime/Npu/ll_aton/ll_aton.c ****       ATON_ARITH_INCCNT_SET(id, t);
 7092              		.loc 1 2166 7 is_stmt 1 view .LVU2697
2166:Lib/AI_Runtime/Npu/ll_aton/ll_aton.c ****       ATON_ARITH_INCCNT_SET(id, t);
 7093              		.loc 1 2166 11 is_stmt 0 view .LVU2698
 7094 0306 618B     		ldrh	r1, [r4, #26]
 7095 0308 4B1E     		subs	r3, r1, #1
2166:Lib/AI_Runtime/Npu/ll_aton/ll_aton.c ****       ATON_ARITH_INCCNT_SET(id, t);
 7096              		.loc 1 2166 9 view .LVU2699
 7097 030a 23F07843 		bic	r3, r3, #-134217728
 7098              	.LVL820:
2167:Lib/AI_Runtime/Npu/ll_aton/ll_aton.c **** 
 7099              		.loc 1 2167 7 is_stmt 1 view .LVU2700
2167:Lib/AI_Runtime/Npu/ll_aton/ll_aton.c **** 
 7100              		.loc 1 2167 7 view .LVU2701
 7101 030e C9F80C30 		str	r3, [r9, #12]
2167:Lib/AI_Runtime/Npu/ll_aton/ll_aton.c **** 
 7102              		.loc 1 2167 7 view .LVU2702
2167:Lib/AI_Runtime/Npu/ll_aton/ll_aton.c **** 
 7103              		.loc 1 2167 35 view .LVU2703
2169:Lib/AI_Runtime/Npu/ll_aton/ll_aton.c ****       ATON_ARITH_RSTCNT1_SET(id, t);
 7104              		.loc 1 2169 7 view .LVU2704
2169:Lib/AI_Runtime/Npu/ll_aton/ll_aton.c ****       ATON_ARITH_RSTCNT1_SET(id, t);
 7105              		.loc 1 2169 11 is_stmt 0 view .LVU2705
 7106 0312 2369     		ldr	r3, [r4, #16]
 7107              	.LVL821:
 7108              	.L464:
2183:Lib/AI_Runtime/Npu/ll_aton/ll_aton.c ****       ATON_ARITH_RSTCNT1_SET(id, t);
 7109              		.loc 1 2183 11 view .LVU2706
 7110 0314 5943     		muls	r1, r3, r1
 7111 0316 EAE7     		b	.L463
 7112              	.LVL822:
 7113              	.L434:
2180:Lib/AI_Runtime/Npu/ll_aton/ll_aton.c ****       ATON_ARITH_INCCNT_SET(id, t);
 7114              		.loc 1 2180 7 is_stmt 1 view .LVU2707
2180:Lib/AI_Runtime/Npu/ll_aton/ll_aton.c ****       ATON_ARITH_INCCNT_SET(id, t);
 7115              		.loc 1 2180 11 is_stmt 0 view .LVU2708
 7116 0318 618B     		ldrh	r1, [r4, #26]
 7117 031a 4B1E     		subs	r3, r1, #1
2180:Lib/AI_Runtime/Npu/ll_aton/ll_aton.c ****       ATON_ARITH_INCCNT_SET(id, t);
 7118              		.loc 1 2180 9 view .LVU2709
ARM GAS  /tmp/ccgbPSBw.s 			page 225


 7119 031c 23F07843 		bic	r3, r3, #-134217728
 7120              	.LVL823:
2181:Lib/AI_Runtime/Npu/ll_aton/ll_aton.c **** 
 7121              		.loc 1 2181 7 is_stmt 1 view .LVU2710
2181:Lib/AI_Runtime/Npu/ll_aton/ll_aton.c **** 
 7122              		.loc 1 2181 7 view .LVU2711
 7123 0320 C9F80C30 		str	r3, [r9, #12]
2181:Lib/AI_Runtime/Npu/ll_aton/ll_aton.c **** 
 7124              		.loc 1 2181 7 view .LVU2712
2181:Lib/AI_Runtime/Npu/ll_aton/ll_aton.c **** 
 7125              		.loc 1 2181 35 view .LVU2713
2183:Lib/AI_Runtime/Npu/ll_aton/ll_aton.c ****       ATON_ARITH_RSTCNT1_SET(id, t);
 7126              		.loc 1 2183 7 view .LVU2714
2183:Lib/AI_Runtime/Npu/ll_aton/ll_aton.c ****       ATON_ARITH_RSTCNT1_SET(id, t);
 7127              		.loc 1 2183 11 is_stmt 0 view .LVU2715
 7128 0324 D4E90403 		ldrd	r0, r3, [r4, #16]
 7129              	.LVL824:
2183:Lib/AI_Runtime/Npu/ll_aton/ll_aton.c ****       ATON_ARITH_RSTCNT1_SET(id, t);
 7130              		.loc 1 2183 11 view .LVU2716
 7131 0328 4343     		muls	r3, r0, r3
 7132 032a F3E7     		b	.L464
 7133              	.LVL825:
 7134              	.L432:
2194:Lib/AI_Runtime/Npu/ll_aton/ll_aton.c ****       ATON_ARITH_INCCNT_SET(id, t);
 7135              		.loc 1 2194 7 is_stmt 1 view .LVU2717
2195:Lib/AI_Runtime/Npu/ll_aton/ll_aton.c **** 
 7136              		.loc 1 2195 7 view .LVU2718
2195:Lib/AI_Runtime/Npu/ll_aton/ll_aton.c **** 
 7137              		.loc 1 2195 7 view .LVU2719
 7138 032c C9F80C30 		str	r3, [r9, #12]
2195:Lib/AI_Runtime/Npu/ll_aton/ll_aton.c **** 
 7139              		.loc 1 2195 7 view .LVU2720
2195:Lib/AI_Runtime/Npu/ll_aton/ll_aton.c **** 
 7140              		.loc 1 2195 35 view .LVU2721
2197:Lib/AI_Runtime/Npu/ll_aton/ll_aton.c ****       ATON_ARITH_INCOFFSET_SET(id, t);
 7141              		.loc 1 2197 7 view .LVU2722
2198:Lib/AI_Runtime/Npu/ll_aton/ll_aton.c **** 
 7142              		.loc 1 2198 7 view .LVU2723
2198:Lib/AI_Runtime/Npu/ll_aton/ll_aton.c **** 
 7143              		.loc 1 2198 7 view .LVU2724
 7144 0330 C9F82830 		str	r3, [r9, #40]
2198:Lib/AI_Runtime/Npu/ll_aton/ll_aton.c **** 
 7145              		.loc 1 2198 7 view .LVU2725
2198:Lib/AI_Runtime/Npu/ll_aton/ll_aton.c **** 
 7146              		.loc 1 2198 38 view .LVU2726
2200:Lib/AI_Runtime/Npu/ll_aton/ll_aton.c ****       break;
 7147              		.loc 1 2200 7 view .LVU2727
 7148              	.LVL826:
2201:Lib/AI_Runtime/Npu/ll_aton/ll_aton.c ****     default:
 7149              		.loc 1 2201 7 view .LVU2728
2200:Lib/AI_Runtime/Npu/ll_aton/ll_aton.c ****       break;
 7150              		.loc 1 2200 12 is_stmt 0 view .LVU2729
 7151 0334 0123     		movs	r3, #1
2201:Lib/AI_Runtime/Npu/ll_aton/ll_aton.c ****     default:
 7152              		.loc 1 2201 7 view .LVU2730
 7153 0336 63E7     		b	.L438
 7154              	.LVL827:
ARM GAS  /tmp/ccgbPSBw.s 			page 226


 7155              	.L441:
 7156              	.LBB155:
2227:Lib/AI_Runtime/Npu/ll_aton/ll_aton.c ****       uint32_t B = Bp != NULL ? LL_ATON_getbits(Bp, bitcnt_B, nbits_B) : (uint32_t)conf->B_scalar;
 7157              		.loc 1 2227 72 discriminator 2 view .LVU2731
 7158 0338 B4F92060 		ldrsh	r6, [r4, #32]
 7159 033c 93E7     		b	.L442
 7160              	.LVL828:
 7161              	.L443:
2228:Lib/AI_Runtime/Npu/ll_aton/ll_aton.c ****       uint32_t C = Cp != NULL ? (c_sign * LL_ATON_getbits(Cp, bitcnt_C, nbits_C)) : (uint32_t)conf-
 7162              		.loc 1 2228 72 discriminator 2 view .LVU2732
 7163 033e B4F922B0 		ldrsh	fp, [r4, #34]
 7164 0342 99E7     		b	.L444
 7165              	.LVL829:
 7166              	.L445:
2229:Lib/AI_Runtime/Npu/ll_aton/ll_aton.c ****       if (conf->combinebc)
 7167              		.loc 1 2229 83 discriminator 2 view .LVU2733
 7168 0344 B4F92400 		ldrsh	r0, [r4, #36]
 7169 0348 A0E7     		b	.L446
 7170              	.LVL830:
 7171              	.L451:
2229:Lib/AI_Runtime/Npu/ll_aton/ll_aton.c ****       if (conf->combinebc)
 7172              		.loc 1 2229 83 discriminator 2 view .LVU2734
 7173              	.LBE155:
 7174              	.LBE151:
2034:Lib/AI_Runtime/Npu/ll_aton/ll_aton.c **** 
 7175              		.loc 1 2034 12 view .LVU2735
 7176 034a 4FF0FF30 		mov	r0, #-1
 7177              	.LVL831:
2034:Lib/AI_Runtime/Npu/ll_aton/ll_aton.c **** 
 7178              		.loc 1 2034 12 view .LVU2736
 7179 034e 19E7     		b	.L424
 7180              	.LVL832:
 7181              	.L453:
 7182              	.LBB156:
2125:Lib/AI_Runtime/Npu/ll_aton/ll_aton.c ****     {
 7183              		.loc 1 2125 5 view .LVU2737
 7184 0350 6FF00100 		mvn	r0, #1
 7185 0354 16E7     		b	.L424
 7186              	.L466:
 7187 0356 00BF     		.align	2
 7188              	.L465:
 7189 0358 00000000 		.word	CSWTCH.206
 7190 035c 95000000 		.word	.LC7
 7191 0360 00000000 		.word	__func__.2
 7192 0364 05000000 		.word	.LC4
 7193 0368 0000FC07 		.word	133955584
 7194              	.LBE156:
 7195              		.cfi_endproc
 7196              	.LFE4848:
 7198              		.section	.text.LL_Poolacc_Init,"ax",%progbits
 7199              		.align	1
 7200              		.global	LL_Poolacc_Init
 7201              		.syntax unified
 7202              		.thumb
 7203              		.thumb_func
 7205              	LL_Poolacc_Init:
 7206              	.LVL833:
ARM GAS  /tmp/ccgbPSBw.s 			page 227


 7207              	.LFB4850:
2292:Lib/AI_Runtime/Npu/ll_aton/ll_aton.c ****   uint32_t t;
 7208              		.loc 1 2292 1 is_stmt 1 view -0
 7209              		.cfi_startproc
 7210              		@ args = 0, pretend = 0, frame = 0
 7211              		@ frame_needed = 0, uses_anonymous_args = 0
2293:Lib/AI_Runtime/Npu/ll_aton/ll_aton.c **** 
 7212              		.loc 1 2293 3 view .LVU2739
2295:Lib/AI_Runtime/Npu/ll_aton/ll_aton.c ****     return LL_ATON_INVALID_ID;
 7213              		.loc 1 2295 3 view .LVU2740
2295:Lib/AI_Runtime/Npu/ll_aton/ll_aton.c ****     return LL_ATON_INVALID_ID;
 7214              		.loc 1 2295 6 is_stmt 0 view .LVU2741
 7215 0000 0128     		cmp	r0, #1
2292:Lib/AI_Runtime/Npu/ll_aton/ll_aton.c ****   uint32_t t;
 7216              		.loc 1 2292 1 view .LVU2742
 7217 0002 F8B5     		push	{r3, r4, r5, r6, r7, lr}
 7218              		.cfi_def_cfa_offset 24
 7219              		.cfi_offset 3, -24
 7220              		.cfi_offset 4, -20
 7221              		.cfi_offset 5, -16
 7222              		.cfi_offset 6, -12
 7223              		.cfi_offset 7, -8
 7224              		.cfi_offset 14, -4
2292:Lib/AI_Runtime/Npu/ll_aton/ll_aton.c ****   uint32_t t;
 7225              		.loc 1 2292 1 view .LVU2743
 7226 0004 0546     		mov	r5, r0
 7227 0006 0C46     		mov	r4, r1
2295:Lib/AI_Runtime/Npu/ll_aton/ll_aton.c ****     return LL_ATON_INVALID_ID;
 7228              		.loc 1 2295 6 view .LVU2744
 7229 0008 00F3B380 		bgt	.L474
2298:Lib/AI_Runtime/Npu/ll_aton/ll_aton.c **** 
 7230              		.loc 1 2298 3 is_stmt 1 view .LVU2745
 7231 000c 1630     		adds	r0, r0, #22
 7232              	.LVL834:
2298:Lib/AI_Runtime/Npu/ll_aton/ll_aton.c **** 
 7233              		.loc 1 2298 3 is_stmt 0 view .LVU2746
 7234 000e FFF7FEFF 		bl	LL_ATON_EnableClock
 7235              	.LVL835:
2310:Lib/AI_Runtime/Npu/ll_aton/ll_aton.c ****   t = ATON_POOL_CTRL_SET_TYPE(t, get_Poolacc_type(conf->operation));
 7236              		.loc 1 2310 3 is_stmt 1 view .LVU2747
2311:Lib/AI_Runtime/Npu/ll_aton/ll_aton.c ****   t = ATON_POOL_CTRL_SET_ROUND(t, (conf->rounding_o != 0));
 7237              		.loc 1 2311 3 view .LVU2748
 7238              	.LBB159:
 7239              	.LBI159:
2262:Lib/AI_Runtime/Npu/ll_aton/ll_aton.c **** {
 7240              		.loc 1 2262 16 view .LVU2749
 7241              	.LBB160:
2264:Lib/AI_Runtime/Npu/ll_aton/ll_aton.c ****   {
 7242              		.loc 1 2264 3 view .LVU2750
 7243 0012 2378     		ldrb	r3, [r4]	@ zero_extendqisi2
 7244 0014 013B     		subs	r3, r3, #1
 7245 0016 DBB2     		uxtb	r3, r3
 7246 0018 052B     		cmp	r3, #5
 7247 001a 00F2A380 		bhi	.L469
 7248              	.LVL836:
2264:Lib/AI_Runtime/Npu/ll_aton/ll_aton.c ****   {
 7249              		.loc 1 2264 3 is_stmt 0 view .LVU2751
ARM GAS  /tmp/ccgbPSBw.s 			page 228


 7250              	.LBE160:
 7251              	.LBE159:
2312:Lib/AI_Runtime/Npu/ll_aton/ll_aton.c ****   t = ATON_POOL_CTRL_SET_SAT(t, (conf->saturation_o != 0));
 7252              		.loc 1 2312 3 is_stmt 1 view .LVU2752
2313:Lib/AI_Runtime/Npu/ll_aton/ll_aton.c ****   t = ATON_POOL_CTRL_SET_OUTSHIFT(t, conf->shift_o);
 7253              		.loc 1 2313 3 view .LVU2753
2314:Lib/AI_Runtime/Npu/ll_aton/ll_aton.c ****   t = ATON_POOL_CTRL_SET_FBYTES(t, conf->inbytes_f);
 7254              		.loc 1 2314 3 view .LVU2754
2315:Lib/AI_Runtime/Npu/ll_aton/ll_aton.c ****   t = ATON_POOL_CTRL_SET_FSHIFT(t, ATON_SHIFT(conf->shift_f));
 7255              		.loc 1 2315 3 view .LVU2755
2316:Lib/AI_Runtime/Npu/ll_aton/ll_aton.c ****   t = ATON_POOL_CTRL_SET_FROUND(t, (conf->rounding_f != 0));
 7256              		.loc 1 2316 3 view .LVU2756
2317:Lib/AI_Runtime/Npu/ll_aton/ll_aton.c ****   t = ATON_POOL_CTRL_SET_FSAT(t, (conf->saturation_f != 0));
 7257              		.loc 1 2317 3 view .LVU2757
2311:Lib/AI_Runtime/Npu/ll_aton/ll_aton.c ****   t = ATON_POOL_CTRL_SET_ROUND(t, (conf->rounding_o != 0));
 7258              		.loc 1 2311 7 is_stmt 0 discriminator 1 view .LVU2758
 7259 001e 5649     		ldr	r1, .L477
2317:Lib/AI_Runtime/Npu/ll_aton/ll_aton.c ****   t = ATON_POOL_CTRL_SET_FSAT(t, (conf->saturation_f != 0));
 7260              		.loc 1 2317 7 view .LVU2759
 7261 0020 94F82200 		ldrb	r0, [r4, #34]	@ zero_extendqisi2
2311:Lib/AI_Runtime/Npu/ll_aton/ll_aton.c ****   t = ATON_POOL_CTRL_SET_ROUND(t, (conf->rounding_o != 0));
 7262              		.loc 1 2311 7 discriminator 1 view .LVU2760
 7263 0024 CB56     		ldrsb	r3, [r1, r3]
 7264              	.LVL837:
2315:Lib/AI_Runtime/Npu/ll_aton/ll_aton.c ****   t = ATON_POOL_CTRL_SET_FSHIFT(t, ATON_SHIFT(conf->shift_f));
 7265              		.loc 1 2315 7 view .LVU2761
 7266 0026 618C     		ldrh	r1, [r4, #34]
2311:Lib/AI_Runtime/Npu/ll_aton/ll_aton.c ****   t = ATON_POOL_CTRL_SET_ROUND(t, (conf->rounding_o != 0));
 7267              		.loc 1 2311 7 discriminator 1 view .LVU2762
 7268 0028 9B00     		lsls	r3, r3, #2
2315:Lib/AI_Runtime/Npu/ll_aton/ll_aton.c ****   t = ATON_POOL_CTRL_SET_FSHIFT(t, ATON_SHIFT(conf->shift_f));
 7269              		.loc 1 2315 7 view .LVU2763
 7270 002a C1F3C111 		ubfx	r1, r1, #7, #2
2311:Lib/AI_Runtime/Npu/ll_aton/ll_aton.c ****   t = ATON_POOL_CTRL_SET_ROUND(t, (conf->rounding_o != 0));
 7271              		.loc 1 2311 7 discriminator 1 view .LVU2764
 7272 002e 03F03C03 		and	r3, r3, #60
2322:Lib/AI_Runtime/Npu/ll_aton/ll_aton.c **** #if 0
 7273              		.loc 1 2322 5 view .LVU2765
 7274 0032 43EA0143 		orr	r3, r3, r1, lsl #16
2312:Lib/AI_Runtime/Npu/ll_aton/ll_aton.c ****   t = ATON_POOL_CTRL_SET_SAT(t, (conf->saturation_o != 0));
 7275              		.loc 1 2312 7 view .LVU2766
 7276 0036 94F82310 		ldrb	r1, [r4, #35]	@ zero_extendqisi2
2317:Lib/AI_Runtime/Npu/ll_aton/ll_aton.c ****   t = ATON_POOL_CTRL_SET_FSAT(t, (conf->saturation_f != 0));
 7277              		.loc 1 2317 7 view .LVU2767
 7278 003a 4205     		lsls	r2, r0, #21
 7279              	.LVL838:
2318:Lib/AI_Runtime/Npu/ll_aton/ll_aton.c **** #ifdef ATON_POOL_CTRL_SET_AVGNOPAD
 7280              		.loc 1 2318 3 is_stmt 1 view .LVU2768
2322:Lib/AI_Runtime/Npu/ll_aton/ll_aton.c **** #if 0
 7281              		.loc 1 2322 3 view .LVU2769
2312:Lib/AI_Runtime/Npu/ll_aton/ll_aton.c ****   t = ATON_POOL_CTRL_SET_SAT(t, (conf->saturation_o != 0));
 7282              		.loc 1 2312 7 is_stmt 0 view .LVU2770
 7283 003c C900     		lsls	r1, r1, #3
2322:Lib/AI_Runtime/Npu/ll_aton/ll_aton.c **** #if 0
 7284              		.loc 1 2322 5 view .LVU2771
 7285 003e 01F0C001 		and	r1, r1, #192
 7286 0042 0B43     		orrs	r3, r3, r1
ARM GAS  /tmp/ccgbPSBw.s 			page 229


2314:Lib/AI_Runtime/Npu/ll_aton/ll_aton.c ****   t = ATON_POOL_CTRL_SET_FBYTES(t, conf->inbytes_f);
 7287              		.loc 1 2314 7 view .LVU2772
 7288 0044 94F82110 		ldrb	r1, [r4, #33]	@ zero_extendqisi2
2322:Lib/AI_Runtime/Npu/ll_aton/ll_aton.c **** #if 0
 7289              		.loc 1 2322 7 view .LVU2773
 7290 0048 00F00100 		and	r0, r0, #1
2314:Lib/AI_Runtime/Npu/ll_aton/ll_aton.c ****   t = ATON_POOL_CTRL_SET_FBYTES(t, conf->inbytes_f);
 7291              		.loc 1 2314 7 view .LVU2774
 7292 004c 0902     		lsls	r1, r1, #8
 7293              	.LVL839:
2314:Lib/AI_Runtime/Npu/ll_aton/ll_aton.c ****   t = ATON_POOL_CTRL_SET_FBYTES(t, conf->inbytes_f);
 7294              		.loc 1 2314 7 view .LVU2775
 7295 004e 01F47C51 		and	r1, r1, #16128
 7296              	.LVL840:
2322:Lib/AI_Runtime/Npu/ll_aton/ll_aton.c **** #if 0
 7297              		.loc 1 2322 5 view .LVU2776
 7298 0052 0B43     		orrs	r3, r3, r1
 7299 0054 43EA8033 		orr	r3, r3, r0, lsl #14
2318:Lib/AI_Runtime/Npu/ll_aton/ll_aton.c **** #ifdef ATON_POOL_CTRL_SET_AVGNOPAD
 7300              		.loc 1 2318 7 view .LVU2777
 7301 0058 02F04072 		and	r2, r2, #50331648
 7302              	.LVL841:
2322:Lib/AI_Runtime/Npu/ll_aton/ll_aton.c **** #if 0
 7303              		.loc 1 2322 5 view .LVU2778
 7304 005c 1A43     		orrs	r2, r2, r3
2316:Lib/AI_Runtime/Npu/ll_aton/ll_aton.c ****   t = ATON_POOL_CTRL_SET_FROUND(t, (conf->rounding_f != 0));
 7305              		.loc 1 2316 7 view .LVU2779
 7306 005e 94F82030 		ldrb	r3, [r4, #32]	@ zero_extendqisi2
2334:Lib/AI_Runtime/Npu/ll_aton/ll_aton.c ****   t = ATON_POOL_RNDCTRL_SET_OBYTES(t, conf->outbytes_o);
 7307              		.loc 1 2334 7 view .LVU2780
 7308 0062 94F82210 		ldrb	r1, [r4, #34]	@ zero_extendqisi2
 7309              	.LVL842:
2316:Lib/AI_Runtime/Npu/ll_aton/ll_aton.c ****   t = ATON_POOL_CTRL_SET_FROUND(t, (conf->rounding_f != 0));
 7310              		.loc 1 2316 7 view .LVU2781
 7311 0066 1033     		adds	r3, r3, #16
 7312              	.LVL843:
2316:Lib/AI_Runtime/Npu/ll_aton/ll_aton.c ****   t = ATON_POOL_CTRL_SET_FROUND(t, (conf->rounding_f != 0));
 7313              		.loc 1 2316 7 view .LVU2782
 7314 0068 9B04     		lsls	r3, r3, #18
 7315              	.LVL844:
2316:Lib/AI_Runtime/Npu/ll_aton/ll_aton.c ****   t = ATON_POOL_CTRL_SET_FROUND(t, (conf->rounding_f != 0));
 7316              		.loc 1 2316 7 view .LVU2783
 7317 006a 03F47C03 		and	r3, r3, #16515072
2322:Lib/AI_Runtime/Npu/ll_aton/ll_aton.c **** #if 0
 7318              		.loc 1 2322 5 view .LVU2784
 7319 006e 1A43     		orrs	r2, r2, r3
 7320              	.LVL845:
2326:Lib/AI_Runtime/Npu/ll_aton/ll_aton.c **** #endif
 7321              		.loc 1 2326 3 is_stmt 1 view .LVU2785
2328:Lib/AI_Runtime/Npu/ll_aton/ll_aton.c ****   ATON_POOL_CTRL_SET(id, t);
 7322              		.loc 1 2328 3 view .LVU2786
2329:Lib/AI_Runtime/Npu/ll_aton/ll_aton.c **** 
 7323              		.loc 1 2329 3 is_stmt 0 view .LVU2787
 7324 0070 05F5B023 		add	r3, r5, #360448
 7325 0074 FB33     		adds	r3, r3, #251
 7326 0076 1B03     		lsls	r3, r3, #12
2328:Lib/AI_Runtime/Npu/ll_aton/ll_aton.c ****   ATON_POOL_CTRL_SET(id, t);
ARM GAS  /tmp/ccgbPSBw.s 			page 230


 7327              		.loc 1 2328 5 view .LVU2788
 7328 0078 42F40042 		orr	r2, r2, #32768
 7329              	.LVL846:
2329:Lib/AI_Runtime/Npu/ll_aton/ll_aton.c **** 
 7330              		.loc 1 2329 3 is_stmt 1 view .LVU2789
2329:Lib/AI_Runtime/Npu/ll_aton/ll_aton.c **** 
 7331              		.loc 1 2329 3 view .LVU2790
 7332 007c 1A60     		str	r2, [r3]
2329:Lib/AI_Runtime/Npu/ll_aton/ll_aton.c **** 
 7333              		.loc 1 2329 3 view .LVU2791
2329:Lib/AI_Runtime/Npu/ll_aton/ll_aton.c **** 
 7334              		.loc 1 2329 28 view .LVU2792
2332:Lib/AI_Runtime/Npu/ll_aton/ll_aton.c ****   t = ATON_POOL_RNDCTRL_SET_FOBYTES(t, conf->outbytes_f);
 7335              		.loc 1 2332 3 view .LVU2793
 7336              	.LVL847:
2333:Lib/AI_Runtime/Npu/ll_aton/ll_aton.c ****   t = ATON_POOL_RNDCTRL_SET_FRNDMODE(t, conf->round_mode_f);
 7337              		.loc 1 2333 3 view .LVU2794
2334:Lib/AI_Runtime/Npu/ll_aton/ll_aton.c ****   t = ATON_POOL_RNDCTRL_SET_OBYTES(t, conf->outbytes_o);
 7338              		.loc 1 2334 3 view .LVU2795
2335:Lib/AI_Runtime/Npu/ll_aton/ll_aton.c ****   t = ATON_POOL_RNDCTRL_SET_ORNDMODE(t, (conf->relu_mode_o << 1) | conf->round_mode_o);
 7339              		.loc 1 2335 3 view .LVU2796
2335:Lib/AI_Runtime/Npu/ll_aton/ll_aton.c ****   t = ATON_POOL_RNDCTRL_SET_ORNDMODE(t, (conf->relu_mode_o << 1) | conf->round_mode_o);
 7340              		.loc 1 2335 7 is_stmt 0 view .LVU2797
 7341 007e 94F82420 		ldrb	r2, [r4, #36]	@ zero_extendqisi2
2334:Lib/AI_Runtime/Npu/ll_aton/ll_aton.c ****   t = ATON_POOL_RNDCTRL_SET_OBYTES(t, conf->outbytes_o);
 7342              		.loc 1 2334 7 view .LVU2798
 7343 0082 C1F34111 		ubfx	r1, r1, #5, #2
2335:Lib/AI_Runtime/Npu/ll_aton/ll_aton.c ****   t = ATON_POOL_RNDCTRL_SET_ORNDMODE(t, (conf->relu_mode_o << 1) | conf->round_mode_o);
 7344              		.loc 1 2335 7 view .LVU2799
 7345 0086 02F00302 		and	r2, r2, #3
 7346 008a 1204     		lsls	r2, r2, #16
2335:Lib/AI_Runtime/Npu/ll_aton/ll_aton.c ****   t = ATON_POOL_RNDCTRL_SET_ORNDMODE(t, (conf->relu_mode_o << 1) | conf->round_mode_o);
 7347              		.loc 1 2335 5 view .LVU2800
 7348 008c 42EA8102 		orr	r2, r2, r1, lsl #2
2333:Lib/AI_Runtime/Npu/ll_aton/ll_aton.c ****   t = ATON_POOL_RNDCTRL_SET_FRNDMODE(t, conf->round_mode_f);
 7349              		.loc 1 2333 7 view .LVU2801
 7350 0090 94F82310 		ldrb	r1, [r4, #35]	@ zero_extendqisi2
2349:Lib/AI_Runtime/Npu/ll_aton/ll_aton.c ****   ATON_POOL_PDIMS_SET(id, t);
 7351              		.loc 1 2349 7 view .LVU2802
 7352 0094 E58B     		ldrh	r5, [r4, #30]
 7353              	.LVL848:
2333:Lib/AI_Runtime/Npu/ll_aton/ll_aton.c ****   t = ATON_POOL_RNDCTRL_SET_FRNDMODE(t, conf->round_mode_f);
 7354              		.loc 1 2333 7 view .LVU2803
 7355 0096 C1F34100 		ubfx	r0, r1, #1, #2
2335:Lib/AI_Runtime/Npu/ll_aton/ll_aton.c ****   t = ATON_POOL_RNDCTRL_SET_ORNDMODE(t, (conf->relu_mode_o << 1) | conf->round_mode_o);
 7356              		.loc 1 2335 5 view .LVU2804
 7357 009a 0243     		orrs	r2, r2, r0
 7358              	.LVL849:
2336:Lib/AI_Runtime/Npu/ll_aton/ll_aton.c ****   ATON_POOL_RNDCTRL_SET(id, t);
 7359              		.loc 1 2336 3 is_stmt 1 view .LVU2805
2336:Lib/AI_Runtime/Npu/ll_aton/ll_aton.c ****   ATON_POOL_RNDCTRL_SET(id, t);
 7360              		.loc 1 2336 7 is_stmt 0 view .LVU2806
 7361 009c C1F34111 		ubfx	r1, r1, #5, #2
2336:Lib/AI_Runtime/Npu/ll_aton/ll_aton.c ****   ATON_POOL_RNDCTRL_SET(id, t);
 7362              		.loc 1 2336 5 view .LVU2807
 7363 00a0 42EA8142 		orr	r2, r2, r1, lsl #18
 7364              	.LVL850:
ARM GAS  /tmp/ccgbPSBw.s 			page 231


2337:Lib/AI_Runtime/Npu/ll_aton/ll_aton.c **** 
 7365              		.loc 1 2337 3 is_stmt 1 view .LVU2808
2337:Lib/AI_Runtime/Npu/ll_aton/ll_aton.c **** 
 7366              		.loc 1 2337 3 view .LVU2809
 7367 00a4 1A62     		str	r2, [r3, #32]
2337:Lib/AI_Runtime/Npu/ll_aton/ll_aton.c **** 
 7368              		.loc 1 2337 3 view .LVU2810
2337:Lib/AI_Runtime/Npu/ll_aton/ll_aton.c **** 
 7369              		.loc 1 2337 31 view .LVU2811
2340:Lib/AI_Runtime/Npu/ll_aton/ll_aton.c ****   t = ATON_POOL_PDIMS_SET_WINX(t, conf->poolWinX);
 7370              		.loc 1 2340 3 view .LVU2812
 7371              	.LVL851:
2341:Lib/AI_Runtime/Npu/ll_aton/ll_aton.c ****   t = ATON_POOL_PDIMS_SET_WINY(t, conf->poolWinY);
 7372              		.loc 1 2341 3 view .LVU2813
2342:Lib/AI_Runtime/Npu/ll_aton/ll_aton.c ****   t = ATON_POOL_PDIMS_SET_STRDX(t, conf->strideX);
 7373              		.loc 1 2342 3 view .LVU2814
2343:Lib/AI_Runtime/Npu/ll_aton/ll_aton.c ****   t = ATON_POOL_PDIMS_SET_STRDY(t, conf->strideY);
 7374              		.loc 1 2343 3 view .LVU2815
2342:Lib/AI_Runtime/Npu/ll_aton/ll_aton.c ****   t = ATON_POOL_PDIMS_SET_STRDX(t, conf->strideX);
 7375              		.loc 1 2342 7 is_stmt 0 view .LVU2816
 7376 00a6 E27A     		ldrb	r2, [r4, #11]	@ zero_extendqisi2
2343:Lib/AI_Runtime/Npu/ll_aton/ll_aton.c ****   t = ATON_POOL_PDIMS_SET_STRDY(t, conf->strideY);
 7377              		.loc 1 2343 7 view .LVU2817
 7378 00a8 217B     		ldrb	r1, [r4, #12]	@ zero_extendqisi2
2342:Lib/AI_Runtime/Npu/ll_aton/ll_aton.c ****   t = ATON_POOL_PDIMS_SET_STRDX(t, conf->strideX);
 7379              		.loc 1 2342 7 view .LVU2818
 7380 00aa D200     		lsls	r2, r2, #3
2343:Lib/AI_Runtime/Npu/ll_aton/ll_aton.c ****   t = ATON_POOL_PDIMS_SET_STRDY(t, conf->strideY);
 7381              		.loc 1 2343 7 view .LVU2819
 7382 00ac 8901     		lsls	r1, r1, #6
 7383 00ae 01F47071 		and	r1, r1, #960
2342:Lib/AI_Runtime/Npu/ll_aton/ll_aton.c ****   t = ATON_POOL_PDIMS_SET_STRDX(t, conf->strideX);
 7384              		.loc 1 2342 7 view .LVU2820
 7385 00b2 02F03802 		and	r2, r2, #56
2343:Lib/AI_Runtime/Npu/ll_aton/ll_aton.c ****   t = ATON_POOL_PDIMS_SET_STRDY(t, conf->strideY);
 7386              		.loc 1 2343 5 view .LVU2821
 7387 00b6 0A43     		orrs	r2, r2, r1
2341:Lib/AI_Runtime/Npu/ll_aton/ll_aton.c ****   t = ATON_POOL_PDIMS_SET_WINY(t, conf->poolWinY);
 7388              		.loc 1 2341 7 view .LVU2822
 7389 00b8 A17A     		ldrb	r1, [r4, #10]	@ zero_extendqisi2
2355:Lib/AI_Runtime/Npu/ll_aton/ll_aton.c ****   ATON_POOL_FDIMS_SET(id, t);
 7390              		.loc 1 2355 7 view .LVU2823
 7391 00ba A088     		ldrh	r0, [r4, #4]
2341:Lib/AI_Runtime/Npu/ll_aton/ll_aton.c ****   t = ATON_POOL_PDIMS_SET_WINY(t, conf->poolWinY);
 7392              		.loc 1 2341 7 view .LVU2824
 7393 00bc 01F00701 		and	r1, r1, #7
2343:Lib/AI_Runtime/Npu/ll_aton/ll_aton.c ****   t = ATON_POOL_PDIMS_SET_STRDY(t, conf->strideY);
 7394              		.loc 1 2343 5 view .LVU2825
 7395 00c0 0A43     		orrs	r2, r2, r1
 7396              	.LVL852:
2344:Lib/AI_Runtime/Npu/ll_aton/ll_aton.c ****   t = ATON_POOL_PDIMS_SET_TPAD(t, conf->topPad);
 7397              		.loc 1 2344 3 is_stmt 1 view .LVU2826
2344:Lib/AI_Runtime/Npu/ll_aton/ll_aton.c ****   t = ATON_POOL_PDIMS_SET_TPAD(t, conf->topPad);
 7398              		.loc 1 2344 7 is_stmt 0 view .LVU2827
 7399 00c2 617B     		ldrb	r1, [r4, #13]	@ zero_extendqisi2
2386:Lib/AI_Runtime/Npu/ll_aton/ll_aton.c ****     t = ATON_POOL_XCROP_SET_LCROP(t, conf->leftCrop * conf->batchSize);
 7400              		.loc 1 2386 11 view .LVU2828
ARM GAS  /tmp/ccgbPSBw.s 			page 232


 7401 00c4 668A     		ldrh	r6, [r4, #18]
2344:Lib/AI_Runtime/Npu/ll_aton/ll_aton.c ****   t = ATON_POOL_PDIMS_SET_TPAD(t, conf->topPad);
 7402              		.loc 1 2344 7 view .LVU2829
 7403 00c6 8902     		lsls	r1, r1, #10
 7404 00c8 01F47051 		and	r1, r1, #15360
2344:Lib/AI_Runtime/Npu/ll_aton/ll_aton.c ****   t = ATON_POOL_PDIMS_SET_TPAD(t, conf->topPad);
 7405              		.loc 1 2344 5 view .LVU2830
 7406 00cc 0A43     		orrs	r2, r2, r1
 7407              	.LVL853:
2345:Lib/AI_Runtime/Npu/ll_aton/ll_aton.c ****   t = ATON_POOL_PDIMS_SET_BPAD(t, conf->bottomPad);
 7408              		.loc 1 2345 3 is_stmt 1 view .LVU2831
2345:Lib/AI_Runtime/Npu/ll_aton/ll_aton.c ****   t = ATON_POOL_PDIMS_SET_BPAD(t, conf->bottomPad);
 7409              		.loc 1 2345 7 is_stmt 0 view .LVU2832
 7410 00ce E18A     		ldrh	r1, [r4, #22]
2388:Lib/AI_Runtime/Npu/ll_aton/ll_aton.c ****   if (r_crop > 0)
 7411              		.loc 1 2388 20 view .LVU2833
 7412 00d0 A78A     		ldrh	r7, [r4, #20]
2345:Lib/AI_Runtime/Npu/ll_aton/ll_aton.c ****   t = ATON_POOL_PDIMS_SET_BPAD(t, conf->bottomPad);
 7413              		.loc 1 2345 7 view .LVU2834
 7414 00d2 8903     		lsls	r1, r1, #14
 7415 00d4 01F4E031 		and	r1, r1, #114688
2345:Lib/AI_Runtime/Npu/ll_aton/ll_aton.c ****   t = ATON_POOL_PDIMS_SET_BPAD(t, conf->bottomPad);
 7416              		.loc 1 2345 5 view .LVU2835
 7417 00d8 1143     		orrs	r1, r1, r2
 7418              	.LVL854:
2346:Lib/AI_Runtime/Npu/ll_aton/ll_aton.c ****   t = ATON_POOL_PDIMS_SET_LPAD(t, conf->leftPad);
 7419              		.loc 1 2346 3 is_stmt 1 view .LVU2836
2346:Lib/AI_Runtime/Npu/ll_aton/ll_aton.c ****   t = ATON_POOL_PDIMS_SET_LPAD(t, conf->leftPad);
 7420              		.loc 1 2346 7 is_stmt 0 view .LVU2837
 7421 00da 228B     		ldrh	r2, [r4, #24]
 7422 00dc 5204     		lsls	r2, r2, #17
 7423 00de 02F46022 		and	r2, r2, #917504
2346:Lib/AI_Runtime/Npu/ll_aton/ll_aton.c ****   t = ATON_POOL_PDIMS_SET_LPAD(t, conf->leftPad);
 7424              		.loc 1 2346 5 view .LVU2838
 7425 00e2 0A43     		orrs	r2, r2, r1
 7426              	.LVL855:
2347:Lib/AI_Runtime/Npu/ll_aton/ll_aton.c ****   t = ATON_POOL_PDIMS_SET_RPAD(t, conf->rightPad);
 7427              		.loc 1 2347 3 is_stmt 1 view .LVU2839
2347:Lib/AI_Runtime/Npu/ll_aton/ll_aton.c ****   t = ATON_POOL_PDIMS_SET_RPAD(t, conf->rightPad);
 7428              		.loc 1 2347 7 is_stmt 0 view .LVU2840
 7429 00e4 618B     		ldrh	r1, [r4, #26]
 7430 00e6 0905     		lsls	r1, r1, #20
 7431 00e8 01F4E001 		and	r1, r1, #7340032
2347:Lib/AI_Runtime/Npu/ll_aton/ll_aton.c ****   t = ATON_POOL_PDIMS_SET_RPAD(t, conf->rightPad);
 7432              		.loc 1 2347 5 view .LVU2841
 7433 00ec 1143     		orrs	r1, r1, r2
 7434              	.LVL856:
2348:Lib/AI_Runtime/Npu/ll_aton/ll_aton.c ****   t = ATON_POOL_PDIMS_SET_BSIZE(t, conf->batchSize);
 7435              		.loc 1 2348 3 is_stmt 1 view .LVU2842
2348:Lib/AI_Runtime/Npu/ll_aton/ll_aton.c ****   t = ATON_POOL_PDIMS_SET_BSIZE(t, conf->batchSize);
 7436              		.loc 1 2348 7 is_stmt 0 view .LVU2843
 7437 00ee A28B     		ldrh	r2, [r4, #28]
 7438 00f0 D205     		lsls	r2, r2, #23
 7439 00f2 02F06072 		and	r2, r2, #58720256
2348:Lib/AI_Runtime/Npu/ll_aton/ll_aton.c ****   t = ATON_POOL_PDIMS_SET_BSIZE(t, conf->batchSize);
 7440              		.loc 1 2348 5 view .LVU2844
 7441 00f6 0A43     		orrs	r2, r2, r1
ARM GAS  /tmp/ccgbPSBw.s 			page 233


 7442              	.LVL857:
2349:Lib/AI_Runtime/Npu/ll_aton/ll_aton.c ****   ATON_POOL_PDIMS_SET(id, t);
 7443              		.loc 1 2349 3 is_stmt 1 view .LVU2845
2349:Lib/AI_Runtime/Npu/ll_aton/ll_aton.c ****   ATON_POOL_PDIMS_SET(id, t);
 7444              		.loc 1 2349 7 is_stmt 0 view .LVU2846
 7445 00f8 A906     		lsls	r1, r5, #26
 7446 00fa 01F07051 		and	r1, r1, #1006632960
2349:Lib/AI_Runtime/Npu/ll_aton/ll_aton.c ****   ATON_POOL_PDIMS_SET(id, t);
 7447              		.loc 1 2349 5 view .LVU2847
 7448 00fe 0A43     		orrs	r2, r2, r1
 7449              	.LVL858:
2350:Lib/AI_Runtime/Npu/ll_aton/ll_aton.c **** 
 7450              		.loc 1 2350 3 is_stmt 1 view .LVU2848
2350:Lib/AI_Runtime/Npu/ll_aton/ll_aton.c **** 
 7451              		.loc 1 2350 3 view .LVU2849
2354:Lib/AI_Runtime/Npu/ll_aton/ll_aton.c ****   t = ATON_POOL_FDIMS_SET_FEATY(t, conf->inputY);
 7452              		.loc 1 2354 7 is_stmt 0 view .LVU2850
 7453 0100 6188     		ldrh	r1, [r4, #2]
2350:Lib/AI_Runtime/Npu/ll_aton/ll_aton.c **** 
 7454              		.loc 1 2350 3 view .LVU2851
 7455 0102 9A60     		str	r2, [r3, #8]
2350:Lib/AI_Runtime/Npu/ll_aton/ll_aton.c **** 
 7456              		.loc 1 2350 3 is_stmt 1 view .LVU2852
2350:Lib/AI_Runtime/Npu/ll_aton/ll_aton.c **** 
 7457              		.loc 1 2350 29 view .LVU2853
2353:Lib/AI_Runtime/Npu/ll_aton/ll_aton.c ****   t = ATON_POOL_FDIMS_SET_FEATX(t, conf->inputX * conf->batchSize);
 7458              		.loc 1 2353 3 view .LVU2854
 7459              	.LVL859:
2354:Lib/AI_Runtime/Npu/ll_aton/ll_aton.c ****   t = ATON_POOL_FDIMS_SET_FEATY(t, conf->inputY);
 7460              		.loc 1 2354 3 view .LVU2855
2355:Lib/AI_Runtime/Npu/ll_aton/ll_aton.c ****   ATON_POOL_FDIMS_SET(id, t);
 7461              		.loc 1 2355 3 view .LVU2856
2354:Lib/AI_Runtime/Npu/ll_aton/ll_aton.c ****   t = ATON_POOL_FDIMS_SET_FEATY(t, conf->inputY);
 7462              		.loc 1 2354 7 is_stmt 0 view .LVU2857
 7463 0104 6943     		muls	r1, r5, r1
2355:Lib/AI_Runtime/Npu/ll_aton/ll_aton.c ****   ATON_POOL_FDIMS_SET(id, t);
 7464              		.loc 1 2355 7 view .LVU2858
 7465 0106 1D4A     		ldr	r2, .L477+4
2354:Lib/AI_Runtime/Npu/ll_aton/ll_aton.c ****   t = ATON_POOL_FDIMS_SET_FEATY(t, conf->inputY);
 7466              		.loc 1 2354 7 view .LVU2859
 7467 0108 C1F30B01 		ubfx	r1, r1, #0, #12
2355:Lib/AI_Runtime/Npu/ll_aton/ll_aton.c ****   ATON_POOL_FDIMS_SET(id, t);
 7468              		.loc 1 2355 7 view .LVU2860
 7469 010c 02EA0040 		and	r0, r2, r0, lsl #16
2355:Lib/AI_Runtime/Npu/ll_aton/ll_aton.c ****   ATON_POOL_FDIMS_SET(id, t);
 7470              		.loc 1 2355 5 view .LVU2861
 7471 0110 0143     		orrs	r1, r1, r0
 7472              	.LVL860:
2356:Lib/AI_Runtime/Npu/ll_aton/ll_aton.c **** 
 7473              		.loc 1 2356 3 is_stmt 1 view .LVU2862
2356:Lib/AI_Runtime/Npu/ll_aton/ll_aton.c **** 
 7474              		.loc 1 2356 3 view .LVU2863
 7475 0112 D960     		str	r1, [r3, #12]
2356:Lib/AI_Runtime/Npu/ll_aton/ll_aton.c **** 
 7476              		.loc 1 2356 3 view .LVU2864
2356:Lib/AI_Runtime/Npu/ll_aton/ll_aton.c **** 
 7477              		.loc 1 2356 29 view .LVU2865
ARM GAS  /tmp/ccgbPSBw.s 			page 234


2359:Lib/AI_Runtime/Npu/ll_aton/ll_aton.c ****   t = ATON_POOL_OUTDIMS_SET_FEATX(t, conf->outputX);
 7478              		.loc 1 2359 3 view .LVU2866
 7479              	.LVL861:
2360:Lib/AI_Runtime/Npu/ll_aton/ll_aton.c ****   t = ATON_POOL_OUTDIMS_SET_FEATY(t, conf->outputY);
 7480              		.loc 1 2360 3 view .LVU2867
2361:Lib/AI_Runtime/Npu/ll_aton/ll_aton.c ****   ATON_POOL_OUTDIMS_SET(id, t);
 7481              		.loc 1 2361 3 view .LVU2868
2360:Lib/AI_Runtime/Npu/ll_aton/ll_aton.c ****   t = ATON_POOL_OUTDIMS_SET_FEATY(t, conf->outputY);
 7482              		.loc 1 2360 7 is_stmt 0 view .LVU2869
 7483 0114 E088     		ldrh	r0, [r4, #6]
2361:Lib/AI_Runtime/Npu/ll_aton/ll_aton.c ****   ATON_POOL_OUTDIMS_SET(id, t);
 7484              		.loc 1 2361 7 view .LVU2870
 7485 0116 2189     		ldrh	r1, [r4, #8]
2360:Lib/AI_Runtime/Npu/ll_aton/ll_aton.c ****   t = ATON_POOL_OUTDIMS_SET_FEATY(t, conf->outputY);
 7486              		.loc 1 2360 7 view .LVU2871
 7487 0118 C0F30B00 		ubfx	r0, r0, #0, #12
2361:Lib/AI_Runtime/Npu/ll_aton/ll_aton.c ****   ATON_POOL_OUTDIMS_SET(id, t);
 7488              		.loc 1 2361 7 view .LVU2872
 7489 011c 02EA0141 		and	r1, r2, r1, lsl #16
2361:Lib/AI_Runtime/Npu/ll_aton/ll_aton.c ****   ATON_POOL_OUTDIMS_SET(id, t);
 7490              		.loc 1 2361 5 view .LVU2873
 7491 0120 0143     		orrs	r1, r1, r0
 7492              	.LVL862:
2362:Lib/AI_Runtime/Npu/ll_aton/ll_aton.c **** 
 7493              		.loc 1 2362 3 is_stmt 1 view .LVU2874
2362:Lib/AI_Runtime/Npu/ll_aton/ll_aton.c **** 
 7494              		.loc 1 2362 3 view .LVU2875
2385:Lib/AI_Runtime/Npu/ll_aton/ll_aton.c ****   if (conf->leftCrop > 0)
 7495              		.loc 1 2385 5 is_stmt 0 view .LVU2876
 7496 0122 0020     		movs	r0, #0
2362:Lib/AI_Runtime/Npu/ll_aton/ll_aton.c **** 
 7497              		.loc 1 2362 3 view .LVU2877
 7498 0124 1961     		str	r1, [r3, #16]
2362:Lib/AI_Runtime/Npu/ll_aton/ll_aton.c **** 
 7499              		.loc 1 2362 3 is_stmt 1 view .LVU2878
2362:Lib/AI_Runtime/Npu/ll_aton/ll_aton.c **** 
 7500              		.loc 1 2362 31 view .LVU2879
2365:Lib/AI_Runtime/Npu/ll_aton/ll_aton.c ****   t = ATON_POOL_MULVAL_SET_MULVAL(t, conf->mulval);
 7501              		.loc 1 2365 3 view .LVU2880
 7502              	.LVL863:
2366:Lib/AI_Runtime/Npu/ll_aton/ll_aton.c ****   ATON_POOL_MULVAL_SET(id, t);
 7503              		.loc 1 2366 3 view .LVU2881
2366:Lib/AI_Runtime/Npu/ll_aton/ll_aton.c ****   ATON_POOL_MULVAL_SET(id, t);
 7504              		.loc 1 2366 7 is_stmt 0 view .LVU2882
 7505 0126 E18C     		ldrh	r1, [r4, #38]
 7506              	.LVL864:
2367:Lib/AI_Runtime/Npu/ll_aton/ll_aton.c **** 
 7507              		.loc 1 2367 3 is_stmt 1 view .LVU2883
2367:Lib/AI_Runtime/Npu/ll_aton/ll_aton.c **** 
 7508              		.loc 1 2367 3 view .LVU2884
2385:Lib/AI_Runtime/Npu/ll_aton/ll_aton.c ****   if (conf->leftCrop > 0)
 7509              		.loc 1 2385 5 is_stmt 0 view .LVU2885
 7510 0128 8642     		cmp	r6, r0
2367:Lib/AI_Runtime/Npu/ll_aton/ll_aton.c **** 
 7511              		.loc 1 2367 3 view .LVU2886
 7512 012a 5961     		str	r1, [r3, #20]
2367:Lib/AI_Runtime/Npu/ll_aton/ll_aton.c **** 
ARM GAS  /tmp/ccgbPSBw.s 			page 235


 7513              		.loc 1 2367 3 is_stmt 1 view .LVU2887
2367:Lib/AI_Runtime/Npu/ll_aton/ll_aton.c **** 
 7514              		.loc 1 2367 30 view .LVU2888
2385:Lib/AI_Runtime/Npu/ll_aton/ll_aton.c ****   if (conf->leftCrop > 0)
 7515              		.loc 1 2385 3 view .LVU2889
 7516              	.LVL865:
2386:Lib/AI_Runtime/Npu/ll_aton/ll_aton.c ****     t = ATON_POOL_XCROP_SET_LCROP(t, conf->leftCrop * conf->batchSize);
 7517              		.loc 1 2386 3 view .LVU2890
2385:Lib/AI_Runtime/Npu/ll_aton/ll_aton.c ****   if (conf->leftCrop > 0)
 7518              		.loc 1 2385 5 is_stmt 0 view .LVU2891
 7519 012c 05FB06F1 		mul	r1, r5, r6
 7520 0130 C1F30B01 		ubfx	r1, r1, #0, #12
 7521 0134 08BF     		it	eq
 7522 0136 0146     		moveq	r1, r0
 7523              	.LVL866:
2388:Lib/AI_Runtime/Npu/ll_aton/ll_aton.c ****   if (r_crop > 0)
 7524              		.loc 1 2388 3 is_stmt 1 view .LVU2892
2388:Lib/AI_Runtime/Npu/ll_aton/ll_aton.c ****   if (r_crop > 0)
 7525              		.loc 1 2388 69 is_stmt 0 view .LVU2893
 7526 0138 6E1E     		subs	r6, r5, #1
2388:Lib/AI_Runtime/Npu/ll_aton/ll_aton.c ****   if (r_crop > 0)
 7527              		.loc 1 2388 7 view .LVU2894
 7528 013a 05FB0765 		mla	r5, r5, r7, r6
 7529              	.LVL867:
2389:Lib/AI_Runtime/Npu/ll_aton/ll_aton.c ****     t = ATON_POOL_XCROP_SET_RCROP(t, conf->rightCrop * conf->batchSize + (conf->batchSize - 1));
 7530              		.loc 1 2389 3 is_stmt 1 view .LVU2895
2390:Lib/AI_Runtime/Npu/ll_aton/ll_aton.c ****   ATON_POOL_XCROP_SET(id, t);
 7531              		.loc 1 2390 7 is_stmt 0 view .LVU2896
 7532 013e 02EA0546 		and	r6, r2, r5, lsl #16
 7533 0142 0E43     		orrs	r6, r6, r1
 7534 0144 8542     		cmp	r5, r0
 7535 0146 C8BF     		it	gt
 7536 0148 3146     		movgt	r1, r6
 7537              	.LVL868:
2391:Lib/AI_Runtime/Npu/ll_aton/ll_aton.c **** 
 7538              		.loc 1 2391 3 is_stmt 1 view .LVU2897
2391:Lib/AI_Runtime/Npu/ll_aton/ll_aton.c **** 
 7539              		.loc 1 2391 3 view .LVU2898
 7540 014a 9961     		str	r1, [r3, #24]
2391:Lib/AI_Runtime/Npu/ll_aton/ll_aton.c **** 
 7541              		.loc 1 2391 3 view .LVU2899
2391:Lib/AI_Runtime/Npu/ll_aton/ll_aton.c **** 
 7542              		.loc 1 2391 29 view .LVU2900
2393:Lib/AI_Runtime/Npu/ll_aton/ll_aton.c ****   if (conf->topCrop > 0)
 7543              		.loc 1 2393 3 view .LVU2901
 7544              	.LVL869:
2394:Lib/AI_Runtime/Npu/ll_aton/ll_aton.c ****     t = ATON_POOL_YCROP_SET_TCROP(t, conf->topCrop);
 7545              		.loc 1 2394 3 view .LVU2902
2395:Lib/AI_Runtime/Npu/ll_aton/ll_aton.c ****   if (conf->bottomCrop > 0)
 7546              		.loc 1 2395 9 is_stmt 0 view .LVU2903
 7547 014c E189     		ldrh	r1, [r4, #14]
2396:Lib/AI_Runtime/Npu/ll_aton/ll_aton.c ****     t = ATON_POOL_YCROP_SET_BCROP(t, conf->bottomCrop);
 7548              		.loc 1 2396 11 view .LVU2904
 7549 014e 248A     		ldrh	r4, [r4, #16]
 7550              	.LVL870:
2395:Lib/AI_Runtime/Npu/ll_aton/ll_aton.c ****   if (conf->bottomCrop > 0)
 7551              		.loc 1 2395 9 view .LVU2905
ARM GAS  /tmp/ccgbPSBw.s 			page 236


 7552 0150 C1F30B01 		ubfx	r1, r1, #0, #12
 7553              	.LVL871:
2396:Lib/AI_Runtime/Npu/ll_aton/ll_aton.c ****     t = ATON_POOL_YCROP_SET_BCROP(t, conf->bottomCrop);
 7554              		.loc 1 2396 3 is_stmt 1 view .LVU2906
2397:Lib/AI_Runtime/Npu/ll_aton/ll_aton.c ****   ATON_POOL_YCROP_SET(id, t);
 7555              		.loc 1 2397 7 is_stmt 0 view .LVU2907
 7556 0154 02EA0442 		and	r2, r2, r4, lsl #16
 7557 0158 0A43     		orrs	r2, r2, r1
 7558 015a 8442     		cmp	r4, r0
 7559 015c 18BF     		it	ne
 7560 015e 1146     		movne	r1, r2
 7561              	.LVL872:
2398:Lib/AI_Runtime/Npu/ll_aton/ll_aton.c **** 
 7562              		.loc 1 2398 3 is_stmt 1 view .LVU2908
2398:Lib/AI_Runtime/Npu/ll_aton/ll_aton.c **** 
 7563              		.loc 1 2398 3 view .LVU2909
 7564 0160 D961     		str	r1, [r3, #28]
2398:Lib/AI_Runtime/Npu/ll_aton/ll_aton.c **** 
 7565              		.loc 1 2398 3 view .LVU2910
2398:Lib/AI_Runtime/Npu/ll_aton/ll_aton.c **** 
 7566              		.loc 1 2398 29 view .LVU2911
2410:Lib/AI_Runtime/Npu/ll_aton/ll_aton.c **** }
 7567              		.loc 1 2410 3 view .LVU2912
 7568              	.LVL873:
 7569              	.L467:
2411:Lib/AI_Runtime/Npu/ll_aton/ll_aton.c **** #endif // ATON_POOL_NUM
 7570              		.loc 1 2411 1 is_stmt 0 view .LVU2913
 7571 0162 F8BD     		pop	{r3, r4, r5, r6, r7, pc}
 7572              	.LVL874:
 7573              	.L469:
 7574              	.LBB162:
 7575              	.LBB161:
2279:Lib/AI_Runtime/Npu/ll_aton/ll_aton.c ****   }
 7576              		.loc 1 2279 5 is_stmt 1 view .LVU2914
2281:Lib/AI_Runtime/Npu/ll_aton/ll_aton.c ****   return 0;
 7577              		.loc 1 2281 3 view .LVU2915
 7578 0164 40F6E901 		movw	r1, #2281
 7579 0168 054B     		ldr	r3, .L477+8
 7580 016a 064A     		ldr	r2, .L477+12
 7581 016c 0648     		ldr	r0, .L477+16
 7582 016e FFF7FEFF 		bl	__assert_func
 7583              	.LVL875:
 7584              	.L474:
2281:Lib/AI_Runtime/Npu/ll_aton/ll_aton.c ****   return 0;
 7585              		.loc 1 2281 3 is_stmt 0 view .LVU2916
 7586              	.LBE161:
 7587              	.LBE162:
2296:Lib/AI_Runtime/Npu/ll_aton/ll_aton.c **** 
 7588              		.loc 1 2296 12 view .LVU2917
 7589 0172 4FF0FF30 		mov	r0, #-1
 7590              	.LVL876:
2296:Lib/AI_Runtime/Npu/ll_aton/ll_aton.c **** 
 7591              		.loc 1 2296 12 view .LVU2918
 7592 0176 F4E7     		b	.L467
 7593              	.L478:
 7594              		.align	2
 7595              	.L477:
ARM GAS  /tmp/ccgbPSBw.s 			page 237


 7596 0178 00000000 		.word	CSWTCH.208
 7597 017c 0000FF0F 		.word	268369920
 7598 0180 95000000 		.word	.LC7
 7599 0184 00000000 		.word	__func__.1
 7600 0188 05000000 		.word	.LC4
 7601              		.cfi_endproc
 7602              	.LFE4850:
 7604              		.section	.text.LL_EpochCtrl_Init,"ax",%progbits
 7605              		.align	1
 7606              		.global	LL_EpochCtrl_Init
 7607              		.syntax unified
 7608              		.thumb
 7609              		.thumb_func
 7611              	LL_EpochCtrl_Init:
 7612              	.LVL877:
 7613              	.LFB4851:
2422:Lib/AI_Runtime/Npu/ll_aton/ll_aton.c ****   uint32_t t;
 7614              		.loc 1 2422 1 is_stmt 1 view -0
 7615              		.cfi_startproc
 7616              		@ args = 0, pretend = 0, frame = 0
 7617              		@ frame_needed = 0, uses_anonymous_args = 0
2423:Lib/AI_Runtime/Npu/ll_aton/ll_aton.c **** 
 7618              		.loc 1 2423 3 view .LVU2920
2425:Lib/AI_Runtime/Npu/ll_aton/ll_aton.c ****     return LL_ATON_INVALID_ID;
 7619              		.loc 1 2425 3 view .LVU2921
2425:Lib/AI_Runtime/Npu/ll_aton/ll_aton.c ****     return LL_ATON_INVALID_ID;
 7620              		.loc 1 2425 6 is_stmt 0 view .LVU2922
 7621 0000 0028     		cmp	r0, #0
2422:Lib/AI_Runtime/Npu/ll_aton/ll_aton.c ****   uint32_t t;
 7622              		.loc 1 2422 1 view .LVU2923
 7623 0002 10B5     		push	{r4, lr}
 7624              		.cfi_def_cfa_offset 8
 7625              		.cfi_offset 4, -8
 7626              		.cfi_offset 14, -4
2422:Lib/AI_Runtime/Npu/ll_aton/ll_aton.c ****   uint32_t t;
 7627              		.loc 1 2422 1 view .LVU2924
 7628 0004 0C46     		mov	r4, r1
2425:Lib/AI_Runtime/Npu/ll_aton/ll_aton.c ****     return LL_ATON_INVALID_ID;
 7629              		.loc 1 2425 6 view .LVU2925
 7630 0006 0EDC     		bgt	.L481
2428:Lib/AI_Runtime/Npu/ll_aton/ll_aton.c **** 
 7631              		.loc 1 2428 3 is_stmt 1 view .LVU2926
 7632 0008 1930     		adds	r0, r0, #25
 7633              	.LVL878:
2428:Lib/AI_Runtime/Npu/ll_aton/ll_aton.c **** 
 7634              		.loc 1 2428 3 is_stmt 0 view .LVU2927
 7635 000a FFF7FEFF 		bl	LL_ATON_EnableClock
 7636              	.LVL879:
2431:Lib/AI_Runtime/Npu/ll_aton/ll_aton.c ****   t = ATON_EPOCHCTRL_CTRL_SET_SM(t, conf->stepmode);
 7637              		.loc 1 2431 3 is_stmt 1 view .LVU2928
2432:Lib/AI_Runtime/Npu/ll_aton/ll_aton.c ****   ATON_EPOCHCTRL_CTRL_SET(id, t);
 7638              		.loc 1 2432 3 view .LVU2929
2432:Lib/AI_Runtime/Npu/ll_aton/ll_aton.c ****   ATON_EPOCHCTRL_CTRL_SET(id, t);
 7639              		.loc 1 2432 7 is_stmt 0 view .LVU2930
 7640 000e 2379     		ldrb	r3, [r4, #4]	@ zero_extendqisi2
2433:Lib/AI_Runtime/Npu/ll_aton/ll_aton.c **** 
 7641              		.loc 1 2433 3 view .LVU2931
ARM GAS  /tmp/ccgbPSBw.s 			page 238


 7642 0010 084A     		ldr	r2, .L483
2432:Lib/AI_Runtime/Npu/ll_aton/ll_aton.c ****   ATON_EPOCHCTRL_CTRL_SET(id, t);
 7643              		.loc 1 2432 7 view .LVU2932
 7644 0012 03F00103 		and	r3, r3, #1
 7645 0016 DB00     		lsls	r3, r3, #3
 7646              	.LVL880:
2433:Lib/AI_Runtime/Npu/ll_aton/ll_aton.c **** 
 7647              		.loc 1 2433 3 is_stmt 1 view .LVU2933
2433:Lib/AI_Runtime/Npu/ll_aton/ll_aton.c **** 
 7648              		.loc 1 2433 3 view .LVU2934
 7649 0018 1360     		str	r3, [r2]
2433:Lib/AI_Runtime/Npu/ll_aton/ll_aton.c **** 
 7650              		.loc 1 2433 3 view .LVU2935
2433:Lib/AI_Runtime/Npu/ll_aton/ll_aton.c **** 
 7651              		.loc 1 2433 33 view .LVU2936
2436:Lib/AI_Runtime/Npu/ll_aton/ll_aton.c ****     return LL_ATON_INVALID_PARAM;
 7652              		.loc 1 2436 3 view .LVU2937
2436:Lib/AI_Runtime/Npu/ll_aton/ll_aton.c ****     return LL_ATON_INVALID_PARAM;
 7653              		.loc 1 2436 11 is_stmt 0 view .LVU2938
 7654 001a 2368     		ldr	r3, [r4]
 7655              	.LVL881:
2436:Lib/AI_Runtime/Npu/ll_aton/ll_aton.c ****     return LL_ATON_INVALID_PARAM;
 7656              		.loc 1 2436 6 view .LVU2939
 7657 001c 13F00700 		ands	r0, r3, #7
 7658              	.LVL882:
2436:Lib/AI_Runtime/Npu/ll_aton/ll_aton.c ****     return LL_ATON_INVALID_PARAM;
 7659              		.loc 1 2436 6 view .LVU2940
 7660 0020 04D1     		bne	.L482
2439:Lib/AI_Runtime/Npu/ll_aton/ll_aton.c **** 
 7661              		.loc 1 2439 3 is_stmt 1 view .LVU2941
2439:Lib/AI_Runtime/Npu/ll_aton/ll_aton.c **** 
 7662              		.loc 1 2439 3 view .LVU2942
 7663 0022 9360     		str	r3, [r2, #8]
 7664              	.LVL883:
2439:Lib/AI_Runtime/Npu/ll_aton/ll_aton.c **** 
 7665              		.loc 1 2439 3 view .LVU2943
2439:Lib/AI_Runtime/Npu/ll_aton/ll_aton.c **** 
 7666              		.loc 1 2439 46 view .LVU2944
2441:Lib/AI_Runtime/Npu/ll_aton/ll_aton.c **** }
 7667              		.loc 1 2441 3 view .LVU2945
 7668              	.L479:
2442:Lib/AI_Runtime/Npu/ll_aton/ll_aton.c **** 
 7669              		.loc 1 2442 1 is_stmt 0 view .LVU2946
 7670 0024 10BD     		pop	{r4, pc}
 7671              	.LVL884:
 7672              	.L481:
2426:Lib/AI_Runtime/Npu/ll_aton/ll_aton.c **** 
 7673              		.loc 1 2426 12 view .LVU2947
 7674 0026 4FF0FF30 		mov	r0, #-1
 7675              	.LVL885:
2426:Lib/AI_Runtime/Npu/ll_aton/ll_aton.c **** 
 7676              		.loc 1 2426 12 view .LVU2948
 7677 002a FBE7     		b	.L479
 7678              	.LVL886:
 7679              	.L482:
2437:Lib/AI_Runtime/Npu/ll_aton/ll_aton.c **** 
 7680              		.loc 1 2437 12 view .LVU2949
ARM GAS  /tmp/ccgbPSBw.s 			page 239


 7681 002c 6FF00100 		mvn	r0, #1
 7682 0030 F8E7     		b	.L479
 7683              	.L484:
 7684 0032 00BF     		.align	2
 7685              	.L483:
 7686 0034 00E00F58 		.word	1477435392
 7687              		.cfi_endproc
 7688              	.LFE4851:
 7690              		.section	.text.LL_ATON_DisableClock,"ax",%progbits
 7691              		.align	1
 7692              		.global	LL_ATON_DisableClock
 7693              		.syntax unified
 7694              		.thumb
 7695              		.thumb_func
 7697              	LL_ATON_DisableClock:
 7698              	.LVL887:
 7699              	.LFB4856:
2508:Lib/AI_Runtime/Npu/ll_aton/ll_aton.c **** 
2509:Lib/AI_Runtime/Npu/ll_aton/ll_aton.c **** void LL_ATON_DisableClock(unsigned int clock)
2510:Lib/AI_Runtime/Npu/ll_aton/ll_aton.c **** {
 7700              		.loc 1 2510 1 is_stmt 1 view -0
 7701              		.cfi_startproc
 7702              		@ args = 0, pretend = 0, frame = 0
 7703              		@ frame_needed = 0, uses_anonymous_args = 0
2511:Lib/AI_Runtime/Npu/ll_aton/ll_aton.c **** #if (LL_ATON_ENABLE_CLOCK_GATING == 1)
2512:Lib/AI_Runtime/Npu/ll_aton/ll_aton.c ****   ATON_REG_WRITE_FIELD_RANGE(CLKCTRL, 0, BGATES, clock, 1, 0);
 7704              		.loc 1 2512 3 view .LVU2951
 7705              	.LBB163:
 7706              		.loc 1 2512 3 view .LVU2952
 7707              	.LBE163:
2510:Lib/AI_Runtime/Npu/ll_aton/ll_aton.c **** #if (LL_ATON_ENABLE_CLOCK_GATING == 1)
 7708              		.loc 1 2510 1 is_stmt 0 view .LVU2953
 7709 0000 30B5     		push	{r4, r5, lr}
 7710              		.cfi_def_cfa_offset 12
 7711              		.cfi_offset 4, -12
 7712              		.cfi_offset 5, -8
 7713              		.cfi_offset 14, -4
 7714              	.LBB164:
 7715              		.loc 1 2512 3 view .LVU2954
 7716 0002 0124     		movs	r4, #1
 7717 0004 0025     		movs	r5, #0
 7718 0006 54EA0D05 		lsll	r4, r5, r0
 7719 000a 034A     		ldr	r2, .L486
 7720 000c 1369     		ldr	r3, [r2, #16]
 7721              	.LVL888:
 7722              		.loc 1 2512 3 is_stmt 1 view .LVU2955
 7723 000e 23EA0403 		bic	r3, r3, r4
 7724              	.LVL889:
 7725              		.loc 1 2512 3 view .LVU2956
 7726              		.loc 1 2512 3 view .LVU2957
 7727 0012 1361     		str	r3, [r2, #16]
 7728              		.loc 1 2512 3 view .LVU2958
 7729              		.loc 1 2512 3 view .LVU2959
 7730              	.LBE164:
 7731              		.loc 1 2512 3 view .LVU2960
2513:Lib/AI_Runtime/Npu/ll_aton/ll_aton.c **** #endif
2514:Lib/AI_Runtime/Npu/ll_aton/ll_aton.c **** }
ARM GAS  /tmp/ccgbPSBw.s 			page 240


 7732              		.loc 1 2514 1 is_stmt 0 view .LVU2961
 7733 0014 30BD     		pop	{r4, r5, pc}
 7734              	.L487:
 7735 0016 00BF     		.align	2
 7736              	.L486:
 7737 0018 00000E58 		.word	1477312512
 7738              		.cfi_endproc
 7739              	.LFE4856:
 7741              		.section	.text.LL_ATON_DisableUnits_Init,"ax",%progbits
 7742              		.align	1
 7743              		.global	LL_ATON_DisableUnits_Init
 7744              		.syntax unified
 7745              		.thumb
 7746              		.thumb_func
 7748              	LL_ATON_DisableUnits_Init:
 7749              	.LVL890:
 7750              	.LFB4828:
 382:Lib/AI_Runtime/Npu/ll_aton/ll_aton.c ****   int i;
 7751              		.loc 1 382 1 is_stmt 1 view -0
 7752              		.cfi_startproc
 7753              		@ args = 0, pretend = 0, frame = 0
 7754              		@ frame_needed = 0, uses_anonymous_args = 0
 383:Lib/AI_Runtime/Npu/ll_aton/ll_aton.c ****   enum AccelUnitsType unitType;
 7755              		.loc 1 383 3 view .LVU2963
 384:Lib/AI_Runtime/Npu/ll_aton/ll_aton.c ****   uint32_t unitId;
 7756              		.loc 1 384 3 view .LVU2964
 385:Lib/AI_Runtime/Npu/ll_aton/ll_aton.c ****   uint32_t t;
 7757              		.loc 1 385 3 view .LVU2965
 386:Lib/AI_Runtime/Npu/ll_aton/ll_aton.c **** 
 7758              		.loc 1 386 3 view .LVU2966
 388:Lib/AI_Runtime/Npu/ll_aton/ll_aton.c ****   {
 7759              		.loc 1 388 3 view .LVU2967
 382:Lib/AI_Runtime/Npu/ll_aton/ll_aton.c ****   int i;
 7760              		.loc 1 382 1 is_stmt 0 view .LVU2968
 7761 0000 70B5     		push	{r4, r5, r6, lr}
 7762              		.cfi_def_cfa_offset 16
 7763              		.cfi_offset 4, -16
 7764              		.cfi_offset 5, -12
 7765              		.cfi_offset 6, -8
 7766              		.cfi_offset 14, -4
 382:Lib/AI_Runtime/Npu/ll_aton/ll_aton.c ****   int i;
 7767              		.loc 1 382 1 view .LVU2969
 7768 0002 0546     		mov	r5, r0
 388:Lib/AI_Runtime/Npu/ll_aton/ll_aton.c ****   {
 7769              		.loc 1 388 10 view .LVU2970
 7770 0004 0024     		movs	r4, #0
 391:Lib/AI_Runtime/Npu/ll_aton/ll_aton.c **** 
 7771              		.loc 1 391 53 view .LVU2971
 7772 0006 861C     		adds	r6, r0, #2
 7773              	.LVL891:
 7774              	.L489:
 388:Lib/AI_Runtime/Npu/ll_aton/ll_aton.c ****   {
 7775              		.loc 1 388 17 is_stmt 1 discriminator 1 view .LVU2972
 7776 0008 8C42     		cmp	r4, r1
 7777 000a 01DB     		blt	.L514
 454:Lib/AI_Runtime/Npu/ll_aton/ll_aton.c **** }
 7778              		.loc 1 454 10 is_stmt 0 view .LVU2973
ARM GAS  /tmp/ccgbPSBw.s 			page 241


 7779 000c 0020     		movs	r0, #0
 7780              	.L488:
 455:Lib/AI_Runtime/Npu/ll_aton/ll_aton.c **** 
 7781              		.loc 1 455 1 view .LVU2974
 7782 000e 70BD     		pop	{r4, r5, r6, pc}
 7783              	.LVL892:
 7784              	.L514:
 390:Lib/AI_Runtime/Npu/ll_aton/ll_aton.c ****     unitId = LL_ATON_DisableUnits_InitStruct[i].unit.unit_num;
 7785              		.loc 1 390 5 is_stmt 1 view .LVU2975
 391:Lib/AI_Runtime/Npu/ll_aton/ll_aton.c **** 
 7786              		.loc 1 391 5 view .LVU2976
 393:Lib/AI_Runtime/Npu/ll_aton/ll_aton.c ****     {
 7787              		.loc 1 393 5 is_stmt 0 view .LVU2977
 7788 0010 15F82430 		ldrb	r3, [r5, r4, lsl #2]	@ zero_extendqisi2
 391:Lib/AI_Runtime/Npu/ll_aton/ll_aton.c **** 
 7789              		.loc 1 391 12 view .LVU2978
 7790 0014 36F82400 		ldrh	r0, [r6, r4, lsl #2]
 7791              	.LVL893:
 393:Lib/AI_Runtime/Npu/ll_aton/ll_aton.c ****     {
 7792              		.loc 1 393 5 is_stmt 1 view .LVU2979
 7793 0018 082B     		cmp	r3, #8
 7794 001a 7AD8     		bhi	.L515
 7795 001c DFE803F0 		tbb	[pc, r3]
 7796              	.L492:
 7797 0020 05       		.byte	(.L498-.L492)/2
 7798 0021 79       		.byte	(.L515-.L492)/2
 7799 0022 18       		.byte	(.L497-.L492)/2
 7800 0023 29       		.byte	(.L496-.L492)/2
 7801 0024 3A       		.byte	(.L495-.L492)/2
 7802 0025 4A       		.byte	(.L494-.L492)/2
 7803 0026 5B       		.byte	(.L493-.L492)/2
 7804 0027 79       		.byte	(.L515-.L492)/2
 7805 0028 6B       		.byte	(.L491-.L492)/2
 7806 0029 00       		.p2align 1
 7807              	.L498:
 397:Lib/AI_Runtime/Npu/ll_aton/ll_aton.c ****       LL_ATON_DisableClock(ATON_STRENG_CLKB_CLK(unitId));
 7808              		.loc 1 397 7 view .LVU2980
 397:Lib/AI_Runtime/Npu/ll_aton/ll_aton.c ****       LL_ATON_DisableClock(ATON_STRENG_CLKB_CLK(unitId));
 7809              		.loc 1 397 7 view .LVU2981
 7810              	.LVL894:
 397:Lib/AI_Runtime/Npu/ll_aton/ll_aton.c ****       LL_ATON_DisableClock(ATON_STRENG_CLKB_CLK(unitId));
 7811              		.loc 1 397 7 view .LVU2982
 397:Lib/AI_Runtime/Npu/ll_aton/ll_aton.c ****       LL_ATON_DisableClock(ATON_STRENG_CLKB_CLK(unitId));
 7812              		.loc 1 397 7 view .LVU2983
 397:Lib/AI_Runtime/Npu/ll_aton/ll_aton.c ****       LL_ATON_DisableClock(ATON_STRENG_CLKB_CLK(unitId));
 7813              		.loc 1 397 7 view .LVU2984
 397:Lib/AI_Runtime/Npu/ll_aton/ll_aton.c ****       LL_ATON_DisableClock(ATON_STRENG_CLKB_CLK(unitId));
 7814              		.loc 1 397 7 view .LVU2985
 7815 002a 0222     		movs	r2, #2
 7816 002c 00F5B023 		add	r3, r0, #360448
 7817 0030 E533     		adds	r3, r3, #229
 7818 0032 1B03     		lsls	r3, r3, #12
 7819 0034 1A60     		str	r2, [r3]
 7820              	.LVL895:
 397:Lib/AI_Runtime/Npu/ll_aton/ll_aton.c ****       LL_ATON_DisableClock(ATON_STRENG_CLKB_CLK(unitId));
 7821              		.loc 1 397 7 view .LVU2986
 397:Lib/AI_Runtime/Npu/ll_aton/ll_aton.c ****       LL_ATON_DisableClock(ATON_STRENG_CLKB_CLK(unitId));
ARM GAS  /tmp/ccgbPSBw.s 			page 242


 7822              		.loc 1 397 7 view .LVU2987
 397:Lib/AI_Runtime/Npu/ll_aton/ll_aton.c ****       LL_ATON_DisableClock(ATON_STRENG_CLKB_CLK(unitId));
 7823              		.loc 1 397 7 view .LVU2988
 397:Lib/AI_Runtime/Npu/ll_aton/ll_aton.c ****       LL_ATON_DisableClock(ATON_STRENG_CLKB_CLK(unitId));
 7824              		.loc 1 397 7 view .LVU2989
 7825              	.L499:
 397:Lib/AI_Runtime/Npu/ll_aton/ll_aton.c ****       LL_ATON_DisableClock(ATON_STRENG_CLKB_CLK(unitId));
 7826              		.loc 1 397 7 discriminator 2 view .LVU2990
 397:Lib/AI_Runtime/Npu/ll_aton/ll_aton.c ****       LL_ATON_DisableClock(ATON_STRENG_CLKB_CLK(unitId));
 7827              		.loc 1 397 7 discriminator 2 view .LVU2991
 7828 0036 1A68     		ldr	r2, [r3]
 7829 0038 9207     		lsls	r2, r2, #30
 7830 003a FCD4     		bmi	.L499
 397:Lib/AI_Runtime/Npu/ll_aton/ll_aton.c ****       LL_ATON_DisableClock(ATON_STRENG_CLKB_CLK(unitId));
 7831              		.loc 1 397 7 discriminator 3 view .LVU2992
 397:Lib/AI_Runtime/Npu/ll_aton/ll_aton.c ****       LL_ATON_DisableClock(ATON_STRENG_CLKB_CLK(unitId));
 7832              		.loc 1 397 7 discriminator 3 view .LVU2993
 7833              	.LVL896:
 397:Lib/AI_Runtime/Npu/ll_aton/ll_aton.c ****       LL_ATON_DisableClock(ATON_STRENG_CLKB_CLK(unitId));
 7834              		.loc 1 397 7 discriminator 3 view .LVU2994
 397:Lib/AI_Runtime/Npu/ll_aton/ll_aton.c ****       LL_ATON_DisableClock(ATON_STRENG_CLKB_CLK(unitId));
 7835              		.loc 1 397 7 discriminator 3 view .LVU2995
 397:Lib/AI_Runtime/Npu/ll_aton/ll_aton.c ****       LL_ATON_DisableClock(ATON_STRENG_CLKB_CLK(unitId));
 7836              		.loc 1 397 7 discriminator 3 view .LVU2996
 7837 003c 4FF08042 		mov	r2, #1073741824
 7838 0040 1A60     		str	r2, [r3]
 397:Lib/AI_Runtime/Npu/ll_aton/ll_aton.c ****       LL_ATON_DisableClock(ATON_STRENG_CLKB_CLK(unitId));
 7839              		.loc 1 397 7 discriminator 3 view .LVU2997
 397:Lib/AI_Runtime/Npu/ll_aton/ll_aton.c ****       LL_ATON_DisableClock(ATON_STRENG_CLKB_CLK(unitId));
 7840              		.loc 1 397 7 discriminator 3 view .LVU2998
 397:Lib/AI_Runtime/Npu/ll_aton/ll_aton.c ****       LL_ATON_DisableClock(ATON_STRENG_CLKB_CLK(unitId));
 7841              		.loc 1 397 7 discriminator 3 view .LVU2999
 397:Lib/AI_Runtime/Npu/ll_aton/ll_aton.c ****       LL_ATON_DisableClock(ATON_STRENG_CLKB_CLK(unitId));
 7842              		.loc 1 397 7 discriminator 3 view .LVU3000
 7843              	.L500:
 397:Lib/AI_Runtime/Npu/ll_aton/ll_aton.c ****       LL_ATON_DisableClock(ATON_STRENG_CLKB_CLK(unitId));
 7844              		.loc 1 397 7 discriminator 5 view .LVU3001
 397:Lib/AI_Runtime/Npu/ll_aton/ll_aton.c ****       LL_ATON_DisableClock(ATON_STRENG_CLKB_CLK(unitId));
 7845              		.loc 1 397 7 discriminator 5 view .LVU3002
 7846 0042 1A68     		ldr	r2, [r3]
 7847 0044 5200     		lsls	r2, r2, #1
 7848 0046 FCD4     		bmi	.L500
 7849              	.LVL897:
 7850              	.L530:
 445:Lib/AI_Runtime/Npu/ll_aton/ll_aton.c ****       break;
 7851              		.loc 1 445 7 is_stmt 0 view .LVU3003
 7852 0048 FFF7FEFF 		bl	LL_ATON_DisableClock
 7853              	.LVL898:
 446:Lib/AI_Runtime/Npu/ll_aton/ll_aton.c **** #endif
 7854              		.loc 1 446 7 is_stmt 1 view .LVU3004
 388:Lib/AI_Runtime/Npu/ll_aton/ll_aton.c ****   {
 7855              		.loc 1 388 23 discriminator 2 view .LVU3005
 7856 004c 0134     		adds	r4, r4, #1
 7857              	.LVL899:
 388:Lib/AI_Runtime/Npu/ll_aton/ll_aton.c ****   {
 7858              		.loc 1 388 23 is_stmt 0 discriminator 2 view .LVU3006
 7859 004e DBE7     		b	.L489
ARM GAS  /tmp/ccgbPSBw.s 			page 243


 7860              	.LVL900:
 7861              	.L497:
 404:Lib/AI_Runtime/Npu/ll_aton/ll_aton.c ****       LL_ATON_DisableClock(ATON_CONVACC_CLKB_CLK(unitId));
 7862              		.loc 1 404 7 is_stmt 1 view .LVU3007
 404:Lib/AI_Runtime/Npu/ll_aton/ll_aton.c ****       LL_ATON_DisableClock(ATON_CONVACC_CLKB_CLK(unitId));
 7863              		.loc 1 404 7 view .LVU3008
 404:Lib/AI_Runtime/Npu/ll_aton/ll_aton.c ****       LL_ATON_DisableClock(ATON_CONVACC_CLKB_CLK(unitId));
 7864              		.loc 1 404 7 view .LVU3009
 404:Lib/AI_Runtime/Npu/ll_aton/ll_aton.c ****       LL_ATON_DisableClock(ATON_CONVACC_CLKB_CLK(unitId));
 7865              		.loc 1 404 7 view .LVU3010
 404:Lib/AI_Runtime/Npu/ll_aton/ll_aton.c ****       LL_ATON_DisableClock(ATON_CONVACC_CLKB_CLK(unitId));
 7866              		.loc 1 404 7 view .LVU3011
 404:Lib/AI_Runtime/Npu/ll_aton/ll_aton.c ****       LL_ATON_DisableClock(ATON_CONVACC_CLKB_CLK(unitId));
 7867              		.loc 1 404 7 view .LVU3012
 7868 0050 0222     		movs	r2, #2
 7869 0052 00F5B023 		add	r3, r0, #360448
 7870 0056 EF33     		adds	r3, r3, #239
 7871 0058 1B03     		lsls	r3, r3, #12
 7872 005a 1A60     		str	r2, [r3]
 7873              	.LVL901:
 404:Lib/AI_Runtime/Npu/ll_aton/ll_aton.c ****       LL_ATON_DisableClock(ATON_CONVACC_CLKB_CLK(unitId));
 7874              		.loc 1 404 7 view .LVU3013
 404:Lib/AI_Runtime/Npu/ll_aton/ll_aton.c ****       LL_ATON_DisableClock(ATON_CONVACC_CLKB_CLK(unitId));
 7875              		.loc 1 404 7 view .LVU3014
 404:Lib/AI_Runtime/Npu/ll_aton/ll_aton.c ****       LL_ATON_DisableClock(ATON_CONVACC_CLKB_CLK(unitId));
 7876              		.loc 1 404 7 view .LVU3015
 404:Lib/AI_Runtime/Npu/ll_aton/ll_aton.c ****       LL_ATON_DisableClock(ATON_CONVACC_CLKB_CLK(unitId));
 7877              		.loc 1 404 7 view .LVU3016
 7878              	.L502:
 404:Lib/AI_Runtime/Npu/ll_aton/ll_aton.c ****       LL_ATON_DisableClock(ATON_CONVACC_CLKB_CLK(unitId));
 7879              		.loc 1 404 7 discriminator 2 view .LVU3017
 404:Lib/AI_Runtime/Npu/ll_aton/ll_aton.c ****       LL_ATON_DisableClock(ATON_CONVACC_CLKB_CLK(unitId));
 7880              		.loc 1 404 7 discriminator 2 view .LVU3018
 7881 005c 1A68     		ldr	r2, [r3]
 7882 005e 9207     		lsls	r2, r2, #30
 7883 0060 FCD4     		bmi	.L502
 404:Lib/AI_Runtime/Npu/ll_aton/ll_aton.c ****       LL_ATON_DisableClock(ATON_CONVACC_CLKB_CLK(unitId));
 7884              		.loc 1 404 7 discriminator 3 view .LVU3019
 404:Lib/AI_Runtime/Npu/ll_aton/ll_aton.c ****       LL_ATON_DisableClock(ATON_CONVACC_CLKB_CLK(unitId));
 7885              		.loc 1 404 7 discriminator 3 view .LVU3020
 7886              	.LVL902:
 404:Lib/AI_Runtime/Npu/ll_aton/ll_aton.c ****       LL_ATON_DisableClock(ATON_CONVACC_CLKB_CLK(unitId));
 7887              		.loc 1 404 7 discriminator 3 view .LVU3021
 404:Lib/AI_Runtime/Npu/ll_aton/ll_aton.c ****       LL_ATON_DisableClock(ATON_CONVACC_CLKB_CLK(unitId));
 7888              		.loc 1 404 7 discriminator 3 view .LVU3022
 404:Lib/AI_Runtime/Npu/ll_aton/ll_aton.c ****       LL_ATON_DisableClock(ATON_CONVACC_CLKB_CLK(unitId));
 7889              		.loc 1 404 7 discriminator 3 view .LVU3023
 7890 0062 4FF08042 		mov	r2, #1073741824
 7891 0066 1A60     		str	r2, [r3]
 404:Lib/AI_Runtime/Npu/ll_aton/ll_aton.c ****       LL_ATON_DisableClock(ATON_CONVACC_CLKB_CLK(unitId));
 7892              		.loc 1 404 7 discriminator 3 view .LVU3024
 404:Lib/AI_Runtime/Npu/ll_aton/ll_aton.c ****       LL_ATON_DisableClock(ATON_CONVACC_CLKB_CLK(unitId));
 7893              		.loc 1 404 7 discriminator 3 view .LVU3025
 404:Lib/AI_Runtime/Npu/ll_aton/ll_aton.c ****       LL_ATON_DisableClock(ATON_CONVACC_CLKB_CLK(unitId));
 7894              		.loc 1 404 7 discriminator 3 view .LVU3026
 404:Lib/AI_Runtime/Npu/ll_aton/ll_aton.c ****       LL_ATON_DisableClock(ATON_CONVACC_CLKB_CLK(unitId));
 7895              		.loc 1 404 7 discriminator 3 view .LVU3027
ARM GAS  /tmp/ccgbPSBw.s 			page 244


 7896              	.L503:
 404:Lib/AI_Runtime/Npu/ll_aton/ll_aton.c ****       LL_ATON_DisableClock(ATON_CONVACC_CLKB_CLK(unitId));
 7897              		.loc 1 404 7 discriminator 5 view .LVU3028
 404:Lib/AI_Runtime/Npu/ll_aton/ll_aton.c ****       LL_ATON_DisableClock(ATON_CONVACC_CLKB_CLK(unitId));
 7898              		.loc 1 404 7 discriminator 5 view .LVU3029
 7899 0068 1A68     		ldr	r2, [r3]
 7900 006a 5200     		lsls	r2, r2, #1
 7901 006c FCD4     		bmi	.L503
 404:Lib/AI_Runtime/Npu/ll_aton/ll_aton.c ****       LL_ATON_DisableClock(ATON_CONVACC_CLKB_CLK(unitId));
 7902              		.loc 1 404 7 discriminator 6 view .LVU3030
 404:Lib/AI_Runtime/Npu/ll_aton/ll_aton.c ****       LL_ATON_DisableClock(ATON_CONVACC_CLKB_CLK(unitId));
 7903              		.loc 1 404 7 discriminator 6 view .LVU3031
 405:Lib/AI_Runtime/Npu/ll_aton/ll_aton.c ****       break;
 7904              		.loc 1 405 7 view .LVU3032
 7905 006e 0A30     		adds	r0, r0, #10
 7906              	.LVL903:
 405:Lib/AI_Runtime/Npu/ll_aton/ll_aton.c ****       break;
 7907              		.loc 1 405 7 is_stmt 0 view .LVU3033
 7908 0070 EAE7     		b	.L530
 7909              	.LVL904:
 7910              	.L496:
 411:Lib/AI_Runtime/Npu/ll_aton/ll_aton.c ****       LL_ATON_DisableClock(ATON_DECUN_CLKB_CLK(unitId));
 7911              		.loc 1 411 7 is_stmt 1 view .LVU3034
 411:Lib/AI_Runtime/Npu/ll_aton/ll_aton.c ****       LL_ATON_DisableClock(ATON_DECUN_CLKB_CLK(unitId));
 7912              		.loc 1 411 7 view .LVU3035
 411:Lib/AI_Runtime/Npu/ll_aton/ll_aton.c ****       LL_ATON_DisableClock(ATON_DECUN_CLKB_CLK(unitId));
 7913              		.loc 1 411 7 view .LVU3036
 411:Lib/AI_Runtime/Npu/ll_aton/ll_aton.c ****       LL_ATON_DisableClock(ATON_DECUN_CLKB_CLK(unitId));
 7914              		.loc 1 411 7 view .LVU3037
 411:Lib/AI_Runtime/Npu/ll_aton/ll_aton.c ****       LL_ATON_DisableClock(ATON_DECUN_CLKB_CLK(unitId));
 7915              		.loc 1 411 7 view .LVU3038
 411:Lib/AI_Runtime/Npu/ll_aton/ll_aton.c ****       LL_ATON_DisableClock(ATON_DECUN_CLKB_CLK(unitId));
 7916              		.loc 1 411 7 view .LVU3039
 7917 0072 0222     		movs	r2, #2
 7918 0074 00F5B023 		add	r3, r0, #360448
 7919 0078 F333     		adds	r3, r3, #243
 7920 007a 1B03     		lsls	r3, r3, #12
 7921 007c 1A60     		str	r2, [r3]
 7922              	.LVL905:
 411:Lib/AI_Runtime/Npu/ll_aton/ll_aton.c ****       LL_ATON_DisableClock(ATON_DECUN_CLKB_CLK(unitId));
 7923              		.loc 1 411 7 view .LVU3040
 411:Lib/AI_Runtime/Npu/ll_aton/ll_aton.c ****       LL_ATON_DisableClock(ATON_DECUN_CLKB_CLK(unitId));
 7924              		.loc 1 411 7 view .LVU3041
 411:Lib/AI_Runtime/Npu/ll_aton/ll_aton.c ****       LL_ATON_DisableClock(ATON_DECUN_CLKB_CLK(unitId));
 7925              		.loc 1 411 7 view .LVU3042
 411:Lib/AI_Runtime/Npu/ll_aton/ll_aton.c ****       LL_ATON_DisableClock(ATON_DECUN_CLKB_CLK(unitId));
 7926              		.loc 1 411 7 view .LVU3043
 7927              	.L504:
 411:Lib/AI_Runtime/Npu/ll_aton/ll_aton.c ****       LL_ATON_DisableClock(ATON_DECUN_CLKB_CLK(unitId));
 7928              		.loc 1 411 7 discriminator 2 view .LVU3044
 411:Lib/AI_Runtime/Npu/ll_aton/ll_aton.c ****       LL_ATON_DisableClock(ATON_DECUN_CLKB_CLK(unitId));
 7929              		.loc 1 411 7 discriminator 2 view .LVU3045
 7930 007e 1A68     		ldr	r2, [r3]
 7931 0080 9207     		lsls	r2, r2, #30
 7932 0082 FCD4     		bmi	.L504
 411:Lib/AI_Runtime/Npu/ll_aton/ll_aton.c ****       LL_ATON_DisableClock(ATON_DECUN_CLKB_CLK(unitId));
 7933              		.loc 1 411 7 discriminator 3 view .LVU3046
ARM GAS  /tmp/ccgbPSBw.s 			page 245


 411:Lib/AI_Runtime/Npu/ll_aton/ll_aton.c ****       LL_ATON_DisableClock(ATON_DECUN_CLKB_CLK(unitId));
 7934              		.loc 1 411 7 discriminator 3 view .LVU3047
 7935              	.LVL906:
 411:Lib/AI_Runtime/Npu/ll_aton/ll_aton.c ****       LL_ATON_DisableClock(ATON_DECUN_CLKB_CLK(unitId));
 7936              		.loc 1 411 7 discriminator 3 view .LVU3048
 411:Lib/AI_Runtime/Npu/ll_aton/ll_aton.c ****       LL_ATON_DisableClock(ATON_DECUN_CLKB_CLK(unitId));
 7937              		.loc 1 411 7 discriminator 3 view .LVU3049
 411:Lib/AI_Runtime/Npu/ll_aton/ll_aton.c ****       LL_ATON_DisableClock(ATON_DECUN_CLKB_CLK(unitId));
 7938              		.loc 1 411 7 discriminator 3 view .LVU3050
 7939 0084 4FF08042 		mov	r2, #1073741824
 7940 0088 1A60     		str	r2, [r3]
 411:Lib/AI_Runtime/Npu/ll_aton/ll_aton.c ****       LL_ATON_DisableClock(ATON_DECUN_CLKB_CLK(unitId));
 7941              		.loc 1 411 7 discriminator 3 view .LVU3051
 411:Lib/AI_Runtime/Npu/ll_aton/ll_aton.c ****       LL_ATON_DisableClock(ATON_DECUN_CLKB_CLK(unitId));
 7942              		.loc 1 411 7 discriminator 3 view .LVU3052
 411:Lib/AI_Runtime/Npu/ll_aton/ll_aton.c ****       LL_ATON_DisableClock(ATON_DECUN_CLKB_CLK(unitId));
 7943              		.loc 1 411 7 discriminator 3 view .LVU3053
 411:Lib/AI_Runtime/Npu/ll_aton/ll_aton.c ****       LL_ATON_DisableClock(ATON_DECUN_CLKB_CLK(unitId));
 7944              		.loc 1 411 7 discriminator 3 view .LVU3054
 7945              	.L505:
 411:Lib/AI_Runtime/Npu/ll_aton/ll_aton.c ****       LL_ATON_DisableClock(ATON_DECUN_CLKB_CLK(unitId));
 7946              		.loc 1 411 7 discriminator 5 view .LVU3055
 411:Lib/AI_Runtime/Npu/ll_aton/ll_aton.c ****       LL_ATON_DisableClock(ATON_DECUN_CLKB_CLK(unitId));
 7947              		.loc 1 411 7 discriminator 5 view .LVU3056
 7948 008a 1A68     		ldr	r2, [r3]
 7949 008c 5200     		lsls	r2, r2, #1
 7950 008e FCD4     		bmi	.L505
 411:Lib/AI_Runtime/Npu/ll_aton/ll_aton.c ****       LL_ATON_DisableClock(ATON_DECUN_CLKB_CLK(unitId));
 7951              		.loc 1 411 7 discriminator 6 view .LVU3057
 411:Lib/AI_Runtime/Npu/ll_aton/ll_aton.c ****       LL_ATON_DisableClock(ATON_DECUN_CLKB_CLK(unitId));
 7952              		.loc 1 411 7 discriminator 6 view .LVU3058
 412:Lib/AI_Runtime/Npu/ll_aton/ll_aton.c ****       break;
 7953              		.loc 1 412 7 view .LVU3059
 7954 0090 0E30     		adds	r0, r0, #14
 7955              	.LVL907:
 412:Lib/AI_Runtime/Npu/ll_aton/ll_aton.c ****       break;
 7956              		.loc 1 412 7 is_stmt 0 view .LVU3060
 7957 0092 D9E7     		b	.L530
 7958              	.LVL908:
 7959              	.L495:
 418:Lib/AI_Runtime/Npu/ll_aton/ll_aton.c ****       LL_ATON_DisableClock(ATON_ACTIV_CLKB_CLK(unitId));
 7960              		.loc 1 418 7 is_stmt 1 view .LVU3061
 418:Lib/AI_Runtime/Npu/ll_aton/ll_aton.c ****       LL_ATON_DisableClock(ATON_ACTIV_CLKB_CLK(unitId));
 7961              		.loc 1 418 7 view .LVU3062
 418:Lib/AI_Runtime/Npu/ll_aton/ll_aton.c ****       LL_ATON_DisableClock(ATON_ACTIV_CLKB_CLK(unitId));
 7962              		.loc 1 418 7 view .LVU3063
 418:Lib/AI_Runtime/Npu/ll_aton/ll_aton.c ****       LL_ATON_DisableClock(ATON_ACTIV_CLKB_CLK(unitId));
 7963              		.loc 1 418 7 view .LVU3064
 418:Lib/AI_Runtime/Npu/ll_aton/ll_aton.c ****       LL_ATON_DisableClock(ATON_ACTIV_CLKB_CLK(unitId));
 7964              		.loc 1 418 7 view .LVU3065
 418:Lib/AI_Runtime/Npu/ll_aton/ll_aton.c ****       LL_ATON_DisableClock(ATON_ACTIV_CLKB_CLK(unitId));
 7965              		.loc 1 418 7 view .LVU3066
 7966 0094 00F5B023 		add	r3, r0, #360448
 7967 0098 1F4A     		ldr	r2, .L531
 7968 009a F533     		adds	r3, r3, #245
 7969 009c 1B03     		lsls	r3, r3, #12
 7970 009e 1A60     		str	r2, [r3]
ARM GAS  /tmp/ccgbPSBw.s 			page 246


 7971              	.LVL909:
 418:Lib/AI_Runtime/Npu/ll_aton/ll_aton.c ****       LL_ATON_DisableClock(ATON_ACTIV_CLKB_CLK(unitId));
 7972              		.loc 1 418 7 view .LVU3067
 418:Lib/AI_Runtime/Npu/ll_aton/ll_aton.c ****       LL_ATON_DisableClock(ATON_ACTIV_CLKB_CLK(unitId));
 7973              		.loc 1 418 7 view .LVU3068
 418:Lib/AI_Runtime/Npu/ll_aton/ll_aton.c ****       LL_ATON_DisableClock(ATON_ACTIV_CLKB_CLK(unitId));
 7974              		.loc 1 418 7 view .LVU3069
 418:Lib/AI_Runtime/Npu/ll_aton/ll_aton.c ****       LL_ATON_DisableClock(ATON_ACTIV_CLKB_CLK(unitId));
 7975              		.loc 1 418 7 view .LVU3070
 7976              	.L506:
 418:Lib/AI_Runtime/Npu/ll_aton/ll_aton.c ****       LL_ATON_DisableClock(ATON_ACTIV_CLKB_CLK(unitId));
 7977              		.loc 1 418 7 discriminator 2 view .LVU3071
 418:Lib/AI_Runtime/Npu/ll_aton/ll_aton.c ****       LL_ATON_DisableClock(ATON_ACTIV_CLKB_CLK(unitId));
 7978              		.loc 1 418 7 discriminator 2 view .LVU3072
 7979 00a0 1A68     		ldr	r2, [r3]
 7980 00a2 9207     		lsls	r2, r2, #30
 7981 00a4 FCD4     		bmi	.L506
 418:Lib/AI_Runtime/Npu/ll_aton/ll_aton.c ****       LL_ATON_DisableClock(ATON_ACTIV_CLKB_CLK(unitId));
 7982              		.loc 1 418 7 discriminator 3 view .LVU3073
 418:Lib/AI_Runtime/Npu/ll_aton/ll_aton.c ****       LL_ATON_DisableClock(ATON_ACTIV_CLKB_CLK(unitId));
 7983              		.loc 1 418 7 discriminator 3 view .LVU3074
 7984              	.LVL910:
 418:Lib/AI_Runtime/Npu/ll_aton/ll_aton.c ****       LL_ATON_DisableClock(ATON_ACTIV_CLKB_CLK(unitId));
 7985              		.loc 1 418 7 discriminator 3 view .LVU3075
 418:Lib/AI_Runtime/Npu/ll_aton/ll_aton.c ****       LL_ATON_DisableClock(ATON_ACTIV_CLKB_CLK(unitId));
 7986              		.loc 1 418 7 discriminator 3 view .LVU3076
 418:Lib/AI_Runtime/Npu/ll_aton/ll_aton.c ****       LL_ATON_DisableClock(ATON_ACTIV_CLKB_CLK(unitId));
 7987              		.loc 1 418 7 discriminator 3 view .LVU3077
 7988 00a6 1D4A     		ldr	r2, .L531+4
 7989 00a8 1A60     		str	r2, [r3]
 418:Lib/AI_Runtime/Npu/ll_aton/ll_aton.c ****       LL_ATON_DisableClock(ATON_ACTIV_CLKB_CLK(unitId));
 7990              		.loc 1 418 7 discriminator 3 view .LVU3078
 418:Lib/AI_Runtime/Npu/ll_aton/ll_aton.c ****       LL_ATON_DisableClock(ATON_ACTIV_CLKB_CLK(unitId));
 7991              		.loc 1 418 7 discriminator 3 view .LVU3079
 418:Lib/AI_Runtime/Npu/ll_aton/ll_aton.c ****       LL_ATON_DisableClock(ATON_ACTIV_CLKB_CLK(unitId));
 7992              		.loc 1 418 7 discriminator 3 view .LVU3080
 418:Lib/AI_Runtime/Npu/ll_aton/ll_aton.c ****       LL_ATON_DisableClock(ATON_ACTIV_CLKB_CLK(unitId));
 7993              		.loc 1 418 7 discriminator 3 view .LVU3081
 7994              	.L507:
 418:Lib/AI_Runtime/Npu/ll_aton/ll_aton.c ****       LL_ATON_DisableClock(ATON_ACTIV_CLKB_CLK(unitId));
 7995              		.loc 1 418 7 discriminator 5 view .LVU3082
 418:Lib/AI_Runtime/Npu/ll_aton/ll_aton.c ****       LL_ATON_DisableClock(ATON_ACTIV_CLKB_CLK(unitId));
 7996              		.loc 1 418 7 discriminator 5 view .LVU3083
 7997 00aa 1A68     		ldr	r2, [r3]
 7998 00ac 5200     		lsls	r2, r2, #1
 7999 00ae FCD4     		bmi	.L507
 418:Lib/AI_Runtime/Npu/ll_aton/ll_aton.c ****       LL_ATON_DisableClock(ATON_ACTIV_CLKB_CLK(unitId));
 8000              		.loc 1 418 7 discriminator 6 view .LVU3084
 418:Lib/AI_Runtime/Npu/ll_aton/ll_aton.c ****       LL_ATON_DisableClock(ATON_ACTIV_CLKB_CLK(unitId));
 8001              		.loc 1 418 7 discriminator 6 view .LVU3085
 419:Lib/AI_Runtime/Npu/ll_aton/ll_aton.c ****       break;
 8002              		.loc 1 419 7 view .LVU3086
 8003 00b0 1030     		adds	r0, r0, #16
 8004              	.LVL911:
 419:Lib/AI_Runtime/Npu/ll_aton/ll_aton.c ****       break;
 8005              		.loc 1 419 7 is_stmt 0 view .LVU3087
 8006 00b2 C9E7     		b	.L530
ARM GAS  /tmp/ccgbPSBw.s 			page 247


 8007              	.LVL912:
 8008              	.L494:
 425:Lib/AI_Runtime/Npu/ll_aton/ll_aton.c ****       LL_ATON_DisableClock(ATON_ARITH_CLKB_CLK(unitId));
 8009              		.loc 1 425 7 is_stmt 1 view .LVU3088
 425:Lib/AI_Runtime/Npu/ll_aton/ll_aton.c ****       LL_ATON_DisableClock(ATON_ARITH_CLKB_CLK(unitId));
 8010              		.loc 1 425 7 view .LVU3089
 425:Lib/AI_Runtime/Npu/ll_aton/ll_aton.c ****       LL_ATON_DisableClock(ATON_ARITH_CLKB_CLK(unitId));
 8011              		.loc 1 425 7 view .LVU3090
 425:Lib/AI_Runtime/Npu/ll_aton/ll_aton.c ****       LL_ATON_DisableClock(ATON_ARITH_CLKB_CLK(unitId));
 8012              		.loc 1 425 7 view .LVU3091
 425:Lib/AI_Runtime/Npu/ll_aton/ll_aton.c ****       LL_ATON_DisableClock(ATON_ARITH_CLKB_CLK(unitId));
 8013              		.loc 1 425 7 view .LVU3092
 425:Lib/AI_Runtime/Npu/ll_aton/ll_aton.c ****       LL_ATON_DisableClock(ATON_ARITH_CLKB_CLK(unitId));
 8014              		.loc 1 425 7 view .LVU3093
 8015 00b4 00F5B023 		add	r3, r0, #360448
 8016 00b8 194A     		ldr	r2, .L531+8
 8017 00ba F733     		adds	r3, r3, #247
 8018 00bc 1B03     		lsls	r3, r3, #12
 8019 00be 1A60     		str	r2, [r3]
 8020              	.LVL913:
 425:Lib/AI_Runtime/Npu/ll_aton/ll_aton.c ****       LL_ATON_DisableClock(ATON_ARITH_CLKB_CLK(unitId));
 8021              		.loc 1 425 7 view .LVU3094
 425:Lib/AI_Runtime/Npu/ll_aton/ll_aton.c ****       LL_ATON_DisableClock(ATON_ARITH_CLKB_CLK(unitId));
 8022              		.loc 1 425 7 view .LVU3095
 425:Lib/AI_Runtime/Npu/ll_aton/ll_aton.c ****       LL_ATON_DisableClock(ATON_ARITH_CLKB_CLK(unitId));
 8023              		.loc 1 425 7 view .LVU3096
 425:Lib/AI_Runtime/Npu/ll_aton/ll_aton.c ****       LL_ATON_DisableClock(ATON_ARITH_CLKB_CLK(unitId));
 8024              		.loc 1 425 7 view .LVU3097
 8025              	.L508:
 425:Lib/AI_Runtime/Npu/ll_aton/ll_aton.c ****       LL_ATON_DisableClock(ATON_ARITH_CLKB_CLK(unitId));
 8026              		.loc 1 425 7 discriminator 2 view .LVU3098
 425:Lib/AI_Runtime/Npu/ll_aton/ll_aton.c ****       LL_ATON_DisableClock(ATON_ARITH_CLKB_CLK(unitId));
 8027              		.loc 1 425 7 discriminator 2 view .LVU3099
 8028 00c0 1A68     		ldr	r2, [r3]
 8029 00c2 9207     		lsls	r2, r2, #30
 8030 00c4 FCD4     		bmi	.L508
 425:Lib/AI_Runtime/Npu/ll_aton/ll_aton.c ****       LL_ATON_DisableClock(ATON_ARITH_CLKB_CLK(unitId));
 8031              		.loc 1 425 7 discriminator 3 view .LVU3100
 425:Lib/AI_Runtime/Npu/ll_aton/ll_aton.c ****       LL_ATON_DisableClock(ATON_ARITH_CLKB_CLK(unitId));
 8032              		.loc 1 425 7 discriminator 3 view .LVU3101
 8033              	.LVL914:
 425:Lib/AI_Runtime/Npu/ll_aton/ll_aton.c ****       LL_ATON_DisableClock(ATON_ARITH_CLKB_CLK(unitId));
 8034              		.loc 1 425 7 discriminator 3 view .LVU3102
 425:Lib/AI_Runtime/Npu/ll_aton/ll_aton.c ****       LL_ATON_DisableClock(ATON_ARITH_CLKB_CLK(unitId));
 8035              		.loc 1 425 7 discriminator 3 view .LVU3103
 425:Lib/AI_Runtime/Npu/ll_aton/ll_aton.c ****       LL_ATON_DisableClock(ATON_ARITH_CLKB_CLK(unitId));
 8036              		.loc 1 425 7 discriminator 3 view .LVU3104
 8037 00c6 4FF09042 		mov	r2, #1207959552
 8038 00ca 1A60     		str	r2, [r3]
 425:Lib/AI_Runtime/Npu/ll_aton/ll_aton.c ****       LL_ATON_DisableClock(ATON_ARITH_CLKB_CLK(unitId));
 8039              		.loc 1 425 7 discriminator 3 view .LVU3105
 425:Lib/AI_Runtime/Npu/ll_aton/ll_aton.c ****       LL_ATON_DisableClock(ATON_ARITH_CLKB_CLK(unitId));
 8040              		.loc 1 425 7 discriminator 3 view .LVU3106
 425:Lib/AI_Runtime/Npu/ll_aton/ll_aton.c ****       LL_ATON_DisableClock(ATON_ARITH_CLKB_CLK(unitId));
 8041              		.loc 1 425 7 discriminator 3 view .LVU3107
 425:Lib/AI_Runtime/Npu/ll_aton/ll_aton.c ****       LL_ATON_DisableClock(ATON_ARITH_CLKB_CLK(unitId));
 8042              		.loc 1 425 7 discriminator 3 view .LVU3108
ARM GAS  /tmp/ccgbPSBw.s 			page 248


 8043              	.L509:
 425:Lib/AI_Runtime/Npu/ll_aton/ll_aton.c ****       LL_ATON_DisableClock(ATON_ARITH_CLKB_CLK(unitId));
 8044              		.loc 1 425 7 discriminator 5 view .LVU3109
 425:Lib/AI_Runtime/Npu/ll_aton/ll_aton.c ****       LL_ATON_DisableClock(ATON_ARITH_CLKB_CLK(unitId));
 8045              		.loc 1 425 7 discriminator 5 view .LVU3110
 8046 00cc 1A68     		ldr	r2, [r3]
 8047 00ce 5200     		lsls	r2, r2, #1
 8048 00d0 FCD4     		bmi	.L509
 425:Lib/AI_Runtime/Npu/ll_aton/ll_aton.c ****       LL_ATON_DisableClock(ATON_ARITH_CLKB_CLK(unitId));
 8049              		.loc 1 425 7 discriminator 6 view .LVU3111
 425:Lib/AI_Runtime/Npu/ll_aton/ll_aton.c ****       LL_ATON_DisableClock(ATON_ARITH_CLKB_CLK(unitId));
 8050              		.loc 1 425 7 discriminator 6 view .LVU3112
 426:Lib/AI_Runtime/Npu/ll_aton/ll_aton.c ****       break;
 8051              		.loc 1 426 7 view .LVU3113
 8052 00d2 1230     		adds	r0, r0, #18
 8053              	.LVL915:
 426:Lib/AI_Runtime/Npu/ll_aton/ll_aton.c ****       break;
 8054              		.loc 1 426 7 is_stmt 0 view .LVU3114
 8055 00d4 B8E7     		b	.L530
 8056              	.LVL916:
 8057              	.L493:
 435:Lib/AI_Runtime/Npu/ll_aton/ll_aton.c **** #endif // !POOL_RC14
 8058              		.loc 1 435 7 is_stmt 1 view .LVU3115
 435:Lib/AI_Runtime/Npu/ll_aton/ll_aton.c **** #endif // !POOL_RC14
 8059              		.loc 1 435 7 view .LVU3116
 435:Lib/AI_Runtime/Npu/ll_aton/ll_aton.c **** #endif // !POOL_RC14
 8060              		.loc 1 435 7 view .LVU3117
 435:Lib/AI_Runtime/Npu/ll_aton/ll_aton.c **** #endif // !POOL_RC14
 8061              		.loc 1 435 7 view .LVU3118
 435:Lib/AI_Runtime/Npu/ll_aton/ll_aton.c **** #endif // !POOL_RC14
 8062              		.loc 1 435 7 view .LVU3119
 435:Lib/AI_Runtime/Npu/ll_aton/ll_aton.c **** #endif // !POOL_RC14
 8063              		.loc 1 435 7 view .LVU3120
 8064 00d6 00F5B023 		add	r3, r0, #360448
 8065 00da 124A     		ldr	r2, .L531+12
 8066 00dc FB33     		adds	r3, r3, #251
 8067 00de 1B03     		lsls	r3, r3, #12
 8068 00e0 1A60     		str	r2, [r3]
 8069              	.LVL917:
 435:Lib/AI_Runtime/Npu/ll_aton/ll_aton.c **** #endif // !POOL_RC14
 8070              		.loc 1 435 7 view .LVU3121
 435:Lib/AI_Runtime/Npu/ll_aton/ll_aton.c **** #endif // !POOL_RC14
 8071              		.loc 1 435 7 view .LVU3122
 435:Lib/AI_Runtime/Npu/ll_aton/ll_aton.c **** #endif // !POOL_RC14
 8072              		.loc 1 435 7 view .LVU3123
 435:Lib/AI_Runtime/Npu/ll_aton/ll_aton.c **** #endif // !POOL_RC14
 8073              		.loc 1 435 7 view .LVU3124
 8074              	.L510:
 435:Lib/AI_Runtime/Npu/ll_aton/ll_aton.c **** #endif // !POOL_RC14
 8075              		.loc 1 435 7 discriminator 2 view .LVU3125
 435:Lib/AI_Runtime/Npu/ll_aton/ll_aton.c **** #endif // !POOL_RC14
 8076              		.loc 1 435 7 discriminator 2 view .LVU3126
 8077 00e2 1A68     		ldr	r2, [r3]
 8078 00e4 9207     		lsls	r2, r2, #30
 8079 00e6 FCD4     		bmi	.L510
 435:Lib/AI_Runtime/Npu/ll_aton/ll_aton.c **** #endif // !POOL_RC14
 8080              		.loc 1 435 7 discriminator 3 view .LVU3127
ARM GAS  /tmp/ccgbPSBw.s 			page 249


 435:Lib/AI_Runtime/Npu/ll_aton/ll_aton.c **** #endif // !POOL_RC14
 8081              		.loc 1 435 7 discriminator 3 view .LVU3128
 8082              	.LVL918:
 435:Lib/AI_Runtime/Npu/ll_aton/ll_aton.c **** #endif // !POOL_RC14
 8083              		.loc 1 435 7 discriminator 3 view .LVU3129
 435:Lib/AI_Runtime/Npu/ll_aton/ll_aton.c **** #endif // !POOL_RC14
 8084              		.loc 1 435 7 discriminator 3 view .LVU3130
 435:Lib/AI_Runtime/Npu/ll_aton/ll_aton.c **** #endif // !POOL_RC14
 8085              		.loc 1 435 7 discriminator 3 view .LVU3131
 8086 00e8 0F4A     		ldr	r2, .L531+16
 8087 00ea 1A60     		str	r2, [r3]
 435:Lib/AI_Runtime/Npu/ll_aton/ll_aton.c **** #endif // !POOL_RC14
 8088              		.loc 1 435 7 discriminator 3 view .LVU3132
 435:Lib/AI_Runtime/Npu/ll_aton/ll_aton.c **** #endif // !POOL_RC14
 8089              		.loc 1 435 7 discriminator 3 view .LVU3133
 435:Lib/AI_Runtime/Npu/ll_aton/ll_aton.c **** #endif // !POOL_RC14
 8090              		.loc 1 435 7 discriminator 3 view .LVU3134
 435:Lib/AI_Runtime/Npu/ll_aton/ll_aton.c **** #endif // !POOL_RC14
 8091              		.loc 1 435 7 discriminator 3 view .LVU3135
 8092              	.L511:
 435:Lib/AI_Runtime/Npu/ll_aton/ll_aton.c **** #endif // !POOL_RC14
 8093              		.loc 1 435 7 discriminator 5 view .LVU3136
 435:Lib/AI_Runtime/Npu/ll_aton/ll_aton.c **** #endif // !POOL_RC14
 8094              		.loc 1 435 7 discriminator 5 view .LVU3137
 8095 00ec 1A68     		ldr	r2, [r3]
 8096 00ee 5200     		lsls	r2, r2, #1
 8097 00f0 FCD4     		bmi	.L511
 435:Lib/AI_Runtime/Npu/ll_aton/ll_aton.c **** #endif // !POOL_RC14
 8098              		.loc 1 435 7 discriminator 6 view .LVU3138
 435:Lib/AI_Runtime/Npu/ll_aton/ll_aton.c **** #endif // !POOL_RC14
 8099              		.loc 1 435 7 discriminator 6 view .LVU3139
 438:Lib/AI_Runtime/Npu/ll_aton/ll_aton.c ****       break;
 8100              		.loc 1 438 7 view .LVU3140
 8101 00f2 1630     		adds	r0, r0, #22
 8102              	.LVL919:
 438:Lib/AI_Runtime/Npu/ll_aton/ll_aton.c ****       break;
 8103              		.loc 1 438 7 is_stmt 0 view .LVU3141
 8104 00f4 A8E7     		b	.L530
 8105              	.LVL920:
 8106              	.L491:
 444:Lib/AI_Runtime/Npu/ll_aton/ll_aton.c ****       LL_ATON_DisableClock(ATON_RECBUF_CLKB_CLK(unitId));
 8107              		.loc 1 444 7 is_stmt 1 view .LVU3142
 444:Lib/AI_Runtime/Npu/ll_aton/ll_aton.c ****       LL_ATON_DisableClock(ATON_RECBUF_CLKB_CLK(unitId));
 8108              		.loc 1 444 7 view .LVU3143
 444:Lib/AI_Runtime/Npu/ll_aton/ll_aton.c ****       LL_ATON_DisableClock(ATON_RECBUF_CLKB_CLK(unitId));
 8109              		.loc 1 444 7 view .LVU3144
 444:Lib/AI_Runtime/Npu/ll_aton/ll_aton.c ****       LL_ATON_DisableClock(ATON_RECBUF_CLKB_CLK(unitId));
 8110              		.loc 1 444 7 view .LVU3145
 444:Lib/AI_Runtime/Npu/ll_aton/ll_aton.c ****       LL_ATON_DisableClock(ATON_RECBUF_CLKB_CLK(unitId));
 8111              		.loc 1 444 7 view .LVU3146
 444:Lib/AI_Runtime/Npu/ll_aton/ll_aton.c ****       LL_ATON_DisableClock(ATON_RECBUF_CLKB_CLK(unitId));
 8112              		.loc 1 444 7 view .LVU3147
 8113 00f6 0222     		movs	r2, #2
 8114 00f8 0C4B     		ldr	r3, .L531+20
 8115 00fa 1A60     		str	r2, [r3]
 8116              	.LVL921:
 444:Lib/AI_Runtime/Npu/ll_aton/ll_aton.c ****       LL_ATON_DisableClock(ATON_RECBUF_CLKB_CLK(unitId));
ARM GAS  /tmp/ccgbPSBw.s 			page 250


 8117              		.loc 1 444 7 view .LVU3148
 444:Lib/AI_Runtime/Npu/ll_aton/ll_aton.c ****       LL_ATON_DisableClock(ATON_RECBUF_CLKB_CLK(unitId));
 8118              		.loc 1 444 7 view .LVU3149
 444:Lib/AI_Runtime/Npu/ll_aton/ll_aton.c ****       LL_ATON_DisableClock(ATON_RECBUF_CLKB_CLK(unitId));
 8119              		.loc 1 444 7 view .LVU3150
 444:Lib/AI_Runtime/Npu/ll_aton/ll_aton.c ****       LL_ATON_DisableClock(ATON_RECBUF_CLKB_CLK(unitId));
 8120              		.loc 1 444 7 view .LVU3151
 8121              	.L512:
 444:Lib/AI_Runtime/Npu/ll_aton/ll_aton.c ****       LL_ATON_DisableClock(ATON_RECBUF_CLKB_CLK(unitId));
 8122              		.loc 1 444 7 discriminator 2 view .LVU3152
 444:Lib/AI_Runtime/Npu/ll_aton/ll_aton.c ****       LL_ATON_DisableClock(ATON_RECBUF_CLKB_CLK(unitId));
 8123              		.loc 1 444 7 discriminator 2 view .LVU3153
 8124 00fc 1A68     		ldr	r2, [r3]
 8125 00fe 9207     		lsls	r2, r2, #30
 8126 0100 FCD4     		bmi	.L512
 444:Lib/AI_Runtime/Npu/ll_aton/ll_aton.c ****       LL_ATON_DisableClock(ATON_RECBUF_CLKB_CLK(unitId));
 8127              		.loc 1 444 7 discriminator 3 view .LVU3154
 444:Lib/AI_Runtime/Npu/ll_aton/ll_aton.c ****       LL_ATON_DisableClock(ATON_RECBUF_CLKB_CLK(unitId));
 8128              		.loc 1 444 7 discriminator 3 view .LVU3155
 8129              	.LVL922:
 444:Lib/AI_Runtime/Npu/ll_aton/ll_aton.c ****       LL_ATON_DisableClock(ATON_RECBUF_CLKB_CLK(unitId));
 8130              		.loc 1 444 7 discriminator 3 view .LVU3156
 444:Lib/AI_Runtime/Npu/ll_aton/ll_aton.c ****       LL_ATON_DisableClock(ATON_RECBUF_CLKB_CLK(unitId));
 8131              		.loc 1 444 7 discriminator 3 view .LVU3157
 444:Lib/AI_Runtime/Npu/ll_aton/ll_aton.c ****       LL_ATON_DisableClock(ATON_RECBUF_CLKB_CLK(unitId));
 8132              		.loc 1 444 7 discriminator 3 view .LVU3158
 8133 0102 4FF08042 		mov	r2, #1073741824
 8134 0106 1A60     		str	r2, [r3]
 444:Lib/AI_Runtime/Npu/ll_aton/ll_aton.c ****       LL_ATON_DisableClock(ATON_RECBUF_CLKB_CLK(unitId));
 8135              		.loc 1 444 7 discriminator 3 view .LVU3159
 444:Lib/AI_Runtime/Npu/ll_aton/ll_aton.c ****       LL_ATON_DisableClock(ATON_RECBUF_CLKB_CLK(unitId));
 8136              		.loc 1 444 7 discriminator 3 view .LVU3160
 444:Lib/AI_Runtime/Npu/ll_aton/ll_aton.c ****       LL_ATON_DisableClock(ATON_RECBUF_CLKB_CLK(unitId));
 8137              		.loc 1 444 7 discriminator 3 view .LVU3161
 444:Lib/AI_Runtime/Npu/ll_aton/ll_aton.c ****       LL_ATON_DisableClock(ATON_RECBUF_CLKB_CLK(unitId));
 8138              		.loc 1 444 7 discriminator 3 view .LVU3162
 8139              	.L513:
 444:Lib/AI_Runtime/Npu/ll_aton/ll_aton.c ****       LL_ATON_DisableClock(ATON_RECBUF_CLKB_CLK(unitId));
 8140              		.loc 1 444 7 discriminator 5 view .LVU3163
 444:Lib/AI_Runtime/Npu/ll_aton/ll_aton.c ****       LL_ATON_DisableClock(ATON_RECBUF_CLKB_CLK(unitId));
 8141              		.loc 1 444 7 discriminator 5 view .LVU3164
 8142 0108 1A68     		ldr	r2, [r3]
 8143 010a 5200     		lsls	r2, r2, #1
 8144 010c FCD4     		bmi	.L513
 444:Lib/AI_Runtime/Npu/ll_aton/ll_aton.c ****       LL_ATON_DisableClock(ATON_RECBUF_CLKB_CLK(unitId));
 8145              		.loc 1 444 7 discriminator 6 view .LVU3165
 444:Lib/AI_Runtime/Npu/ll_aton/ll_aton.c ****       LL_ATON_DisableClock(ATON_RECBUF_CLKB_CLK(unitId));
 8146              		.loc 1 444 7 discriminator 6 view .LVU3166
 445:Lib/AI_Runtime/Npu/ll_aton/ll_aton.c ****       break;
 8147              		.loc 1 445 7 view .LVU3167
 8148 010e 1830     		adds	r0, r0, #24
 8149              	.LVL923:
 445:Lib/AI_Runtime/Npu/ll_aton/ll_aton.c ****       break;
 8150              		.loc 1 445 7 is_stmt 0 view .LVU3168
 8151 0110 9AE7     		b	.L530
 8152              	.LVL924:
 8153              	.L515:
ARM GAS  /tmp/ccgbPSBw.s 			page 251


 393:Lib/AI_Runtime/Npu/ll_aton/ll_aton.c ****     {
 8154              		.loc 1 393 5 view .LVU3169
 8155 0112 6FF00100 		mvn	r0, #1
 8156              	.LVL925:
 393:Lib/AI_Runtime/Npu/ll_aton/ll_aton.c ****     {
 8157              		.loc 1 393 5 view .LVU3170
 8158 0116 7AE7     		b	.L488
 8159              	.L532:
 8160              		.align	2
 8161              	.L531:
 8162 0118 82108800 		.word	8917122
 8163 011c 80108840 		.word	1082658944
 8164 0120 02000008 		.word	134217730
 8165 0124 02004200 		.word	4325378
 8166 0128 00004240 		.word	1078067200
 8167 012c 00D00F58 		.word	1477431296
 8168              		.cfi_endproc
 8169              	.LFE4828:
 8171              		.section	.text.LL_ATON_Dma_memcpy,"ax",%progbits
 8172              		.align	1
 8173              		.weak	LL_ATON_Dma_memcpy
 8174              		.syntax unified
 8175              		.thumb
 8176              		.thumb_func
 8178              	LL_ATON_Dma_memcpy:
 8179              	.LVL926:
 8180              	.LFB4857:
2515:Lib/AI_Runtime/Npu/ll_aton/ll_aton.c **** 
2516:Lib/AI_Runtime/Npu/ll_aton/ll_aton.c **** /**
2517:Lib/AI_Runtime/Npu/ll_aton/ll_aton.c ****  * @brief  DMA version of a memcpy functionality, this function could be overloaded if a system DMA
2518:Lib/AI_Runtime/Npu/ll_aton/ll_aton.c ****  * @param  dst destination memory address
2519:Lib/AI_Runtime/Npu/ll_aton/ll_aton.c ****  * @param  src source memory address
2520:Lib/AI_Runtime/Npu/ll_aton/ll_aton.c ****  * @param  src_limit memory pool end address of `src`
2521:Lib/AI_Runtime/Npu/ll_aton/ll_aton.c ****  * @param  n number of bytes to be transferred
2522:Lib/AI_Runtime/Npu/ll_aton/ll_aton.c ****  * @param dst_cached Destination under cache flag
2523:Lib/AI_Runtime/Npu/ll_aton/ll_aton.c ****  * @param dst_cached Source under cache flag
2524:Lib/AI_Runtime/Npu/ll_aton/ll_aton.c ****  * @retval Error code E.g.: Invalid ID, invalid parameters, not idle,..
2525:Lib/AI_Runtime/Npu/ll_aton/ll_aton.c ****  *
2526:Lib/AI_Runtime/Npu/ll_aton/ll_aton.c ****  * @note:  This function completely undermines any possibility for integrating correctly
2527:Lib/AI_Runtime/Npu/ll_aton/ll_aton.c ****  *         SW operators (or any other functionality which calls this function) in any of the three 
2528:Lib/AI_Runtime/Npu/ll_aton/ll_aton.c ****  * scheduling modes. In other words, function `LL_ATON_Dma_memcpy()` and its usage are incompatible
2529:Lib/AI_Runtime/Npu/ll_aton/ll_aton.c ****  * runtime. Therefore either `memcpy()` should be used in its place or calls to `LL_ATON_Dma_memcpy
2530:Lib/AI_Runtime/Npu/ll_aton/ll_aton.c ****  * transformed in a sequence of "epoch blocks" which can be integrated with the ATON runtime (as an
2531:Lib/AI_Runtime/Npu/ll_aton/ll_aton.c ****  * ATON-accelerated implementation of operator `Concat`)!
2532:Lib/AI_Runtime/Npu/ll_aton/ll_aton.c ****  */
2533:Lib/AI_Runtime/Npu/ll_aton/ll_aton.c **** /* N.B. assumes DMA0 and 1 are free to use */
2534:Lib/AI_Runtime/Npu/ll_aton/ll_aton.c **** #define MIN_BUFF_LEN 40
2535:Lib/AI_Runtime/Npu/ll_aton/ll_aton.c **** LL_ATON_WEAK void *LL_ATON_Dma_memcpy(void *dst, void *src, void *src_limit, size_t n, int dst_cach
2536:Lib/AI_Runtime/Npu/ll_aton/ll_aton.c **** {
 8181              		.loc 1 2536 1 is_stmt 1 view -0
 8182              		.cfi_startproc
 8183              		@ args = 8, pretend = 0, frame = 168
 8184              		@ frame_needed = 0, uses_anonymous_args = 0
2537:Lib/AI_Runtime/Npu/ll_aton/ll_aton.c ****   uint8_t *_dst_orig = dst;
 8185              		.loc 1 2537 3 view .LVU3172
2538:Lib/AI_Runtime/Npu/ll_aton/ll_aton.c **** 
2539:Lib/AI_Runtime/Npu/ll_aton/ll_aton.c ****   int prolog_len = (n % 3);
ARM GAS  /tmp/ccgbPSBw.s 			page 252


2540:Lib/AI_Runtime/Npu/ll_aton/ll_aton.c ****   int i;
2541:Lib/AI_Runtime/Npu/ll_aton/ll_aton.c ****   uint8_t *_dst = (uint8_t *)dst;
2542:Lib/AI_Runtime/Npu/ll_aton/ll_aton.c ****   uint8_t *_src = (uint8_t *)src;
2543:Lib/AI_Runtime/Npu/ll_aton/ll_aton.c **** 
2544:Lib/AI_Runtime/Npu/ll_aton/ll_aton.c ****   if (n < MIN_BUFF_LEN)
 8186              		.loc 1 2544 6 is_stmt 0 view .LVU3173
 8187 0000 272B     		cmp	r3, #39
2536:Lib/AI_Runtime/Npu/ll_aton/ll_aton.c ****   uint8_t *_dst_orig = dst;
 8188              		.loc 1 2536 1 view .LVU3174
 8189 0002 2DE9F047 		push	{r4, r5, r6, r7, r8, r9, r10, lr}
 8190              		.cfi_def_cfa_offset 32
 8191              		.cfi_offset 4, -32
 8192              		.cfi_offset 5, -28
 8193              		.cfi_offset 6, -24
 8194              		.cfi_offset 7, -20
 8195              		.cfi_offset 8, -16
 8196              		.cfi_offset 9, -12
 8197              		.cfi_offset 10, -8
 8198              		.cfi_offset 14, -4
 8199 0006 1C46     		mov	r4, r3
2539:Lib/AI_Runtime/Npu/ll_aton/ll_aton.c ****   int i;
 8200              		.loc 1 2539 23 view .LVU3175
 8201 0008 84BF     		itt	hi
 8202 000a 0324     		movhi	r4, #3
 8203 000c B3FBF4F4 		udivhi	r4, r3, r4
2536:Lib/AI_Runtime/Npu/ll_aton/ll_aton.c ****   uint8_t *_dst_orig = dst;
 8204              		.loc 1 2536 1 view .LVU3176
 8205 0010 9146     		mov	r9, r2
2545:Lib/AI_Runtime/Npu/ll_aton/ll_aton.c ****     prolog_len = n; // not worth it ...
2546:Lib/AI_Runtime/Npu/ll_aton/ll_aton.c ****   // LL_ATON_PRINTF("n=%d prolog=%d\n",n,prolog_len);
2547:Lib/AI_Runtime/Npu/ll_aton/ll_aton.c **** 
2548:Lib/AI_Runtime/Npu/ll_aton/ll_aton.c ****   for (i = 0; i < prolog_len; i++)
 8206              		.loc 1 2548 10 view .LVU3177
 8207 0012 4FF00002 		mov	r2, #0
 8208              	.LVL927:
2539:Lib/AI_Runtime/Npu/ll_aton/ll_aton.c ****   int i;
 8209              		.loc 1 2539 23 view .LVU3178
 8210 0016 84BF     		itt	hi
 8211 0018 04EB4404 		addhi	r4, r4, r4, lsl #1
 8212 001c 1C1B     		subhi	r4, r3, r4
 8213 001e 9442     		cmp	r4, r2
 8214 0020 04F1010C 		add	ip, r4, #1
2536:Lib/AI_Runtime/Npu/ll_aton/ll_aton.c ****   uint8_t *_dst_orig = dst;
 8215              		.loc 1 2536 1 view .LVU3179
 8216 0024 8046     		mov	r8, r0
 8217              	.LVL928:
2539:Lib/AI_Runtime/Npu/ll_aton/ll_aton.c ****   int i;
 8218              		.loc 1 2539 3 is_stmt 1 view .LVU3180
2540:Lib/AI_Runtime/Npu/ll_aton/ll_aton.c ****   uint8_t *_dst = (uint8_t *)dst;
 8219              		.loc 1 2540 3 view .LVU3181
2541:Lib/AI_Runtime/Npu/ll_aton/ll_aton.c ****   uint8_t *_src = (uint8_t *)src;
 8220              		.loc 1 2541 3 view .LVU3182
2542:Lib/AI_Runtime/Npu/ll_aton/ll_aton.c **** 
 8221              		.loc 1 2542 3 view .LVU3183
2536:Lib/AI_Runtime/Npu/ll_aton/ll_aton.c ****   uint8_t *_dst_orig = dst;
 8222              		.loc 1 2536 1 is_stmt 0 view .LVU3184
 8223 0026 8A46     		mov	r10, r1
ARM GAS  /tmp/ccgbPSBw.s 			page 253


 8224              	.LVL929:
2544:Lib/AI_Runtime/Npu/ll_aton/ll_aton.c ****     prolog_len = n; // not worth it ...
 8225              		.loc 1 2544 3 is_stmt 1 view .LVU3185
 8226              		.loc 1 2548 3 view .LVU3186
 8227              		.loc 1 2548 3 is_stmt 0 view .LVU3187
 8228 0028 B8BF     		it	lt
 8229 002a 4FF0010C 		movlt	ip, #1
2536:Lib/AI_Runtime/Npu/ll_aton/ll_aton.c ****   uint8_t *_dst_orig = dst;
 8230              		.loc 1 2536 1 view .LVU3188
 8231 002e AAB0     		sub	sp, sp, #168
 8232              		.cfi_def_cfa_offset 200
2536:Lib/AI_Runtime/Npu/ll_aton/ll_aton.c ****   uint8_t *_dst_orig = dst;
 8233              		.loc 1 2536 1 view .LVU3189
 8234 0030 339F     		ldr	r7, [sp, #204]
 8235              	.LVL930:
 8236              	.L535:
 8237              		.loc 1 2548 17 is_stmt 1 discriminator 1 view .LVU3190
 8238 0032 BCF1010C 		subs	ip, ip, #1
 8239 0036 73D1     		bne	.L536
2549:Lib/AI_Runtime/Npu/ll_aton/ll_aton.c ****     *_dst++ = *_src++;
2550:Lib/AI_Runtime/Npu/ll_aton/ll_aton.c ****   n -= prolog_len;
 8240              		.loc 1 2550 3 view .LVU3191
 8241              		.loc 1 2550 5 is_stmt 0 view .LVU3192
 8242 0038 1D1B     		subs	r5, r3, r4
 8243              	.LVL931:
2551:Lib/AI_Runtime/Npu/ll_aton/ll_aton.c **** 
2552:Lib/AI_Runtime/Npu/ll_aton/ll_aton.c ****   if (prolog_len > 0)
 8244              		.loc 1 2552 3 is_stmt 1 view .LVU3193
 8245              		.loc 1 2552 6 is_stmt 0 view .LVU3194
 8246 003a 24B1     		cbz	r4, .L537
2553:Lib/AI_Runtime/Npu/ll_aton/ll_aton.c ****   {
2554:Lib/AI_Runtime/Npu/ll_aton/ll_aton.c ****     /* *** MCU cache clean & invalidate operation (SW) *** */
2555:Lib/AI_Runtime/Npu/ll_aton/ll_aton.c ****     LL_ATON_Cache_MCU_Clean_Invalidate_Range(ATON_LIB_PHYSICAL_TO_VIRTUAL_ADDR((uintptr_t)_dst_orig
 8247              		.loc 1 2555 5 is_stmt 1 view .LVU3195
 8248              	.LVL932:
 8249              	.LBB168:
 8250              	.LBI168:
 8251              		.file 3 "Lib/AI_Runtime/Npu/ll_aton/ll_aton_caches_interface.h"
   1:Lib/AI_Runtime/Npu/ll_aton/ll_aton_caches_interface.h **** /**
   2:Lib/AI_Runtime/Npu/ll_aton/ll_aton_caches_interface.h ****  ******************************************************************************
   3:Lib/AI_Runtime/Npu/ll_aton/ll_aton_caches_interface.h ****  * @file    ll_aton_caches_interface.h
   4:Lib/AI_Runtime/Npu/ll_aton/ll_aton_caches_interface.h ****  * @author  SRA Artificial Intelligence & Embedded Architectures
   5:Lib/AI_Runtime/Npu/ll_aton/ll_aton_caches_interface.h ****  * @brief   Header file for defining an implementing generic cache handling
   6:Lib/AI_Runtime/Npu/ll_aton/ll_aton_caches_interface.h ****  *          functions for the application writer
   7:Lib/AI_Runtime/Npu/ll_aton/ll_aton_caches_interface.h ****  ******************************************************************************
   8:Lib/AI_Runtime/Npu/ll_aton/ll_aton_caches_interface.h ****  * @attention
   9:Lib/AI_Runtime/Npu/ll_aton/ll_aton_caches_interface.h ****  *
  10:Lib/AI_Runtime/Npu/ll_aton/ll_aton_caches_interface.h ****  * Copyright (c) 2024 STMicroelectronics.
  11:Lib/AI_Runtime/Npu/ll_aton/ll_aton_caches_interface.h ****  * All rights reserved.
  12:Lib/AI_Runtime/Npu/ll_aton/ll_aton_caches_interface.h ****  *
  13:Lib/AI_Runtime/Npu/ll_aton/ll_aton_caches_interface.h ****  * This software is licensed under terms that can be found in the LICENSE file
  14:Lib/AI_Runtime/Npu/ll_aton/ll_aton_caches_interface.h ****  * in the root directory of this software component.
  15:Lib/AI_Runtime/Npu/ll_aton/ll_aton_caches_interface.h ****  * If no LICENSE file comes with this software, it is provided AS-IS.
  16:Lib/AI_Runtime/Npu/ll_aton/ll_aton_caches_interface.h ****  *
  17:Lib/AI_Runtime/Npu/ll_aton/ll_aton_caches_interface.h ****  ******************************************************************************
  18:Lib/AI_Runtime/Npu/ll_aton/ll_aton_caches_interface.h ****  */
  19:Lib/AI_Runtime/Npu/ll_aton/ll_aton_caches_interface.h **** 
ARM GAS  /tmp/ccgbPSBw.s 			page 254


  20:Lib/AI_Runtime/Npu/ll_aton/ll_aton_caches_interface.h **** #ifndef __LL_ATON_CACHES_H
  21:Lib/AI_Runtime/Npu/ll_aton/ll_aton_caches_interface.h **** #define __LL_ATON_CACHES_H
  22:Lib/AI_Runtime/Npu/ll_aton/ll_aton_caches_interface.h **** 
  23:Lib/AI_Runtime/Npu/ll_aton/ll_aton_caches_interface.h **** #include <stdint.h>
  24:Lib/AI_Runtime/Npu/ll_aton/ll_aton_caches_interface.h **** 
  25:Lib/AI_Runtime/Npu/ll_aton/ll_aton_caches_interface.h **** #ifdef __cplusplus
  26:Lib/AI_Runtime/Npu/ll_aton/ll_aton_caches_interface.h **** extern "C"
  27:Lib/AI_Runtime/Npu/ll_aton/ll_aton_caches_interface.h **** {
  28:Lib/AI_Runtime/Npu/ll_aton/ll_aton_caches_interface.h **** #endif
  29:Lib/AI_Runtime/Npu/ll_aton/ll_aton_caches_interface.h **** 
  30:Lib/AI_Runtime/Npu/ll_aton/ll_aton_caches_interface.h **** #include "ll_aton_osal.h"
  31:Lib/AI_Runtime/Npu/ll_aton/ll_aton_caches_interface.h **** #include "ll_aton_platform.h"
  32:Lib/AI_Runtime/Npu/ll_aton/ll_aton_caches_interface.h **** 
  33:Lib/AI_Runtime/Npu/ll_aton/ll_aton_caches_interface.h **** #if !defined(BUILD_AI_NETWORK_RELOC)
  34:Lib/AI_Runtime/Npu/ll_aton/ll_aton_caches_interface.h **** 
  35:Lib/AI_Runtime/Npu/ll_aton/ll_aton_caches_interface.h **** #if (LL_ATON_PLATFORM == LL_ATON_PLAT_STM32N6)
  36:Lib/AI_Runtime/Npu/ll_aton/ll_aton_caches_interface.h **** 
  37:Lib/AI_Runtime/Npu/ll_aton/ll_aton_caches_interface.h ****   /*** MCU cache maintenance functions ***/
  38:Lib/AI_Runtime/Npu/ll_aton/ll_aton_caches_interface.h **** 
  39:Lib/AI_Runtime/Npu/ll_aton/ll_aton_caches_interface.h ****   /**
  40:Lib/AI_Runtime/Npu/ll_aton/ll_aton_caches_interface.h ****    * @brief perform MCU cache clean maintenance operation on an address range
  41:Lib/AI_Runtime/Npu/ll_aton/ll_aton_caches_interface.h ****    * @details whenever the content of a buffer is changed by the application (which is especially t
  42:Lib/AI_Runtime/Npu/ll_aton/ll_aton_caches_interface.h ****    *          buffers) cache maintenance MUST be taken into account before being able to run the ne
  43:Lib/AI_Runtime/Npu/ll_aton/ll_aton_caches_interface.h ****    * @param[in] virtual_addr start address (host-side/virtual) of address range
  44:Lib/AI_Runtime/Npu/ll_aton/ll_aton_caches_interface.h ****    * @param[in] size size of address range
  45:Lib/AI_Runtime/Npu/ll_aton/ll_aton_caches_interface.h ****    *
  46:Lib/AI_Runtime/Npu/ll_aton/ll_aton_caches_interface.h ****    * @note the address range should fulfill alignment constraints with respect to the MCU cache lin
  47:Lib/AI_Runtime/Npu/ll_aton/ll_aton_caches_interface.h ****    *       for both its `address` & `size` (to better correspond to what this operation will actual
  48:Lib/AI_Runtime/Npu/ll_aton/ll_aton_caches_interface.h ****    * @note this function is intended to handle the case where a buffer has been filled by the MCU/p
  49:Lib/AI_Runtime/Npu/ll_aton/ll_aton_caches_interface.h ****    *       passing thru the MCU cache) and should be called AFTER that the buffer has been filled
  50:Lib/AI_Runtime/Npu/ll_aton/ll_aton_caches_interface.h ****    */
  51:Lib/AI_Runtime/Npu/ll_aton/ll_aton_caches_interface.h ****   static inline void LL_ATON_Cache_MCU_Clean_Range(uintptr_t virtual_addr, uint32_t size)
  52:Lib/AI_Runtime/Npu/ll_aton/ll_aton_caches_interface.h ****   {
  53:Lib/AI_Runtime/Npu/ll_aton/ll_aton_caches_interface.h ****     LL_ATON_OSAL_LOCK_MCU_CACHE();
  54:Lib/AI_Runtime/Npu/ll_aton/ll_aton_caches_interface.h ****     mcu_cache_clean_range(virtual_addr, virtual_addr + size);
  55:Lib/AI_Runtime/Npu/ll_aton/ll_aton_caches_interface.h ****     LL_ATON_OSAL_UNLOCK_MCU_CACHE();
  56:Lib/AI_Runtime/Npu/ll_aton/ll_aton_caches_interface.h ****   }
  57:Lib/AI_Runtime/Npu/ll_aton/ll_aton_caches_interface.h **** 
  58:Lib/AI_Runtime/Npu/ll_aton/ll_aton_caches_interface.h ****   /**
  59:Lib/AI_Runtime/Npu/ll_aton/ll_aton_caches_interface.h ****    * @brief perform MCU cache invalidate maintenance operation on an address range
  60:Lib/AI_Runtime/Npu/ll_aton/ll_aton_caches_interface.h ****    * @details whenever the content of a buffer is changed by the application (which is especially t
  61:Lib/AI_Runtime/Npu/ll_aton/ll_aton_caches_interface.h ****    *          buffers) cache maintenance MUST be taken into account before being able to run the ne
  62:Lib/AI_Runtime/Npu/ll_aton/ll_aton_caches_interface.h ****    * @param[in] virtual_addr start address (host-side/virtual) of address range
  63:Lib/AI_Runtime/Npu/ll_aton/ll_aton_caches_interface.h ****    * @param[in] size size of address range
  64:Lib/AI_Runtime/Npu/ll_aton/ll_aton_caches_interface.h ****    *
  65:Lib/AI_Runtime/Npu/ll_aton/ll_aton_caches_interface.h ****    * @note the address range should fulfill alignment constraints with respect to the MCU cache lin
  66:Lib/AI_Runtime/Npu/ll_aton/ll_aton_caches_interface.h ****    *       for both its `address` & `size` (to better correspond to what this operation will actual
  67:Lib/AI_Runtime/Npu/ll_aton/ll_aton_caches_interface.h ****    * @note this function is intended to handle the case where a buffer has been filled by-passing t
  68:Lib/AI_Runtime/Npu/ll_aton/ll_aton_caches_interface.h ****    *       cache (e.g. using a DMA) and should be called BEFORE the buffer gets filled
  69:Lib/AI_Runtime/Npu/ll_aton/ll_aton_caches_interface.h ****    */
  70:Lib/AI_Runtime/Npu/ll_aton/ll_aton_caches_interface.h ****   static inline void LL_ATON_Cache_MCU_Invalidate_Range(uintptr_t virtual_addr, uint32_t size)
  71:Lib/AI_Runtime/Npu/ll_aton/ll_aton_caches_interface.h ****   {
  72:Lib/AI_Runtime/Npu/ll_aton/ll_aton_caches_interface.h ****     LL_ATON_OSAL_LOCK_MCU_CACHE();
  73:Lib/AI_Runtime/Npu/ll_aton/ll_aton_caches_interface.h ****     mcu_cache_invalidate_range(virtual_addr, virtual_addr + size);
  74:Lib/AI_Runtime/Npu/ll_aton/ll_aton_caches_interface.h ****     LL_ATON_OSAL_UNLOCK_MCU_CACHE();
  75:Lib/AI_Runtime/Npu/ll_aton/ll_aton_caches_interface.h ****   }
  76:Lib/AI_Runtime/Npu/ll_aton/ll_aton_caches_interface.h **** 
ARM GAS  /tmp/ccgbPSBw.s 			page 255


  77:Lib/AI_Runtime/Npu/ll_aton/ll_aton_caches_interface.h ****   /**
  78:Lib/AI_Runtime/Npu/ll_aton/ll_aton_caches_interface.h ****    * @brief perform MCU cache clean & invalidate maintenance operation on an address range
  79:Lib/AI_Runtime/Npu/ll_aton/ll_aton_caches_interface.h ****    * @details whenever the content of a buffer is changed by the application (which is especially t
  80:Lib/AI_Runtime/Npu/ll_aton/ll_aton_caches_interface.h ****    *          buffers) cache maintenance MUST be taken into account before being able to run the ne
  81:Lib/AI_Runtime/Npu/ll_aton/ll_aton_caches_interface.h ****    * @param[in] virtual_addr start address (host-side/virtual) of address range
  82:Lib/AI_Runtime/Npu/ll_aton/ll_aton_caches_interface.h ****    * @param[in] size size of address range
  83:Lib/AI_Runtime/Npu/ll_aton/ll_aton_caches_interface.h ****    *
  84:Lib/AI_Runtime/Npu/ll_aton/ll_aton_caches_interface.h ****    * @note the address range should fulfill alignment constraints with respect to the MCU cache lin
  85:Lib/AI_Runtime/Npu/ll_aton/ll_aton_caches_interface.h ****    *       for both its `address` & `size` (to better correspond to what this operation will actual
  86:Lib/AI_Runtime/Npu/ll_aton/ll_aton_caches_interface.h ****    * @note this function is intended to handle the case where a buffer has been filled by the MCU/p
  87:Lib/AI_Runtime/Npu/ll_aton/ll_aton_caches_interface.h ****    *       (such passing thru the MCU cache) and is gonna to be modified immediately afterwards by-
  88:Lib/AI_Runtime/Npu/ll_aton/ll_aton_caches_interface.h ****    *       the MCU/processor cache (e.g. using a DMA). It should be called AFTER that the buffer ha
  89:Lib/AI_Runtime/Npu/ll_aton/ll_aton_caches_interface.h ****    *       filled
  90:Lib/AI_Runtime/Npu/ll_aton/ll_aton_caches_interface.h ****    */
  91:Lib/AI_Runtime/Npu/ll_aton/ll_aton_caches_interface.h ****   static inline void LL_ATON_Cache_MCU_Clean_Invalidate_Range(uintptr_t virtual_addr, uint32_t size
 8252              		.loc 3 91 22 view .LVU3196
 8253              	.LBB169:
  92:Lib/AI_Runtime/Npu/ll_aton/ll_aton_caches_interface.h ****   {
  93:Lib/AI_Runtime/Npu/ll_aton/ll_aton_caches_interface.h ****     LL_ATON_OSAL_LOCK_MCU_CACHE();
 8254              		.loc 3 93 34 view .LVU3197
  94:Lib/AI_Runtime/Npu/ll_aton/ll_aton_caches_interface.h ****     mcu_cache_clean_invalidate_range(virtual_addr, virtual_addr + size);
 8255              		.loc 3 94 5 view .LVU3198
 8256 003c 4046     		mov	r0, r8
 8257              	.LVL933:
 8258              		.loc 3 94 5 is_stmt 0 view .LVU3199
 8259 003e 08EB0401 		add	r1, r8, r4
 8260 0042 FFF7FEFF 		bl	mcu_cache_clean_invalidate_range
 8261              	.LVL934:
  95:Lib/AI_Runtime/Npu/ll_aton/ll_aton_caches_interface.h ****     LL_ATON_OSAL_UNLOCK_MCU_CACHE();
 8262              		.loc 3 95 36 is_stmt 1 view .LVU3200
 8263              	.L537:
 8264              		.loc 3 95 36 is_stmt 0 view .LVU3201
 8265              	.LBE169:
 8266              	.LBE168:
2556:Lib/AI_Runtime/Npu/ll_aton/ll_aton.c ****   }
2557:Lib/AI_Runtime/Npu/ll_aton/ll_aton.c **** 
2558:Lib/AI_Runtime/Npu/ll_aton/ll_aton.c ****   if (n > 0)
 8267              		.loc 1 2558 3 is_stmt 1 view .LVU3202
 8268              		.loc 1 2558 6 is_stmt 0 view .LVU3203
 8269 0046 002D     		cmp	r5, #0
 8270 0048 66D0     		beq	.L538
 8271              	.LBB170:
2559:Lib/AI_Runtime/Npu/ll_aton/ll_aton.c ****   {
2560:Lib/AI_Runtime/Npu/ll_aton/ll_aton.c ****     LL_Streng_TensorInitTypeDef dma_in = {
 8272              		.loc 1 2560 5 is_stmt 1 view .LVU3204
 8273              		.loc 1 2560 33 is_stmt 0 view .LVU3205
 8274 004a 4822     		movs	r2, #72
 8275 004c 0021     		movs	r1, #0
 8276 004e 06A8     		add	r0, sp, #24
 8277 0050 FFF7FEFF 		bl	memset
 8278              	.LVL935:
 8279 0054 0223     		movs	r3, #2
 8280 0056 8DF81830 		strb	r3, [sp, #24]
 8281 005a 0AEB0403 		add	r3, r10, r4
 8282 005e 0126     		movs	r6, #1
 8283 0060 0793     		str	r3, [sp, #28]
2561:Lib/AI_Runtime/Npu/ll_aton/ll_aton.c ****         .dir = 0,
ARM GAS  /tmp/ccgbPSBw.s 			page 256


2562:Lib/AI_Runtime/Npu/ll_aton/ll_aton.c ****         .addr_base = {_src},
2563:Lib/AI_Runtime/Npu/ll_aton/ll_aton.c ****         .offset_start = 0,
2564:Lib/AI_Runtime/Npu/ll_aton/ll_aton.c ****         .offset_end = n,
2565:Lib/AI_Runtime/Npu/ll_aton/ll_aton.c ****         .offset_limit = ((uintptr_t)src_limit - (uintptr_t)src), // awful FIXME Francesco
 8284              		.loc 1 2565 47 view .LVU3206
 8285 0062 A9EB0A03 		sub	r3, r9, r10
2560:Lib/AI_Runtime/Npu/ll_aton/ll_aton.c ****         .dir = 0,
 8286              		.loc 1 2560 33 view .LVU3207
 8287 0066 41F61809 		movw	r9, #6168
 8288              	.LVL936:
2566:Lib/AI_Runtime/Npu/ll_aton/ll_aton.c ****         .raw = 1,
2567:Lib/AI_Runtime/Npu/ll_aton/ll_aton.c ****         .frame_count = 0,
2568:Lib/AI_Runtime/Npu/ll_aton/ll_aton.c ****         .fwidth = 0,
2569:Lib/AI_Runtime/Npu/ll_aton/ll_aton.c ****         .fheight = 0,
2570:Lib/AI_Runtime/Npu/ll_aton/ll_aton.c ****         .batch_depth = 0,
2571:Lib/AI_Runtime/Npu/ll_aton/ll_aton.c ****         .batch_offset = 0,
2572:Lib/AI_Runtime/Npu/ll_aton/ll_aton.c ****         .frame_offset = n,
2573:Lib/AI_Runtime/Npu/ll_aton/ll_aton.c ****         .line_offset = 0,
2574:Lib/AI_Runtime/Npu/ll_aton/ll_aton.c ****         .loop_offset = 0,
2575:Lib/AI_Runtime/Npu/ll_aton/ll_aton.c ****         .frame_loop_cnt = 0,
2576:Lib/AI_Runtime/Npu/ll_aton/ll_aton.c ****         .frame_tot_cnt = 1,
2577:Lib/AI_Runtime/Npu/ll_aton/ll_aton.c ****         .nbits_in = 24,
2578:Lib/AI_Runtime/Npu/ll_aton/ll_aton.c ****         .nbits_out = 24,
2579:Lib/AI_Runtime/Npu/ll_aton/ll_aton.c ****         .nbits_unsigned = 0,
2580:Lib/AI_Runtime/Npu/ll_aton/ll_aton.c ****         .align_right = 0,
2581:Lib/AI_Runtime/Npu/ll_aton/ll_aton.c ****         .noblk = 0,
2582:Lib/AI_Runtime/Npu/ll_aton/ll_aton.c ****     };
2583:Lib/AI_Runtime/Npu/ll_aton/ll_aton.c **** 
2584:Lib/AI_Runtime/Npu/ll_aton/ll_aton.c ****     LL_Streng_TensorInitTypeDef dma_out = {
 8289              		.loc 1 2584 33 view .LVU3208
 8290 006a 4822     		movs	r2, #72
 8291 006c 0021     		movs	r1, #0
 8292 006e 18A8     		add	r0, sp, #96
2560:Lib/AI_Runtime/Npu/ll_aton/ll_aton.c ****         .dir = 0,
 8293              		.loc 1 2560 33 view .LVU3209
 8294 0070 0A93     		str	r3, [sp, #40]
 8295 0072 0995     		str	r5, [sp, #36]
 8296 0074 1095     		str	r5, [sp, #64]
 8297 0076 1696     		str	r6, [sp, #88]
 8298 0078 ADF85C90 		strh	r9, [sp, #92]	@ movhi
 8299              		.loc 1 2584 5 is_stmt 1 view .LVU3210
 8300              		.loc 1 2584 33 is_stmt 0 view .LVU3211
 8301 007c FFF7FEFF 		bl	memset
 8302              	.LVL937:
 8303 0080 0323     		movs	r3, #3
 8304 0082 4444     		add	r4, r4, r8
 8305              	.LVL938:
 8306              		.loc 1 2584 33 view .LVU3212
 8307 0084 8DF86030 		strb	r3, [sp, #96]
 8308 0088 1994     		str	r4, [sp, #100]
 8309 008a 1B95     		str	r5, [sp, #108]
 8310 008c 2295     		str	r5, [sp, #136]
 8311 008e 2896     		str	r6, [sp, #160]
 8312 0090 ADF8A490 		strh	r9, [sp, #164]	@ movhi
2585:Lib/AI_Runtime/Npu/ll_aton/ll_aton.c ****         .dir = 1,
2586:Lib/AI_Runtime/Npu/ll_aton/ll_aton.c ****         .addr_base = {_dst},
2587:Lib/AI_Runtime/Npu/ll_aton/ll_aton.c ****         .offset_start = 0,
ARM GAS  /tmp/ccgbPSBw.s 			page 257


2588:Lib/AI_Runtime/Npu/ll_aton/ll_aton.c ****         .offset_end = n,
2589:Lib/AI_Runtime/Npu/ll_aton/ll_aton.c ****         .raw = 1,
2590:Lib/AI_Runtime/Npu/ll_aton/ll_aton.c ****         .frame_count = 0,
2591:Lib/AI_Runtime/Npu/ll_aton/ll_aton.c ****         .fwidth = 0,
2592:Lib/AI_Runtime/Npu/ll_aton/ll_aton.c ****         .fheight = 0,
2593:Lib/AI_Runtime/Npu/ll_aton/ll_aton.c ****         .batch_depth = 0,
2594:Lib/AI_Runtime/Npu/ll_aton/ll_aton.c ****         .batch_offset = 0,
2595:Lib/AI_Runtime/Npu/ll_aton/ll_aton.c ****         .frame_offset = n,
2596:Lib/AI_Runtime/Npu/ll_aton/ll_aton.c ****         .line_offset = 0,
2597:Lib/AI_Runtime/Npu/ll_aton/ll_aton.c ****         .loop_offset = 0,
2598:Lib/AI_Runtime/Npu/ll_aton/ll_aton.c ****         .frame_loop_cnt = 0,
2599:Lib/AI_Runtime/Npu/ll_aton/ll_aton.c ****         .frame_tot_cnt = 1,
2600:Lib/AI_Runtime/Npu/ll_aton/ll_aton.c ****         .nbits_in = 24,
2601:Lib/AI_Runtime/Npu/ll_aton/ll_aton.c ****         .nbits_out = 24,
2602:Lib/AI_Runtime/Npu/ll_aton/ll_aton.c ****         .nbits_unsigned = 0,
2603:Lib/AI_Runtime/Npu/ll_aton/ll_aton.c ****         .align_right = 0,
2604:Lib/AI_Runtime/Npu/ll_aton/ll_aton.c ****         .noblk = 0,
2605:Lib/AI_Runtime/Npu/ll_aton/ll_aton.c ****     };
2606:Lib/AI_Runtime/Npu/ll_aton/ll_aton.c **** 
2607:Lib/AI_Runtime/Npu/ll_aton/ll_aton.c ****     if (src_cached)
 8313              		.loc 1 2607 5 is_stmt 1 view .LVU3213
 8314              		.loc 1 2607 8 is_stmt 0 view .LVU3214
 8315 0094 3FB1     		cbz	r7, .L539
2608:Lib/AI_Runtime/Npu/ll_aton/ll_aton.c ****     {
2609:Lib/AI_Runtime/Npu/ll_aton/ll_aton.c ****       dma_in.cacheable = 1;
 8316              		.loc 1 2609 7 is_stmt 1 view .LVU3215
2610:Lib/AI_Runtime/Npu/ll_aton/ll_aton.c ****       dma_in.cache_allocate = 1;
 8317              		.loc 1 2610 7 view .LVU3216
2609:Lib/AI_Runtime/Npu/ll_aton/ll_aton.c ****       dma_in.cache_allocate = 1;
 8318              		.loc 1 2609 24 is_stmt 0 view .LVU3217
 8319 0096 9DF81930 		ldrb	r3, [sp, #25]	@ zero_extendqisi2
 8320 009a 23F06003 		bic	r3, r3, #96
 8321 009e 43F06003 		orr	r3, r3, #96
 8322 00a2 8DF81930 		strb	r3, [sp, #25]
 8323              	.L539:
2611:Lib/AI_Runtime/Npu/ll_aton/ll_aton.c ****     }
2612:Lib/AI_Runtime/Npu/ll_aton/ll_aton.c **** 
2613:Lib/AI_Runtime/Npu/ll_aton/ll_aton.c ****     if (dst_cached)
 8324              		.loc 1 2613 5 is_stmt 1 view .LVU3218
 8325              		.loc 1 2613 8 is_stmt 0 view .LVU3219
 8326 00a6 329B     		ldr	r3, [sp, #200]
 8327 00a8 3BB1     		cbz	r3, .L540
2614:Lib/AI_Runtime/Npu/ll_aton/ll_aton.c ****     {
2615:Lib/AI_Runtime/Npu/ll_aton/ll_aton.c ****       dma_out.cacheable = 1;
 8328              		.loc 1 2615 7 is_stmt 1 view .LVU3220
2616:Lib/AI_Runtime/Npu/ll_aton/ll_aton.c ****       dma_out.cache_allocate = 1;
 8329              		.loc 1 2616 7 view .LVU3221
2615:Lib/AI_Runtime/Npu/ll_aton/ll_aton.c ****       dma_out.cache_allocate = 1;
 8330              		.loc 1 2615 25 is_stmt 0 view .LVU3222
 8331 00aa 9DF86130 		ldrb	r3, [sp, #97]	@ zero_extendqisi2
 8332 00ae 23F06003 		bic	r3, r3, #96
 8333 00b2 43F06003 		orr	r3, r3, #96
 8334 00b6 8DF86130 		strb	r3, [sp, #97]
 8335              	.L540:
2617:Lib/AI_Runtime/Npu/ll_aton/ll_aton.c ****     }
2618:Lib/AI_Runtime/Npu/ll_aton/ll_aton.c **** 
2619:Lib/AI_Runtime/Npu/ll_aton/ll_aton.c ****     const LL_Switch_InitTypeDef switch_init = {LL_Switch_Init_Dest() = ATONN_DSTPORT(STRSWITCH, 0, 
ARM GAS  /tmp/ccgbPSBw.s 			page 258


 8336              		.loc 1 2619 5 is_stmt 1 view .LVU3223
 8337              		.loc 1 2619 33 is_stmt 0 view .LVU3224
 8338 00ba 1022     		movs	r2, #16
 8339 00bc 0021     		movs	r1, #0
 8340 00be 02A8     		add	r0, sp, #8
 8341 00c0 FFF7FEFF 		bl	memset
 8342              	.LVL939:
 8343 00c4 0C23     		movs	r3, #12
 8344 00c6 0493     		str	r3, [sp, #16]
 8345 00c8 0123     		movs	r3, #1
2620:Lib/AI_Runtime/Npu/ll_aton/ll_aton.c ****                                                LL_Switch_Init_Source(0) = ATONN_SRCPORT(STRSWITCH, 
2621:Lib/AI_Runtime/Npu/ll_aton/ll_aton.c ****                                                LL_Switch_Init_Context(0) = 1, LL_Switch_Init_Frames
2622:Lib/AI_Runtime/Npu/ll_aton/ll_aton.c ****     const LL_ATON_EnableUnits_InitTypeDef dma_units[] = {{{STRENG, 1}}, {{STRENG, 0}}};
 8346              		.loc 1 2622 43 view .LVU3225
 8347 00ca 0020     		movs	r0, #0
 8348 00cc 1C46     		mov	r4, r3
2623:Lib/AI_Runtime/Npu/ll_aton/ll_aton.c ****     const uint32_t dma_wait_mask = 0x2;
2624:Lib/AI_Runtime/Npu/ll_aton/ll_aton.c **** 
2625:Lib/AI_Runtime/Npu/ll_aton/ll_aton.c ****     LL_Streng_TensorInit(0, &dma_in, 1);
 8349              		.loc 1 2625 5 view .LVU3226
 8350 00ce 1A46     		mov	r2, r3
 8351 00d0 06A9     		add	r1, sp, #24
2619:Lib/AI_Runtime/Npu/ll_aton/ll_aton.c ****                                                LL_Switch_Init_Source(0) = ATONN_SRCPORT(STRSWITCH, 
 8352              		.loc 1 2619 33 view .LVU3227
 8353 00d2 8DF81630 		strb	r3, [sp, #22]
2622:Lib/AI_Runtime/Npu/ll_aton/ll_aton.c ****     const uint32_t dma_wait_mask = 0x2;
 8354              		.loc 1 2622 5 is_stmt 1 view .LVU3228
2622:Lib/AI_Runtime/Npu/ll_aton/ll_aton.c ****     const uint32_t dma_wait_mask = 0x2;
 8355              		.loc 1 2622 43 is_stmt 0 view .LVU3229
 8356 00d6 ADF80230 		strh	r3, [sp, #2]	@ movhi
 8357 00da 8DF80000 		strb	r0, [sp]
 8358 00de 8DF80400 		strb	r0, [sp, #4]
 8359 00e2 ADF80600 		strh	r0, [sp, #6]	@ movhi
2623:Lib/AI_Runtime/Npu/ll_aton/ll_aton.c ****     const uint32_t dma_wait_mask = 0x2;
 8360              		.loc 1 2623 5 is_stmt 1 view .LVU3230
 8361              	.LVL940:
 8362              		.loc 1 2625 5 view .LVU3231
 8363 00e6 FFF7FEFF 		bl	LL_Streng_TensorInit
 8364              	.LVL941:
2626:Lib/AI_Runtime/Npu/ll_aton/ll_aton.c ****     LL_Streng_TensorInit(1, &dma_out, 1);
 8365              		.loc 1 2626 5 view .LVU3232
 8366 00ea 2246     		mov	r2, r4
 8367 00ec 18A9     		add	r1, sp, #96
 8368 00ee 2046     		mov	r0, r4
 8369 00f0 FFF7FEFF 		bl	LL_Streng_TensorInit
 8370              	.LVL942:
2627:Lib/AI_Runtime/Npu/ll_aton/ll_aton.c ****     LL_Switch_Init(&switch_init, 1);
 8371              		.loc 1 2627 5 view .LVU3233
 8372 00f4 2146     		mov	r1, r4
 8373 00f6 02A8     		add	r0, sp, #8
 8374 00f8 FFF7FEFF 		bl	LL_Switch_Init
 8375              	.LVL943:
2628:Lib/AI_Runtime/Npu/ll_aton/ll_aton.c ****     LL_ATON_EnableUnits_Init(dma_units, 2);
 8376              		.loc 1 2628 5 view .LVU3234
 8377 00fc 0221     		movs	r1, #2
 8378 00fe 6846     		mov	r0, sp
 8379 0100 FFF7FEFF 		bl	LL_ATON_EnableUnits_Init
ARM GAS  /tmp/ccgbPSBw.s 			page 259


 8380              	.LVL944:
2629:Lib/AI_Runtime/Npu/ll_aton/ll_aton.c ****     LL_Streng_Wait(dma_wait_mask);
 8381              		.loc 1 2629 5 view .LVU3235
 8382 0104 0220     		movs	r0, #2
 8383 0106 FFF7FEFF 		bl	LL_Streng_Wait
 8384              	.LVL945:
2630:Lib/AI_Runtime/Npu/ll_aton/ll_aton.c ****     LL_ATON_DisableUnits_Init(dma_units, 1);
 8385              		.loc 1 2630 5 view .LVU3236
 8386 010a 2146     		mov	r1, r4
 8387 010c 6846     		mov	r0, sp
 8388 010e FFF7FEFF 		bl	LL_ATON_DisableUnits_Init
 8389              	.LVL946:
2631:Lib/AI_Runtime/Npu/ll_aton/ll_aton.c ****     LL_Switch_Deinit(&switch_init, 1);
 8390              		.loc 1 2631 5 view .LVU3237
 8391 0112 02A8     		add	r0, sp, #8
 8392 0114 FFF7FEFF 		bl	LL_Switch_Deinit
 8393              	.LVL947:
 8394              	.L538:
 8395              		.loc 1 2631 5 is_stmt 0 view .LVU3238
 8396              	.LBE170:
2632:Lib/AI_Runtime/Npu/ll_aton/ll_aton.c ****   }
2633:Lib/AI_Runtime/Npu/ll_aton/ll_aton.c **** 
2634:Lib/AI_Runtime/Npu/ll_aton/ll_aton.c ****   return dst;
 8397              		.loc 1 2634 3 is_stmt 1 view .LVU3239
2635:Lib/AI_Runtime/Npu/ll_aton/ll_aton.c **** }
 8398              		.loc 1 2635 1 is_stmt 0 view .LVU3240
 8399 0118 4046     		mov	r0, r8
 8400 011a 2AB0     		add	sp, sp, #168
 8401              		.cfi_remember_state
 8402              		.cfi_def_cfa_offset 32
 8403              		@ sp needed
 8404 011c BDE8F087 		pop	{r4, r5, r6, r7, r8, r9, r10, pc}
 8405              	.LVL948:
 8406              	.L536:
 8407              		.cfi_restore_state
2549:Lib/AI_Runtime/Npu/ll_aton/ll_aton.c ****   n -= prolog_len;
 8408              		.loc 1 2549 5 is_stmt 1 view .LVU3241
2549:Lib/AI_Runtime/Npu/ll_aton/ll_aton.c ****   n -= prolog_len;
 8409              		.loc 1 2549 15 is_stmt 0 view .LVU3242
 8410 0120 1AF80210 		ldrb	r1, [r10, r2]	@ zero_extendqisi2
2549:Lib/AI_Runtime/Npu/ll_aton/ll_aton.c ****   n -= prolog_len;
 8411              		.loc 1 2549 13 view .LVU3243
 8412 0124 08F80210 		strb	r1, [r8, r2]
2548:Lib/AI_Runtime/Npu/ll_aton/ll_aton.c ****     *_dst++ = *_src++;
 8413              		.loc 1 2548 32 is_stmt 1 discriminator 3 view .LVU3244
 8414 0128 0132     		adds	r2, r2, #1
 8415              	.LVL949:
2548:Lib/AI_Runtime/Npu/ll_aton/ll_aton.c ****     *_dst++ = *_src++;
 8416              		.loc 1 2548 32 is_stmt 0 discriminator 3 view .LVU3245
 8417 012a 82E7     		b	.L535
 8418              		.cfi_endproc
 8419              	.LFE4857:
 8421              		.section	.rodata.CSWTCH.208,"a"
 8424              	CSWTCH.208:
 8425 0000 00       		.byte	0
 8426 0001 01       		.byte	1
 8427 0002 02       		.byte	2
ARM GAS  /tmp/ccgbPSBw.s 			page 260


 8428 0003 08       		.byte	8
 8429 0004 09       		.byte	9
 8430 0005 0A       		.byte	10
 8431              		.section	.rodata.CSWTCH.206,"a"
 8434              	CSWTCH.206:
 8435 0000 00       		.byte	0
 8436 0001 01       		.byte	1
 8437 0002 02       		.byte	2
 8438 0003 07       		.byte	7
 8439 0004 0B       		.byte	11
 8440 0005 0F       		.byte	15
 8441 0006 13       		.byte	19
 8442 0007 17       		.byte	23
 8443 0008 1B       		.byte	27
 8444 0009 1F       		.byte	31
 8445 000a 23       		.byte	35
 8446 000b 27       		.byte	39
 8447 000c 2B       		.byte	43
 8448 000d 2F       		.byte	47
 8449 000e 33       		.byte	51
 8450 000f 37       		.byte	55
 8451              		.section	.rodata.__func__.0,"a"
 8454              	__func__.0:
 8455 0000 4C4C5F45 		.ascii	"LL_EpochCtrl_Wait\000"
 8455      706F6368 
 8455      4374726C 
 8455      5F576169 
 8455      7400
 8456              		.section	.rodata.__func__.1,"a"
 8459              	__func__.1:
 8460 0000 6765745F 		.ascii	"get_Poolacc_type\000"
 8460      506F6F6C 
 8460      6163635F 
 8460      74797065 
 8460      00
 8461              		.section	.rodata.__func__.2,"a"
 8464              	__func__.2:
 8465 0000 6765745F 		.ascii	"get_Arithacc_type\000"
 8465      41726974 
 8465      68616363 
 8465      5F747970 
 8465      6500
 8466              		.section	.rodata.__func__.3,"a"
 8469              	__func__.3:
 8470 0000 6765745F 		.ascii	"get_Activacc_type\000"
 8470      41637469 
 8470      76616363 
 8470      5F747970 
 8470      6500
 8471              		.section	.rodata.__func__.4,"a"
 8474              	__func__.4:
 8475 0000 4C4C5F44 		.ascii	"LL_Decun_Init\000"
 8475      6563756E 
 8475      5F496E69 
 8475      7400
 8476              		.section	.rodata.__func__.5,"a"
 8479              	__func__.5:
ARM GAS  /tmp/ccgbPSBw.s 			page 261


 8480 0000 5F5F6174 		.ascii	"__atonn_getDstPortID\000"
 8480      6F6E6E5F 
 8480      67657444 
 8480      7374506F 
 8480      72744944 
 8481              		.section	.rodata.__func__.6,"a"
 8484              	__func__.6:
 8485 0000 5F5F6174 		.ascii	"__atonn_getSrcPortID\000"
 8485      6F6E6E5F 
 8485      67657453 
 8485      7263506F 
 8485      72744944 
 8486              		.section	.rodata.__func__.7,"a"
 8489              	__func__.7:
 8490 0000 4C4C5F53 		.ascii	"LL_Streng_Wait\000"
 8490      7472656E 
 8490      675F5761 
 8490      697400
 8491              		.section	.bss.done.9,"aw",%nobits
 8494              	done.9:
 8495 0000 00       		.space	1
 8496              		.section	.rodata.__func__.10,"a"
 8499              	__func__.10:
 8500 0000 4C4C5F41 		.ascii	"LL_ATON_Init\000"
 8500      544F4E5F 
 8500      496E6974 
 8500      00
 8501              		.section	.bss.Conv_ctrl_bits,"aw",%nobits
 8502              		.align	2
 8505              	Conv_ctrl_bits:
 8506 0000 00000000 		.space	16
 8506      00000000 
 8506      00000000 
 8506      00000000 
 8507              		.text
 8508              	.Letext0:
 8509              		.file 4 "/home/tanjiajun2002/renesas/rzv/e2studio_v2025-01_fsp_v3.1.0/toolchains/gcc_arm/arm-gnu-t
 8510              		.file 5 "/home/tanjiajun2002/renesas/rzv/e2studio_v2025-01_fsp_v3.1.0/toolchains/gcc_arm/arm-gnu-t
 8511              		.file 6 "/home/tanjiajun2002/renesas/rzv/e2studio_v2025-01_fsp_v3.1.0/toolchains/gcc_arm/arm-gnu-t
 8512              		.file 7 "Lib/AI_Runtime/Npu/Devices/STM32N6XX/mcu_cache.h"
 8513              		.file 8 "Lib/AI_Runtime/Npu/ll_aton/ll_aton_util.h"
 8514              		.file 9 "/home/tanjiajun2002/renesas/rzv/e2studio_v2025-01_fsp_v3.1.0/toolchains/gcc_arm/arm-gnu-t
 8515              		.file 10 "/home/tanjiajun2002/renesas/rzv/e2studio_v2025-01_fsp_v3.1.0/toolchains/gcc_arm/arm-gnu-
 8516              		.file 11 "/home/tanjiajun2002/renesas/rzv/e2studio_v2025-01_fsp_v3.1.0/toolchains/gcc_arm/arm-gnu-
 8517              		.file 12 "/home/tanjiajun2002/renesas/rzv/e2studio_v2025-01_fsp_v3.1.0/toolchains/gcc_arm/arm-gnu-
 8518              		.file 13 "<built-in>"
ARM GAS  /tmp/ccgbPSBw.s 			page 262


DEFINED SYMBOLS
                            *ABS*:00000000 ll_aton.c
     /tmp/ccgbPSBw.s:26     .text.decun_inc_page_addr:00000000 $t
     /tmp/ccgbPSBw.s:31     .text.decun_inc_page_addr:00000000 decun_inc_page_addr
     /tmp/ccgbPSBw.s:74     .text.LL_Address_Physical2Virtual:00000000 $t
     /tmp/ccgbPSBw.s:80     .text.LL_Address_Physical2Virtual:00000000 LL_Address_Physical2Virtual
     /tmp/ccgbPSBw.s:95     .text.LL_Address_Virtual2Physical:00000000 $t
     /tmp/ccgbPSBw.s:101    .text.LL_Address_Virtual2Physical:00000000 LL_Address_Virtual2Physical
     /tmp/ccgbPSBw.s:113    .text.startWatchdog:00000000 $t
     /tmp/ccgbPSBw.s:119    .text.startWatchdog:00000000 startWatchdog
     /tmp/ccgbPSBw.s:138    .text.checkWatchdog:00000000 $t
     /tmp/ccgbPSBw.s:144    .text.checkWatchdog:00000000 checkWatchdog
     /tmp/ccgbPSBw.s:194    .text.LL_ATON_Init:00000000 $t
     /tmp/ccgbPSBw.s:200    .text.LL_ATON_Init:00000000 LL_ATON_Init
     /tmp/ccgbPSBw.s:720    .text.LL_ATON_Init:00000290 $d
     /tmp/ccgbPSBw.s:8494   .bss.done.9:00000000 done.9
     /tmp/ccgbPSBw.s:8499   .rodata.__func__.10:00000000 __func__.10
     /tmp/ccgbPSBw.s:744    .text.LL_ATON_Init:000002e8 $t
     /tmp/ccgbPSBw.s:1120   .text.LL_ATON_Init:00000504 $d
     /tmp/ccgbPSBw.s:1137   .text.LL_ATON_DeInit:00000000 $t
     /tmp/ccgbPSBw.s:1143   .text.LL_ATON_DeInit:00000000 LL_ATON_DeInit
     /tmp/ccgbPSBw.s:1206   .text.LL_ATON_DeInit:00000020 $d
     /tmp/ccgbPSBw.s:1211   .text.LL_ATON_EnableUnits_Init:00000000 $t
     /tmp/ccgbPSBw.s:1217   .text.LL_ATON_EnableUnits_Init:00000000 LL_ATON_EnableUnits_Init
     /tmp/ccgbPSBw.s:1275   .text.LL_ATON_EnableUnits_Init:0000002c $d
     /tmp/ccgbPSBw.s:1420   .text.LL_ATON_EnableUnits_Init:00000088 $d
     /tmp/ccgbPSBw.s:8505   .bss.Conv_ctrl_bits:00000000 Conv_ctrl_bits
     /tmp/ccgbPSBw.s:1429   .text.LL_Streng_Wait:00000000 $t
     /tmp/ccgbPSBw.s:1435   .text.LL_Streng_Wait:00000000 LL_Streng_Wait
     /tmp/ccgbPSBw.s:1533   .text.LL_Streng_Wait:00000050 $d
     /tmp/ccgbPSBw.s:8489   .rodata.__func__.7:00000000 __func__.7
     /tmp/ccgbPSBw.s:1541   .text.LL_TriggerHigh:00000000 $t
     /tmp/ccgbPSBw.s:1547   .text.LL_TriggerHigh:00000000 LL_TriggerHigh
     /tmp/ccgbPSBw.s:1600   .text.LL_TriggerHigh:00000028 $d
     /tmp/ccgbPSBw.s:1606   .text.LL_TriggerLow:00000000 $t
     /tmp/ccgbPSBw.s:1612   .text.LL_TriggerLow:00000000 LL_TriggerLow
     /tmp/ccgbPSBw.s:1644   .text.LL_TriggerLow:00000018 $d
     /tmp/ccgbPSBw.s:1660   .text.__atonn_getSrcPortID:00000000 $t
     /tmp/ccgbPSBw.s:1666   .text.__atonn_getSrcPortID:00000000 __atonn_getSrcPortID
     /tmp/ccgbPSBw.s:1722   .text.__atonn_getSrcPortID:0000002e $d
     /tmp/ccgbPSBw.s:1957   .text.__atonn_getSrcPortID:00000108 $d
     /tmp/ccgbPSBw.s:8484   .rodata.__func__.6:00000000 __func__.6
     /tmp/ccgbPSBw.s:1974   .text.__atonn_getDstPortID:00000000 $t
     /tmp/ccgbPSBw.s:1980   .text.__atonn_getDstPortID:00000000 __atonn_getDstPortID
     /tmp/ccgbPSBw.s:2038   .text.__atonn_getDstPortID:0000002e $d
     /tmp/ccgbPSBw.s:2304   .text.__atonn_getDstPortID:0000012c $d
     /tmp/ccgbPSBw.s:8479   .rodata.__func__.5:00000000 __func__.5
     /tmp/ccgbPSBw.s:2318   .text.LL_Switch_Init_NoReset:00000000 $t
     /tmp/ccgbPSBw.s:2324   .text.LL_Switch_Init_NoReset:00000000 LL_Switch_Init_NoReset
     /tmp/ccgbPSBw.s:2422   .text.LL_Switch_Init_NoReset:00000050 $d
     /tmp/ccgbPSBw.s:2427   .text.LL_Switch_Init:00000000 $t
     /tmp/ccgbPSBw.s:2433   .text.LL_Switch_Init:00000000 LL_Switch_Init
     /tmp/ccgbPSBw.s:2489   .text.LL_Switch_Init:0000001c $d
     /tmp/ccgbPSBw.s:2494   .text.LL_Switch_Deinit:00000000 $t
     /tmp/ccgbPSBw.s:2500   .text.LL_Switch_Deinit:00000000 LL_Switch_Deinit
     /tmp/ccgbPSBw.s:2563   .text.LL_Switch_Deinit_Fine_Grained:00000000 $t
     /tmp/ccgbPSBw.s:2569   .text.LL_Switch_Deinit_Fine_Grained:00000000 LL_Switch_Deinit_Fine_Grained
ARM GAS  /tmp/ccgbPSBw.s 			page 263


     /tmp/ccgbPSBw.s:2639   .text.LL_EpochCtrl_Step:00000000 $t
     /tmp/ccgbPSBw.s:2645   .text.LL_EpochCtrl_Step:00000000 LL_EpochCtrl_Step
     /tmp/ccgbPSBw.s:2678   .text.LL_EpochCtrl_Step:00000010 $d
     /tmp/ccgbPSBw.s:2683   .text.LL_EpochCtrl_Wait:00000000 $t
     /tmp/ccgbPSBw.s:2689   .text.LL_EpochCtrl_Wait:00000000 LL_EpochCtrl_Wait
     /tmp/ccgbPSBw.s:2758   .text.LL_EpochCtrl_Wait:00000034 $d
     /tmp/ccgbPSBw.s:8454   .rodata.__func__.0:00000000 __func__.0
     /tmp/ccgbPSBw.s:2767   .text.LL_EpochCtrl_GetBlobSize:00000000 $t
     /tmp/ccgbPSBw.s:2773   .text.LL_EpochCtrl_GetBlobSize:00000000 LL_EpochCtrl_GetBlobSize
     /tmp/ccgbPSBw.s:2798   .text.LL_ATON_EnableClock:00000000 $t
     /tmp/ccgbPSBw.s:2804   .text.LL_ATON_EnableClock:00000000 LL_ATON_EnableClock
     /tmp/ccgbPSBw.s:2848   .text.LL_ATON_EnableClock:0000001c $d
     /tmp/ccgbPSBw.s:2853   .text.LL_Streng_TensorInit:00000000 $t
     /tmp/ccgbPSBw.s:2859   .text.LL_Streng_TensorInit:00000000 LL_Streng_TensorInit
     /tmp/ccgbPSBw.s:3580   .text.LL_Streng_ExtSyncInit:00000000 $t
     /tmp/ccgbPSBw.s:3586   .text.LL_Streng_ExtSyncInit:00000000 LL_Streng_ExtSyncInit
     /tmp/ccgbPSBw.s:3671   .text.LL_Streng_ExtSyncInit:0000003c $d
     /tmp/ccgbPSBw.s:3681   .text.LL_Decun_Init:00000000 $t
     /tmp/ccgbPSBw.s:3687   .text.LL_Decun_Init:00000000 LL_Decun_Init
     /tmp/ccgbPSBw.s:4652   .text.LL_Decun_Init:0000032c $d
     /tmp/ccgbPSBw.s:8474   .rodata.__func__.4:00000000 __func__.4
     /tmp/ccgbPSBw.s:4662   .text.LL_Decun_Init:0000033c $t
     /tmp/ccgbPSBw.s:5211   .text.LL_Decun_Init:00000524 $d
     /tmp/ccgbPSBw.s:5217   .text.LL_Convacc_Init:00000000 $t
     /tmp/ccgbPSBw.s:5223   .text.LL_Convacc_Init:00000000 LL_Convacc_Init
     /tmp/ccgbPSBw.s:5895   .text.LL_Convacc_Init:000002b8 $d
     /tmp/ccgbPSBw.s:5901   .text.LL_Activacc_Init:00000000 $t
     /tmp/ccgbPSBw.s:5907   .text.LL_Activacc_Init:00000000 LL_Activacc_Init
     /tmp/ccgbPSBw.s:6292   .text.LL_Activacc_Init:00000150 $d
     /tmp/ccgbPSBw.s:8469   .rodata.__func__.3:00000000 __func__.3
     /tmp/ccgbPSBw.s:6300   .text.LL_Arithacc_Init:00000000 $t
     /tmp/ccgbPSBw.s:6306   .text.LL_Arithacc_Init:00000000 LL_Arithacc_Init
     /tmp/ccgbPSBw.s:6708   .text.LL_Arithacc_Init:000001aa $d
     /tmp/ccgbPSBw.s:7189   .text.LL_Arithacc_Init:00000358 $d
     /tmp/ccgbPSBw.s:8434   .rodata.CSWTCH.206:00000000 CSWTCH.206
     /tmp/ccgbPSBw.s:8464   .rodata.__func__.2:00000000 __func__.2
     /tmp/ccgbPSBw.s:7199   .text.LL_Poolacc_Init:00000000 $t
     /tmp/ccgbPSBw.s:7205   .text.LL_Poolacc_Init:00000000 LL_Poolacc_Init
     /tmp/ccgbPSBw.s:7596   .text.LL_Poolacc_Init:00000178 $d
     /tmp/ccgbPSBw.s:8424   .rodata.CSWTCH.208:00000000 CSWTCH.208
     /tmp/ccgbPSBw.s:8459   .rodata.__func__.1:00000000 __func__.1
     /tmp/ccgbPSBw.s:7605   .text.LL_EpochCtrl_Init:00000000 $t
     /tmp/ccgbPSBw.s:7611   .text.LL_EpochCtrl_Init:00000000 LL_EpochCtrl_Init
     /tmp/ccgbPSBw.s:7686   .text.LL_EpochCtrl_Init:00000034 $d
     /tmp/ccgbPSBw.s:7691   .text.LL_ATON_DisableClock:00000000 $t
     /tmp/ccgbPSBw.s:7697   .text.LL_ATON_DisableClock:00000000 LL_ATON_DisableClock
     /tmp/ccgbPSBw.s:7737   .text.LL_ATON_DisableClock:00000018 $d
     /tmp/ccgbPSBw.s:7742   .text.LL_ATON_DisableUnits_Init:00000000 $t
     /tmp/ccgbPSBw.s:7748   .text.LL_ATON_DisableUnits_Init:00000000 LL_ATON_DisableUnits_Init
     /tmp/ccgbPSBw.s:7797   .text.LL_ATON_DisableUnits_Init:00000020 $d
     /tmp/ccgbPSBw.s:8162   .text.LL_ATON_DisableUnits_Init:00000118 $d
     /tmp/ccgbPSBw.s:8172   .text.LL_ATON_Dma_memcpy:00000000 $t
     /tmp/ccgbPSBw.s:8178   .text.LL_ATON_Dma_memcpy:00000000 LL_ATON_Dma_memcpy
     /tmp/ccgbPSBw.s:8495   .bss.done.9:00000000 $d
     /tmp/ccgbPSBw.s:8502   .bss.Conv_ctrl_bits:00000000 $d
     /tmp/ccgbPSBw.s:1284   .text.LL_ATON_EnableUnits_Init:00000035 $d
     /tmp/ccgbPSBw.s:1284   .text.LL_ATON_EnableUnits_Init:00000036 $t
ARM GAS  /tmp/ccgbPSBw.s 			page 264


     /tmp/ccgbPSBw.s:1729   .text.__atonn_getSrcPortID:00000035 $d
     /tmp/ccgbPSBw.s:1729   .text.__atonn_getSrcPortID:00000036 $t
     /tmp/ccgbPSBw.s:2045   .text.__atonn_getDstPortID:00000035 $d
     /tmp/ccgbPSBw.s:2045   .text.__atonn_getDstPortID:00000036 $t
     /tmp/ccgbPSBw.s:6713   .text.LL_Arithacc_Init:000001af $d
     /tmp/ccgbPSBw.s:6713   .text.LL_Arithacc_Init:000001b0 $t
     /tmp/ccgbPSBw.s:7806   .text.LL_ATON_DisableUnits_Init:00000029 $d
     /tmp/ccgbPSBw.s:7806   .text.LL_ATON_DisableUnits_Init:0000002a $t
                           .group:00000000 wm4.0.c552ae9005b0f2cca11872fae5d4b7f2
                           .group:00000000 wm4._newlib_version.h.4.411db44ea2338a62eca2f0777f81481b
                           .group:00000000 wm4.newlib.h.27.4b972ceed5d01f491020c20f1e546cab
                           .group:00000000 wm4.ieeefp.h.77.bd5feb87d9990dd328793ced294f6a87
                           .group:00000000 wm4.features.h.22.9dfb1293666eb4caf24cccb81c86a551
                           .group:00000000 wm4.config.h.224.10ee1ad185d877c6e334e6581faab44d
                           .group:00000000 wm4._ansi.h.31.de524f58584151836e90d8620a16f8e8
                           .group:00000000 wm4.assert.h.11.db24e541f16414db224bf986d21017e2
                           .group:00000000 wm4._intsup.h.10.48bafbb683905c4daa4565a85aeeb264
                           .group:00000000 wm4._default_types.h.6.959254cf5f09734ea7516c89e8bb21bd
                           .group:00000000 wm4._stdint.h.10.c24fa3af3bc1706662bb5593a907e841
                           .group:00000000 wm4.stdint.h.23.d53047a68f4a85177f80b422d52785ed
                           .group:00000000 wm4.stddef.h.267.6dda48f8b0edf141523347999dd9ec79
                           .group:00000000 wm4.inttypes.h.28.684aa7736e7ecc9a6ffc44acc61c7a90
                           .group:00000000 wm4.stddef.h.39.9af043fe601e315768567300ad642a8e
                           .group:00000000 wm4.stdlib.h.13.4ed386f5c1a80d71e72172885d946ef2
                           .group:00000000 wm4.stddef.h.158.eec8bf00b5213f43d095cb984c5f22e3
                           .group:00000000 wm4.cdefs.h.49.70fc7af612f78ddcace70fdd90b5623b
                           .group:00000000 wm4._types.h.20.dd0d04dca3800a0d2a6129b87f3adbb2
                           .group:00000000 wm4.stddef.h.158.6f8e08a347b1cff664332fa350bfceb3
                           .group:00000000 wm4._types.h.127.3bdfe3ff8ea2d0985b03d9cbe93480e3
                           .group:00000000 wm4.reent.h.18.25503cdc8b7e55dd0d6ea7b3e5af7a03
                           .group:00000000 wm4.lock.h.2.1461d1fff82dffe8bfddc23307f6484f
                           .group:00000000 wm4.reent.h.78.6b87466b04591b1f1cb88c14fdf2ba9e
                           .group:00000000 wm4.alloca.h.8.dfc0c703c47ec3e69746825b17d9e66d
                           .group:00000000 wm4.stdlib.h.56.f4862cfbf4363a1db01842d5bdf72c18
                           .group:00000000 wm4.assert.h.11.d99a111e320bc5106fc4046225782672
                           .group:00000000 wm4.ll_aton_attributes.h.20.26d469460cb32db5740effdc8cc403f3
                           .group:00000000 wm4.ll_aton_config.h.20.79eb8be0291ee9086e6be08969d61846
                           .group:00000000 wm4.FreeRTOS.h.59.647b1b0da38e4e98108aae13c8abe9ee
                           .group:00000000 wm4.FreeRTOSConfig.h.59.2629c72cff9e6dbe880a2dc225eae516
                           .group:00000000 wm4.FreeRTOS.h.80.7742fabaf5accf3762dc12f7f259a8a0
                           .group:00000000 wm4.projdefs.h.30.55a824156f299c075c33148a9fdadb99
                           .group:00000000 wm4.portmacro.h.30.cbb4b2da41f551c2a9904f0d03a1ce3e
                           .group:00000000 wm4.portmacrocommon.h.30.d5cb67896ab50a95311be7e023da5c4f
                           .group:00000000 wm4.portmacro.h.68.4051ecf710d074fb55b16d91dfebeeaa
                           .group:00000000 wm4.portable.h.61.d557c57974d490f056246a26cdcddd6c
                           .group:00000000 wm4.mpu_wrappers.h.30.ccc5f1a6903f941a88c268f5f62af3fe
                           .group:00000000 wm4.portable.h.189.522b8bd52a171d3fd1432ef06d0caa63
                           .group:00000000 wm4.FreeRTOS.h.102.fb871f3e464d99c5a57b3115545a02ad
                           .group:00000000 wm4.list.h.59.bce6419520cd4f5f98779a1530bf2118
                           .group:00000000 wm4.task.h.56.84290139c73b47f5b9aac361361a2a31
                           .group:00000000 wm4.queue.h.68.219f47fba8b59640449b84d04c5bd6d8
                           .group:00000000 wm4.semphr.h.40.c1a9c6f5bf0feb4da0b6a45d234a79d0
                           .group:00000000 wm4.ll_aton_platform.h.20.06ded592ee586a6abb6019a90ebd54df
                           .group:00000000 wm4.stm32n6xx_hal_conf.h.21.004a06df6e15ac197e03f723792da58a
                           .group:00000000 wm4.arm_cmse.h.103.a0d15a79c4c9a67da8d5831704d7248e
                           .group:00000000 wm4.stm32n6xx.h.34.80585dd08aa426c932f6311fdb7386da
                           .group:00000000 wm4.stm32n657xx.h.26.acd272cb67318cc1a4791ce2f0720ca6
ARM GAS  /tmp/ccgbPSBw.s 			page 265


                           .group:00000000 wm4.cmsis_version.h.32.0ac195c83bb4537824e6ad1c47474b79
                           .group:00000000 wm4.core_cm55.h.68.832d5cf835639cc0d28219c3d2867330
                           .group:00000000 wm4.cmsis_gcc.h.26.7a5fd1a99dbedde687044a4433ab3e15
                           .group:00000000 wm4.core_cm55.h.196.52e437a270752da561676e507b35baeb
                           .group:00000000 wm4.mpu_armv8.h.32.9d72426c8e2b47753456dcb84802c5b3
                           .group:00000000 wm4.pmu_armv8.h.32.eaa95f88a71b29390b135fd81c071b6b
                           .group:00000000 wm4.core_cm55.h.4411.860dad8650880893dd57b815844f7186
                           .group:00000000 wm4.cachel1_armv7.h.32.abd77761a989e008b0c60891114a33c7
                           .group:00000000 wm4.stm32n657xx.h.575.1c2a5e6bedffc6f9083dcc857bc6d09d
                           .group:00000000 wm4.stm32n6xx.h.114.5cf793d8af485e14f110e3e24bde1aa5
                           .group:00000000 wm4.stm32_hal_legacy.h.22.87fb12bf5a1a1e00fc134f22bc9aa8c4
                           .group:00000000 wm4.math.h.13.47cfc34cae8a1153323939c4d32cf7c2
                           .group:00000000 wm4.stm32n6xx_hal_def.h.63.2cbbf1954826c09c874c4e06e42e8b71
                           .group:00000000 wm4.stm32n6xx_ll_bus.h.38.2366a295ee4cdb04833997d3787fcd2d
                           .group:00000000 wm4.stm32n6xx_ll_rcc.h.21.002e22a16fd7f67dde6dce41e8ba9620
                           .group:00000000 wm4.stm32n6xx_hal_rcc.h.194.1cb1283e40f9bebcd3fba2a9a961838e
                           .group:00000000 wm4.stm32n6xx_hal_rcc_ex.h.21.79aa32178dfef625fbd20d362449acfa
                           .group:00000000 wm4.stm32n6xx_hal_rcc.h.4359.3f0b7ad33826d95438602c9aebc08af9
                           .group:00000000 wm4.stm32n6xx_hal_gpio.h.21.89d54af663b98eb8fc098192053f7eeb
                           .group:00000000 wm4.stm32n6xx_hal_gpio_ex.h.22.4acb2e3511a98bb48b81cfc8e09fd59e
                           .group:00000000 wm4.stm32n6xx_hal_rif.h.21.424d0bafb874a777dee3742a22e13037
                           .group:00000000 wm4.stm32n6xx_hal_dma.h.21.61e48c5c2e8d25d22177834b232fe45c
                           .group:00000000 wm4.stm32n6xx_hal_dma_ex.h.21.66e597beb090a165329d6ccf665e41bc
                           .group:00000000 wm4.stm32n6xx_hal_dma.h.1020.87e2180c009560b617c1f8208140c950
                           .group:00000000 wm4.stm32n6xx_hal_cortex.h.21.f493623cc58f9454ab4eae41e395c5cc
                           .group:00000000 wm4.stm32n6xx_hal_bsec.h.21.61b309e67dd810e28897a01b1b21a97f
                           .group:00000000 wm4.stm32n6xx_hal_dcmipp.h.21.f538bfd785c6469670251ac9bc7af55d
                           .group:00000000 wm4.stm32n6xx_hal_dma2d.h.21.75c8d46cdbb72970123b3f34ae2043d7
                           .group:00000000 wm4.stm32n6xx_hal_exti.h.21.fda87e715ea6b98239ec30171d1df594
                           .group:00000000 wm4.stm32n6xx_hal_gfxmmu.h.21.9784a9103143d48bd3c37389d0e0b8e6
                           .group:00000000 wm4.stm32n6xx_hal_i2c.h.21.3f483626ff64c5bf027265bb2e1d1331
                           .group:00000000 wm4.stm32n6xx_hal_i2c_ex.h.21.79e9196c22282cdaf6b4047893638c45
                           .group:00000000 wm4.stm32n6xx_hal_i2c.h.741.1084702632703acc669e4282b3043372
                           .group:00000000 wm4.stm32n6xx_hal_icache.h.21.194b4ec6e76f32b14f65c85616854850
                           .group:00000000 wm4.stm32n6xx_hal_ltdc.h.21.ae1eb09930e7e550e48e418ac5849e4d
                           .group:00000000 wm4.stm32n6xx_hal_ltdc.h.1002.b13ede7fc94ed5ad1c6768a157d2149a
                           .group:00000000 wm4.stm32n6xx_ll_usb.h.21.d518a5d97876c2ff49040c20a2c4a120
                           .group:00000000 wm4.stm32n6xx_hal_pcd.h.155.27040aac6844effe2af8c180caf1dd2e
                           .group:00000000 wm4.stm32n6xx_hal_pwr.h.21.cdb73e4869c3fed3fc84f901ec0e5f0a
                           .group:00000000 wm4.stm32n6xx_hal_pwr_ex.h.21.1a673224a58b0c1e5fad8eeda6514208
                           .group:00000000 wm4.stm32n6xx_hal_ramcfg.h.21.a62dfbb4d2c14e9a8c634a215e37bd3d
                           .group:00000000 wm4.stm32n6xx_hal_spi.h.21.9f810303326e2d91749800e9911f8e4d
                           .group:00000000 wm4.stm32n6xx_hal_spi.h.906.93ec0695066db4253cdbcb7d84358a0b
                           .group:00000000 wm4.stm32n6xx_hal_tim.h.21.839dd2b2a70382fb2c44f8f293a84d5f
                           .group:00000000 wm4.stm32n6xx_hal_tim_ex.h.21.e372d5ac63c13441211ea4ecbd353150
                           .group:00000000 wm4.stm32n6xx_hal_uart.h.21.230f549bfa0d5ebfd77bfb311b2aca15
                           .group:00000000 wm4.stm32n6xx_hal_uart_ex.h.21.a0d5511e1d0703b7b5278c8f5472b96d
                           .group:00000000 wm4.stm32n6xx_hal_xspi.h.21.e17898be2073b6b6b19faf30b4e304e9
                           .group:00000000 wm4.stm32n6xx_hal_cacheaxi.h.21.7c3375b7903ec42376e4883320997f74
                           .group:00000000 wm4.stm32n6xx_hal_gpu2d.h.21.48d0249122abad294a630c39cc4ebaed
                           .group:00000000 wm4.stm32n6xx_hal.h.81.5e59143eba07faca3e9aeaa5470826c8
                           .group:00000000 wm4.ll_aton_platform.h.288.664a74b8c5792a861b3d52bd39f4a693
                           .group:00000000 wm4.stdbool.h.29.c08aa3eec75cf5b9b5003883f43253f0
                           .group:00000000 wm4.string.h.8.c4b8571ce60dff2817f43fec8b86aecd
                           .group:00000000 wm4.ATON.h.37.dcee5f05b79f32d0e17b499095b5b6b7
                           .group:00000000 wm4.ll_aton_rcompat.h.22.b2bd0d777466a5ac720f3b2429c5fea7
                           .group:00000000 wm4.ll_aton_platform.h.383.f09ccd502bb682b863f991d963ee7462
ARM GAS  /tmp/ccgbPSBw.s 			page 266


                           .group:00000000 wm4.ll_aton_osal_freertos.h.62.85a065f77def7f6fef26149f92fe1378
                           .group:00000000 wm4.ll_aton_osal.h.116.bc018513feb9b28713cf2afc78ec679b
                           .group:00000000 wm4.ll_aton.h.44.5685a802724af92628aa008d262f8f6e
                           .group:00000000 wm4.errno.h.2.ba016d646105af6cad23be83630b6a3f
                           .group:00000000 wm4.errno.h.9.ae5ea2b0ff9ea6e39e585807e35200d3
                           .group:00000000 wm4.stdio.h.27.3fc80220048df77954e38daec3bb9670
                           .group:00000000 wm4.stdarg.h.34.3a23a216c0c293b3d2ea2e89281481e6
                           .group:00000000 wm4.stdio.h.47.dc31ec4674d7bcb103c9f08809549f45
                           .group:00000000 wm4.stdio.h.2.4aa87247282eca6c8f36f9de33d8df1a
                           .group:00000000 wm4.stdio.h.87.a1e20d2651f9bfb66e51bfbe849db00a
                           .group:00000000 wm4.ll_aton_util.h.34.9098eaa90d3d72b819973556e3e5fe44

UNDEFINED SYMBOLS
__errno
strerror
printf
__assert_func
LL_ATON_getbits
mcu_cache_clean_invalidate_range
memset
