ARM GAS  /tmp/cc6xfSVf.s 			page 1


   1              		.arch armv8.1-m.main
   2              		.fpu fpv5-d16
   3              		.arch_extension dsp
   4              		.arch_extension fp
   5              		.arch_extension fp.dp
   6              		.arch_extension mve
   7              		.arch_extension mve.fp
   8              		.eabi_attribute 5, "cortex-m55"
   9              		.eabi_attribute 28, 1
  10              		.eabi_attribute 20, 1
  11              		.eabi_attribute 21, 1
  12              		.eabi_attribute 23, 3
  13              		.eabi_attribute 24, 1
  14              		.eabi_attribute 25, 1
  15              		.eabi_attribute 26, 1
  16              		.eabi_attribute 30, 4
  17              		.eabi_attribute 34, 1
  18              		.eabi_attribute 38, 1
  19              		.eabi_attribute 18, 4
  20              		.file	"od_pp_yolov8.c"
  21              		.text
  22              	.Ltext0:
  23              		.cfi_sections	.debug_frame
  24              		.file 1 "Lib/lib_vision_models_pp/lib_vision_models_pp/Src/od_pp_yolov8.c"
  25              		.section	.text.yolov8_nms_comparator,"ax",%progbits
  26              		.align	1
  27              		.global	yolov8_nms_comparator
  28              		.syntax unified
  29              		.thumb
  30              		.thumb_func
  32              	yolov8_nms_comparator:
  33              	.LVL0:
  34              	.LFB2645:
   1:Lib/lib_vision_models_pp/lib_vision_models_pp/Src/od_pp_yolov8.c **** /*---------------------------------------------------------------------------------------------
   2:Lib/lib_vision_models_pp/lib_vision_models_pp/Src/od_pp_yolov8.c ****  * Copyright (c) 2023 STMicroelectronics.
   3:Lib/lib_vision_models_pp/lib_vision_models_pp/Src/od_pp_yolov8.c ****  * All rights reserved.
   4:Lib/lib_vision_models_pp/lib_vision_models_pp/Src/od_pp_yolov8.c ****  *
   5:Lib/lib_vision_models_pp/lib_vision_models_pp/Src/od_pp_yolov8.c ****  * This software is licensed under terms that can be found in the LICENSE file in
   6:Lib/lib_vision_models_pp/lib_vision_models_pp/Src/od_pp_yolov8.c ****  * the root directory of this software component.
   7:Lib/lib_vision_models_pp/lib_vision_models_pp/Src/od_pp_yolov8.c ****  * If no LICENSE file comes with this software, it is provided AS-IS.
   8:Lib/lib_vision_models_pp/lib_vision_models_pp/Src/od_pp_yolov8.c ****  *--------------------------------------------------------------------------------------------*/
   9:Lib/lib_vision_models_pp/lib_vision_models_pp/Src/od_pp_yolov8.c **** 
  10:Lib/lib_vision_models_pp/lib_vision_models_pp/Src/od_pp_yolov8.c **** #include "od_pp_loc.h"
  11:Lib/lib_vision_models_pp/lib_vision_models_pp/Src/od_pp_yolov8.c **** #include "od_yolov8_pp_if.h"
  12:Lib/lib_vision_models_pp/lib_vision_models_pp/Src/od_pp_yolov8.c **** #include "vision_models_pp.h"
  13:Lib/lib_vision_models_pp/lib_vision_models_pp/Src/od_pp_yolov8.c **** 
  14:Lib/lib_vision_models_pp/lib_vision_models_pp/Src/od_pp_yolov8.c **** 
  15:Lib/lib_vision_models_pp/lib_vision_models_pp/Src/od_pp_yolov8.c **** /* Can't be removed if qsort is not re-written... */
  16:Lib/lib_vision_models_pp/lib_vision_models_pp/Src/od_pp_yolov8.c **** static int32_t AI_YOLOV8_PP_SORT_CLASS;
  17:Lib/lib_vision_models_pp/lib_vision_models_pp/Src/od_pp_yolov8.c **** 
  18:Lib/lib_vision_models_pp/lib_vision_models_pp/Src/od_pp_yolov8.c **** 
  19:Lib/lib_vision_models_pp/lib_vision_models_pp/Src/od_pp_yolov8.c **** int32_t yolov8_nms_comparator(const void *pa, const void *pb)
  20:Lib/lib_vision_models_pp/lib_vision_models_pp/Src/od_pp_yolov8.c **** {
  35              		.loc 1 20 1 view -0
  36              		.cfi_startproc
  37              		@ args = 0, pretend = 0, frame = 0
  38              		@ frame_needed = 0, uses_anonymous_args = 0
ARM GAS  /tmp/cc6xfSVf.s 			page 2


  21:Lib/lib_vision_models_pp/lib_vision_models_pp/Src/od_pp_yolov8.c ****     od_pp_outBuffer_t a = *(od_pp_outBuffer_t *)pa;
  39              		.loc 1 21 5 view .LVU1
  22:Lib/lib_vision_models_pp/lib_vision_models_pp/Src/od_pp_yolov8.c ****     od_pp_outBuffer_t b = *(od_pp_outBuffer_t *)pb;
  40              		.loc 1 22 5 view .LVU2
  23:Lib/lib_vision_models_pp/lib_vision_models_pp/Src/od_pp_yolov8.c **** 
  24:Lib/lib_vision_models_pp/lib_vision_models_pp/Src/od_pp_yolov8.c ****     float32_t diff = 0.0;
  25:Lib/lib_vision_models_pp/lib_vision_models_pp/Src/od_pp_yolov8.c ****     float32_t a_weighted_conf = 0.0;
  26:Lib/lib_vision_models_pp/lib_vision_models_pp/Src/od_pp_yolov8.c ****     float32_t b_weighted_conf = 0.0;
  27:Lib/lib_vision_models_pp/lib_vision_models_pp/Src/od_pp_yolov8.c **** 
  28:Lib/lib_vision_models_pp/lib_vision_models_pp/Src/od_pp_yolov8.c ****     if (a.class_index == AI_YOLOV8_PP_SORT_CLASS)
  41              		.loc 1 28 23 is_stmt 0 view .LVU3
  42 0000 0F4B     		ldr	r3, .L8
  20:Lib/lib_vision_models_pp/lib_vision_models_pp/Src/od_pp_yolov8.c ****     od_pp_outBuffer_t a = *(od_pp_outBuffer_t *)pa;
  43              		.loc 1 20 1 view .LVU4
  44 0002 10B5     		push	{r4, lr}
  45              		.cfi_def_cfa_offset 8
  46              		.cfi_offset 4, -8
  47              		.cfi_offset 14, -4
  48              		.loc 1 28 23 view .LVU5
  49 0004 1B68     		ldr	r3, [r3]
  50              		.loc 1 28 8 view .LVU6
  51 0006 4469     		ldr	r4, [r0, #20]
  22:Lib/lib_vision_models_pp/lib_vision_models_pp/Src/od_pp_yolov8.c ****     od_pp_outBuffer_t b = *(od_pp_outBuffer_t *)pb;
  52              		.loc 1 22 23 view .LVU7
  53 0008 4A69     		ldr	r2, [r1, #20]
  54              	.LVL1:
  24:Lib/lib_vision_models_pp/lib_vision_models_pp/Src/od_pp_yolov8.c ****     float32_t a_weighted_conf = 0.0;
  55              		.loc 1 24 5 is_stmt 1 view .LVU8
  25:Lib/lib_vision_models_pp/lib_vision_models_pp/Src/od_pp_yolov8.c ****     float32_t b_weighted_conf = 0.0;
  56              		.loc 1 25 5 view .LVU9
  26:Lib/lib_vision_models_pp/lib_vision_models_pp/Src/od_pp_yolov8.c **** 
  57              		.loc 1 26 5 view .LVU10
  58              		.loc 1 28 5 view .LVU11
  59              		.loc 1 28 8 is_stmt 0 view .LVU12
  60 000a A342     		cmp	r3, r4
  21:Lib/lib_vision_models_pp/lib_vision_models_pp/Src/od_pp_yolov8.c ****     od_pp_outBuffer_t b = *(od_pp_outBuffer_t *)pb;
  61              		.loc 1 21 23 view .LVU13
  62 000c 0CBF     		ite	eq
  63 000e D0ED047A 		vldreq.32	s15, [r0, #16]
  29:Lib/lib_vision_models_pp/lib_vision_models_pp/Src/od_pp_yolov8.c ****     {
  30:Lib/lib_vision_models_pp/lib_vision_models_pp/Src/od_pp_yolov8.c ****         a_weighted_conf = a.conf;
  64              		.loc 1 30 9 is_stmt 1 view .LVU14
  65              	.LVL2:
  31:Lib/lib_vision_models_pp/lib_vision_models_pp/Src/od_pp_yolov8.c ****     }
  32:Lib/lib_vision_models_pp/lib_vision_models_pp/Src/od_pp_yolov8.c ****     else
  33:Lib/lib_vision_models_pp/lib_vision_models_pp/Src/od_pp_yolov8.c ****     {
  34:Lib/lib_vision_models_pp/lib_vision_models_pp/Src/od_pp_yolov8.c ****          a_weighted_conf = 0.0;
  66              		.loc 1 34 26 is_stmt 0 view .LVU15
  67 0012 DFED0C7A 		vldrne.32	s15, .L8+4
  68              	.LVL3:
  35:Lib/lib_vision_models_pp/lib_vision_models_pp/Src/od_pp_yolov8.c ****     }
  36:Lib/lib_vision_models_pp/lib_vision_models_pp/Src/od_pp_yolov8.c **** 
  37:Lib/lib_vision_models_pp/lib_vision_models_pp/Src/od_pp_yolov8.c ****     if (b.class_index == AI_YOLOV8_PP_SORT_CLASS)
  69              		.loc 1 37 5 is_stmt 1 view .LVU16
  70              		.loc 1 37 8 is_stmt 0 view .LVU17
  71 0016 9342     		cmp	r3, r2
  22:Lib/lib_vision_models_pp/lib_vision_models_pp/Src/od_pp_yolov8.c **** 
ARM GAS  /tmp/cc6xfSVf.s 			page 3


  72              		.loc 1 22 23 view .LVU18
  73 0018 0CBF     		ite	eq
  74 001a 91ED047A 		vldreq.32	s14, [r1, #16]
  38:Lib/lib_vision_models_pp/lib_vision_models_pp/Src/od_pp_yolov8.c ****     {
  39:Lib/lib_vision_models_pp/lib_vision_models_pp/Src/od_pp_yolov8.c ****         b_weighted_conf = b.conf;
  75              		.loc 1 39 9 is_stmt 1 view .LVU19
  76              	.LVL4:
  40:Lib/lib_vision_models_pp/lib_vision_models_pp/Src/od_pp_yolov8.c ****     }
  41:Lib/lib_vision_models_pp/lib_vision_models_pp/Src/od_pp_yolov8.c ****     else
  42:Lib/lib_vision_models_pp/lib_vision_models_pp/Src/od_pp_yolov8.c ****     {
  43:Lib/lib_vision_models_pp/lib_vision_models_pp/Src/od_pp_yolov8.c ****          b_weighted_conf = 0.0;
  77              		.loc 1 43 26 is_stmt 0 view .LVU20
  78 001e 9FED097A 		vldrne.32	s14, .L8+4
  79              	.LVL5:
  44:Lib/lib_vision_models_pp/lib_vision_models_pp/Src/od_pp_yolov8.c ****     }
  45:Lib/lib_vision_models_pp/lib_vision_models_pp/Src/od_pp_yolov8.c **** 
  46:Lib/lib_vision_models_pp/lib_vision_models_pp/Src/od_pp_yolov8.c ****     diff = a_weighted_conf - b_weighted_conf;
  80              		.loc 1 46 5 is_stmt 1 view .LVU21
  81              		.loc 1 46 10 is_stmt 0 view .LVU22
  82 0022 77EEC77A 		vsub.f32	s15, s15, s14
  83              	.LVL6:
  47:Lib/lib_vision_models_pp/lib_vision_models_pp/Src/od_pp_yolov8.c **** 
  48:Lib/lib_vision_models_pp/lib_vision_models_pp/Src/od_pp_yolov8.c ****     if (diff < 0) return 1;
  84              		.loc 1 48 5 is_stmt 1 view .LVU23
  85              		.loc 1 48 8 is_stmt 0 view .LVU24
  86 0026 F5EEC07A 		vcmpe.f32	s15, #0
  87 002a F1EE10FA 		vmrs	APSR_nzcv, FPSCR
  88 002e 04D4     		bmi	.L7
  89              	.LVL7:
  49:Lib/lib_vision_models_pp/lib_vision_models_pp/Src/od_pp_yolov8.c ****     else if (diff > 0) return -1;
  90              		.loc 1 49 10 is_stmt 1 view .LVU25
  91              		.loc 1 49 13 is_stmt 0 view .LVU26
  92 0030 CCBF     		ite	gt
  93 0032 4FF0FF30 		movgt	r0, #-1
  94              	.LVL8:
  95              		.loc 1 49 13 view .LVU27
  96 0036 0020     		movle	r0, #0
  97              	.LVL9:
  98              	.L1:
  50:Lib/lib_vision_models_pp/lib_vision_models_pp/Src/od_pp_yolov8.c ****     return 0;
  51:Lib/lib_vision_models_pp/lib_vision_models_pp/Src/od_pp_yolov8.c **** }
  99              		.loc 1 51 1 view .LVU28
 100 0038 10BD     		pop	{r4, pc}
 101              	.LVL10:
 102              	.L7:
  48:Lib/lib_vision_models_pp/lib_vision_models_pp/Src/od_pp_yolov8.c ****     else if (diff > 0) return -1;
 103              		.loc 1 48 26 discriminator 1 view .LVU29
 104 003a 0120     		movs	r0, #1
 105              	.LVL11:
  48:Lib/lib_vision_models_pp/lib_vision_models_pp/Src/od_pp_yolov8.c ****     else if (diff > 0) return -1;
 106              		.loc 1 48 26 discriminator 1 view .LVU30
 107 003c FCE7     		b	.L1
 108              	.L9:
 109 003e 00BF     		.align	2
 110              	.L8:
 111 0040 00000000 		.word	AI_YOLOV8_PP_SORT_CLASS
 112 0044 00000000 		.word	0
ARM GAS  /tmp/cc6xfSVf.s 			page 4


 113              		.cfi_endproc
 114              	.LFE2645:
 116              		.section	.text.yolov8_pp_nmsFiltering_centroid,"ax",%progbits
 117              		.align	1
 118              		.global	yolov8_pp_nmsFiltering_centroid
 119              		.syntax unified
 120              		.thumb
 121              		.thumb_func
 123              	yolov8_pp_nmsFiltering_centroid:
 124              	.LVL12:
 125              	.LFB2646:
  52:Lib/lib_vision_models_pp/lib_vision_models_pp/Src/od_pp_yolov8.c **** 
  53:Lib/lib_vision_models_pp/lib_vision_models_pp/Src/od_pp_yolov8.c **** 
  54:Lib/lib_vision_models_pp/lib_vision_models_pp/Src/od_pp_yolov8.c **** int32_t yolov8_pp_nmsFiltering_centroid(od_pp_out_t *pOutput,
  55:Lib/lib_vision_models_pp/lib_vision_models_pp/Src/od_pp_yolov8.c ****                                         yolov8_pp_static_param_t *pInput_static_param)
  56:Lib/lib_vision_models_pp/lib_vision_models_pp/Src/od_pp_yolov8.c **** {
 126              		.loc 1 56 1 is_stmt 1 view -0
 127              		.cfi_startproc
 128              		@ args = 0, pretend = 0, frame = 8
 129              		@ frame_needed = 0, uses_anonymous_args = 0
  57:Lib/lib_vision_models_pp/lib_vision_models_pp/Src/od_pp_yolov8.c ****     int32_t j, k, limit_counter, detections_per_class;
 130              		.loc 1 57 5 view .LVU32
  58:Lib/lib_vision_models_pp/lib_vision_models_pp/Src/od_pp_yolov8.c **** 
  59:Lib/lib_vision_models_pp/lib_vision_models_pp/Src/od_pp_yolov8.c ****     for (k = 0; k < pInput_static_param->nb_classes; ++k)
 131              		.loc 1 59 5 view .LVU33
  56:Lib/lib_vision_models_pp/lib_vision_models_pp/Src/od_pp_yolov8.c ****     int32_t j, k, limit_counter, detections_per_class;
 132              		.loc 1 56 1 is_stmt 0 view .LVU34
 133 0000 2DE9F74F 		push	{r0, r1, r2, r4, r5, r6, r7, r8, r9, r10, fp, lr}
 134              		.cfi_def_cfa_offset 48
 135              		.cfi_offset 4, -36
 136              		.cfi_offset 5, -32
 137              		.cfi_offset 6, -28
 138              		.cfi_offset 7, -24
 139              		.cfi_offset 8, -20
 140              		.cfi_offset 9, -16
 141              		.cfi_offset 10, -12
 142              		.cfi_offset 11, -8
 143              		.cfi_offset 14, -4
  56:Lib/lib_vision_models_pp/lib_vision_models_pp/Src/od_pp_yolov8.c ****     int32_t j, k, limit_counter, detections_per_class;
 144              		.loc 1 56 1 view .LVU35
 145 0004 0546     		mov	r5, r0
 146 0006 0E46     		mov	r6, r1
 147              		.loc 1 59 12 view .LVU36
 148 0008 0027     		movs	r7, #0
 149              	.LBB2:
 150              	.LBB3:
 151              	.LBB4:
  60:Lib/lib_vision_models_pp/lib_vision_models_pp/Src/od_pp_yolov8.c ****     {
  61:Lib/lib_vision_models_pp/lib_vision_models_pp/Src/od_pp_yolov8.c ****         limit_counter = 0;
  62:Lib/lib_vision_models_pp/lib_vision_models_pp/Src/od_pp_yolov8.c ****         detections_per_class = 0;
  63:Lib/lib_vision_models_pp/lib_vision_models_pp/Src/od_pp_yolov8.c ****         AI_YOLOV8_PP_SORT_CLASS = k;
  64:Lib/lib_vision_models_pp/lib_vision_models_pp/Src/od_pp_yolov8.c **** 
  65:Lib/lib_vision_models_pp/lib_vision_models_pp/Src/od_pp_yolov8.c **** 
  66:Lib/lib_vision_models_pp/lib_vision_models_pp/Src/od_pp_yolov8.c ****         /* Counts the number of detections with class k */
  67:Lib/lib_vision_models_pp/lib_vision_models_pp/Src/od_pp_yolov8.c ****         for (int32_t i = 0; i < pInput_static_param->nb_detect ; i ++)
  68:Lib/lib_vision_models_pp/lib_vision_models_pp/Src/od_pp_yolov8.c ****         {
  69:Lib/lib_vision_models_pp/lib_vision_models_pp/Src/od_pp_yolov8.c ****             if(pOutput->pOutBuff[i].class_index == k)
ARM GAS  /tmp/cc6xfSVf.s 			page 5


  70:Lib/lib_vision_models_pp/lib_vision_models_pp/Src/od_pp_yolov8.c ****             {
  71:Lib/lib_vision_models_pp/lib_vision_models_pp/Src/od_pp_yolov8.c ****                 detections_per_class++;
  72:Lib/lib_vision_models_pp/lib_vision_models_pp/Src/od_pp_yolov8.c ****             }
  73:Lib/lib_vision_models_pp/lib_vision_models_pp/Src/od_pp_yolov8.c ****         }
  74:Lib/lib_vision_models_pp/lib_vision_models_pp/Src/od_pp_yolov8.c **** 
  75:Lib/lib_vision_models_pp/lib_vision_models_pp/Src/od_pp_yolov8.c ****         if (detections_per_class > 0)
  76:Lib/lib_vision_models_pp/lib_vision_models_pp/Src/od_pp_yolov8.c ****         {
  77:Lib/lib_vision_models_pp/lib_vision_models_pp/Src/od_pp_yolov8.c ****             /* Sorts detections based on class k */
  78:Lib/lib_vision_models_pp/lib_vision_models_pp/Src/od_pp_yolov8.c ****             qsort(pOutput->pOutBuff,
  79:Lib/lib_vision_models_pp/lib_vision_models_pp/Src/od_pp_yolov8.c ****                   pInput_static_param->nb_detect,
  80:Lib/lib_vision_models_pp/lib_vision_models_pp/Src/od_pp_yolov8.c ****                   sizeof(od_pp_outBuffer_t),
  81:Lib/lib_vision_models_pp/lib_vision_models_pp/Src/od_pp_yolov8.c ****                   yolov8_nms_comparator);
  82:Lib/lib_vision_models_pp/lib_vision_models_pp/Src/od_pp_yolov8.c **** 
  83:Lib/lib_vision_models_pp/lib_vision_models_pp/Src/od_pp_yolov8.c ****             for (int32_t i = 0; i < detections_per_class ; i ++)
  84:Lib/lib_vision_models_pp/lib_vision_models_pp/Src/od_pp_yolov8.c ****             {
  85:Lib/lib_vision_models_pp/lib_vision_models_pp/Src/od_pp_yolov8.c ****                 if (pOutput->pOutBuff[i].conf == 0) continue;
  86:Lib/lib_vision_models_pp/lib_vision_models_pp/Src/od_pp_yolov8.c ****                 float32_t *a = &(pOutput->pOutBuff[i].x_center);
  87:Lib/lib_vision_models_pp/lib_vision_models_pp/Src/od_pp_yolov8.c ****                 for (j = i + 1; j < detections_per_class; j ++)
  88:Lib/lib_vision_models_pp/lib_vision_models_pp/Src/od_pp_yolov8.c ****                 {
  89:Lib/lib_vision_models_pp/lib_vision_models_pp/Src/od_pp_yolov8.c ****                     float32_t *b = &(pOutput->pOutBuff[j].x_center);
  90:Lib/lib_vision_models_pp/lib_vision_models_pp/Src/od_pp_yolov8.c ****                     if (vision_models_box_iou(a, b) > pInput_static_param->iou_threshold)
  91:Lib/lib_vision_models_pp/lib_vision_models_pp/Src/od_pp_yolov8.c ****                     {
  92:Lib/lib_vision_models_pp/lib_vision_models_pp/Src/od_pp_yolov8.c ****                         pOutput->pOutBuff[j].conf = 0;
 152              		.loc 1 92 51 view .LVU37
 153 000a 4FF00008 		mov	r8, #0
 154              	.LVL13:
 155              	.L11:
 156              		.loc 1 92 51 view .LVU38
 157              	.LBE4:
 158              	.LBE3:
 159              	.LBE2:
  59:Lib/lib_vision_models_pp/lib_vision_models_pp/Src/od_pp_yolov8.c ****     {
 160              		.loc 1 59 19 is_stmt 1 discriminator 1 view .LVU39
 161 000e 3368     		ldr	r3, [r6]
 162 0010 BB42     		cmp	r3, r7
 163 0012 03DC     		bgt	.L28
  93:Lib/lib_vision_models_pp/lib_vision_models_pp/Src/od_pp_yolov8.c ****                     }
  94:Lib/lib_vision_models_pp/lib_vision_models_pp/Src/od_pp_yolov8.c ****                 }
  95:Lib/lib_vision_models_pp/lib_vision_models_pp/Src/od_pp_yolov8.c ****             }
  96:Lib/lib_vision_models_pp/lib_vision_models_pp/Src/od_pp_yolov8.c **** 
  97:Lib/lib_vision_models_pp/lib_vision_models_pp/Src/od_pp_yolov8.c ****             /* Limits detections count */
  98:Lib/lib_vision_models_pp/lib_vision_models_pp/Src/od_pp_yolov8.c ****             for (int32_t i = 0; i < detections_per_class; i++)
  99:Lib/lib_vision_models_pp/lib_vision_models_pp/Src/od_pp_yolov8.c ****             {
 100:Lib/lib_vision_models_pp/lib_vision_models_pp/Src/od_pp_yolov8.c ****                 if ((limit_counter < pInput_static_param->max_boxes_limit) &&
 101:Lib/lib_vision_models_pp/lib_vision_models_pp/Src/od_pp_yolov8.c ****                     (pOutput->pOutBuff[i].conf != 0))
 102:Lib/lib_vision_models_pp/lib_vision_models_pp/Src/od_pp_yolov8.c ****                 {
 103:Lib/lib_vision_models_pp/lib_vision_models_pp/Src/od_pp_yolov8.c ****                     limit_counter++;
 104:Lib/lib_vision_models_pp/lib_vision_models_pp/Src/od_pp_yolov8.c ****                 }
 105:Lib/lib_vision_models_pp/lib_vision_models_pp/Src/od_pp_yolov8.c ****                 else
 106:Lib/lib_vision_models_pp/lib_vision_models_pp/Src/od_pp_yolov8.c ****                 {
 107:Lib/lib_vision_models_pp/lib_vision_models_pp/Src/od_pp_yolov8.c ****                     pOutput->pOutBuff[i].conf = 0;
 108:Lib/lib_vision_models_pp/lib_vision_models_pp/Src/od_pp_yolov8.c ****                 }
 109:Lib/lib_vision_models_pp/lib_vision_models_pp/Src/od_pp_yolov8.c ****             }
 110:Lib/lib_vision_models_pp/lib_vision_models_pp/Src/od_pp_yolov8.c ****         }
 111:Lib/lib_vision_models_pp/lib_vision_models_pp/Src/od_pp_yolov8.c ****     }
 112:Lib/lib_vision_models_pp/lib_vision_models_pp/Src/od_pp_yolov8.c ****     return (AI_OD_POSTPROCESS_ERROR_NO);
 164              		.loc 1 112 5 view .LVU40
ARM GAS  /tmp/cc6xfSVf.s 			page 6


 113:Lib/lib_vision_models_pp/lib_vision_models_pp/Src/od_pp_yolov8.c **** }
 165              		.loc 1 113 1 is_stmt 0 view .LVU41
 166 0014 0020     		movs	r0, #0
 167 0016 03B0     		add	sp, sp, #12
 168              		.cfi_remember_state
 169              		.cfi_def_cfa_offset 36
 170              		@ sp needed
 171 0018 BDE8F08F 		pop	{r4, r5, r6, r7, r8, r9, r10, fp, pc}
 172              	.LVL14:
 173              	.L28:
 174              		.cfi_restore_state
  61:Lib/lib_vision_models_pp/lib_vision_models_pp/Src/od_pp_yolov8.c ****         detections_per_class = 0;
 175              		.loc 1 61 9 is_stmt 1 view .LVU42
  62:Lib/lib_vision_models_pp/lib_vision_models_pp/Src/od_pp_yolov8.c ****         AI_YOLOV8_PP_SORT_CLASS = k;
 176              		.loc 1 62 9 view .LVU43
  63:Lib/lib_vision_models_pp/lib_vision_models_pp/Src/od_pp_yolov8.c **** 
 177              		.loc 1 63 9 view .LVU44
 178              	.LBB9:
  67:Lib/lib_vision_models_pp/lib_vision_models_pp/Src/od_pp_yolov8.c ****         {
 179              		.loc 1 67 22 is_stmt 0 view .LVU45
 180 001c 0022     		movs	r2, #0
  67:Lib/lib_vision_models_pp/lib_vision_models_pp/Src/od_pp_yolov8.c ****         {
 181              		.loc 1 67 52 discriminator 1 view .LVU46
 182 001e F169     		ldr	r1, [r6, #28]
 183              	.LBE9:
  63:Lib/lib_vision_models_pp/lib_vision_models_pp/Src/od_pp_yolov8.c **** 
 184              		.loc 1 63 33 view .LVU47
 185 0020 334B     		ldr	r3, .L34
 186 0022 9142     		cmp	r1, r2
 187 0024 1F60     		str	r7, [r3]
  67:Lib/lib_vision_models_pp/lib_vision_models_pp/Src/od_pp_yolov8.c ****         {
 188              		.loc 1 67 9 is_stmt 1 view .LVU48
 189              	.LBB10:
  67:Lib/lib_vision_models_pp/lib_vision_models_pp/Src/od_pp_yolov8.c ****         {
 190              		.loc 1 67 14 view .LVU49
 191              	.LVL15:
  67:Lib/lib_vision_models_pp/lib_vision_models_pp/Src/od_pp_yolov8.c ****         {
 192              		.loc 1 67 14 is_stmt 0 view .LVU50
 193              	.LBE10:
  62:Lib/lib_vision_models_pp/lib_vision_models_pp/Src/od_pp_yolov8.c ****         AI_YOLOV8_PP_SORT_CLASS = k;
 194              		.loc 1 62 30 view .LVU51
 195 0026 1446     		mov	r4, r2
 196 0028 01F10103 		add	r3, r1, #1
 197              	.LBB11:
  69:Lib/lib_vision_models_pp/lib_vision_models_pp/Src/od_pp_yolov8.c ****             {
 198              		.loc 1 69 36 view .LVU52
 199 002c 4FF0180C 		mov	ip, #24
 200 0030 B8BF     		it	lt
 201 0032 0123     		movlt	r3, #1
 202              	.LVL16:
 203              	.L12:
  67:Lib/lib_vision_models_pp/lib_vision_models_pp/Src/od_pp_yolov8.c ****         {
 204              		.loc 1 67 31 is_stmt 1 discriminator 1 view .LVU53
 205 0034 013B     		subs	r3, r3, #1
 206 0036 03D1     		bne	.L14
 207              	.LBE11:
  75:Lib/lib_vision_models_pp/lib_vision_models_pp/Src/od_pp_yolov8.c ****         {
ARM GAS  /tmp/cc6xfSVf.s 			page 7


 208              		.loc 1 75 9 view .LVU54
  75:Lib/lib_vision_models_pp/lib_vision_models_pp/Src/od_pp_yolov8.c ****         {
 209              		.loc 1 75 12 is_stmt 0 view .LVU55
 210 0038 002C     		cmp	r4, #0
 211 003a 0ADC     		bgt	.L15
 212              	.LVL17:
 213              	.L27:
  59:Lib/lib_vision_models_pp/lib_vision_models_pp/Src/od_pp_yolov8.c ****     {
 214              		.loc 1 59 54 is_stmt 1 discriminator 2 view .LVU56
 215 003c 0137     		adds	r7, r7, #1
 216              	.LVL18:
  59:Lib/lib_vision_models_pp/lib_vision_models_pp/Src/od_pp_yolov8.c ****     {
 217              		.loc 1 59 54 is_stmt 0 discriminator 2 view .LVU57
 218 003e E6E7     		b	.L11
 219              	.LVL19:
 220              	.L14:
 221              	.LBB12:
  69:Lib/lib_vision_models_pp/lib_vision_models_pp/Src/od_pp_yolov8.c ****             {
 222              		.loc 1 69 13 is_stmt 1 view .LVU58
  69:Lib/lib_vision_models_pp/lib_vision_models_pp/Src/od_pp_yolov8.c ****             {
 223              		.loc 1 69 36 is_stmt 0 view .LVU59
 224 0040 2868     		ldr	r0, [r5]
 225 0042 0CFB0200 		mla	r0, ip, r2, r0
  69:Lib/lib_vision_models_pp/lib_vision_models_pp/Src/od_pp_yolov8.c ****             {
 226              		.loc 1 69 15 view .LVU60
 227 0046 4069     		ldr	r0, [r0, #20]
  67:Lib/lib_vision_models_pp/lib_vision_models_pp/Src/od_pp_yolov8.c ****         {
 228              		.loc 1 67 68 discriminator 2 view .LVU61
 229 0048 0132     		adds	r2, r2, #1
 230              	.LVL20:
  71:Lib/lib_vision_models_pp/lib_vision_models_pp/Src/od_pp_yolov8.c ****             }
 231              		.loc 1 71 37 view .LVU62
 232 004a B842     		cmp	r0, r7
 233 004c 54EA1494 		cinc	r4, r4, eq
 234              	.LVL21:
  67:Lib/lib_vision_models_pp/lib_vision_models_pp/Src/od_pp_yolov8.c ****         {
 235              		.loc 1 67 68 is_stmt 1 discriminator 2 view .LVU63
  67:Lib/lib_vision_models_pp/lib_vision_models_pp/Src/od_pp_yolov8.c ****         {
 236              		.loc 1 67 68 is_stmt 0 discriminator 2 view .LVU64
 237 0050 F0E7     		b	.L12
 238              	.L15:
  67:Lib/lib_vision_models_pp/lib_vision_models_pp/Src/od_pp_yolov8.c ****         {
 239              		.loc 1 67 68 discriminator 2 view .LVU65
 240              	.LBE12:
  78:Lib/lib_vision_models_pp/lib_vision_models_pp/Src/od_pp_yolov8.c ****                   pInput_static_param->nb_detect,
 241              		.loc 1 78 13 is_stmt 1 view .LVU66
 242 0052 284B     		ldr	r3, .L34+4
 243 0054 1822     		movs	r2, #24
 244              	.LVL22:
  78:Lib/lib_vision_models_pp/lib_vision_models_pp/Src/od_pp_yolov8.c ****                   pInput_static_param->nb_detect,
 245              		.loc 1 78 13 is_stmt 0 view .LVU67
 246 0056 2868     		ldr	r0, [r5]
 247 0058 FFF7FEFF 		bl	qsort
 248              	.LVL23:
  83:Lib/lib_vision_models_pp/lib_vision_models_pp/Src/od_pp_yolov8.c ****             {
 249              		.loc 1 83 13 is_stmt 1 view .LVU68
 250              	.LBB13:
ARM GAS  /tmp/cc6xfSVf.s 			page 8


  83:Lib/lib_vision_models_pp/lib_vision_models_pp/Src/od_pp_yolov8.c ****             {
 251              		.loc 1 83 18 view .LVU69
  83:Lib/lib_vision_models_pp/lib_vision_models_pp/Src/od_pp_yolov8.c ****             {
 252              		.loc 1 83 35 discriminator 1 view .LVU70
  83:Lib/lib_vision_models_pp/lib_vision_models_pp/Src/od_pp_yolov8.c ****             {
 253              		.loc 1 83 26 is_stmt 0 view .LVU71
 254 005c 4FF00009 		mov	r9, #0
 255              	.LBB7:
  85:Lib/lib_vision_models_pp/lib_vision_models_pp/Src/od_pp_yolov8.c ****                 float32_t *a = &(pOutput->pOutBuff[i].x_center);
 256              		.loc 1 85 38 view .LVU72
 257 0060 1823     		movs	r3, #24
 258              	.LVL24:
 259              	.L17:
  85:Lib/lib_vision_models_pp/lib_vision_models_pp/Src/od_pp_yolov8.c ****                 float32_t *a = &(pOutput->pOutBuff[i].x_center);
 260              		.loc 1 85 17 is_stmt 1 view .LVU73
  85:Lib/lib_vision_models_pp/lib_vision_models_pp/Src/od_pp_yolov8.c ****                 float32_t *a = &(pOutput->pOutBuff[i].x_center);
 261              		.loc 1 85 38 is_stmt 0 view .LVU74
 262 0062 2A68     		ldr	r2, [r5]
 263 0064 03FB092B 		mla	fp, r3, r9, r2
  85:Lib/lib_vision_models_pp/lib_vision_models_pp/Src/od_pp_yolov8.c ****                 float32_t *a = &(pOutput->pOutBuff[i].x_center);
 264              		.loc 1 85 20 view .LVU75
 265 0068 DBED047A 		vldr.32	s15, [fp, #16]
 266 006c F5EE407A 		vcmp.f32	s15, #0
 267 0070 F1EE10FA 		vmrs	APSR_nzcv, FPSCR
  87:Lib/lib_vision_models_pp/lib_vision_models_pp/Src/od_pp_yolov8.c ****                 {
 268              		.loc 1 87 24 view .LVU76
 269 0074 09F10109 		add	r9, r9, #1
 270              	.LVL25:
  85:Lib/lib_vision_models_pp/lib_vision_models_pp/Src/od_pp_yolov8.c ****                 float32_t *a = &(pOutput->pOutBuff[i].x_center);
 271              		.loc 1 85 20 view .LVU77
 272 0078 19D1     		bne	.L16
 273              	.L23:
 274              	.LBE7:
  83:Lib/lib_vision_models_pp/lib_vision_models_pp/Src/od_pp_yolov8.c ****             {
 275              		.loc 1 83 62 is_stmt 1 discriminator 2 view .LVU78
 276              	.LVL26:
  83:Lib/lib_vision_models_pp/lib_vision_models_pp/Src/od_pp_yolov8.c ****             {
 277              		.loc 1 83 35 discriminator 1 view .LVU79
 278 007a 4C45     		cmp	r4, r9
 279 007c F1D1     		bne	.L17
 280              	.LBE13:
 281              	.LBB14:
  98:Lib/lib_vision_models_pp/lib_vision_models_pp/Src/od_pp_yolov8.c ****             {
 282              		.loc 1 98 26 is_stmt 0 view .LVU80
 283 007e 0023     		movs	r3, #0
 101:Lib/lib_vision_models_pp/lib_vision_models_pp/Src/od_pp_yolov8.c ****                 {
 284              		.loc 1 101 39 view .LVU81
 285 0080 4FF0180E 		mov	lr, #24
 286              	.LBE14:
  61:Lib/lib_vision_models_pp/lib_vision_models_pp/Src/od_pp_yolov8.c ****         detections_per_class = 0;
 287              		.loc 1 61 23 view .LVU82
 288 0084 1A46     		mov	r2, r3
 289              	.LBB15:
 100:Lib/lib_vision_models_pp/lib_vision_models_pp/Src/od_pp_yolov8.c ****                     (pOutput->pOutBuff[i].conf != 0))
 290              		.loc 1 100 57 view .LVU83
 291 0086 B068     		ldr	r0, [r6, #8]
 101:Lib/lib_vision_models_pp/lib_vision_models_pp/Src/od_pp_yolov8.c ****                 {
ARM GAS  /tmp/cc6xfSVf.s 			page 9


 292              		.loc 1 101 29 view .LVU84
 293 0088 D5F800C0 		ldr	ip, [r5]
 294              	.LVL27:
 295              	.L26:
 100:Lib/lib_vision_models_pp/lib_vision_models_pp/Src/od_pp_yolov8.c ****                     (pOutput->pOutBuff[i].conf != 0))
 296              		.loc 1 100 17 is_stmt 1 view .LVU85
 100:Lib/lib_vision_models_pp/lib_vision_models_pp/Src/od_pp_yolov8.c ****                     (pOutput->pOutBuff[i].conf != 0))
 297              		.loc 1 100 20 is_stmt 0 view .LVU86
 298 008c 9042     		cmp	r0, r2
 101:Lib/lib_vision_models_pp/lib_vision_models_pp/Src/od_pp_yolov8.c ****                 {
 299              		.loc 1 101 39 view .LVU87
 300 008e 0EFB03C1 		mla	r1, lr, r3, ip
 100:Lib/lib_vision_models_pp/lib_vision_models_pp/Src/od_pp_yolov8.c ****                     (pOutput->pOutBuff[i].conf != 0))
 301              		.loc 1 100 20 view .LVU88
 302 0092 29DD     		ble	.L24
 100:Lib/lib_vision_models_pp/lib_vision_models_pp/Src/od_pp_yolov8.c ****                     (pOutput->pOutBuff[i].conf != 0))
 303              		.loc 1 100 76 discriminator 1 view .LVU89
 304 0094 D1ED047A 		vldr.32	s15, [r1, #16]
 305 0098 F5EE407A 		vcmp.f32	s15, #0
 306 009c F1EE10FA 		vmrs	APSR_nzcv, FPSCR
 307 00a0 22D0     		beq	.L24
 103:Lib/lib_vision_models_pp/lib_vision_models_pp/Src/od_pp_yolov8.c ****                 }
 308              		.loc 1 103 21 is_stmt 1 view .LVU90
 103:Lib/lib_vision_models_pp/lib_vision_models_pp/Src/od_pp_yolov8.c ****                 }
 309              		.loc 1 103 34 is_stmt 0 view .LVU91
 310 00a2 0132     		adds	r2, r2, #1
 311              	.LVL28:
 312              	.L25:
  98:Lib/lib_vision_models_pp/lib_vision_models_pp/Src/od_pp_yolov8.c ****             {
 313              		.loc 1 98 60 is_stmt 1 discriminator 2 view .LVU92
  98:Lib/lib_vision_models_pp/lib_vision_models_pp/Src/od_pp_yolov8.c ****             {
 314              		.loc 1 98 35 is_stmt 0 discriminator 1 view .LVU93
 315 00a4 013C     		subs	r4, r4, #1
  98:Lib/lib_vision_models_pp/lib_vision_models_pp/Src/od_pp_yolov8.c ****             {
 316              		.loc 1 98 60 discriminator 2 view .LVU94
 317 00a6 03F10103 		add	r3, r3, #1
 318              	.LVL29:
  98:Lib/lib_vision_models_pp/lib_vision_models_pp/Src/od_pp_yolov8.c ****             {
 319              		.loc 1 98 35 is_stmt 1 discriminator 1 view .LVU95
 320 00aa EFD1     		bne	.L26
  98:Lib/lib_vision_models_pp/lib_vision_models_pp/Src/od_pp_yolov8.c ****             {
 321              		.loc 1 98 35 is_stmt 0 discriminator 1 view .LVU96
 322 00ac C6E7     		b	.L27
 323              	.LVL30:
 324              	.L16:
  98:Lib/lib_vision_models_pp/lib_vision_models_pp/Src/od_pp_yolov8.c ****             {
 325              		.loc 1 98 35 discriminator 1 view .LVU97
 326              	.LBE15:
 327              	.LBB16:
 328              	.LBB8:
  86:Lib/lib_vision_models_pp/lib_vision_models_pp/Src/od_pp_yolov8.c ****                 for (j = i + 1; j < detections_per_class; j ++)
 329              		.loc 1 86 17 is_stmt 1 view .LVU98
  87:Lib/lib_vision_models_pp/lib_vision_models_pp/Src/od_pp_yolov8.c ****                 {
 330              		.loc 1 87 17 view .LVU99
  87:Lib/lib_vision_models_pp/lib_vision_models_pp/Src/od_pp_yolov8.c ****                 {
 331              		.loc 1 87 24 is_stmt 0 view .LVU100
 332 00ae CA46     		mov	r10, r9
ARM GAS  /tmp/cc6xfSVf.s 			page 10


 333              	.LVL31:
 334              	.L19:
  87:Lib/lib_vision_models_pp/lib_vision_models_pp/Src/od_pp_yolov8.c ****                 {
 335              		.loc 1 87 35 is_stmt 1 discriminator 1 view .LVU101
 336 00b0 A245     		cmp	r10, r4
 337              	.LBB5:
  89:Lib/lib_vision_models_pp/lib_vision_models_pp/Src/od_pp_yolov8.c ****                     if (vision_models_box_iou(a, b) > pInput_static_param->iou_threshold)
 338              		.loc 1 89 45 is_stmt 0 view .LVU102
 339 00b2 2968     		ldr	r1, [r5]
 340              	.LBE5:
  87:Lib/lib_vision_models_pp/lib_vision_models_pp/Src/od_pp_yolov8.c ****                 {
 341              		.loc 1 87 35 discriminator 1 view .LVU103
 342 00b4 E1DA     		bge	.L23
 343              	.LBB6:
  89:Lib/lib_vision_models_pp/lib_vision_models_pp/Src/od_pp_yolov8.c ****                     if (vision_models_box_iou(a, b) > pInput_static_param->iou_threshold)
 344              		.loc 1 89 21 is_stmt 1 view .LVU104
 345 00b6 03FB0AF2 		mul	r2, r3, r10
 346              	.LVL32:
  90:Lib/lib_vision_models_pp/lib_vision_models_pp/Src/od_pp_yolov8.c ****                     {
 347              		.loc 1 90 21 view .LVU105
  90:Lib/lib_vision_models_pp/lib_vision_models_pp/Src/od_pp_yolov8.c ****                     {
 348              		.loc 1 90 25 is_stmt 0 view .LVU106
 349 00ba 5846     		mov	r0, fp
 350 00bc 1144     		add	r1, r1, r2
 351              	.LVL33:
  90:Lib/lib_vision_models_pp/lib_vision_models_pp/Src/od_pp_yolov8.c ****                     {
 352              		.loc 1 90 25 view .LVU107
 353 00be 0192     		str	r2, [sp, #4]
 354 00c0 FFF7FEFF 		bl	vision_models_box_iou
 355              	.LVL34:
  90:Lib/lib_vision_models_pp/lib_vision_models_pp/Src/od_pp_yolov8.c ****                     {
 356              		.loc 1 90 24 discriminator 1 view .LVU108
 357 00c4 D6ED047A 		vldr.32	s15, [r6, #16]
 358 00c8 B4EEE70A 		vcmpe.f32	s0, s15
 359 00cc F1EE10FA 		vmrs	APSR_nzcv, FPSCR
  92:Lib/lib_vision_models_pp/lib_vision_models_pp/Src/od_pp_yolov8.c ****                     }
 360              		.loc 1 92 51 view .LVU109
 361 00d0 C4BF     		itt	gt
 362 00d2 2968     		ldrgt	r1, [r5]
 363 00d4 019A     		ldrgt	r2, [sp, #4]
  90:Lib/lib_vision_models_pp/lib_vision_models_pp/Src/od_pp_yolov8.c ****                     {
 364              		.loc 1 90 24 discriminator 1 view .LVU110
 365 00d6 4FF01803 		mov	r3, #24
  92:Lib/lib_vision_models_pp/lib_vision_models_pp/Src/od_pp_yolov8.c ****                     }
 366              		.loc 1 92 25 is_stmt 1 view .LVU111
  92:Lib/lib_vision_models_pp/lib_vision_models_pp/Src/od_pp_yolov8.c ****                     }
 367              		.loc 1 92 51 is_stmt 0 view .LVU112
 368 00da C4BF     		itt	gt
 369 00dc 8918     		addgt	r1, r1, r2
 370 00de C1F81080 		strgt	r8, [r1, #16]	@ float
 371              	.LBE6:
  87:Lib/lib_vision_models_pp/lib_vision_models_pp/Src/od_pp_yolov8.c ****                 {
 372              		.loc 1 87 61 is_stmt 1 discriminator 2 view .LVU113
 373 00e2 0AF1010A 		add	r10, r10, #1
 374              	.LVL35:
  87:Lib/lib_vision_models_pp/lib_vision_models_pp/Src/od_pp_yolov8.c ****                 {
 375              		.loc 1 87 61 is_stmt 0 discriminator 2 view .LVU114
ARM GAS  /tmp/cc6xfSVf.s 			page 11


 376 00e6 E3E7     		b	.L19
 377              	.LVL36:
 378              	.L24:
  87:Lib/lib_vision_models_pp/lib_vision_models_pp/Src/od_pp_yolov8.c ****                 {
 379              		.loc 1 87 61 discriminator 2 view .LVU115
 380              	.LBE8:
 381              	.LBE16:
 382              	.LBB17:
 107:Lib/lib_vision_models_pp/lib_vision_models_pp/Src/od_pp_yolov8.c ****                 }
 383              		.loc 1 107 21 is_stmt 1 view .LVU116
 107:Lib/lib_vision_models_pp/lib_vision_models_pp/Src/od_pp_yolov8.c ****                 }
 384              		.loc 1 107 47 is_stmt 0 view .LVU117
 385 00e8 C1F81080 		str	r8, [r1, #16]	@ float
 386 00ec DAE7     		b	.L25
 387              	.L35:
 388 00ee 00BF     		.align	2
 389              	.L34:
 390 00f0 00000000 		.word	AI_YOLOV8_PP_SORT_CLASS
 391 00f4 00000000 		.word	yolov8_nms_comparator
 392              	.LBE17:
 393              		.cfi_endproc
 394              	.LFE2646:
 396              		.section	.text.yolov8_pp_scoreFiltering_centroid,"ax",%progbits
 397              		.align	1
 398              		.global	yolov8_pp_scoreFiltering_centroid
 399              		.syntax unified
 400              		.thumb
 401              		.thumb_func
 403              	yolov8_pp_scoreFiltering_centroid:
 404              	.LVL37:
 405              	.LFB2647:
 114:Lib/lib_vision_models_pp/lib_vision_models_pp/Src/od_pp_yolov8.c **** 
 115:Lib/lib_vision_models_pp/lib_vision_models_pp/Src/od_pp_yolov8.c **** 
 116:Lib/lib_vision_models_pp/lib_vision_models_pp/Src/od_pp_yolov8.c **** int32_t yolov8_pp_scoreFiltering_centroid(od_pp_out_t *pOutput,
 117:Lib/lib_vision_models_pp/lib_vision_models_pp/Src/od_pp_yolov8.c ****                                           yolov8_pp_static_param_t *pInput_static_param)
 118:Lib/lib_vision_models_pp/lib_vision_models_pp/Src/od_pp_yolov8.c **** {
 406              		.loc 1 118 1 is_stmt 1 view -0
 407              		.cfi_startproc
 408              		@ args = 0, pretend = 0, frame = 0
 409              		@ frame_needed = 0, uses_anonymous_args = 0
 119:Lib/lib_vision_models_pp/lib_vision_models_pp/Src/od_pp_yolov8.c ****     int32_t det_count = 0;
 410              		.loc 1 119 5 view .LVU119
 120:Lib/lib_vision_models_pp/lib_vision_models_pp/Src/od_pp_yolov8.c **** 
 121:Lib/lib_vision_models_pp/lib_vision_models_pp/Src/od_pp_yolov8.c ****     for (int32_t i = 0; i < pInput_static_param->nb_detect; i++)
 411              		.loc 1 121 5 view .LVU120
 412              	.LBB18:
 413              		.loc 1 121 10 view .LVU121
 414              		.loc 1 121 10 is_stmt 0 view .LVU122
 415              	.LBE18:
 118:Lib/lib_vision_models_pp/lib_vision_models_pp/Src/od_pp_yolov8.c ****     int32_t det_count = 0;
 416              		.loc 1 118 1 view .LVU123
 417 0000 F0B5     		push	{r4, r5, r6, r7, lr}
 418              		.cfi_def_cfa_offset 20
 419              		.cfi_offset 4, -20
 420              		.cfi_offset 5, -16
 421              		.cfi_offset 6, -12
 422              		.cfi_offset 7, -8
ARM GAS  /tmp/cc6xfSVf.s 			page 12


 423              		.cfi_offset 14, -4
 424              	.LBB19:
 425              		.loc 1 121 18 view .LVU124
 426 0002 0026     		movs	r6, #0
 427              		.loc 1 121 48 discriminator 1 view .LVU125
 428 0004 CB69     		ldr	r3, [r1, #28]
 429              	.LBE19:
 119:Lib/lib_vision_models_pp/lib_vision_models_pp/Src/od_pp_yolov8.c ****     int32_t det_count = 0;
 430              		.loc 1 119 13 view .LVU126
 431 0006 3546     		mov	r5, r6
 432 0008 B342     		cmp	r3, r6
 433 000a 03F10102 		add	r2, r3, #1
 434              	.LBB20:
 122:Lib/lib_vision_models_pp/lib_vision_models_pp/Src/od_pp_yolov8.c ****     {
 123:Lib/lib_vision_models_pp/lib_vision_models_pp/Src/od_pp_yolov8.c ****         if (pOutput->pOutBuff[i].conf >= pInput_static_param->conf_threshold)
 435              		.loc 1 123 30 view .LVU127
 436 000e 4FF01807 		mov	r7, #24
 437 0012 B8BF     		it	lt
 438 0014 0122     		movlt	r2, #1
 439              	.LVL38:
 440              	.L37:
 121:Lib/lib_vision_models_pp/lib_vision_models_pp/Src/od_pp_yolov8.c ****     {
 441              		.loc 1 121 27 is_stmt 1 discriminator 1 view .LVU128
 442 0016 013A     		subs	r2, r2, #1
 443 0018 02D1     		bne	.L40
 444              	.LBE20:
 124:Lib/lib_vision_models_pp/lib_vision_models_pp/Src/od_pp_yolov8.c ****         {
 125:Lib/lib_vision_models_pp/lib_vision_models_pp/Src/od_pp_yolov8.c ****             pOutput->pOutBuff[det_count].x_center = pOutput->pOutBuff[i].x_center;
 126:Lib/lib_vision_models_pp/lib_vision_models_pp/Src/od_pp_yolov8.c ****             pOutput->pOutBuff[det_count].y_center = pOutput->pOutBuff[i].y_center;
 127:Lib/lib_vision_models_pp/lib_vision_models_pp/Src/od_pp_yolov8.c ****             pOutput->pOutBuff[det_count].width = pOutput->pOutBuff[i].width;
 128:Lib/lib_vision_models_pp/lib_vision_models_pp/Src/od_pp_yolov8.c ****             pOutput->pOutBuff[det_count].height = pOutput->pOutBuff[i].height;
 129:Lib/lib_vision_models_pp/lib_vision_models_pp/Src/od_pp_yolov8.c ****             pOutput->pOutBuff[det_count].conf = pOutput->pOutBuff[i].conf;
 130:Lib/lib_vision_models_pp/lib_vision_models_pp/Src/od_pp_yolov8.c ****             pOutput->pOutBuff[det_count].class_index = pOutput->pOutBuff[i].class_index;
 131:Lib/lib_vision_models_pp/lib_vision_models_pp/Src/od_pp_yolov8.c ****             det_count++;
 132:Lib/lib_vision_models_pp/lib_vision_models_pp/Src/od_pp_yolov8.c ****         }
 133:Lib/lib_vision_models_pp/lib_vision_models_pp/Src/od_pp_yolov8.c ****     }
 134:Lib/lib_vision_models_pp/lib_vision_models_pp/Src/od_pp_yolov8.c ****     pOutput->nb_detect = det_count;
 445              		.loc 1 134 5 view .LVU129
 446              		.loc 1 134 24 is_stmt 0 view .LVU130
 447 001a 4560     		str	r5, [r0, #4]
 135:Lib/lib_vision_models_pp/lib_vision_models_pp/Src/od_pp_yolov8.c **** 
 136:Lib/lib_vision_models_pp/lib_vision_models_pp/Src/od_pp_yolov8.c ****     return (AI_OD_POSTPROCESS_ERROR_NO);
 448              		.loc 1 136 5 is_stmt 1 view .LVU131
 137:Lib/lib_vision_models_pp/lib_vision_models_pp/Src/od_pp_yolov8.c **** }
 449              		.loc 1 137 1 is_stmt 0 view .LVU132
 450 001c 0020     		movs	r0, #0
 451              	.LVL39:
 452              		.loc 1 137 1 view .LVU133
 453 001e F0BD     		pop	{r4, r5, r6, r7, pc}
 454              	.LVL40:
 455              	.L40:
 456              	.LBB21:
 123:Lib/lib_vision_models_pp/lib_vision_models_pp/Src/od_pp_yolov8.c ****         {
 457              		.loc 1 123 9 is_stmt 1 view .LVU134
 123:Lib/lib_vision_models_pp/lib_vision_models_pp/Src/od_pp_yolov8.c ****         {
 458              		.loc 1 123 20 is_stmt 0 view .LVU135
 459 0020 0368     		ldr	r3, [r0]
ARM GAS  /tmp/cc6xfSVf.s 			page 13


 123:Lib/lib_vision_models_pp/lib_vision_models_pp/Src/od_pp_yolov8.c ****         {
 460              		.loc 1 123 12 view .LVU136
 461 0022 91ED037A 		vldr.32	s14, [r1, #12]
 123:Lib/lib_vision_models_pp/lib_vision_models_pp/Src/od_pp_yolov8.c ****         {
 462              		.loc 1 123 30 view .LVU137
 463 0026 07FB0634 		mla	r4, r7, r6, r3
 123:Lib/lib_vision_models_pp/lib_vision_models_pp/Src/od_pp_yolov8.c ****         {
 464              		.loc 1 123 33 view .LVU138
 465 002a D4ED047A 		vldr.32	s15, [r4, #16]
 123:Lib/lib_vision_models_pp/lib_vision_models_pp/Src/od_pp_yolov8.c ****         {
 466              		.loc 1 123 12 view .LVU139
 467 002e F4EEC77A 		vcmpe.f32	s15, s14
 468 0032 F1EE10FA 		vmrs	APSR_nzcv, FPSCR
 469 0036 16DB     		blt	.L38
 125:Lib/lib_vision_models_pp/lib_vision_models_pp/Src/od_pp_yolov8.c ****             pOutput->pOutBuff[det_count].y_center = pOutput->pOutBuff[i].y_center;
 470              		.loc 1 125 13 is_stmt 1 view .LVU140
 125:Lib/lib_vision_models_pp/lib_vision_models_pp/Src/od_pp_yolov8.c ****             pOutput->pOutBuff[det_count].y_center = pOutput->pOutBuff[i].y_center;
 471              		.loc 1 125 30 is_stmt 0 view .LVU141
 472 0038 07FB0533 		mla	r3, r7, r5, r3
 125:Lib/lib_vision_models_pp/lib_vision_models_pp/Src/od_pp_yolov8.c ****             pOutput->pOutBuff[det_count].y_center = pOutput->pOutBuff[i].y_center;
 473              		.loc 1 125 73 view .LVU142
 474 003c D4F800C0 		ldr	ip, [r4]	@ float
 131:Lib/lib_vision_models_pp/lib_vision_models_pp/Src/od_pp_yolov8.c ****         }
 475              		.loc 1 131 22 view .LVU143
 476 0040 0135     		adds	r5, r5, #1
 477              	.LVL41:
 125:Lib/lib_vision_models_pp/lib_vision_models_pp/Src/od_pp_yolov8.c ****             pOutput->pOutBuff[det_count].y_center = pOutput->pOutBuff[i].y_center;
 478              		.loc 1 125 51 view .LVU144
 479 0042 C3F800C0 		str	ip, [r3]	@ float
 126:Lib/lib_vision_models_pp/lib_vision_models_pp/Src/od_pp_yolov8.c ****             pOutput->pOutBuff[det_count].width = pOutput->pOutBuff[i].width;
 480              		.loc 1 126 13 is_stmt 1 view .LVU145
 126:Lib/lib_vision_models_pp/lib_vision_models_pp/Src/od_pp_yolov8.c ****             pOutput->pOutBuff[det_count].width = pOutput->pOutBuff[i].width;
 481              		.loc 1 126 73 is_stmt 0 view .LVU146
 482 0046 D4F804C0 		ldr	ip, [r4, #4]	@ float
 126:Lib/lib_vision_models_pp/lib_vision_models_pp/Src/od_pp_yolov8.c ****             pOutput->pOutBuff[det_count].width = pOutput->pOutBuff[i].width;
 483              		.loc 1 126 51 view .LVU147
 484 004a C3F804C0 		str	ip, [r3, #4]	@ float
 127:Lib/lib_vision_models_pp/lib_vision_models_pp/Src/od_pp_yolov8.c ****             pOutput->pOutBuff[det_count].height = pOutput->pOutBuff[i].height;
 485              		.loc 1 127 13 is_stmt 1 view .LVU148
 127:Lib/lib_vision_models_pp/lib_vision_models_pp/Src/od_pp_yolov8.c ****             pOutput->pOutBuff[det_count].height = pOutput->pOutBuff[i].height;
 486              		.loc 1 127 70 is_stmt 0 view .LVU149
 487 004e D4F808C0 		ldr	ip, [r4, #8]	@ float
 127:Lib/lib_vision_models_pp/lib_vision_models_pp/Src/od_pp_yolov8.c ****             pOutput->pOutBuff[det_count].height = pOutput->pOutBuff[i].height;
 488              		.loc 1 127 48 view .LVU150
 489 0052 C3F808C0 		str	ip, [r3, #8]	@ float
 128:Lib/lib_vision_models_pp/lib_vision_models_pp/Src/od_pp_yolov8.c ****             pOutput->pOutBuff[det_count].conf = pOutput->pOutBuff[i].conf;
 490              		.loc 1 128 13 is_stmt 1 view .LVU151
 128:Lib/lib_vision_models_pp/lib_vision_models_pp/Src/od_pp_yolov8.c ****             pOutput->pOutBuff[det_count].conf = pOutput->pOutBuff[i].conf;
 491              		.loc 1 128 71 is_stmt 0 view .LVU152
 492 0056 D4F80CC0 		ldr	ip, [r4, #12]	@ float
 129:Lib/lib_vision_models_pp/lib_vision_models_pp/Src/od_pp_yolov8.c ****             pOutput->pOutBuff[det_count].class_index = pOutput->pOutBuff[i].class_index;
 493              		.loc 1 129 47 view .LVU153
 494 005a C3ED047A 		vstr.32	s15, [r3, #16]
 130:Lib/lib_vision_models_pp/lib_vision_models_pp/Src/od_pp_yolov8.c ****             det_count++;
 495              		.loc 1 130 76 view .LVU154
 496 005e 6469     		ldr	r4, [r4, #20]
 128:Lib/lib_vision_models_pp/lib_vision_models_pp/Src/od_pp_yolov8.c ****             pOutput->pOutBuff[det_count].conf = pOutput->pOutBuff[i].conf;
ARM GAS  /tmp/cc6xfSVf.s 			page 14


 497              		.loc 1 128 49 view .LVU155
 498 0060 C3F80CC0 		str	ip, [r3, #12]	@ float
 129:Lib/lib_vision_models_pp/lib_vision_models_pp/Src/od_pp_yolov8.c ****             pOutput->pOutBuff[det_count].class_index = pOutput->pOutBuff[i].class_index;
 499              		.loc 1 129 13 is_stmt 1 view .LVU156
 130:Lib/lib_vision_models_pp/lib_vision_models_pp/Src/od_pp_yolov8.c ****             det_count++;
 500              		.loc 1 130 13 view .LVU157
 130:Lib/lib_vision_models_pp/lib_vision_models_pp/Src/od_pp_yolov8.c ****             det_count++;
 501              		.loc 1 130 54 is_stmt 0 view .LVU158
 502 0064 5C61     		str	r4, [r3, #20]
 131:Lib/lib_vision_models_pp/lib_vision_models_pp/Src/od_pp_yolov8.c ****         }
 503              		.loc 1 131 13 is_stmt 1 view .LVU159
 504              	.LVL42:
 505              	.L38:
 121:Lib/lib_vision_models_pp/lib_vision_models_pp/Src/od_pp_yolov8.c ****     {
 506              		.loc 1 121 62 discriminator 2 view .LVU160
 507 0066 0136     		adds	r6, r6, #1
 508              	.LVL43:
 121:Lib/lib_vision_models_pp/lib_vision_models_pp/Src/od_pp_yolov8.c ****     {
 509              		.loc 1 121 62 is_stmt 0 discriminator 2 view .LVU161
 510 0068 D5E7     		b	.L37
 511              	.LBE21:
 512              		.cfi_endproc
 513              	.LFE2647:
 515              		.section	.text.yolov8_pp_getNNBoxes_centroid,"ax",%progbits
 516              		.align	1
 517              		.global	yolov8_pp_getNNBoxes_centroid
 518              		.syntax unified
 519              		.thumb
 520              		.thumb_func
 522              	yolov8_pp_getNNBoxes_centroid:
 523              	.LVL44:
 524              	.LFB2648:
 138:Lib/lib_vision_models_pp/lib_vision_models_pp/Src/od_pp_yolov8.c **** 
 139:Lib/lib_vision_models_pp/lib_vision_models_pp/Src/od_pp_yolov8.c **** int32_t yolov8_pp_getNNBoxes_centroid(yolov8_pp_in_centroid_t *pInput,
 140:Lib/lib_vision_models_pp/lib_vision_models_pp/Src/od_pp_yolov8.c ****                                       od_pp_out_t *pOutput,
 141:Lib/lib_vision_models_pp/lib_vision_models_pp/Src/od_pp_yolov8.c ****                                       yolov8_pp_static_param_t *pInput_static_param)
 142:Lib/lib_vision_models_pp/lib_vision_models_pp/Src/od_pp_yolov8.c **** {
 525              		.loc 1 142 1 is_stmt 1 view -0
 526              		.cfi_startproc
 527              		@ args = 0, pretend = 0, frame = 56
 528              		@ frame_needed = 0, uses_anonymous_args = 0
 143:Lib/lib_vision_models_pp/lib_vision_models_pp/Src/od_pp_yolov8.c ****     int32_t error   = AI_OD_POSTPROCESS_ERROR_NO;
 529              		.loc 1 143 5 view .LVU163
 144:Lib/lib_vision_models_pp/lib_vision_models_pp/Src/od_pp_yolov8.c ****     int32_t nb_classes = pInput_static_param->nb_classes;
 530              		.loc 1 144 5 view .LVU164
 142:Lib/lib_vision_models_pp/lib_vision_models_pp/Src/od_pp_yolov8.c ****     int32_t error   = AI_OD_POSTPROCESS_ERROR_NO;
 531              		.loc 1 142 1 is_stmt 0 view .LVU165
 532 0000 2DE9F04F 		push	{r4, r5, r6, r7, r8, r9, r10, fp, lr}
 533              		.cfi_def_cfa_offset 36
 534              		.cfi_offset 4, -36
 535              		.cfi_offset 5, -32
 536              		.cfi_offset 6, -28
 537              		.cfi_offset 7, -24
 538              		.cfi_offset 8, -20
 539              		.cfi_offset 9, -16
 540              		.cfi_offset 10, -12
 541              		.cfi_offset 11, -8
ARM GAS  /tmp/cc6xfSVf.s 			page 15


 542              		.cfi_offset 14, -4
 543              		.loc 1 144 13 view .LVU166
 544 0004 1368     		ldr	r3, [r2]
 145:Lib/lib_vision_models_pp/lib_vision_models_pp/Src/od_pp_yolov8.c ****     int32_t nb_total_boxes = pInput_static_param->nb_total_boxes;
 545              		.loc 1 145 13 view .LVU167
 546 0006 5668     		ldr	r6, [r2, #4]
 142:Lib/lib_vision_models_pp/lib_vision_models_pp/Src/od_pp_yolov8.c ****     int32_t error   = AI_OD_POSTPROCESS_ERROR_NO;
 547              		.loc 1 142 1 view .LVU168
 548 0008 91B0     		sub	sp, sp, #68
 549              		.cfi_def_cfa_offset 104
 144:Lib/lib_vision_models_pp/lib_vision_models_pp/Src/od_pp_yolov8.c ****     int32_t nb_classes = pInput_static_param->nb_classes;
 550              		.loc 1 144 13 view .LVU169
 551 000a 0493     		str	r3, [sp, #16]
 552              	.LVL45:
 553              		.loc 1 145 5 is_stmt 1 view .LVU170
 146:Lib/lib_vision_models_pp/lib_vision_models_pp/Src/od_pp_yolov8.c ****     float32_t *pRaw_detections = (float32_t *)pInput->pRaw_detections;
 554              		.loc 1 146 5 view .LVU171
 555              	.LBB22:
 556              	.LBB23:
 147:Lib/lib_vision_models_pp/lib_vision_models_pp/Src/od_pp_yolov8.c ****     int32_t remaining_boxes = nb_total_boxes;
 148:Lib/lib_vision_models_pp/lib_vision_models_pp/Src/od_pp_yolov8.c **** 
 149:Lib/lib_vision_models_pp/lib_vision_models_pp/Src/od_pp_yolov8.c ****     pInput_static_param->nb_detect =0;
 150:Lib/lib_vision_models_pp/lib_vision_models_pp/Src/od_pp_yolov8.c ****     for (int32_t i = 0; i < nb_total_boxes; i+=4)
 151:Lib/lib_vision_models_pp/lib_vision_models_pp/Src/od_pp_yolov8.c ****     {
 152:Lib/lib_vision_models_pp/lib_vision_models_pp/Src/od_pp_yolov8.c ****         float32_t best_score_array[4];
 153:Lib/lib_vision_models_pp/lib_vision_models_pp/Src/od_pp_yolov8.c ****         uint32_t class_index_array[4];
 154:Lib/lib_vision_models_pp/lib_vision_models_pp/Src/od_pp_yolov8.c **** 
 155:Lib/lib_vision_models_pp/lib_vision_models_pp/Src/od_pp_yolov8.c ****         vision_models_maxi_tr_p_if32ou32(&pRaw_detections[i + AI_YOLOV8_PP_CLASSPROB * nb_total_box
 557              		.loc 1 155 86 is_stmt 0 view .LVU172
 558 000c B300     		lsls	r3, r6, #2
 559              	.LVL46:
 560              		.loc 1 155 86 view .LVU173
 561 000e 0593     		str	r3, [sp, #20]
 562 0010 F300     		lsls	r3, r6, #3
 563 0012 0693     		str	r3, [sp, #24]
 564 0014 0C23     		movs	r3, #12
 565              	.LBE23:
 566              	.LBE22:
 149:Lib/lib_vision_models_pp/lib_vision_models_pp/Src/od_pp_yolov8.c ****     for (int32_t i = 0; i < nb_total_boxes; i+=4)
 567              		.loc 1 149 36 view .LVU174
 568 0016 0024     		movs	r4, #0
 142:Lib/lib_vision_models_pp/lib_vision_models_pp/Src/od_pp_yolov8.c ****     int32_t error   = AI_OD_POSTPROCESS_ERROR_NO;
 569              		.loc 1 142 1 view .LVU175
 570 0018 8846     		mov	r8, r1
 571 001a 1546     		mov	r5, r2
 572 001c 7343     		muls	r3, r6, r3
 146:Lib/lib_vision_models_pp/lib_vision_models_pp/Src/od_pp_yolov8.c ****     int32_t remaining_boxes = nb_total_boxes;
 573              		.loc 1 146 16 view .LVU176
 574 001e D0F80090 		ldr	r9, [r0]
 575              	.LVL47:
 147:Lib/lib_vision_models_pp/lib_vision_models_pp/Src/od_pp_yolov8.c **** 
 576              		.loc 1 147 5 is_stmt 1 view .LVU177
 149:Lib/lib_vision_models_pp/lib_vision_models_pp/Src/od_pp_yolov8.c ****     for (int32_t i = 0; i < nb_total_boxes; i+=4)
 577              		.loc 1 149 5 view .LVU178
 578 0022 0793     		str	r3, [sp, #28]
 149:Lib/lib_vision_models_pp/lib_vision_models_pp/Src/od_pp_yolov8.c ****     for (int32_t i = 0; i < nb_total_boxes; i+=4)
 579              		.loc 1 149 36 is_stmt 0 view .LVU179
ARM GAS  /tmp/cc6xfSVf.s 			page 16


 580 0024 D461     		str	r4, [r2, #28]
 150:Lib/lib_vision_models_pp/lib_vision_models_pp/Src/od_pp_yolov8.c ****     {
 581              		.loc 1 150 5 is_stmt 1 view .LVU180
 582              	.LBB28:
 150:Lib/lib_vision_models_pp/lib_vision_models_pp/Src/od_pp_yolov8.c ****     {
 583              		.loc 1 150 10 view .LVU181
 584              	.LVL48:
 150:Lib/lib_vision_models_pp/lib_vision_models_pp/Src/od_pp_yolov8.c ****     {
 585              		.loc 1 150 10 is_stmt 0 view .LVU182
 586 0026 09EB061B 		add	fp, r9, r6, lsl #4
 587              	.LVL49:
 588              	.L44:
 150:Lib/lib_vision_models_pp/lib_vision_models_pp/Src/od_pp_yolov8.c ****     {
 589              		.loc 1 150 27 discriminator 1 view .LVU183
 590 002a B442     		cmp	r4, r6
 591 002c A6EB0407 		sub	r7, r6, r4
 592              	.LVL50:
 150:Lib/lib_vision_models_pp/lib_vision_models_pp/Src/od_pp_yolov8.c ****     {
 593              		.loc 1 150 27 is_stmt 1 discriminator 1 view .LVU184
 594 0030 03DB     		blt	.L49
 595              	.LBE28:
 156:Lib/lib_vision_models_pp/lib_vision_models_pp/Src/od_pp_yolov8.c ****                                  nb_classes,
 157:Lib/lib_vision_models_pp/lib_vision_models_pp/Src/od_pp_yolov8.c ****                                  nb_total_boxes,
 158:Lib/lib_vision_models_pp/lib_vision_models_pp/Src/od_pp_yolov8.c ****                                  best_score_array,
 159:Lib/lib_vision_models_pp/lib_vision_models_pp/Src/od_pp_yolov8.c ****                                  class_index_array,
 160:Lib/lib_vision_models_pp/lib_vision_models_pp/Src/od_pp_yolov8.c ****                                  remaining_boxes);
 161:Lib/lib_vision_models_pp/lib_vision_models_pp/Src/od_pp_yolov8.c ****         for (int _i = 0; _i < ((remaining_boxes>4)?4:remaining_boxes); _i++) {
 162:Lib/lib_vision_models_pp/lib_vision_models_pp/Src/od_pp_yolov8.c **** 
 163:Lib/lib_vision_models_pp/lib_vision_models_pp/Src/od_pp_yolov8.c ****             if (best_score_array[_i] >= pInput_static_param->conf_threshold)
 164:Lib/lib_vision_models_pp/lib_vision_models_pp/Src/od_pp_yolov8.c ****             {
 165:Lib/lib_vision_models_pp/lib_vision_models_pp/Src/od_pp_yolov8.c ****                 pOutput->pOutBuff[pInput_static_param->nb_detect].x_center = pRaw_detections[i + _i
 166:Lib/lib_vision_models_pp/lib_vision_models_pp/Src/od_pp_yolov8.c ****                 pOutput->pOutBuff[pInput_static_param->nb_detect].y_center = pRaw_detections[i + _i
 167:Lib/lib_vision_models_pp/lib_vision_models_pp/Src/od_pp_yolov8.c ****                 pOutput->pOutBuff[pInput_static_param->nb_detect].width = pRaw_detections[i + _i + 
 168:Lib/lib_vision_models_pp/lib_vision_models_pp/Src/od_pp_yolov8.c ****                 pOutput->pOutBuff[pInput_static_param->nb_detect].height = pRaw_detections[i + _i +
 169:Lib/lib_vision_models_pp/lib_vision_models_pp/Src/od_pp_yolov8.c ****                 pOutput->pOutBuff[pInput_static_param->nb_detect].conf = best_score_array[_i];
 170:Lib/lib_vision_models_pp/lib_vision_models_pp/Src/od_pp_yolov8.c ****                 pOutput->pOutBuff[pInput_static_param->nb_detect].class_index = class_index_array[_
 171:Lib/lib_vision_models_pp/lib_vision_models_pp/Src/od_pp_yolov8.c ****                 pInput_static_param->nb_detect++;
 172:Lib/lib_vision_models_pp/lib_vision_models_pp/Src/od_pp_yolov8.c ****             }
 173:Lib/lib_vision_models_pp/lib_vision_models_pp/Src/od_pp_yolov8.c ****         }
 174:Lib/lib_vision_models_pp/lib_vision_models_pp/Src/od_pp_yolov8.c ****         remaining_boxes-=4;
 175:Lib/lib_vision_models_pp/lib_vision_models_pp/Src/od_pp_yolov8.c ****     }
 176:Lib/lib_vision_models_pp/lib_vision_models_pp/Src/od_pp_yolov8.c **** 
 177:Lib/lib_vision_models_pp/lib_vision_models_pp/Src/od_pp_yolov8.c ****     return (error);
 596              		.loc 1 177 5 view .LVU185
 178:Lib/lib_vision_models_pp/lib_vision_models_pp/Src/od_pp_yolov8.c **** }
 597              		.loc 1 178 1 is_stmt 0 view .LVU186
 598 0032 0020     		movs	r0, #0
 599 0034 11B0     		add	sp, sp, #68
 600              		.cfi_remember_state
 601              		.cfi_def_cfa_offset 36
 602              		@ sp needed
 603 0036 BDE8F08F 		pop	{r4, r5, r6, r7, r8, r9, r10, fp, pc}
 604              	.LVL51:
 605              	.L49:
 606              		.cfi_restore_state
 607              	.LBB29:
 608              	.LBB26:
ARM GAS  /tmp/cc6xfSVf.s 			page 17


 152:Lib/lib_vision_models_pp/lib_vision_models_pp/Src/od_pp_yolov8.c ****         uint32_t class_index_array[4];
 609              		.loc 1 152 9 is_stmt 1 view .LVU187
 153:Lib/lib_vision_models_pp/lib_vision_models_pp/Src/od_pp_yolov8.c **** 
 610              		.loc 1 153 9 view .LVU188
 155:Lib/lib_vision_models_pp/lib_vision_models_pp/Src/od_pp_yolov8.c ****                                  nb_classes,
 611              		.loc 1 155 9 view .LVU189
 612 003a 0DF1300A 		add	r10, sp, #48
 613 003e 3246     		mov	r2, r6
 614 0040 5846     		mov	r0, fp
 615 0042 0197     		str	r7, [sp, #4]
 616 0044 08AB     		add	r3, sp, #32
 617 0046 0499     		ldr	r1, [sp, #16]
 618 0048 CDF800A0 		str	r10, [sp]
 619 004c FFF7FEFF 		bl	vision_models_maxi_tr_p_if32ou32
 620              	.LVL52:
 161:Lib/lib_vision_models_pp/lib_vision_models_pp/Src/od_pp_yolov8.c **** 
 621              		.loc 1 161 9 view .LVU190
 622              	.LBB24:
 161:Lib/lib_vision_models_pp/lib_vision_models_pp/Src/od_pp_yolov8.c **** 
 623              		.loc 1 161 14 view .LVU191
 161:Lib/lib_vision_models_pp/lib_vision_models_pp/Src/od_pp_yolov8.c **** 
 624              		.loc 1 161 53 is_stmt 0 discriminator 1 view .LVU192
 625 0050 042F     		cmp	r7, #4
 626 0052 A8BF     		it	ge
 627 0054 0427     		movge	r7, #4
 628              	.LVL53:
 161:Lib/lib_vision_models_pp/lib_vision_models_pp/Src/od_pp_yolov8.c **** 
 629              		.loc 1 161 18 view .LVU193
 630 0056 0020     		movs	r0, #0
 170:Lib/lib_vision_models_pp/lib_vision_models_pp/Src/od_pp_yolov8.c ****                 pInput_static_param->nb_detect++;
 631              		.loc 1 170 98 view .LVU194
 632 0058 7A1C     		adds	r2, r7, #1
 633 005a B842     		cmp	r0, r7
 634 005c 09EB8403 		add	r3, r9, r4, lsl #2
 635 0060 0DF1200C 		add	ip, sp, #32
 636 0064 0392     		str	r2, [sp, #12]
 637 0066 02DC     		bgt	.L51
 638 0068 B7F1004F 		cmp	r7, #-2147483648
 639 006c 01D1     		bne	.L45
 640              	.L51:
 641 006e 0122     		movs	r2, #1
 642 0070 0392     		str	r2, [sp, #12]
 643              	.LVL54:
 644              	.L45:
 161:Lib/lib_vision_models_pp/lib_vision_models_pp/Src/od_pp_yolov8.c **** 
 645              		.loc 1 161 29 is_stmt 1 discriminator 1 view .LVU195
 646 0072 039A     		ldr	r2, [sp, #12]
 647 0074 013A     		subs	r2, r2, #1
 648 0076 0392     		str	r2, [sp, #12]
 649 0078 03D1     		bne	.L48
 650              	.LBE24:
 174:Lib/lib_vision_models_pp/lib_vision_models_pp/Src/od_pp_yolov8.c ****     }
 651              		.loc 1 174 9 view .LVU196
 652              	.LVL55:
 174:Lib/lib_vision_models_pp/lib_vision_models_pp/Src/od_pp_yolov8.c ****     }
 653              		.loc 1 174 9 is_stmt 0 view .LVU197
 654              	.LBE26:
ARM GAS  /tmp/cc6xfSVf.s 			page 18


 150:Lib/lib_vision_models_pp/lib_vision_models_pp/Src/od_pp_yolov8.c ****     {
 655              		.loc 1 150 46 is_stmt 1 discriminator 2 view .LVU198
 656 007a 0434     		adds	r4, r4, #4
 657              	.LVL56:
 150:Lib/lib_vision_models_pp/lib_vision_models_pp/Src/od_pp_yolov8.c ****     {
 658              		.loc 1 150 46 is_stmt 0 discriminator 2 view .LVU199
 659 007c 0BF1100B 		add	fp, fp, #16
 660 0080 D3E7     		b	.L44
 661              	.LVL57:
 662              	.L48:
 663              	.LBB27:
 664              	.LBB25:
 163:Lib/lib_vision_models_pp/lib_vision_models_pp/Src/od_pp_yolov8.c ****             {
 665              		.loc 1 163 13 is_stmt 1 view .LVU200
 163:Lib/lib_vision_models_pp/lib_vision_models_pp/Src/od_pp_yolov8.c ****             {
 666              		.loc 1 163 33 is_stmt 0 view .LVU201
 667 0082 FCEC017A 		vldmia.32	ip!, {s15}
 163:Lib/lib_vision_models_pp/lib_vision_models_pp/Src/od_pp_yolov8.c ****             {
 668              		.loc 1 163 16 view .LVU202
 669 0086 95ED037A 		vldr.32	s14, [r5, #12]
 670 008a F4EEC77A 		vcmpe.f32	s15, s14
 671 008e F1EE10FA 		vmrs	APSR_nzcv, FPSCR
 672 0092 25DB     		blt	.L46
 165:Lib/lib_vision_models_pp/lib_vision_models_pp/Src/od_pp_yolov8.c ****                 pOutput->pOutBuff[pInput_static_param->nb_detect].y_center = pRaw_detections[i + _i
 673              		.loc 1 165 17 is_stmt 1 view .LVU203
 165:Lib/lib_vision_models_pp/lib_vision_models_pp/Src/od_pp_yolov8.c ****                 pOutput->pOutBuff[pInput_static_param->nb_detect].y_center = pRaw_detections[i + _i
 674              		.loc 1 165 34 is_stmt 0 view .LVU204
 675 0094 1821     		movs	r1, #24
 165:Lib/lib_vision_models_pp/lib_vision_models_pp/Src/od_pp_yolov8.c ****                 pOutput->pOutBuff[pInput_static_param->nb_detect].y_center = pRaw_detections[i + _i
 676              		.loc 1 165 54 view .LVU205
 677 0096 EF69     		ldr	r7, [r5, #28]
 165:Lib/lib_vision_models_pp/lib_vision_models_pp/Src/od_pp_yolov8.c ****                 pOutput->pOutBuff[pInput_static_param->nb_detect].y_center = pRaw_detections[i + _i
 678              		.loc 1 165 34 view .LVU206
 679 0098 D8F80020 		ldr	r2, [r8]
 165:Lib/lib_vision_models_pp/lib_vision_models_pp/Src/od_pp_yolov8.c ****                 pOutput->pOutBuff[pInput_static_param->nb_detect].y_center = pRaw_detections[i + _i
 680              		.loc 1 165 93 view .LVU207
 681 009c D3F800E0 		ldr	lr, [r3]	@ float
 165:Lib/lib_vision_models_pp/lib_vision_models_pp/Src/od_pp_yolov8.c ****                 pOutput->pOutBuff[pInput_static_param->nb_detect].y_center = pRaw_detections[i + _i
 682              		.loc 1 165 34 view .LVU208
 683 00a0 01FB0722 		mla	r2, r1, r7, r2
 166:Lib/lib_vision_models_pp/lib_vision_models_pp/Src/od_pp_yolov8.c ****                 pOutput->pOutBuff[pInput_static_param->nb_detect].width = pRaw_detections[i + _i + 
 684              		.loc 1 166 93 view .LVU209
 685 00a4 0599     		ldr	r1, [sp, #20]
 165:Lib/lib_vision_models_pp/lib_vision_models_pp/Src/od_pp_yolov8.c ****                 pOutput->pOutBuff[pInput_static_param->nb_detect].y_center = pRaw_detections[i + _i
 686              		.loc 1 165 76 view .LVU210
 687 00a6 C2F800E0 		str	lr, [r2]	@ float
 166:Lib/lib_vision_models_pp/lib_vision_models_pp/Src/od_pp_yolov8.c ****                 pOutput->pOutBuff[pInput_static_param->nb_detect].width = pRaw_detections[i + _i + 
 688              		.loc 1 166 17 is_stmt 1 view .LVU211
 166:Lib/lib_vision_models_pp/lib_vision_models_pp/Src/od_pp_yolov8.c ****                 pOutput->pOutBuff[pInput_static_param->nb_detect].width = pRaw_detections[i + _i + 
 689              		.loc 1 166 93 is_stmt 0 view .LVU212
 690 00aa 03EB010E 		add	lr, r3, r1
 691 00ae DEF800E0 		ldr	lr, [lr]	@ float
 167:Lib/lib_vision_models_pp/lib_vision_models_pp/Src/od_pp_yolov8.c ****                 pOutput->pOutBuff[pInput_static_param->nb_detect].height = pRaw_detections[i + _i +
 692              		.loc 1 167 90 view .LVU213
 693 00b2 0699     		ldr	r1, [sp, #24]
 166:Lib/lib_vision_models_pp/lib_vision_models_pp/Src/od_pp_yolov8.c ****                 pOutput->pOutBuff[pInput_static_param->nb_detect].width = pRaw_detections[i + _i + 
 694              		.loc 1 166 76 view .LVU214
ARM GAS  /tmp/cc6xfSVf.s 			page 19


 695 00b4 C2F804E0 		str	lr, [r2, #4]	@ float
 167:Lib/lib_vision_models_pp/lib_vision_models_pp/Src/od_pp_yolov8.c ****                 pOutput->pOutBuff[pInput_static_param->nb_detect].height = pRaw_detections[i + _i +
 696              		.loc 1 167 17 is_stmt 1 view .LVU215
 167:Lib/lib_vision_models_pp/lib_vision_models_pp/Src/od_pp_yolov8.c ****                 pOutput->pOutBuff[pInput_static_param->nb_detect].height = pRaw_detections[i + _i +
 697              		.loc 1 167 90 is_stmt 0 view .LVU216
 698 00b8 03EB010E 		add	lr, r3, r1
 699 00bc DEF800E0 		ldr	lr, [lr]	@ float
 168:Lib/lib_vision_models_pp/lib_vision_models_pp/Src/od_pp_yolov8.c ****                 pOutput->pOutBuff[pInput_static_param->nb_detect].conf = best_score_array[_i];
 700              		.loc 1 168 91 view .LVU217
 701 00c0 0799     		ldr	r1, [sp, #28]
 167:Lib/lib_vision_models_pp/lib_vision_models_pp/Src/od_pp_yolov8.c ****                 pOutput->pOutBuff[pInput_static_param->nb_detect].height = pRaw_detections[i + _i +
 702              		.loc 1 167 73 view .LVU218
 703 00c2 C2F808E0 		str	lr, [r2, #8]	@ float
 168:Lib/lib_vision_models_pp/lib_vision_models_pp/Src/od_pp_yolov8.c ****                 pOutput->pOutBuff[pInput_static_param->nb_detect].conf = best_score_array[_i];
 704              		.loc 1 168 17 is_stmt 1 view .LVU219
 168:Lib/lib_vision_models_pp/lib_vision_models_pp/Src/od_pp_yolov8.c ****                 pOutput->pOutBuff[pInput_static_param->nb_detect].conf = best_score_array[_i];
 705              		.loc 1 168 91 is_stmt 0 view .LVU220
 706 00c6 03EB010E 		add	lr, r3, r1
 707 00ca DEF800E0 		ldr	lr, [lr]	@ float
 170:Lib/lib_vision_models_pp/lib_vision_models_pp/Src/od_pp_yolov8.c ****                 pInput_static_param->nb_detect++;
 708              		.loc 1 170 79 view .LVU221
 709 00ce 5AF82010 		ldr	r1, [r10, r0, lsl #2]
 171:Lib/lib_vision_models_pp/lib_vision_models_pp/Src/od_pp_yolov8.c ****             }
 710              		.loc 1 171 47 view .LVU222
 711 00d2 0137     		adds	r7, r7, #1
 169:Lib/lib_vision_models_pp/lib_vision_models_pp/Src/od_pp_yolov8.c ****                 pOutput->pOutBuff[pInput_static_param->nb_detect].class_index = class_index_array[_
 712              		.loc 1 169 72 view .LVU223
 713 00d4 C2ED047A 		vstr.32	s15, [r2, #16]
 168:Lib/lib_vision_models_pp/lib_vision_models_pp/Src/od_pp_yolov8.c ****                 pOutput->pOutBuff[pInput_static_param->nb_detect].conf = best_score_array[_i];
 714              		.loc 1 168 74 view .LVU224
 715 00d8 C2F80CE0 		str	lr, [r2, #12]	@ float
 169:Lib/lib_vision_models_pp/lib_vision_models_pp/Src/od_pp_yolov8.c ****                 pOutput->pOutBuff[pInput_static_param->nb_detect].class_index = class_index_array[_
 716              		.loc 1 169 17 is_stmt 1 view .LVU225
 170:Lib/lib_vision_models_pp/lib_vision_models_pp/Src/od_pp_yolov8.c ****                 pInput_static_param->nb_detect++;
 717              		.loc 1 170 17 view .LVU226
 170:Lib/lib_vision_models_pp/lib_vision_models_pp/Src/od_pp_yolov8.c ****                 pInput_static_param->nb_detect++;
 718              		.loc 1 170 79 is_stmt 0 view .LVU227
 719 00dc 5161     		str	r1, [r2, #20]
 171:Lib/lib_vision_models_pp/lib_vision_models_pp/Src/od_pp_yolov8.c ****             }
 720              		.loc 1 171 17 is_stmt 1 view .LVU228
 171:Lib/lib_vision_models_pp/lib_vision_models_pp/Src/od_pp_yolov8.c ****             }
 721              		.loc 1 171 47 is_stmt 0 view .LVU229
 722 00de EF61     		str	r7, [r5, #28]
 723              	.L46:
 161:Lib/lib_vision_models_pp/lib_vision_models_pp/Src/od_pp_yolov8.c **** 
 724              		.loc 1 161 74 is_stmt 1 discriminator 2 view .LVU230
 725 00e0 0130     		adds	r0, r0, #1
 726              	.LVL58:
 161:Lib/lib_vision_models_pp/lib_vision_models_pp/Src/od_pp_yolov8.c **** 
 727              		.loc 1 161 74 is_stmt 0 discriminator 2 view .LVU231
 728 00e2 0433     		adds	r3, r3, #4
 729 00e4 C5E7     		b	.L45
 730              	.LBE25:
 731              	.LBE27:
 732              	.LBE29:
 733              		.cfi_endproc
 734              	.LFE2648:
ARM GAS  /tmp/cc6xfSVf.s 			page 20


 736              		.section	.text.yolov8_pp_getNNBoxes_centroid_int8,"ax",%progbits
 737              		.align	1
 738              		.global	yolov8_pp_getNNBoxes_centroid_int8
 739              		.syntax unified
 740              		.thumb
 741              		.thumb_func
 743              	yolov8_pp_getNNBoxes_centroid_int8:
 744              	.LVL59:
 745              	.LFB2649:
 179:Lib/lib_vision_models_pp/lib_vision_models_pp/Src/od_pp_yolov8.c **** 
 180:Lib/lib_vision_models_pp/lib_vision_models_pp/Src/od_pp_yolov8.c **** 
 181:Lib/lib_vision_models_pp/lib_vision_models_pp/Src/od_pp_yolov8.c **** int32_t yolov8_pp_getNNBoxes_centroid_int8(yolov8_pp_in_centroid_int8_t *pInput,
 182:Lib/lib_vision_models_pp/lib_vision_models_pp/Src/od_pp_yolov8.c ****                                            od_pp_out_t *pOutput,
 183:Lib/lib_vision_models_pp/lib_vision_models_pp/Src/od_pp_yolov8.c ****                                            yolov8_pp_static_param_t *pInput_static_param)
 184:Lib/lib_vision_models_pp/lib_vision_models_pp/Src/od_pp_yolov8.c **** {
 746              		.loc 1 184 1 is_stmt 1 view -0
 747              		.cfi_startproc
 748              		@ args = 0, pretend = 0, frame = 64
 749              		@ frame_needed = 0, uses_anonymous_args = 0
 185:Lib/lib_vision_models_pp/lib_vision_models_pp/Src/od_pp_yolov8.c ****     int32_t error   = AI_OD_POSTPROCESS_ERROR_NO;
 750              		.loc 1 185 5 view .LVU233
 186:Lib/lib_vision_models_pp/lib_vision_models_pp/Src/od_pp_yolov8.c ****     int32_t class_index = 0;
 751              		.loc 1 186 5 view .LVU234
 187:Lib/lib_vision_models_pp/lib_vision_models_pp/Src/od_pp_yolov8.c ****     int32_t nb_classes = pInput_static_param->nb_classes;
 752              		.loc 1 187 5 view .LVU235
 184:Lib/lib_vision_models_pp/lib_vision_models_pp/Src/od_pp_yolov8.c ****     int32_t error   = AI_OD_POSTPROCESS_ERROR_NO;
 753              		.loc 1 184 1 is_stmt 0 view .LVU236
 754 0000 2DE9F04F 		push	{r4, r5, r6, r7, r8, r9, r10, fp, lr}
 755              		.cfi_def_cfa_offset 36
 756              		.cfi_offset 4, -36
 757              		.cfi_offset 5, -32
 758              		.cfi_offset 6, -28
 759              		.cfi_offset 7, -24
 760              		.cfi_offset 8, -20
 761              		.cfi_offset 9, -16
 762              		.cfi_offset 10, -12
 763              		.cfi_offset 11, -8
 764              		.cfi_offset 14, -4
 765 0004 2DED028B 		vpush.64	{d8}
 766              		.cfi_def_cfa_offset 44
 767              		.cfi_offset 80, -44
 768              		.cfi_offset 81, -40
 769              		.loc 1 187 13 view .LVU237
 770 0008 1368     		ldr	r3, [r2]
 184:Lib/lib_vision_models_pp/lib_vision_models_pp/Src/od_pp_yolov8.c ****     int32_t error   = AI_OD_POSTPROCESS_ERROR_NO;
 771              		.loc 1 184 1 view .LVU238
 772 000a 1546     		mov	r5, r2
 188:Lib/lib_vision_models_pp/lib_vision_models_pp/Src/od_pp_yolov8.c ****     int32_t nb_total_boxes = pInput_static_param->nb_total_boxes;
 773              		.loc 1 188 13 view .LVU239
 774 000c 5468     		ldr	r4, [r2, #4]
 189:Lib/lib_vision_models_pp/lib_vision_models_pp/Src/od_pp_yolov8.c ****     int8_t *pRaw_detections = (int8_t *)pInput->pRaw_detections;
 190:Lib/lib_vision_models_pp/lib_vision_models_pp/Src/od_pp_yolov8.c ****     int8_t zero_point = pInput_static_param->raw_output_zero_point;
 191:Lib/lib_vision_models_pp/lib_vision_models_pp/Src/od_pp_yolov8.c ****     float32_t scale = pInput_static_param->raw_output_scale;
 775              		.loc 1 191 15 view .LVU240
 776 000e 92ED058A 		vldr.32	s16, [r2, #20]
 190:Lib/lib_vision_models_pp/lib_vision_models_pp/Src/od_pp_yolov8.c ****     float32_t scale = pInput_static_param->raw_output_scale;
 777              		.loc 1 190 12 view .LVU241
ARM GAS  /tmp/cc6xfSVf.s 			page 21


 778 0012 92F91860 		ldrsb	r6, [r2, #24]
 192:Lib/lib_vision_models_pp/lib_vision_models_pp/Src/od_pp_yolov8.c ****     float32_t best_score_f;
 193:Lib/lib_vision_models_pp/lib_vision_models_pp/Src/od_pp_yolov8.c **** 
 194:Lib/lib_vision_models_pp/lib_vision_models_pp/Src/od_pp_yolov8.c ****     pInput_static_param->nb_detect =0;
 779              		.loc 1 194 36 view .LVU242
 780 0016 0022     		movs	r2, #0
 781              	.LVL60:
 189:Lib/lib_vision_models_pp/lib_vision_models_pp/Src/od_pp_yolov8.c ****     int8_t zero_point = pInput_static_param->raw_output_zero_point;
 782              		.loc 1 189 13 view .LVU243
 783 0018 0768     		ldr	r7, [r0]
 184:Lib/lib_vision_models_pp/lib_vision_models_pp/Src/od_pp_yolov8.c ****     int32_t error   = AI_OD_POSTPROCESS_ERROR_NO;
 784              		.loc 1 184 1 view .LVU244
 785 001a 93B0     		sub	sp, sp, #76
 786              		.cfi_def_cfa_offset 120
 195:Lib/lib_vision_models_pp/lib_vision_models_pp/Src/od_pp_yolov8.c ****     int32_t remaining_boxes = nb_total_boxes;
 196:Lib/lib_vision_models_pp/lib_vision_models_pp/Src/od_pp_yolov8.c ****     int8_t conf_threshold_s8 = (int8_t)(pInput_static_param->conf_threshold / scale + 0.5f) + zero_
 197:Lib/lib_vision_models_pp/lib_vision_models_pp/Src/od_pp_yolov8.c ****     if (nb_classes < 256) {
 787              		.loc 1 197 8 view .LVU245
 788 001c FF2B     		cmp	r3, #255
 184:Lib/lib_vision_models_pp/lib_vision_models_pp/Src/od_pp_yolov8.c ****     int32_t error   = AI_OD_POSTPROCESS_ERROR_NO;
 789              		.loc 1 184 1 view .LVU246
 790 001e 8A46     		mov	r10, r1
 196:Lib/lib_vision_models_pp/lib_vision_models_pp/Src/od_pp_yolov8.c ****     if (nb_classes < 256) {
 791              		.loc 1 196 60 view .LVU247
 792 0020 95ED037A 		vldr.32	s14, [r5, #12]
 187:Lib/lib_vision_models_pp/lib_vision_models_pp/Src/od_pp_yolov8.c ****     int32_t nb_total_boxes = pInput_static_param->nb_total_boxes;
 793              		.loc 1 187 13 view .LVU248
 794 0024 0293     		str	r3, [sp, #8]
 795              	.LVL61:
 188:Lib/lib_vision_models_pp/lib_vision_models_pp/Src/od_pp_yolov8.c ****     int8_t *pRaw_detections = (int8_t *)pInput->pRaw_detections;
 796              		.loc 1 188 5 is_stmt 1 view .LVU249
 189:Lib/lib_vision_models_pp/lib_vision_models_pp/Src/od_pp_yolov8.c ****     int8_t zero_point = pInput_static_param->raw_output_zero_point;
 797              		.loc 1 189 5 view .LVU250
 190:Lib/lib_vision_models_pp/lib_vision_models_pp/Src/od_pp_yolov8.c ****     float32_t scale = pInput_static_param->raw_output_scale;
 798              		.loc 1 190 5 view .LVU251
 191:Lib/lib_vision_models_pp/lib_vision_models_pp/Src/od_pp_yolov8.c ****     float32_t best_score_f;
 799              		.loc 1 191 5 view .LVU252
 192:Lib/lib_vision_models_pp/lib_vision_models_pp/Src/od_pp_yolov8.c **** 
 800              		.loc 1 192 5 view .LVU253
 194:Lib/lib_vision_models_pp/lib_vision_models_pp/Src/od_pp_yolov8.c ****     int32_t remaining_boxes = nb_total_boxes;
 801              		.loc 1 194 5 view .LVU254
 194:Lib/lib_vision_models_pp/lib_vision_models_pp/Src/od_pp_yolov8.c ****     int32_t remaining_boxes = nb_total_boxes;
 802              		.loc 1 194 36 is_stmt 0 view .LVU255
 803 0026 EA61     		str	r2, [r5, #28]
 195:Lib/lib_vision_models_pp/lib_vision_models_pp/Src/od_pp_yolov8.c ****     int8_t conf_threshold_s8 = (int8_t)(pInput_static_param->conf_threshold / scale + 0.5f) + zero_
 804              		.loc 1 195 5 is_stmt 1 view .LVU256
 805              	.LVL62:
 196:Lib/lib_vision_models_pp/lib_vision_models_pp/Src/od_pp_yolov8.c ****     if (nb_classes < 256) {
 806              		.loc 1 196 5 view .LVU257
 807              		.loc 1 197 5 view .LVU258
 808 0028 07EB840B 		add	fp, r7, r4, lsl #2
 809              		.loc 1 197 8 is_stmt 0 view .LVU259
 810 002c 2CDD     		ble	.L54
 195:Lib/lib_vision_models_pp/lib_vision_models_pp/Src/od_pp_yolov8.c ****     int8_t conf_threshold_s8 = (int8_t)(pInput_static_param->conf_threshold / scale + 0.5f) + zero_
 811              		.loc 1 195 13 view .LVU260
 812 002e A046     		mov	r8, r4
 813 0030 D946     		mov	r9, fp
ARM GAS  /tmp/cc6xfSVf.s 			page 22


 814 0032 2744     		add	r7, r7, r4
 815              	.LVL63:
 195:Lib/lib_vision_models_pp/lib_vision_models_pp/Src/od_pp_yolov8.c ****     int8_t conf_threshold_s8 = (int8_t)(pInput_static_param->conf_threshold / scale + 0.5f) + zero_
 816              		.loc 1 195 13 view .LVU261
 817 0034 C4F1000B 		rsb	fp, r4, #0
 818              	.LVL64:
 819              	.L55:
 820              	.LBB30:
 821              	.LBB31:
 198:Lib/lib_vision_models_pp/lib_vision_models_pp/Src/od_pp_yolov8.c ****         int8_t best_score_array[16];
 199:Lib/lib_vision_models_pp/lib_vision_models_pp/Src/od_pp_yolov8.c ****         uint8_t class_index_array[16];
 200:Lib/lib_vision_models_pp/lib_vision_models_pp/Src/od_pp_yolov8.c ****         for (int32_t i = 0; i < nb_total_boxes; i+=16)
 201:Lib/lib_vision_models_pp/lib_vision_models_pp/Src/od_pp_yolov8.c ****         {
 202:Lib/lib_vision_models_pp/lib_vision_models_pp/Src/od_pp_yolov8.c ****             vision_models_maxi_tr_p_is8ou8(&pRaw_detections[i + AI_YOLOV8_PP_CLASSPROB * nb_total_b
 203:Lib/lib_vision_models_pp/lib_vision_models_pp/Src/od_pp_yolov8.c ****                                           nb_classes,
 204:Lib/lib_vision_models_pp/lib_vision_models_pp/Src/od_pp_yolov8.c ****                                           nb_total_boxes,
 205:Lib/lib_vision_models_pp/lib_vision_models_pp/Src/od_pp_yolov8.c ****                                           best_score_array,
 206:Lib/lib_vision_models_pp/lib_vision_models_pp/Src/od_pp_yolov8.c ****                                           class_index_array,
 207:Lib/lib_vision_models_pp/lib_vision_models_pp/Src/od_pp_yolov8.c ****                                           remaining_boxes);
 208:Lib/lib_vision_models_pp/lib_vision_models_pp/Src/od_pp_yolov8.c ****             for (int _i = 0; _i < ((remaining_boxes>16)?16:remaining_boxes); _i++) {
 209:Lib/lib_vision_models_pp/lib_vision_models_pp/Src/od_pp_yolov8.c **** 
 210:Lib/lib_vision_models_pp/lib_vision_models_pp/Src/od_pp_yolov8.c ****                 if ( best_score_array[_i] >= conf_threshold_s8) {
 211:Lib/lib_vision_models_pp/lib_vision_models_pp/Src/od_pp_yolov8.c ****                   best_score_f = scale * (float32_t)(best_score_array[_i] - zero_point);
 212:Lib/lib_vision_models_pp/lib_vision_models_pp/Src/od_pp_yolov8.c ****                   class_index = class_index_array[_i];
 213:Lib/lib_vision_models_pp/lib_vision_models_pp/Src/od_pp_yolov8.c ****                   pOutput->pOutBuff[pInput_static_param->nb_detect].x_center    = scale * (float32_
 214:Lib/lib_vision_models_pp/lib_vision_models_pp/Src/od_pp_yolov8.c ****                   pOutput->pOutBuff[pInput_static_param->nb_detect].y_center    = scale * (float32_
 215:Lib/lib_vision_models_pp/lib_vision_models_pp/Src/od_pp_yolov8.c ****                   pOutput->pOutBuff[pInput_static_param->nb_detect].width       = scale * (float32_
 216:Lib/lib_vision_models_pp/lib_vision_models_pp/Src/od_pp_yolov8.c ****                   pOutput->pOutBuff[pInput_static_param->nb_detect].height      = scale * (float32_
 217:Lib/lib_vision_models_pp/lib_vision_models_pp/Src/od_pp_yolov8.c ****                   pOutput->pOutBuff[pInput_static_param->nb_detect].conf        = best_score_f;
 218:Lib/lib_vision_models_pp/lib_vision_models_pp/Src/od_pp_yolov8.c ****                   pOutput->pOutBuff[pInput_static_param->nb_detect].class_index = class_index;
 219:Lib/lib_vision_models_pp/lib_vision_models_pp/Src/od_pp_yolov8.c ****                   pInput_static_param->nb_detect++;
 220:Lib/lib_vision_models_pp/lib_vision_models_pp/Src/od_pp_yolov8.c ****                 }
 221:Lib/lib_vision_models_pp/lib_vision_models_pp/Src/od_pp_yolov8.c ****             }
 222:Lib/lib_vision_models_pp/lib_vision_models_pp/Src/od_pp_yolov8.c ****             remaining_boxes-=16;
 223:Lib/lib_vision_models_pp/lib_vision_models_pp/Src/od_pp_yolov8.c ****         }
 224:Lib/lib_vision_models_pp/lib_vision_models_pp/Src/od_pp_yolov8.c ****     } else {
 225:Lib/lib_vision_models_pp/lib_vision_models_pp/Src/od_pp_yolov8.c ****         int8_t best_score_array[16];
 226:Lib/lib_vision_models_pp/lib_vision_models_pp/Src/od_pp_yolov8.c ****         uint16_t class_index_array[16];
 227:Lib/lib_vision_models_pp/lib_vision_models_pp/Src/od_pp_yolov8.c ****         for (int32_t i = 0; i < nb_total_boxes; i+=16)
 822              		.loc 1 227 31 is_stmt 1 discriminator 1 view .LVU262
 823 0038 A4EB0802 		sub	r2, r4, r8
 824 003c 9442     		cmp	r4, r2
 825 003e 38DD     		ble	.L61
 228:Lib/lib_vision_models_pp/lib_vision_models_pp/Src/od_pp_yolov8.c ****         {
 229:Lib/lib_vision_models_pp/lib_vision_models_pp/Src/od_pp_yolov8.c ****             vision_models_maxi_tr_p_is8ou16(&pRaw_detections[i + AI_YOLOV8_PP_CLASSPROB * nb_total_
 826              		.loc 1 229 13 view .LVU263
 827 0040 0AAB     		add	r3, sp, #40
 828 0042 2246     		mov	r2, r4
 829 0044 4846     		mov	r0, r9
 830 0046 0093     		str	r3, [sp]
 831 0048 0299     		ldr	r1, [sp, #8]
 832 004a 06AB     		add	r3, sp, #24
 833 004c CDF80480 		str	r8, [sp, #4]
 834 0050 FFF7FEFF 		bl	vision_models_maxi_tr_p_is8ou16
 835              	.LVL65:
 230:Lib/lib_vision_models_pp/lib_vision_models_pp/Src/od_pp_yolov8.c ****                                                 nb_classes,
 231:Lib/lib_vision_models_pp/lib_vision_models_pp/Src/od_pp_yolov8.c ****                                                 nb_total_boxes,
ARM GAS  /tmp/cc6xfSVf.s 			page 23


 232:Lib/lib_vision_models_pp/lib_vision_models_pp/Src/od_pp_yolov8.c ****                                                 best_score_array,
 233:Lib/lib_vision_models_pp/lib_vision_models_pp/Src/od_pp_yolov8.c ****                                                 class_index_array,
 234:Lib/lib_vision_models_pp/lib_vision_models_pp/Src/od_pp_yolov8.c ****                                                 remaining_boxes);
 235:Lib/lib_vision_models_pp/lib_vision_models_pp/Src/od_pp_yolov8.c **** 
 236:Lib/lib_vision_models_pp/lib_vision_models_pp/Src/od_pp_yolov8.c ****             for (int _i = 0; _i < ((remaining_boxes>16)?16:remaining_boxes); _i++) {
 836              		.loc 1 236 13 view .LVU264
 837              	.LBB32:
 838              		.loc 1 236 18 view .LVU265
 839              		.loc 1 236 59 is_stmt 0 discriminator 1 view .LVU266
 840 0054 4246     		mov	r2, r8
 841 0056 102A     		cmp	r2, #16
 842 0058 A8BF     		it	ge
 843 005a 1022     		movge	r2, #16
 844              		.loc 1 236 22 view .LVU267
 845 005c 0020     		movs	r0, #0
 846 005e 9042     		cmp	r0, r2
 237:Lib/lib_vision_models_pp/lib_vision_models_pp/Src/od_pp_yolov8.c ****                 best_score_f = scale * (float32_t)(best_score_array[_i] - zero_point);
 238:Lib/lib_vision_models_pp/lib_vision_models_pp/Src/od_pp_yolov8.c ****                 class_index = class_index_array[_i];
 239:Lib/lib_vision_models_pp/lib_vision_models_pp/Src/od_pp_yolov8.c ****                 if (best_score_f >= pInput_static_param->conf_threshold)
 240:Lib/lib_vision_models_pp/lib_vision_models_pp/Src/od_pp_yolov8.c ****                 {
 241:Lib/lib_vision_models_pp/lib_vision_models_pp/Src/od_pp_yolov8.c ****                     pOutput->pOutBuff[pInput_static_param->nb_detect].x_center    = scale * (float3
 847              		.loc 1 241 38 view .LVU268
 848 0060 4FF01803 		mov	r3, #24
 849 0064 02F1010C 		add	ip, r2, #1
 850 0068 02DC     		bgt	.L69
 851 006a B2F1004F 		cmp	r2, #-2147483648
 852 006e 01D1     		bne	.L62
 853              	.L69:
 854 0070 4FF0010C 		mov	ip, #1
 855              	.LVL66:
 856              	.L62:
 236:Lib/lib_vision_models_pp/lib_vision_models_pp/Src/od_pp_yolov8.c ****                 best_score_f = scale * (float32_t)(best_score_array[_i] - zero_point);
 857              		.loc 1 236 33 is_stmt 1 discriminator 1 view .LVU269
 858 0074 BCF1010C 		subs	ip, ip, #1
 859 0078 40F09280 		bne	.L65
 860              	.LBE32:
 242:Lib/lib_vision_models_pp/lib_vision_models_pp/Src/od_pp_yolov8.c ****                     pOutput->pOutBuff[pInput_static_param->nb_detect].y_center    = scale * (float3
 243:Lib/lib_vision_models_pp/lib_vision_models_pp/Src/od_pp_yolov8.c ****                     pOutput->pOutBuff[pInput_static_param->nb_detect].width       = scale * (float3
 244:Lib/lib_vision_models_pp/lib_vision_models_pp/Src/od_pp_yolov8.c ****                     pOutput->pOutBuff[pInput_static_param->nb_detect].height      = scale * (float3
 245:Lib/lib_vision_models_pp/lib_vision_models_pp/Src/od_pp_yolov8.c ****                     pOutput->pOutBuff[pInput_static_param->nb_detect].conf        = best_score_f;
 246:Lib/lib_vision_models_pp/lib_vision_models_pp/Src/od_pp_yolov8.c ****                     pOutput->pOutBuff[pInput_static_param->nb_detect].class_index = class_index;
 247:Lib/lib_vision_models_pp/lib_vision_models_pp/Src/od_pp_yolov8.c ****                     pInput_static_param->nb_detect++;
 248:Lib/lib_vision_models_pp/lib_vision_models_pp/Src/od_pp_yolov8.c ****                 }
 249:Lib/lib_vision_models_pp/lib_vision_models_pp/Src/od_pp_yolov8.c ****             }
 250:Lib/lib_vision_models_pp/lib_vision_models_pp/Src/od_pp_yolov8.c ****             remaining_boxes-=16;
 861              		.loc 1 250 13 view .LVU270
 862              		.loc 1 250 28 is_stmt 0 view .LVU271
 863 007c A8F11008 		sub	r8, r8, #16
 864              	.LVL67:
 227:Lib/lib_vision_models_pp/lib_vision_models_pp/Src/od_pp_yolov8.c ****         {
 865              		.loc 1 227 50 is_stmt 1 discriminator 2 view .LVU272
 227:Lib/lib_vision_models_pp/lib_vision_models_pp/Src/od_pp_yolov8.c ****         {
 866              		.loc 1 227 50 is_stmt 0 discriminator 2 view .LVU273
 867 0080 09F11009 		add	r9, r9, #16
 868 0084 1037     		adds	r7, r7, #16
 869 0086 D7E7     		b	.L55
 870              	.LVL68:
ARM GAS  /tmp/cc6xfSVf.s 			page 24


 871              	.L54:
 227:Lib/lib_vision_models_pp/lib_vision_models_pp/Src/od_pp_yolov8.c ****         {
 872              		.loc 1 227 50 discriminator 2 view .LVU274
 873              	.LBE31:
 874              	.LBE30:
 196:Lib/lib_vision_models_pp/lib_vision_models_pp/Src/od_pp_yolov8.c ****     if (nb_classes < 256) {
 875              		.loc 1 196 77 view .LVU275
 876 0088 C7EE087A 		vdiv.f32	s15, s14, s16
 196:Lib/lib_vision_models_pp/lib_vision_models_pp/Src/od_pp_yolov8.c ****     if (nb_classes < 256) {
 877              		.loc 1 196 85 view .LVU276
 878 008c B6EE007A 		vmov.f32	s14, #5.0e-1
 879              	.LVL69:
 196:Lib/lib_vision_models_pp/lib_vision_models_pp/Src/od_pp_yolov8.c ****     if (nb_classes < 256) {
 880              		.loc 1 196 85 view .LVU277
 881 0090 77EE877A 		vadd.f32	s15, s15, s14
 196:Lib/lib_vision_models_pp/lib_vision_models_pp/Src/od_pp_yolov8.c ****     if (nb_classes < 256) {
 882              		.loc 1 196 32 view .LVU278
 883 0094 FDEEE77A 		vcvt.s32.f32	s15, s15
 884              	.LBB35:
 885              	.LBB36:
 886              	.LBB37:
 216:Lib/lib_vision_models_pp/lib_vision_models_pp/Src/od_pp_yolov8.c ****                   pOutput->pOutBuff[pInput_static_param->nb_detect].conf        = best_score_f;
 887              		.loc 1 216 160 view .LVU279
 888 0098 04EB4403 		add	r3, r4, r4, lsl #1
 889              	.LVL70:
 216:Lib/lib_vision_models_pp/lib_vision_models_pp/Src/od_pp_yolov8.c ****                   pOutput->pOutBuff[pInput_static_param->nb_detect].conf        = best_score_f;
 890              		.loc 1 216 160 view .LVU280
 891 009c 0593     		str	r3, [sp, #20]
 892              	.LBE37:
 893              	.LBE36:
 894              	.LBE35:
 196:Lib/lib_vision_models_pp/lib_vision_models_pp/Src/od_pp_yolov8.c ****     if (nb_classes < 256) {
 895              		.loc 1 196 32 view .LVU281
 896 009e 17EE903A 		vmov	r3, s15	@ int
 897              	.LBB43:
 898              	.LBB40:
 200:Lib/lib_vision_models_pp/lib_vision_models_pp/Src/od_pp_yolov8.c ****         {
 899              		.loc 1 200 22 view .LVU282
 900 00a2 9046     		mov	r8, r2
 901              	.LBE40:
 902              	.LBE43:
 196:Lib/lib_vision_models_pp/lib_vision_models_pp/Src/od_pp_yolov8.c ****     if (nb_classes < 256) {
 903              		.loc 1 196 93 view .LVU283
 904 00a4 3344     		add	r3, r3, r6
 196:Lib/lib_vision_models_pp/lib_vision_models_pp/Src/od_pp_yolov8.c ****     if (nb_classes < 256) {
 905              		.loc 1 196 12 view .LVU284
 906 00a6 5BB2     		sxtb	r3, r3
 907 00a8 0393     		str	r3, [sp, #12]
 908              	.LVL71:
 909              	.L56:
 910              	.LBB44:
 911              	.LBB41:
 200:Lib/lib_vision_models_pp/lib_vision_models_pp/Src/od_pp_yolov8.c ****         {
 912              		.loc 1 200 31 discriminator 1 view .LVU285
 913 00aa A045     		cmp	r8, r4
 914 00ac A4EB0809 		sub	r9, r4, r8
 915              	.LVL72:
ARM GAS  /tmp/cc6xfSVf.s 			page 25


 200:Lib/lib_vision_models_pp/lib_vision_models_pp/Src/od_pp_yolov8.c ****         {
 916              		.loc 1 200 31 is_stmt 1 discriminator 1 view .LVU286
 917 00b0 05DB     		blt	.L60
 918              	.LVL73:
 919              	.L61:
 200:Lib/lib_vision_models_pp/lib_vision_models_pp/Src/od_pp_yolov8.c ****         {
 920              		.loc 1 200 31 is_stmt 0 discriminator 1 view .LVU287
 921              	.LBE41:
 922              	.LBE44:
 251:Lib/lib_vision_models_pp/lib_vision_models_pp/Src/od_pp_yolov8.c ****         }
 252:Lib/lib_vision_models_pp/lib_vision_models_pp/Src/od_pp_yolov8.c **** 
 253:Lib/lib_vision_models_pp/lib_vision_models_pp/Src/od_pp_yolov8.c ****     }
 254:Lib/lib_vision_models_pp/lib_vision_models_pp/Src/od_pp_yolov8.c ****     return (error);
 923              		.loc 1 254 5 is_stmt 1 view .LVU288
 255:Lib/lib_vision_models_pp/lib_vision_models_pp/Src/od_pp_yolov8.c **** }
 924              		.loc 1 255 1 is_stmt 0 view .LVU289
 925 00b2 0020     		movs	r0, #0
 926 00b4 13B0     		add	sp, sp, #76
 927              		.cfi_remember_state
 928              		.cfi_def_cfa_offset 44
 929              		@ sp needed
 930 00b6 BDEC028B 		vldm	sp!, {d8}
 931              		.cfi_restore 80
 932              		.cfi_restore 81
 933              		.cfi_def_cfa_offset 36
 934              	.LVL74:
 935              		.loc 1 255 1 view .LVU290
 936 00ba BDE8F08F 		pop	{r4, r5, r6, r7, r8, r9, r10, fp, pc}
 937              	.LVL75:
 938              	.L60:
 939              		.cfi_restore_state
 940              	.LBB45:
 941              	.LBB42:
 202:Lib/lib_vision_models_pp/lib_vision_models_pp/Src/od_pp_yolov8.c ****                                           nb_classes,
 942              		.loc 1 202 13 is_stmt 1 view .LVU291
 943 00be 0AAB     		add	r3, sp, #40
 944 00c0 CDF80490 		str	r9, [sp, #4]
 945 00c4 0093     		str	r3, [sp]
 946 00c6 08EB0B00 		add	r0, r8, fp
 947 00ca 2246     		mov	r2, r4
 948 00cc 0299     		ldr	r1, [sp, #8]
 949 00ce 06AB     		add	r3, sp, #24
 950 00d0 FFF7FEFF 		bl	vision_models_maxi_tr_p_is8ou8
 951              	.LVL76:
 208:Lib/lib_vision_models_pp/lib_vision_models_pp/Src/od_pp_yolov8.c **** 
 952              		.loc 1 208 13 view .LVU292
 953              	.LBB38:
 208:Lib/lib_vision_models_pp/lib_vision_models_pp/Src/od_pp_yolov8.c **** 
 954              		.loc 1 208 18 view .LVU293
 208:Lib/lib_vision_models_pp/lib_vision_models_pp/Src/od_pp_yolov8.c **** 
 955              		.loc 1 208 59 is_stmt 0 discriminator 1 view .LVU294
 956 00d4 B9F1100F 		cmp	r9, #16
 957 00d8 A8BF     		it	ge
 958 00da 4FF01009 		movge	r9, #16
 959              	.LVL77:
 208:Lib/lib_vision_models_pp/lib_vision_models_pp/Src/od_pp_yolov8.c **** 
 960              		.loc 1 208 22 view .LVU295
ARM GAS  /tmp/cc6xfSVf.s 			page 26


 961 00de 4FF0000C 		mov	ip, #0
 962 00e2 CC45     		cmp	ip, r9
 963 00e4 07EB0800 		add	r0, r7, r8
 213:Lib/lib_vision_models_pp/lib_vision_models_pp/Src/od_pp_yolov8.c ****                   pOutput->pOutBuff[pInput_static_param->nb_detect].y_center    = scale * (float32_
 964              		.loc 1 213 36 view .LVU296
 965 00e8 09F1010E 		add	lr, r9, #1
 966 00ec 02DC     		bgt	.L68
 967 00ee B9F1004F 		cmp	r9, #-2147483648
 968 00f2 01D1     		bne	.L57
 969              	.L68:
 970 00f4 4FF0010E 		mov	lr, #1
 971              	.LVL78:
 972              	.L57:
 208:Lib/lib_vision_models_pp/lib_vision_models_pp/Src/od_pp_yolov8.c **** 
 973              		.loc 1 208 33 is_stmt 1 discriminator 1 view .LVU297
 974 00f8 BEF1010E 		subs	lr, lr, #1
 975 00fc 02D1     		bne	.L59
 976              	.LBE38:
 222:Lib/lib_vision_models_pp/lib_vision_models_pp/Src/od_pp_yolov8.c ****         }
 977              		.loc 1 222 13 view .LVU298
 978              	.LVL79:
 200:Lib/lib_vision_models_pp/lib_vision_models_pp/Src/od_pp_yolov8.c ****         {
 979              		.loc 1 200 50 discriminator 2 view .LVU299
 980 00fe 08F11008 		add	r8, r8, #16
 981              	.LVL80:
 200:Lib/lib_vision_models_pp/lib_vision_models_pp/Src/od_pp_yolov8.c ****         {
 982              		.loc 1 200 50 is_stmt 0 discriminator 2 view .LVU300
 983 0102 D2E7     		b	.L56
 984              	.LVL81:
 985              	.L59:
 986              	.LBB39:
 210:Lib/lib_vision_models_pp/lib_vision_models_pp/Src/od_pp_yolov8.c ****                   best_score_f = scale * (float32_t)(best_score_array[_i] - zero_point);
 987              		.loc 1 210 17 is_stmt 1 view .LVU301
 210:Lib/lib_vision_models_pp/lib_vision_models_pp/Src/od_pp_yolov8.c ****                   best_score_f = scale * (float32_t)(best_score_array[_i] - zero_point);
 988              		.loc 1 210 38 is_stmt 0 view .LVU302
 989 0104 06AB     		add	r3, sp, #24
 990 0106 13F90C20 		ldrsb	r2, [r3, ip]
 210:Lib/lib_vision_models_pp/lib_vision_models_pp/Src/od_pp_yolov8.c ****                   best_score_f = scale * (float32_t)(best_score_array[_i] - zero_point);
 991              		.loc 1 210 20 view .LVU303
 992 010a 039B     		ldr	r3, [sp, #12]
 993 010c 9A42     		cmp	r2, r3
 994 010e 43DB     		blt	.L58
 211:Lib/lib_vision_models_pp/lib_vision_models_pp/Src/od_pp_yolov8.c ****                   class_index = class_index_array[_i];
 995              		.loc 1 211 19 is_stmt 1 view .LVU304
 996              	.LVL82:
 212:Lib/lib_vision_models_pp/lib_vision_models_pp/Src/od_pp_yolov8.c ****                   pOutput->pOutBuff[pInput_static_param->nb_detect].x_center    = scale * (float32_
 997              		.loc 1 212 19 view .LVU305
 213:Lib/lib_vision_models_pp/lib_vision_models_pp/Src/od_pp_yolov8.c ****                   pOutput->pOutBuff[pInput_static_param->nb_detect].y_center    = scale * (float32_
 998              		.loc 1 213 36 is_stmt 0 view .LVU306
 999 0110 1821     		movs	r1, #24
 212:Lib/lib_vision_models_pp/lib_vision_models_pp/Src/od_pp_yolov8.c ****                   pOutput->pOutBuff[pInput_static_param->nb_detect].x_center    = scale * (float32_
 1000              		.loc 1 212 31 view .LVU307
 1001 0112 0AAB     		add	r3, sp, #40
 1002 0114 13F80C30 		ldrb	r3, [r3, ip]	@ zero_extendqisi2
 213:Lib/lib_vision_models_pp/lib_vision_models_pp/Src/od_pp_yolov8.c ****                   pOutput->pOutBuff[pInput_static_param->nb_detect].y_center    = scale * (float32_
 1003              		.loc 1 213 56 view .LVU308
 1004 0118 D5F81C90 		ldr	r9, [r5, #28]
ARM GAS  /tmp/cc6xfSVf.s 			page 27


 212:Lib/lib_vision_models_pp/lib_vision_models_pp/Src/od_pp_yolov8.c ****                   pOutput->pOutBuff[pInput_static_param->nb_detect].x_center    = scale * (float32_
 1005              		.loc 1 212 31 view .LVU309
 1006 011c 0493     		str	r3, [sp, #16]
 1007              	.LVL83:
 213:Lib/lib_vision_models_pp/lib_vision_models_pp/Src/od_pp_yolov8.c ****                   pOutput->pOutBuff[pInput_static_param->nb_detect].y_center    = scale * (float32_
 1008              		.loc 1 213 19 is_stmt 1 view .LVU310
 213:Lib/lib_vision_models_pp/lib_vision_models_pp/Src/od_pp_yolov8.c ****                   pOutput->pOutBuff[pInput_static_param->nb_detect].y_center    = scale * (float32_
 1009              		.loc 1 213 36 is_stmt 0 view .LVU311
 1010 011e DAF80030 		ldr	r3, [r10]
 1011              	.LVL84:
 211:Lib/lib_vision_models_pp/lib_vision_models_pp/Src/od_pp_yolov8.c ****                   class_index = class_index_array[_i];
 1012              		.loc 1 211 75 view .LVU312
 1013 0122 921B     		subs	r2, r2, r6
 1014              	.LVL85:
 213:Lib/lib_vision_models_pp/lib_vision_models_pp/Src/od_pp_yolov8.c ****                   pOutput->pOutBuff[pInput_static_param->nb_detect].y_center    = scale * (float32_
 1015              		.loc 1 213 36 view .LVU313
 1016 0124 01FB0933 		mla	r3, r1, r9, r3
 213:Lib/lib_vision_models_pp/lib_vision_models_pp/Src/od_pp_yolov8.c ****                   pOutput->pOutBuff[pInput_static_param->nb_detect].y_center    = scale * (float32_
 1017              		.loc 1 213 103 view .LVU314
 1018 0128 90F90010 		ldrsb	r1, [r0]
 213:Lib/lib_vision_models_pp/lib_vision_models_pp/Src/od_pp_yolov8.c ****                   pOutput->pOutBuff[pInput_static_param->nb_detect].y_center    = scale * (float32_
 1019              		.loc 1 213 178 view .LVU315
 1020 012c 891B     		subs	r1, r1, r6
 1021 012e 07EE901A 		vmov	s15, r1	@ int
 213:Lib/lib_vision_models_pp/lib_vision_models_pp/Src/od_pp_yolov8.c ****                   pOutput->pOutBuff[pInput_static_param->nb_detect].y_center    = scale * (float32_
 1022              		.loc 1 213 91 view .LVU316
 1023 0132 F8EEE77A 		vcvt.f32.s32	s15, s15
 213:Lib/lib_vision_models_pp/lib_vision_models_pp/Src/od_pp_yolov8.c ****                   pOutput->pOutBuff[pInput_static_param->nb_detect].y_center    = scale * (float32_
 1024              		.loc 1 213 89 view .LVU317
 1025 0136 67EE887A 		vmul.f32	s15, s15, s16
 213:Lib/lib_vision_models_pp/lib_vision_models_pp/Src/od_pp_yolov8.c ****                   pOutput->pOutBuff[pInput_static_param->nb_detect].y_center    = scale * (float32_
 1026              		.loc 1 213 81 view .LVU318
 1027 013a C3ED007A 		vstr.32	s15, [r3]
 1028              	.LVL86:
 214:Lib/lib_vision_models_pp/lib_vision_models_pp/Src/od_pp_yolov8.c ****                   pOutput->pOutBuff[pInput_static_param->nb_detect].width       = scale * (float32_
 1029              		.loc 1 214 19 is_stmt 1 view .LVU319
 214:Lib/lib_vision_models_pp/lib_vision_models_pp/Src/od_pp_yolov8.c ****                   pOutput->pOutBuff[pInput_static_param->nb_detect].width       = scale * (float32_
 1030              		.loc 1 214 103 is_stmt 0 view .LVU320
 1031 013e 0157     		ldrsb	r1, [r0, r4]
 214:Lib/lib_vision_models_pp/lib_vision_models_pp/Src/od_pp_yolov8.c ****                   pOutput->pOutBuff[pInput_static_param->nb_detect].width       = scale * (float32_
 1032              		.loc 1 214 178 view .LVU321
 1033 0140 891B     		subs	r1, r1, r6
 1034 0142 07EE901A 		vmov	s15, r1	@ int
 214:Lib/lib_vision_models_pp/lib_vision_models_pp/Src/od_pp_yolov8.c ****                   pOutput->pOutBuff[pInput_static_param->nb_detect].width       = scale * (float32_
 1035              		.loc 1 214 91 view .LVU322
 1036 0146 F8EEE77A 		vcvt.f32.s32	s15, s15
 214:Lib/lib_vision_models_pp/lib_vision_models_pp/Src/od_pp_yolov8.c ****                   pOutput->pOutBuff[pInput_static_param->nb_detect].width       = scale * (float32_
 1037              		.loc 1 214 89 view .LVU323
 1038 014a 67EE887A 		vmul.f32	s15, s15, s16
 214:Lib/lib_vision_models_pp/lib_vision_models_pp/Src/od_pp_yolov8.c ****                   pOutput->pOutBuff[pInput_static_param->nb_detect].width       = scale * (float32_
 1039              		.loc 1 214 81 view .LVU324
 1040 014e C3ED017A 		vstr.32	s15, [r3, #4]
 215:Lib/lib_vision_models_pp/lib_vision_models_pp/Src/od_pp_yolov8.c ****                   pOutput->pOutBuff[pInput_static_param->nb_detect].height      = scale * (float32_
 1041              		.loc 1 215 19 is_stmt 1 view .LVU325
 215:Lib/lib_vision_models_pp/lib_vision_models_pp/Src/od_pp_yolov8.c ****                   pOutput->pOutBuff[pInput_static_param->nb_detect].height      = scale * (float32_
 1042              		.loc 1 215 103 is_stmt 0 view .LVU326
 1043 0152 10F91410 		ldrsb	r1, [r0, r4, lsl #1]
ARM GAS  /tmp/cc6xfSVf.s 			page 28


 215:Lib/lib_vision_models_pp/lib_vision_models_pp/Src/od_pp_yolov8.c ****                   pOutput->pOutBuff[pInput_static_param->nb_detect].height      = scale * (float32_
 1044              		.loc 1 215 178 view .LVU327
 1045 0156 891B     		subs	r1, r1, r6
 1046 0158 07EE901A 		vmov	s15, r1	@ int
 215:Lib/lib_vision_models_pp/lib_vision_models_pp/Src/od_pp_yolov8.c ****                   pOutput->pOutBuff[pInput_static_param->nb_detect].height      = scale * (float32_
 1047              		.loc 1 215 91 view .LVU328
 1048 015c F8EEE77A 		vcvt.f32.s32	s15, s15
 215:Lib/lib_vision_models_pp/lib_vision_models_pp/Src/od_pp_yolov8.c ****                   pOutput->pOutBuff[pInput_static_param->nb_detect].height      = scale * (float32_
 1049              		.loc 1 215 89 view .LVU329
 1050 0160 67EE887A 		vmul.f32	s15, s15, s16
 215:Lib/lib_vision_models_pp/lib_vision_models_pp/Src/od_pp_yolov8.c ****                   pOutput->pOutBuff[pInput_static_param->nb_detect].height      = scale * (float32_
 1051              		.loc 1 215 81 view .LVU330
 1052 0164 C3ED027A 		vstr.32	s15, [r3, #8]
 216:Lib/lib_vision_models_pp/lib_vision_models_pp/Src/od_pp_yolov8.c ****                   pOutput->pOutBuff[pInput_static_param->nb_detect].conf        = best_score_f;
 1053              		.loc 1 216 19 is_stmt 1 view .LVU331
 216:Lib/lib_vision_models_pp/lib_vision_models_pp/Src/od_pp_yolov8.c ****                   pOutput->pOutBuff[pInput_static_param->nb_detect].conf        = best_score_f;
 1054              		.loc 1 216 103 is_stmt 0 view .LVU332
 1055 0168 0599     		ldr	r1, [sp, #20]
 1056 016a 4156     		ldrsb	r1, [r0, r1]
 216:Lib/lib_vision_models_pp/lib_vision_models_pp/Src/od_pp_yolov8.c ****                   pOutput->pOutBuff[pInput_static_param->nb_detect].conf        = best_score_f;
 1057              		.loc 1 216 178 view .LVU333
 1058 016c 891B     		subs	r1, r1, r6
 1059 016e 07EE901A 		vmov	s15, r1	@ int
 216:Lib/lib_vision_models_pp/lib_vision_models_pp/Src/od_pp_yolov8.c ****                   pOutput->pOutBuff[pInput_static_param->nb_detect].conf        = best_score_f;
 1060              		.loc 1 216 91 view .LVU334
 1061 0172 F8EEE77A 		vcvt.f32.s32	s15, s15
 216:Lib/lib_vision_models_pp/lib_vision_models_pp/Src/od_pp_yolov8.c ****                   pOutput->pOutBuff[pInput_static_param->nb_detect].conf        = best_score_f;
 1062              		.loc 1 216 89 view .LVU335
 1063 0176 67EE887A 		vmul.f32	s15, s15, s16
 216:Lib/lib_vision_models_pp/lib_vision_models_pp/Src/od_pp_yolov8.c ****                   pOutput->pOutBuff[pInput_static_param->nb_detect].conf        = best_score_f;
 1064              		.loc 1 216 81 view .LVU336
 1065 017a C3ED037A 		vstr.32	s15, [r3, #12]
 217:Lib/lib_vision_models_pp/lib_vision_models_pp/Src/od_pp_yolov8.c ****                   pOutput->pOutBuff[pInput_static_param->nb_detect].class_index = class_index;
 1066              		.loc 1 217 19 is_stmt 1 view .LVU337
 211:Lib/lib_vision_models_pp/lib_vision_models_pp/Src/od_pp_yolov8.c ****                   class_index = class_index_array[_i];
 1067              		.loc 1 211 75 is_stmt 0 view .LVU338
 1068 017e 07EE902A 		vmov	s15, r2	@ int
 211:Lib/lib_vision_models_pp/lib_vision_models_pp/Src/od_pp_yolov8.c ****                   class_index = class_index_array[_i];
 1069              		.loc 1 211 42 view .LVU339
 1070 0182 F8EEE77A 		vcvt.f32.s32	s15, s15
 211:Lib/lib_vision_models_pp/lib_vision_models_pp/Src/od_pp_yolov8.c ****                   class_index = class_index_array[_i];
 1071              		.loc 1 211 32 view .LVU340
 1072 0186 67EE887A 		vmul.f32	s15, s15, s16
 218:Lib/lib_vision_models_pp/lib_vision_models_pp/Src/od_pp_yolov8.c ****                   pInput_static_param->nb_detect++;
 1073              		.loc 1 218 81 view .LVU341
 1074 018a 049A     		ldr	r2, [sp, #16]
 217:Lib/lib_vision_models_pp/lib_vision_models_pp/Src/od_pp_yolov8.c ****                   pOutput->pOutBuff[pInput_static_param->nb_detect].class_index = class_index;
 1075              		.loc 1 217 81 view .LVU342
 1076 018c C3ED047A 		vstr.32	s15, [r3, #16]
 218:Lib/lib_vision_models_pp/lib_vision_models_pp/Src/od_pp_yolov8.c ****                   pInput_static_param->nb_detect++;
 1077              		.loc 1 218 19 is_stmt 1 view .LVU343
 218:Lib/lib_vision_models_pp/lib_vision_models_pp/Src/od_pp_yolov8.c ****                   pInput_static_param->nb_detect++;
 1078              		.loc 1 218 81 is_stmt 0 view .LVU344
 1079 0190 5A61     		str	r2, [r3, #20]
 219:Lib/lib_vision_models_pp/lib_vision_models_pp/Src/od_pp_yolov8.c ****                 }
 1080              		.loc 1 219 19 is_stmt 1 view .LVU345
 219:Lib/lib_vision_models_pp/lib_vision_models_pp/Src/od_pp_yolov8.c ****                 }
ARM GAS  /tmp/cc6xfSVf.s 			page 29


 1081              		.loc 1 219 49 is_stmt 0 view .LVU346
 1082 0192 09F10103 		add	r3, r9, #1
 1083 0196 EB61     		str	r3, [r5, #28]
 1084              	.LVL87:
 1085              	.L58:
 208:Lib/lib_vision_models_pp/lib_vision_models_pp/Src/od_pp_yolov8.c **** 
 1086              		.loc 1 208 80 is_stmt 1 discriminator 2 view .LVU347
 1087 0198 0CF1010C 		add	ip, ip, #1
 1088              	.LVL88:
 208:Lib/lib_vision_models_pp/lib_vision_models_pp/Src/od_pp_yolov8.c **** 
 1089              		.loc 1 208 80 is_stmt 0 discriminator 2 view .LVU348
 1090 019c 0130     		adds	r0, r0, #1
 1091 019e ABE7     		b	.L57
 1092              	.LVL89:
 1093              	.L65:
 208:Lib/lib_vision_models_pp/lib_vision_models_pp/Src/od_pp_yolov8.c **** 
 1094              		.loc 1 208 80 discriminator 2 view .LVU349
 1095              	.LBE39:
 1096              	.LBE42:
 1097              	.LBE45:
 1098              	.LBB46:
 1099              	.LBB34:
 1100              	.LBB33:
 237:Lib/lib_vision_models_pp/lib_vision_models_pp/Src/od_pp_yolov8.c ****                 class_index = class_index_array[_i];
 1101              		.loc 1 237 17 is_stmt 1 view .LVU350
 237:Lib/lib_vision_models_pp/lib_vision_models_pp/Src/od_pp_yolov8.c ****                 class_index = class_index_array[_i];
 1102              		.loc 1 237 68 is_stmt 0 view .LVU351
 1103 01a0 06AA     		add	r2, sp, #24
 1104 01a2 1256     		ldrsb	r2, [r2, r0]
 239:Lib/lib_vision_models_pp/lib_vision_models_pp/Src/od_pp_yolov8.c ****                 {
 1105              		.loc 1 239 20 view .LVU352
 1106 01a4 95ED037A 		vldr.32	s14, [r5, #12]
 237:Lib/lib_vision_models_pp/lib_vision_models_pp/Src/od_pp_yolov8.c ****                 class_index = class_index_array[_i];
 1107              		.loc 1 237 73 view .LVU353
 1108 01a8 921B     		subs	r2, r2, r6
 1109 01aa 07EE902A 		vmov	s15, r2	@ int
 237:Lib/lib_vision_models_pp/lib_vision_models_pp/Src/od_pp_yolov8.c ****                 class_index = class_index_array[_i];
 1110              		.loc 1 237 40 view .LVU354
 1111 01ae F8EEE77A 		vcvt.f32.s32	s15, s15
 237:Lib/lib_vision_models_pp/lib_vision_models_pp/Src/od_pp_yolov8.c ****                 class_index = class_index_array[_i];
 1112              		.loc 1 237 30 view .LVU355
 1113 01b2 67EE887A 		vmul.f32	s15, s15, s16
 1114              	.LVL90:
 238:Lib/lib_vision_models_pp/lib_vision_models_pp/Src/od_pp_yolov8.c ****                 if (best_score_f >= pInput_static_param->conf_threshold)
 1115              		.loc 1 238 17 is_stmt 1 view .LVU356
 239:Lib/lib_vision_models_pp/lib_vision_models_pp/Src/od_pp_yolov8.c ****                 {
 1116              		.loc 1 239 17 view .LVU357
 239:Lib/lib_vision_models_pp/lib_vision_models_pp/Src/od_pp_yolov8.c ****                 {
 1117              		.loc 1 239 20 is_stmt 0 view .LVU358
 1118 01b6 B4EEE77A 		vcmpe.f32	s14, s15
 1119 01ba F1EE10FA 		vmrs	APSR_nzcv, FPSCR
 1120 01be 3BD8     		bhi	.L63
 241:Lib/lib_vision_models_pp/lib_vision_models_pp/Src/od_pp_yolov8.c ****                     pOutput->pOutBuff[pInput_static_param->nb_detect].y_center    = scale * (float3
 1121              		.loc 1 241 105 view .LVU359
 1122 01c0 17F90B10 		ldrsb	r1, [r7, fp]
 238:Lib/lib_vision_models_pp/lib_vision_models_pp/Src/od_pp_yolov8.c ****                 if (best_score_f >= pInput_static_param->conf_threshold)
 1123              		.loc 1 238 48 view .LVU360
ARM GAS  /tmp/cc6xfSVf.s 			page 30


 1124 01c4 0AAA     		add	r2, sp, #40
 241:Lib/lib_vision_models_pp/lib_vision_models_pp/Src/od_pp_yolov8.c ****                     pOutput->pOutBuff[pInput_static_param->nb_detect].y_center    = scale * (float3
 1125              		.loc 1 241 175 view .LVU361
 1126 01c6 891B     		subs	r1, r1, r6
 1127 01c8 07EE101A 		vmov	s14, r1	@ int
 241:Lib/lib_vision_models_pp/lib_vision_models_pp/Src/od_pp_yolov8.c ****                     pOutput->pOutBuff[pInput_static_param->nb_detect].y_center    = scale * (float3
 1128              		.loc 1 241 93 view .LVU362
 1129 01cc B8EEC77A 		vcvt.f32.s32	s14, s14
 241:Lib/lib_vision_models_pp/lib_vision_models_pp/Src/od_pp_yolov8.c ****                     pOutput->pOutBuff[pInput_static_param->nb_detect].y_center    = scale * (float3
 1130              		.loc 1 241 91 view .LVU363
 1131 01d0 27EE087A 		vmul.f32	s14, s14, s16
 238:Lib/lib_vision_models_pp/lib_vision_models_pp/Src/od_pp_yolov8.c ****                 if (best_score_f >= pInput_static_param->conf_threshold)
 1132              		.loc 1 238 48 view .LVU364
 1133 01d4 32F81020 		ldrh	r2, [r2, r0, lsl #1]
 241:Lib/lib_vision_models_pp/lib_vision_models_pp/Src/od_pp_yolov8.c ****                     pOutput->pOutBuff[pInput_static_param->nb_detect].y_center    = scale * (float3
 1134              		.loc 1 241 58 view .LVU365
 1135 01d8 D5F81CE0 		ldr	lr, [r5, #28]
 238:Lib/lib_vision_models_pp/lib_vision_models_pp/Src/od_pp_yolov8.c ****                 if (best_score_f >= pInput_static_param->conf_threshold)
 1136              		.loc 1 238 48 view .LVU366
 1137 01dc 0392     		str	r2, [sp, #12]
 241:Lib/lib_vision_models_pp/lib_vision_models_pp/Src/od_pp_yolov8.c ****                     pOutput->pOutBuff[pInput_static_param->nb_detect].y_center    = scale * (float3
 1138              		.loc 1 241 21 is_stmt 1 view .LVU367
 241:Lib/lib_vision_models_pp/lib_vision_models_pp/Src/od_pp_yolov8.c ****                     pOutput->pOutBuff[pInput_static_param->nb_detect].y_center    = scale * (float3
 1139              		.loc 1 241 38 is_stmt 0 view .LVU368
 1140 01de DAF80020 		ldr	r2, [r10]
 1141 01e2 03FB0E22 		mla	r2, r3, lr, r2
 241:Lib/lib_vision_models_pp/lib_vision_models_pp/Src/od_pp_yolov8.c ****                     pOutput->pOutBuff[pInput_static_param->nb_detect].y_center    = scale * (float3
 1142              		.loc 1 241 83 view .LVU369
 1143 01e6 82ED007A 		vstr.32	s14, [r2]
 242:Lib/lib_vision_models_pp/lib_vision_models_pp/Src/od_pp_yolov8.c ****                     pOutput->pOutBuff[pInput_static_param->nb_detect].width       = scale * (float3
 1144              		.loc 1 242 21 is_stmt 1 view .LVU370
 242:Lib/lib_vision_models_pp/lib_vision_models_pp/Src/od_pp_yolov8.c ****                     pOutput->pOutBuff[pInput_static_param->nb_detect].width       = scale * (float3
 1145              		.loc 1 242 105 is_stmt 0 view .LVU371
 1146 01ea 97F90010 		ldrsb	r1, [r7]
 242:Lib/lib_vision_models_pp/lib_vision_models_pp/Src/od_pp_yolov8.c ****                     pOutput->pOutBuff[pInput_static_param->nb_detect].width       = scale * (float3
 1147              		.loc 1 242 175 view .LVU372
 1148 01ee 891B     		subs	r1, r1, r6
 1149 01f0 07EE101A 		vmov	s14, r1	@ int
 242:Lib/lib_vision_models_pp/lib_vision_models_pp/Src/od_pp_yolov8.c ****                     pOutput->pOutBuff[pInput_static_param->nb_detect].width       = scale * (float3
 1150              		.loc 1 242 93 view .LVU373
 1151 01f4 B8EEC77A 		vcvt.f32.s32	s14, s14
 242:Lib/lib_vision_models_pp/lib_vision_models_pp/Src/od_pp_yolov8.c ****                     pOutput->pOutBuff[pInput_static_param->nb_detect].width       = scale * (float3
 1152              		.loc 1 242 91 view .LVU374
 1153 01f8 27EE087A 		vmul.f32	s14, s14, s16
 242:Lib/lib_vision_models_pp/lib_vision_models_pp/Src/od_pp_yolov8.c ****                     pOutput->pOutBuff[pInput_static_param->nb_detect].width       = scale * (float3
 1154              		.loc 1 242 83 view .LVU375
 1155 01fc 82ED017A 		vstr.32	s14, [r2, #4]
 243:Lib/lib_vision_models_pp/lib_vision_models_pp/Src/od_pp_yolov8.c ****                     pOutput->pOutBuff[pInput_static_param->nb_detect].height      = scale * (float3
 1156              		.loc 1 243 21 is_stmt 1 view .LVU376
 243:Lib/lib_vision_models_pp/lib_vision_models_pp/Src/od_pp_yolov8.c ****                     pOutput->pOutBuff[pInput_static_param->nb_detect].height      = scale * (float3
 1157              		.loc 1 243 105 is_stmt 0 view .LVU377
 1158 0200 3957     		ldrsb	r1, [r7, r4]
 243:Lib/lib_vision_models_pp/lib_vision_models_pp/Src/od_pp_yolov8.c ****                     pOutput->pOutBuff[pInput_static_param->nb_detect].height      = scale * (float3
 1159              		.loc 1 243 175 view .LVU378
 1160 0202 891B     		subs	r1, r1, r6
 1161 0204 07EE101A 		vmov	s14, r1	@ int
 243:Lib/lib_vision_models_pp/lib_vision_models_pp/Src/od_pp_yolov8.c ****                     pOutput->pOutBuff[pInput_static_param->nb_detect].height      = scale * (float3
ARM GAS  /tmp/cc6xfSVf.s 			page 31


 1162              		.loc 1 243 93 view .LVU379
 1163 0208 B8EEC77A 		vcvt.f32.s32	s14, s14
 243:Lib/lib_vision_models_pp/lib_vision_models_pp/Src/od_pp_yolov8.c ****                     pOutput->pOutBuff[pInput_static_param->nb_detect].height      = scale * (float3
 1164              		.loc 1 243 91 view .LVU380
 1165 020c 27EE087A 		vmul.f32	s14, s14, s16
 243:Lib/lib_vision_models_pp/lib_vision_models_pp/Src/od_pp_yolov8.c ****                     pOutput->pOutBuff[pInput_static_param->nb_detect].height      = scale * (float3
 1166              		.loc 1 243 83 view .LVU381
 1167 0210 82ED027A 		vstr.32	s14, [r2, #8]
 244:Lib/lib_vision_models_pp/lib_vision_models_pp/Src/od_pp_yolov8.c ****                     pOutput->pOutBuff[pInput_static_param->nb_detect].conf        = best_score_f;
 1168              		.loc 1 244 21 is_stmt 1 view .LVU382
 244:Lib/lib_vision_models_pp/lib_vision_models_pp/Src/od_pp_yolov8.c ****                     pOutput->pOutBuff[pInput_static_param->nb_detect].conf        = best_score_f;
 1169              		.loc 1 244 105 is_stmt 0 view .LVU383
 1170 0214 19F90B10 		ldrsb	r1, [r9, fp]
 245:Lib/lib_vision_models_pp/lib_vision_models_pp/Src/od_pp_yolov8.c ****                     pOutput->pOutBuff[pInput_static_param->nb_detect].class_index = class_index;
 1171              		.loc 1 245 83 view .LVU384
 1172 0218 C2ED047A 		vstr.32	s15, [r2, #16]
 244:Lib/lib_vision_models_pp/lib_vision_models_pp/Src/od_pp_yolov8.c ****                     pOutput->pOutBuff[pInput_static_param->nb_detect].conf        = best_score_f;
 1173              		.loc 1 244 175 view .LVU385
 1174 021c 891B     		subs	r1, r1, r6
 1175 021e 07EE101A 		vmov	s14, r1	@ int
 244:Lib/lib_vision_models_pp/lib_vision_models_pp/Src/od_pp_yolov8.c ****                     pOutput->pOutBuff[pInput_static_param->nb_detect].conf        = best_score_f;
 1176              		.loc 1 244 93 view .LVU386
 1177 0222 B8EEC77A 		vcvt.f32.s32	s14, s14
 244:Lib/lib_vision_models_pp/lib_vision_models_pp/Src/od_pp_yolov8.c ****                     pOutput->pOutBuff[pInput_static_param->nb_detect].conf        = best_score_f;
 1178              		.loc 1 244 91 view .LVU387
 1179 0226 27EE087A 		vmul.f32	s14, s14, s16
 238:Lib/lib_vision_models_pp/lib_vision_models_pp/Src/od_pp_yolov8.c ****                 if (best_score_f >= pInput_static_param->conf_threshold)
 1180              		.loc 1 238 29 view .LVU388
 1181 022a 0399     		ldr	r1, [sp, #12]
 244:Lib/lib_vision_models_pp/lib_vision_models_pp/Src/od_pp_yolov8.c ****                     pOutput->pOutBuff[pInput_static_param->nb_detect].conf        = best_score_f;
 1182              		.loc 1 244 83 view .LVU389
 1183 022c 82ED037A 		vstr.32	s14, [r2, #12]
 245:Lib/lib_vision_models_pp/lib_vision_models_pp/Src/od_pp_yolov8.c ****                     pOutput->pOutBuff[pInput_static_param->nb_detect].class_index = class_index;
 1184              		.loc 1 245 21 is_stmt 1 view .LVU390
 246:Lib/lib_vision_models_pp/lib_vision_models_pp/Src/od_pp_yolov8.c ****                     pInput_static_param->nb_detect++;
 1185              		.loc 1 246 21 view .LVU391
 238:Lib/lib_vision_models_pp/lib_vision_models_pp/Src/od_pp_yolov8.c ****                 if (best_score_f >= pInput_static_param->conf_threshold)
 1186              		.loc 1 238 29 is_stmt 0 view .LVU392
 1187 0230 5161     		str	r1, [r2, #20]
 247:Lib/lib_vision_models_pp/lib_vision_models_pp/Src/od_pp_yolov8.c ****                 }
 1188              		.loc 1 247 21 is_stmt 1 view .LVU393
 247:Lib/lib_vision_models_pp/lib_vision_models_pp/Src/od_pp_yolov8.c ****                 }
 1189              		.loc 1 247 51 is_stmt 0 view .LVU394
 1190 0232 0EF10102 		add	r2, lr, #1
 1191 0236 EA61     		str	r2, [r5, #28]
 1192              	.L63:
 236:Lib/lib_vision_models_pp/lib_vision_models_pp/Src/od_pp_yolov8.c ****                 best_score_f = scale * (float32_t)(best_score_array[_i] - zero_point);
 1193              		.loc 1 236 80 is_stmt 1 discriminator 2 view .LVU395
 1194 0238 0130     		adds	r0, r0, #1
 1195              	.LVL91:
 236:Lib/lib_vision_models_pp/lib_vision_models_pp/Src/od_pp_yolov8.c ****                 best_score_f = scale * (float32_t)(best_score_array[_i] - zero_point);
 1196              		.loc 1 236 80 is_stmt 0 discriminator 2 view .LVU396
 1197 023a 1BE7     		b	.L62
 1198              	.LBE33:
 1199              	.LBE34:
 1200              	.LBE46:
 1201              		.cfi_endproc
ARM GAS  /tmp/cc6xfSVf.s 			page 32


 1202              	.LFE2649:
 1204              		.section	.text.od_yolov8_pp_reset,"ax",%progbits
 1205              		.align	1
 1206              		.global	od_yolov8_pp_reset
 1207              		.syntax unified
 1208              		.thumb
 1209              		.thumb_func
 1211              	od_yolov8_pp_reset:
 1212              	.LVL92:
 1213              	.LFB2650:
 256:Lib/lib_vision_models_pp/lib_vision_models_pp/Src/od_pp_yolov8.c **** 
 257:Lib/lib_vision_models_pp/lib_vision_models_pp/Src/od_pp_yolov8.c **** 
 258:Lib/lib_vision_models_pp/lib_vision_models_pp/Src/od_pp_yolov8.c **** /* ----------------------       Exported routines      ---------------------- */
 259:Lib/lib_vision_models_pp/lib_vision_models_pp/Src/od_pp_yolov8.c **** 
 260:Lib/lib_vision_models_pp/lib_vision_models_pp/Src/od_pp_yolov8.c **** int32_t od_yolov8_pp_reset(yolov8_pp_static_param_t *pInput_static_param)
 261:Lib/lib_vision_models_pp/lib_vision_models_pp/Src/od_pp_yolov8.c **** {
 1214              		.loc 1 261 1 is_stmt 1 view -0
 1215              		.cfi_startproc
 1216              		@ args = 0, pretend = 0, frame = 0
 1217              		@ frame_needed = 0, uses_anonymous_args = 0
 1218              		@ link register save eliminated.
 262:Lib/lib_vision_models_pp/lib_vision_models_pp/Src/od_pp_yolov8.c ****     /* Initializations */
 263:Lib/lib_vision_models_pp/lib_vision_models_pp/Src/od_pp_yolov8.c ****     pInput_static_param->nb_detect = 0;
 1219              		.loc 1 263 5 view .LVU398
 261:Lib/lib_vision_models_pp/lib_vision_models_pp/Src/od_pp_yolov8.c ****     /* Initializations */
 1220              		.loc 1 261 1 is_stmt 0 view .LVU399
 1221 0000 0346     		mov	r3, r0
 1222              		.loc 1 263 36 view .LVU400
 1223 0002 0020     		movs	r0, #0
 1224              	.LVL93:
 1225              		.loc 1 263 36 view .LVU401
 1226 0004 D861     		str	r0, [r3, #28]
 264:Lib/lib_vision_models_pp/lib_vision_models_pp/Src/od_pp_yolov8.c **** 
 265:Lib/lib_vision_models_pp/lib_vision_models_pp/Src/od_pp_yolov8.c ****     return (AI_OD_POSTPROCESS_ERROR_NO);
 1227              		.loc 1 265 5 is_stmt 1 view .LVU402
 266:Lib/lib_vision_models_pp/lib_vision_models_pp/Src/od_pp_yolov8.c **** }
 1228              		.loc 1 266 1 is_stmt 0 view .LVU403
 1229 0006 7047     		bx	lr
 1230              		.cfi_endproc
 1231              	.LFE2650:
 1233              		.section	.text.od_yolov8_pp_process,"ax",%progbits
 1234              		.align	1
 1235              		.global	od_yolov8_pp_process
 1236              		.syntax unified
 1237              		.thumb
 1238              		.thumb_func
 1240              	od_yolov8_pp_process:
 1241              	.LVL94:
 1242              	.LFB2651:
 267:Lib/lib_vision_models_pp/lib_vision_models_pp/Src/od_pp_yolov8.c **** 
 268:Lib/lib_vision_models_pp/lib_vision_models_pp/Src/od_pp_yolov8.c **** 
 269:Lib/lib_vision_models_pp/lib_vision_models_pp/Src/od_pp_yolov8.c **** int32_t od_yolov8_pp_process(yolov8_pp_in_centroid_t *pInput,
 270:Lib/lib_vision_models_pp/lib_vision_models_pp/Src/od_pp_yolov8.c ****                                     od_pp_out_t *pOutput,
 271:Lib/lib_vision_models_pp/lib_vision_models_pp/Src/od_pp_yolov8.c ****                                     yolov8_pp_static_param_t *pInput_static_param)
 272:Lib/lib_vision_models_pp/lib_vision_models_pp/Src/od_pp_yolov8.c **** {
 1243              		.loc 1 272 1 is_stmt 1 view -0
 1244              		.cfi_startproc
ARM GAS  /tmp/cc6xfSVf.s 			page 33


 1245              		@ args = 0, pretend = 0, frame = 0
 1246              		@ frame_needed = 0, uses_anonymous_args = 0
 273:Lib/lib_vision_models_pp/lib_vision_models_pp/Src/od_pp_yolov8.c ****     int32_t error   = AI_OD_POSTPROCESS_ERROR_NO;
 1247              		.loc 1 273 5 view .LVU405
 274:Lib/lib_vision_models_pp/lib_vision_models_pp/Src/od_pp_yolov8.c **** 
 275:Lib/lib_vision_models_pp/lib_vision_models_pp/Src/od_pp_yolov8.c ****     /* Call Get NN boxes first */
 276:Lib/lib_vision_models_pp/lib_vision_models_pp/Src/od_pp_yolov8.c ****     error = yolov8_pp_getNNBoxes_centroid(pInput,
 1248              		.loc 1 276 5 view .LVU406
 272:Lib/lib_vision_models_pp/lib_vision_models_pp/Src/od_pp_yolov8.c ****     int32_t error   = AI_OD_POSTPROCESS_ERROR_NO;
 1249              		.loc 1 272 1 is_stmt 0 view .LVU407
 1250 0000 38B5     		push	{r3, r4, r5, lr}
 1251              		.cfi_def_cfa_offset 16
 1252              		.cfi_offset 3, -16
 1253              		.cfi_offset 4, -12
 1254              		.cfi_offset 5, -8
 1255              		.cfi_offset 14, -4
 272:Lib/lib_vision_models_pp/lib_vision_models_pp/Src/od_pp_yolov8.c ****     int32_t error   = AI_OD_POSTPROCESS_ERROR_NO;
 1256              		.loc 1 272 1 view .LVU408
 1257 0002 0C46     		mov	r4, r1
 1258 0004 1546     		mov	r5, r2
 1259              		.loc 1 276 13 view .LVU409
 1260 0006 FFF7FEFF 		bl	yolov8_pp_getNNBoxes_centroid
 1261              	.LVL95:
 277:Lib/lib_vision_models_pp/lib_vision_models_pp/Src/od_pp_yolov8.c ****                                           pOutput,
 278:Lib/lib_vision_models_pp/lib_vision_models_pp/Src/od_pp_yolov8.c ****                                           pInput_static_param);
 279:Lib/lib_vision_models_pp/lib_vision_models_pp/Src/od_pp_yolov8.c ****     if (error != AI_OD_POSTPROCESS_ERROR_NO) return (error);
 1262              		.loc 1 279 5 is_stmt 1 view .LVU410
 1263              		.loc 1 279 8 is_stmt 0 view .LVU411
 1264 000a 50B9     		cbnz	r0, .L73
 280:Lib/lib_vision_models_pp/lib_vision_models_pp/Src/od_pp_yolov8.c **** 
 281:Lib/lib_vision_models_pp/lib_vision_models_pp/Src/od_pp_yolov8.c ****     /* Then NMS */
 282:Lib/lib_vision_models_pp/lib_vision_models_pp/Src/od_pp_yolov8.c ****     error = yolov8_pp_nmsFiltering_centroid(pOutput,
 1265              		.loc 1 282 5 is_stmt 1 view .LVU412
 1266              		.loc 1 282 13 is_stmt 0 view .LVU413
 1267 000c 2946     		mov	r1, r5
 1268 000e 2046     		mov	r0, r4
 1269              	.LVL96:
 1270              		.loc 1 282 13 view .LVU414
 1271 0010 FFF7FEFF 		bl	yolov8_pp_nmsFiltering_centroid
 1272              	.LVL97:
 283:Lib/lib_vision_models_pp/lib_vision_models_pp/Src/od_pp_yolov8.c ****                                             pInput_static_param);
 284:Lib/lib_vision_models_pp/lib_vision_models_pp/Src/od_pp_yolov8.c ****     if (error != AI_OD_POSTPROCESS_ERROR_NO) return (error);
 1273              		.loc 1 284 5 is_stmt 1 view .LVU415
 1274              		.loc 1 284 8 is_stmt 0 view .LVU416
 1275 0014 28B9     		cbnz	r0, .L73
 285:Lib/lib_vision_models_pp/lib_vision_models_pp/Src/od_pp_yolov8.c **** 
 286:Lib/lib_vision_models_pp/lib_vision_models_pp/Src/od_pp_yolov8.c ****     /* And score re-filtering */
 287:Lib/lib_vision_models_pp/lib_vision_models_pp/Src/od_pp_yolov8.c ****     error = yolov8_pp_scoreFiltering_centroid(pOutput,
 1276              		.loc 1 287 5 is_stmt 1 view .LVU417
 1277              		.loc 1 287 13 is_stmt 0 view .LVU418
 1278 0016 2946     		mov	r1, r5
 1279 0018 2046     		mov	r0, r4
 1280              	.LVL98:
 288:Lib/lib_vision_models_pp/lib_vision_models_pp/Src/od_pp_yolov8.c ****                                               pInput_static_param);
 289:Lib/lib_vision_models_pp/lib_vision_models_pp/Src/od_pp_yolov8.c **** 
 290:Lib/lib_vision_models_pp/lib_vision_models_pp/Src/od_pp_yolov8.c ****     return (error);
 291:Lib/lib_vision_models_pp/lib_vision_models_pp/Src/od_pp_yolov8.c **** }
ARM GAS  /tmp/cc6xfSVf.s 			page 34


 1281              		.loc 1 291 1 view .LVU419
 1282 001a BDE83840 		pop	{r3, r4, r5, lr}
 1283              		.cfi_remember_state
 1284              		.cfi_restore 14
 1285              		.cfi_restore 5
 1286              		.cfi_restore 4
 1287              		.cfi_restore 3
 1288              		.cfi_def_cfa_offset 0
 1289              	.LVL99:
 287:Lib/lib_vision_models_pp/lib_vision_models_pp/Src/od_pp_yolov8.c ****                                               pInput_static_param);
 1290              		.loc 1 287 13 view .LVU420
 1291 001e FFF7FEBF 		b	yolov8_pp_scoreFiltering_centroid
 1292              	.LVL100:
 1293              	.L73:
 1294              		.cfi_restore_state
 1295              		.loc 1 291 1 view .LVU421
 1296 0022 38BD     		pop	{r3, r4, r5, pc}
 1297              		.loc 1 291 1 view .LVU422
 1298              		.cfi_endproc
 1299              	.LFE2651:
 1301              		.section	.text.od_yolov8_pp_process_int8,"ax",%progbits
 1302              		.align	1
 1303              		.global	od_yolov8_pp_process_int8
 1304              		.syntax unified
 1305              		.thumb
 1306              		.thumb_func
 1308              	od_yolov8_pp_process_int8:
 1309              	.LVL101:
 1310              	.LFB2652:
 292:Lib/lib_vision_models_pp/lib_vision_models_pp/Src/od_pp_yolov8.c **** 
 293:Lib/lib_vision_models_pp/lib_vision_models_pp/Src/od_pp_yolov8.c **** 
 294:Lib/lib_vision_models_pp/lib_vision_models_pp/Src/od_pp_yolov8.c **** int32_t od_yolov8_pp_process_int8(yolov8_pp_in_centroid_int8_t *pInput,
 295:Lib/lib_vision_models_pp/lib_vision_models_pp/Src/od_pp_yolov8.c ****                                          od_pp_out_t *pOutput,
 296:Lib/lib_vision_models_pp/lib_vision_models_pp/Src/od_pp_yolov8.c ****                                          yolov8_pp_static_param_t *pInput_static_param)
 297:Lib/lib_vision_models_pp/lib_vision_models_pp/Src/od_pp_yolov8.c **** {
 1311              		.loc 1 297 1 is_stmt 1 view -0
 1312              		.cfi_startproc
 1313              		@ args = 0, pretend = 0, frame = 0
 1314              		@ frame_needed = 0, uses_anonymous_args = 0
 298:Lib/lib_vision_models_pp/lib_vision_models_pp/Src/od_pp_yolov8.c ****     int32_t error   = AI_OD_POSTPROCESS_ERROR_NO;
 1315              		.loc 1 298 5 view .LVU424
 299:Lib/lib_vision_models_pp/lib_vision_models_pp/Src/od_pp_yolov8.c **** 
 300:Lib/lib_vision_models_pp/lib_vision_models_pp/Src/od_pp_yolov8.c ****     /* Call Get NN boxes first */
 301:Lib/lib_vision_models_pp/lib_vision_models_pp/Src/od_pp_yolov8.c ****     error = yolov8_pp_getNNBoxes_centroid_int8(pInput,
 1316              		.loc 1 301 5 view .LVU425
 297:Lib/lib_vision_models_pp/lib_vision_models_pp/Src/od_pp_yolov8.c ****     int32_t error   = AI_OD_POSTPROCESS_ERROR_NO;
 1317              		.loc 1 297 1 is_stmt 0 view .LVU426
 1318 0000 38B5     		push	{r3, r4, r5, lr}
 1319              		.cfi_def_cfa_offset 16
 1320              		.cfi_offset 3, -16
 1321              		.cfi_offset 4, -12
 1322              		.cfi_offset 5, -8
 1323              		.cfi_offset 14, -4
 297:Lib/lib_vision_models_pp/lib_vision_models_pp/Src/od_pp_yolov8.c ****     int32_t error   = AI_OD_POSTPROCESS_ERROR_NO;
 1324              		.loc 1 297 1 view .LVU427
 1325 0002 0C46     		mov	r4, r1
 1326 0004 1546     		mov	r5, r2
ARM GAS  /tmp/cc6xfSVf.s 			page 35


 1327              		.loc 1 301 13 view .LVU428
 1328 0006 FFF7FEFF 		bl	yolov8_pp_getNNBoxes_centroid_int8
 1329              	.LVL102:
 302:Lib/lib_vision_models_pp/lib_vision_models_pp/Src/od_pp_yolov8.c ****                                                pOutput,
 303:Lib/lib_vision_models_pp/lib_vision_models_pp/Src/od_pp_yolov8.c ****                                                pInput_static_param);
 304:Lib/lib_vision_models_pp/lib_vision_models_pp/Src/od_pp_yolov8.c ****     if (error != AI_OD_POSTPROCESS_ERROR_NO) return (error);
 1330              		.loc 1 304 5 is_stmt 1 view .LVU429
 1331              		.loc 1 304 8 is_stmt 0 view .LVU430
 1332 000a 50B9     		cbnz	r0, .L75
 305:Lib/lib_vision_models_pp/lib_vision_models_pp/Src/od_pp_yolov8.c **** 
 306:Lib/lib_vision_models_pp/lib_vision_models_pp/Src/od_pp_yolov8.c ****     /* Then NMS */
 307:Lib/lib_vision_models_pp/lib_vision_models_pp/Src/od_pp_yolov8.c ****     error = yolov8_pp_nmsFiltering_centroid(pOutput,
 1333              		.loc 1 307 5 is_stmt 1 view .LVU431
 1334              		.loc 1 307 13 is_stmt 0 view .LVU432
 1335 000c 2946     		mov	r1, r5
 1336 000e 2046     		mov	r0, r4
 1337              	.LVL103:
 1338              		.loc 1 307 13 view .LVU433
 1339 0010 FFF7FEFF 		bl	yolov8_pp_nmsFiltering_centroid
 1340              	.LVL104:
 308:Lib/lib_vision_models_pp/lib_vision_models_pp/Src/od_pp_yolov8.c ****                                             pInput_static_param);
 309:Lib/lib_vision_models_pp/lib_vision_models_pp/Src/od_pp_yolov8.c ****     if (error != AI_OD_POSTPROCESS_ERROR_NO) return (error);
 1341              		.loc 1 309 5 is_stmt 1 view .LVU434
 1342              		.loc 1 309 8 is_stmt 0 view .LVU435
 1343 0014 28B9     		cbnz	r0, .L75
 310:Lib/lib_vision_models_pp/lib_vision_models_pp/Src/od_pp_yolov8.c **** 
 311:Lib/lib_vision_models_pp/lib_vision_models_pp/Src/od_pp_yolov8.c ****     /* And score re-filtering */
 312:Lib/lib_vision_models_pp/lib_vision_models_pp/Src/od_pp_yolov8.c ****     error = yolov8_pp_scoreFiltering_centroid(pOutput,
 1344              		.loc 1 312 5 is_stmt 1 view .LVU436
 1345              		.loc 1 312 13 is_stmt 0 view .LVU437
 1346 0016 2946     		mov	r1, r5
 1347 0018 2046     		mov	r0, r4
 1348              	.LVL105:
 313:Lib/lib_vision_models_pp/lib_vision_models_pp/Src/od_pp_yolov8.c ****                                               pInput_static_param);
 314:Lib/lib_vision_models_pp/lib_vision_models_pp/Src/od_pp_yolov8.c **** 
 315:Lib/lib_vision_models_pp/lib_vision_models_pp/Src/od_pp_yolov8.c ****     return (error);
 316:Lib/lib_vision_models_pp/lib_vision_models_pp/Src/od_pp_yolov8.c **** }
 1349              		.loc 1 316 1 view .LVU438
 1350 001a BDE83840 		pop	{r3, r4, r5, lr}
 1351              		.cfi_remember_state
 1352              		.cfi_restore 14
 1353              		.cfi_restore 5
 1354              		.cfi_restore 4
 1355              		.cfi_restore 3
 1356              		.cfi_def_cfa_offset 0
 1357              	.LVL106:
 312:Lib/lib_vision_models_pp/lib_vision_models_pp/Src/od_pp_yolov8.c ****                                               pInput_static_param);
 1358              		.loc 1 312 13 view .LVU439
 1359 001e FFF7FEBF 		b	yolov8_pp_scoreFiltering_centroid
 1360              	.LVL107:
 1361              	.L75:
 1362              		.cfi_restore_state
 1363              		.loc 1 316 1 view .LVU440
 1364 0022 38BD     		pop	{r3, r4, r5, pc}
 1365              		.loc 1 316 1 view .LVU441
 1366              		.cfi_endproc
 1367              	.LFE2652:
ARM GAS  /tmp/cc6xfSVf.s 			page 36


 1369              		.section	.bss.AI_YOLOV8_PP_SORT_CLASS,"aw",%nobits
 1370              		.align	2
 1373              	AI_YOLOV8_PP_SORT_CLASS:
 1374 0000 00000000 		.space	4
 1375              		.text
 1376              	.Letext0:
 1377              		.file 2 "/home/tanjiajun2002/renesas/rzv/e2studio_v2025-01_fsp_v3.1.0/toolchains/gcc_arm/arm-gnu-t
 1378              		.file 3 "/home/tanjiajun2002/renesas/rzv/e2studio_v2025-01_fsp_v3.1.0/toolchains/gcc_arm/arm-gnu-t
 1379              		.file 4 "/home/tanjiajun2002/renesas/rzv/e2studio_v2025-01_fsp_v3.1.0/toolchains/gcc_arm/arm-gnu-t
 1380              		.file 5 "/home/tanjiajun2002/renesas/rzv/e2studio_v2025-01_fsp_v3.1.0/toolchains/gcc_arm/arm-gnu-t
 1381              		.file 6 "Lib/lib_vision_models_pp/lib_vision_models_pp/Inc/od_pp_output_if.h"
 1382              		.file 7 "Lib/lib_vision_models_pp/lib_vision_models_pp/Inc/od_yolov8_pp_if.h"
 1383              		.file 8 "Lib/lib_vision_models_pp/lib_vision_models_pp/Src/vision_models_pp.h"
ARM GAS  /tmp/cc6xfSVf.s 			page 37

