ARM GAS  /tmp/ccpBZfNH.s 			page 1


   1              		.arch armv8.1-m.main
   2              		.fpu fpv5-d16
   3              		.arch_extension dsp
   4              		.arch_extension fp
   5              		.arch_extension fp.dp
   6              		.arch_extension mve
   7              		.arch_extension mve.fp
   8              		.eabi_attribute 5, "cortex-m55"
   9              		.eabi_attribute 28, 1
  10              		.eabi_attribute 20, 1
  11              		.eabi_attribute 21, 1
  12              		.eabi_attribute 23, 3
  13              		.eabi_attribute 24, 1
  14              		.eabi_attribute 25, 1
  15              		.eabi_attribute 26, 1
  16              		.eabi_attribute 30, 4
  17              		.eabi_attribute 34, 1
  18              		.eabi_attribute 38, 1
  19              		.eabi_attribute 18, 4
  20              		.file	"pd_pp_model.c"
  21              		.text
  22              	.Ltext0:
  23              		.cfi_sections	.debug_frame
  24              		.file 1 "Lib/lib_vision_models_pp/lib_vision_models_pp/Src/pd_pp_model.c"
  25              		.section	.text.pd_pp_nms_comparator,"ax",%progbits
  26              		.align	1
  27              		.syntax unified
  28              		.thumb
  29              		.thumb_func
  31              	pd_pp_nms_comparator:
  32              	.LVL0:
  33              	.LFB2645:
   1:Lib/lib_vision_models_pp/lib_vision_models_pp/Src/pd_pp_model.c **** /**
   2:Lib/lib_vision_models_pp/lib_vision_models_pp/Src/pd_pp_model.c ****   ******************************************************************************
   3:Lib/lib_vision_models_pp/lib_vision_models_pp/Src/pd_pp_model.c ****   * @file    pd_pp_model.c
   4:Lib/lib_vision_models_pp/lib_vision_models_pp/Src/pd_pp_model.c ****   * @author  MDG Application Team
   5:Lib/lib_vision_models_pp/lib_vision_models_pp/Src/pd_pp_model.c ****   ******************************************************************************
   6:Lib/lib_vision_models_pp/lib_vision_models_pp/Src/pd_pp_model.c ****   * @attention
   7:Lib/lib_vision_models_pp/lib_vision_models_pp/Src/pd_pp_model.c ****   *
   8:Lib/lib_vision_models_pp/lib_vision_models_pp/Src/pd_pp_model.c ****   * Copyright (c) 2024 STMicroelectronics.
   9:Lib/lib_vision_models_pp/lib_vision_models_pp/Src/pd_pp_model.c ****   * All rights reserved.
  10:Lib/lib_vision_models_pp/lib_vision_models_pp/Src/pd_pp_model.c ****   *
  11:Lib/lib_vision_models_pp/lib_vision_models_pp/Src/pd_pp_model.c ****   * This software is licensed under terms that can be found in the LICENSE file
  12:Lib/lib_vision_models_pp/lib_vision_models_pp/Src/pd_pp_model.c ****   * in the root directory of this software component.
  13:Lib/lib_vision_models_pp/lib_vision_models_pp/Src/pd_pp_model.c ****   * If no LICENSE file comes with this software, it is provided AS-IS.
  14:Lib/lib_vision_models_pp/lib_vision_models_pp/Src/pd_pp_model.c ****   *
  15:Lib/lib_vision_models_pp/lib_vision_models_pp/Src/pd_pp_model.c ****   ******************************************************************************
  16:Lib/lib_vision_models_pp/lib_vision_models_pp/Src/pd_pp_model.c ****   */
  17:Lib/lib_vision_models_pp/lib_vision_models_pp/Src/pd_pp_model.c **** 
  18:Lib/lib_vision_models_pp/lib_vision_models_pp/Src/pd_pp_model.c **** #include "pd_model_pp_if.h"
  19:Lib/lib_vision_models_pp/lib_vision_models_pp/Src/pd_pp_model.c **** #include "vision_models_pp.h"
  20:Lib/lib_vision_models_pp/lib_vision_models_pp/Src/pd_pp_model.c **** #include "pd_pp_loc.h"
  21:Lib/lib_vision_models_pp/lib_vision_models_pp/Src/pd_pp_model.c **** 
  22:Lib/lib_vision_models_pp/lib_vision_models_pp/Src/pd_pp_model.c **** 
  23:Lib/lib_vision_models_pp/lib_vision_models_pp/Src/pd_pp_model.c **** static int32_t pd_pp_nms_comparator(const void *arg1, const void *arg2)
  24:Lib/lib_vision_models_pp/lib_vision_models_pp/Src/pd_pp_model.c **** {
  34              		.loc 1 24 1 view -0
ARM GAS  /tmp/ccpBZfNH.s 			page 2


  35              		.cfi_startproc
  36              		@ args = 0, pretend = 0, frame = 0
  37              		@ frame_needed = 0, uses_anonymous_args = 0
  38              		@ link register save eliminated.
  25:Lib/lib_vision_models_pp/lib_vision_models_pp/Src/pd_pp_model.c ****   const pd_pp_box_t *box1 = arg1;
  39              		.loc 1 25 3 view .LVU1
  26:Lib/lib_vision_models_pp/lib_vision_models_pp/Src/pd_pp_model.c ****   const pd_pp_box_t *box2 = arg2;
  40              		.loc 1 26 3 view .LVU2
  27:Lib/lib_vision_models_pp/lib_vision_models_pp/Src/pd_pp_model.c **** 
  28:Lib/lib_vision_models_pp/lib_vision_models_pp/Src/pd_pp_model.c ****   if (box1->prob < box2->prob)
  41              		.loc 1 28 3 view .LVU3
  42              		.loc 1 28 11 is_stmt 0 view .LVU4
  43 0000 90ED007A 		vldr.32	s14, [r0]
  44              		.loc 1 28 24 view .LVU5
  45 0004 D1ED007A 		vldr.32	s15, [r1]
  46              		.loc 1 28 6 view .LVU6
  47 0008 B4EEE77A 		vcmpe.f32	s14, s15
  48 000c F1EE10FA 		vmrs	APSR_nzcv, FPSCR
  29:Lib/lib_vision_models_pp/lib_vision_models_pp/Src/pd_pp_model.c ****     return 1;
  30:Lib/lib_vision_models_pp/lib_vision_models_pp/Src/pd_pp_model.c **** 
  31:Lib/lib_vision_models_pp/lib_vision_models_pp/Src/pd_pp_model.c ****   if (box1->prob > box2->prob)
  49              		.loc 1 31 6 view .LVU7
  50 0010 B4EE677A 		vcmp.f32	s14, s15
  51 0014 CCBF     		ite	gt
  52 0016 4FF0FF30 		movgt	r0, #-1
  53              	.LVL1:
  54              		.loc 1 31 6 view .LVU8
  55 001a 0020     		movle	r0, #0
  56 001c F1EE10FA 		vmrs	APSR_nzcv, FPSCR
  32:Lib/lib_vision_models_pp/lib_vision_models_pp/Src/pd_pp_model.c ****     return -1;
  33:Lib/lib_vision_models_pp/lib_vision_models_pp/Src/pd_pp_model.c **** 
  34:Lib/lib_vision_models_pp/lib_vision_models_pp/Src/pd_pp_model.c ****   return 0;
  35:Lib/lib_vision_models_pp/lib_vision_models_pp/Src/pd_pp_model.c **** }
  57              		.loc 1 35 1 view .LVU9
  58 0020 48BF     		it	mi
  59 0022 0120     		movmi	r0, #1
  60 0024 7047     		bx	lr
  61              		.cfi_endproc
  62              	.LFE2645:
  64              		.section	.text.pd_model_pp_reset,"ax",%progbits
  65              		.align	1
  66              		.global	pd_model_pp_reset
  67              		.syntax unified
  68              		.thumb
  69              		.thumb_func
  71              	pd_model_pp_reset:
  72              	.LVL2:
  73              	.LFB2650:
  36:Lib/lib_vision_models_pp/lib_vision_models_pp/Src/pd_pp_model.c **** 
  37:Lib/lib_vision_models_pp/lib_vision_models_pp/Src/pd_pp_model.c **** static void pd_pp_compute_opposite_corners_from_box(pd_pp_box_t *box, pd_pp_point_t corners[2])
  38:Lib/lib_vision_models_pp/lib_vision_models_pp/Src/pd_pp_model.c **** {
  39:Lib/lib_vision_models_pp/lib_vision_models_pp/Src/pd_pp_model.c ****   corners[0].x = box->x_center - box->width / 2;
  40:Lib/lib_vision_models_pp/lib_vision_models_pp/Src/pd_pp_model.c ****   corners[0].y = box->y_center - box->height / 2;
  41:Lib/lib_vision_models_pp/lib_vision_models_pp/Src/pd_pp_model.c ****   corners[1].x = box->x_center + box->width / 2;
  42:Lib/lib_vision_models_pp/lib_vision_models_pp/Src/pd_pp_model.c ****   corners[1].y = box->y_center + box->height / 2;
  43:Lib/lib_vision_models_pp/lib_vision_models_pp/Src/pd_pp_model.c **** }
  44:Lib/lib_vision_models_pp/lib_vision_models_pp/Src/pd_pp_model.c **** 
ARM GAS  /tmp/ccpBZfNH.s 			page 3


  45:Lib/lib_vision_models_pp/lib_vision_models_pp/Src/pd_pp_model.c **** static float pd_pp_compute_iou(pd_pp_box_t *box0, pd_pp_box_t *box1)
  46:Lib/lib_vision_models_pp/lib_vision_models_pp/Src/pd_pp_model.c **** {
  47:Lib/lib_vision_models_pp/lib_vision_models_pp/Src/pd_pp_model.c ****   pd_pp_point_t corners[2][2];
  48:Lib/lib_vision_models_pp/lib_vision_models_pp/Src/pd_pp_model.c ****   float32_t intersect_xmin;
  49:Lib/lib_vision_models_pp/lib_vision_models_pp/Src/pd_pp_model.c ****   float32_t intersect_ymin;
  50:Lib/lib_vision_models_pp/lib_vision_models_pp/Src/pd_pp_model.c ****   float32_t intersect_xmax;
  51:Lib/lib_vision_models_pp/lib_vision_models_pp/Src/pd_pp_model.c ****   float32_t intersect_ymax;
  52:Lib/lib_vision_models_pp/lib_vision_models_pp/Src/pd_pp_model.c ****   float32_t intersect_area;
  53:Lib/lib_vision_models_pp/lib_vision_models_pp/Src/pd_pp_model.c ****   float32_t area[2];
  54:Lib/lib_vision_models_pp/lib_vision_models_pp/Src/pd_pp_model.c ****   float32_t xmin[2];
  55:Lib/lib_vision_models_pp/lib_vision_models_pp/Src/pd_pp_model.c ****   float32_t xmax[2];
  56:Lib/lib_vision_models_pp/lib_vision_models_pp/Src/pd_pp_model.c ****   float32_t ymin[2];
  57:Lib/lib_vision_models_pp/lib_vision_models_pp/Src/pd_pp_model.c ****   float32_t ymax[2];
  58:Lib/lib_vision_models_pp/lib_vision_models_pp/Src/pd_pp_model.c ****   int i;
  59:Lib/lib_vision_models_pp/lib_vision_models_pp/Src/pd_pp_model.c **** 
  60:Lib/lib_vision_models_pp/lib_vision_models_pp/Src/pd_pp_model.c ****   pd_pp_compute_opposite_corners_from_box(box0, corners[0]);
  61:Lib/lib_vision_models_pp/lib_vision_models_pp/Src/pd_pp_model.c ****   pd_pp_compute_opposite_corners_from_box(box1, corners[1]);
  62:Lib/lib_vision_models_pp/lib_vision_models_pp/Src/pd_pp_model.c **** 
  63:Lib/lib_vision_models_pp/lib_vision_models_pp/Src/pd_pp_model.c ****   for (i = 0; i < 2; i++) {
  64:Lib/lib_vision_models_pp/lib_vision_models_pp/Src/pd_pp_model.c ****     xmin[i] = MIN(corners[i][0].x, corners[i][1].x);
  65:Lib/lib_vision_models_pp/lib_vision_models_pp/Src/pd_pp_model.c ****     xmax[i] = MAX(corners[i][0].x, corners[i][1].x);
  66:Lib/lib_vision_models_pp/lib_vision_models_pp/Src/pd_pp_model.c ****     ymin[i] = MIN(corners[i][0].y, corners[i][1].y);
  67:Lib/lib_vision_models_pp/lib_vision_models_pp/Src/pd_pp_model.c ****     ymax[i] = MAX(corners[i][0].y, corners[i][1].y);
  68:Lib/lib_vision_models_pp/lib_vision_models_pp/Src/pd_pp_model.c ****   }
  69:Lib/lib_vision_models_pp/lib_vision_models_pp/Src/pd_pp_model.c **** 
  70:Lib/lib_vision_models_pp/lib_vision_models_pp/Src/pd_pp_model.c ****   for (i = 0; i < 2; i++) {
  71:Lib/lib_vision_models_pp/lib_vision_models_pp/Src/pd_pp_model.c ****     area[i] = (ymax[i] - ymin[i]) * (xmax[i] - xmin[i]);
  72:Lib/lib_vision_models_pp/lib_vision_models_pp/Src/pd_pp_model.c ****   }
  73:Lib/lib_vision_models_pp/lib_vision_models_pp/Src/pd_pp_model.c ****   if (area[0] <= 0 || area[1] <= 0)
  74:Lib/lib_vision_models_pp/lib_vision_models_pp/Src/pd_pp_model.c ****     return 0;
  75:Lib/lib_vision_models_pp/lib_vision_models_pp/Src/pd_pp_model.c **** 
  76:Lib/lib_vision_models_pp/lib_vision_models_pp/Src/pd_pp_model.c ****   intersect_xmin = MAX(xmin[0], xmin[1]);
  77:Lib/lib_vision_models_pp/lib_vision_models_pp/Src/pd_pp_model.c ****   intersect_ymin = MAX(ymin[0], ymin[1]);
  78:Lib/lib_vision_models_pp/lib_vision_models_pp/Src/pd_pp_model.c ****   intersect_xmax = MIN(xmax[0], xmax[1]);
  79:Lib/lib_vision_models_pp/lib_vision_models_pp/Src/pd_pp_model.c ****   intersect_ymax = MIN(ymax[0], ymax[1]);
  80:Lib/lib_vision_models_pp/lib_vision_models_pp/Src/pd_pp_model.c **** 
  81:Lib/lib_vision_models_pp/lib_vision_models_pp/Src/pd_pp_model.c ****   intersect_area = MAX(intersect_ymax - intersect_ymin, 0.0f) * MAX(intersect_xmax - intersect_xmin
  82:Lib/lib_vision_models_pp/lib_vision_models_pp/Src/pd_pp_model.c **** 
  83:Lib/lib_vision_models_pp/lib_vision_models_pp/Src/pd_pp_model.c ****   return intersect_area / (area[0] + area[1] - intersect_area);
  84:Lib/lib_vision_models_pp/lib_vision_models_pp/Src/pd_pp_model.c **** }
  85:Lib/lib_vision_models_pp/lib_vision_models_pp/Src/pd_pp_model.c **** static int32_t pd_pp_decode(pd_model_pp_in_t *pInput,
  86:Lib/lib_vision_models_pp/lib_vision_models_pp/Src/pd_pp_model.c ****                                      pd_postprocess_out_t *pOutput,
  87:Lib/lib_vision_models_pp/lib_vision_models_pp/Src/pd_pp_model.c ****                                      pd_model_pp_static_param_t *pInput_static_param) {
  88:Lib/lib_vision_models_pp/lib_vision_models_pp/Src/pd_pp_model.c **** 
  89:Lib/lib_vision_models_pp/lib_vision_models_pp/Src/pd_pp_model.c ****   pOutput->box_nb = 0;
  90:Lib/lib_vision_models_pp/lib_vision_models_pp/Src/pd_pp_model.c **** 
  91:Lib/lib_vision_models_pp/lib_vision_models_pp/Src/pd_pp_model.c ****   pd_pp_box_t *pBoxes = (pd_pp_box_t *)pOutput->pOutData;
  92:Lib/lib_vision_models_pp/lib_vision_models_pp/Src/pd_pp_model.c ****   float32_t width  = pInput_static_param->width;
  93:Lib/lib_vision_models_pp/lib_vision_models_pp/Src/pd_pp_model.c ****   float32_t height = pInput_static_param->height;
  94:Lib/lib_vision_models_pp/lib_vision_models_pp/Src/pd_pp_model.c ****   float32_t *pRawBoxes = (float32_t *)pInput->pBoxes;
  95:Lib/lib_vision_models_pp/lib_vision_models_pp/Src/pd_pp_model.c ****   float32_t *pRawProbs = (float32_t *)pInput->pProbs;
  96:Lib/lib_vision_models_pp/lib_vision_models_pp/Src/pd_pp_model.c ****   float32_t *pAnchors = (float32_t *)pInput_static_param->pAnchors;
  97:Lib/lib_vision_models_pp/lib_vision_models_pp/Src/pd_pp_model.c ****   const size_t in_struct_size = (2 * pInput_static_param->nb_keypoints) + AI_PD_MODEL_PP_KEYPOINTS;
  98:Lib/lib_vision_models_pp/lib_vision_models_pp/Src/pd_pp_model.c ****   size_t box_nb = 0;
  99:Lib/lib_vision_models_pp/lib_vision_models_pp/Src/pd_pp_model.c **** 
 100:Lib/lib_vision_models_pp/lib_vision_models_pp/Src/pd_pp_model.c ****   for (uint32_t i = 0; i < pInput_static_param->nb_total_boxes; i++) {
 101:Lib/lib_vision_models_pp/lib_vision_models_pp/Src/pd_pp_model.c ****     pd_pp_box_t *pBox = &pBoxes[box_nb]; //&pd_boxes[box_nb];
ARM GAS  /tmp/ccpBZfNH.s 			page 4


 102:Lib/lib_vision_models_pp/lib_vision_models_pp/Src/pd_pp_model.c **** 
 103:Lib/lib_vision_models_pp/lib_vision_models_pp/Src/pd_pp_model.c ****     /* decode prob */
 104:Lib/lib_vision_models_pp/lib_vision_models_pp/Src/pd_pp_model.c ****     pBox->prob = 1.0f / (1.0f + expf(-pRawProbs[i]));
 105:Lib/lib_vision_models_pp/lib_vision_models_pp/Src/pd_pp_model.c ****     if (pBox->prob >= pInput_static_param->conf_threshold) {
 106:Lib/lib_vision_models_pp/lib_vision_models_pp/Src/pd_pp_model.c ****       /* decode palm box */
 107:Lib/lib_vision_models_pp/lib_vision_models_pp/Src/pd_pp_model.c ****       pBox->x_center = (pAnchors[i*2+0] * width  + pRawBoxes[i * in_struct_size + AI_PD_MODEL_PP_XC
 108:Lib/lib_vision_models_pp/lib_vision_models_pp/Src/pd_pp_model.c ****       pBox->y_center = (pAnchors[i*2+1] * height + pRawBoxes[i * in_struct_size + AI_PD_MODEL_PP_YC
 109:Lib/lib_vision_models_pp/lib_vision_models_pp/Src/pd_pp_model.c ****       pBox->width = pRawBoxes[i * in_struct_size + AI_PD_MODEL_PP_WIDTHREL]  / width;
 110:Lib/lib_vision_models_pp/lib_vision_models_pp/Src/pd_pp_model.c ****       pBox->height = pRawBoxes[i * in_struct_size + AI_PD_MODEL_PP_HEIGHTREL] / height;
 111:Lib/lib_vision_models_pp/lib_vision_models_pp/Src/pd_pp_model.c **** 
 112:Lib/lib_vision_models_pp/lib_vision_models_pp/Src/pd_pp_model.c ****       /* decode keypoints */
 113:Lib/lib_vision_models_pp/lib_vision_models_pp/Src/pd_pp_model.c ****       for (uint32_t j = 0; j < pInput_static_param->nb_keypoints; j++) {
 114:Lib/lib_vision_models_pp/lib_vision_models_pp/Src/pd_pp_model.c ****         pBox->pKps[j].x = (pAnchors[i*2+0] * width  + pRawBoxes[i * in_struct_size + AI_PD_MODEL_PP
 115:Lib/lib_vision_models_pp/lib_vision_models_pp/Src/pd_pp_model.c ****         pBox->pKps[j].y = (pAnchors[i*2+1] * height + pRawBoxes[i * in_struct_size + AI_PD_MODEL_PP
 116:Lib/lib_vision_models_pp/lib_vision_models_pp/Src/pd_pp_model.c ****       }
 117:Lib/lib_vision_models_pp/lib_vision_models_pp/Src/pd_pp_model.c **** 
 118:Lib/lib_vision_models_pp/lib_vision_models_pp/Src/pd_pp_model.c ****       box_nb++;
 119:Lib/lib_vision_models_pp/lib_vision_models_pp/Src/pd_pp_model.c ****       if (box_nb >= pInput_static_param->max_boxes_limit) {
 120:Lib/lib_vision_models_pp/lib_vision_models_pp/Src/pd_pp_model.c ****         break;
 121:Lib/lib_vision_models_pp/lib_vision_models_pp/Src/pd_pp_model.c ****       }
 122:Lib/lib_vision_models_pp/lib_vision_models_pp/Src/pd_pp_model.c ****     }
 123:Lib/lib_vision_models_pp/lib_vision_models_pp/Src/pd_pp_model.c ****   }
 124:Lib/lib_vision_models_pp/lib_vision_models_pp/Src/pd_pp_model.c **** 
 125:Lib/lib_vision_models_pp/lib_vision_models_pp/Src/pd_pp_model.c ****   pOutput->box_nb = box_nb;
 126:Lib/lib_vision_models_pp/lib_vision_models_pp/Src/pd_pp_model.c ****   return AI_PD_POSTPROCESS_ERROR_NO;
 127:Lib/lib_vision_models_pp/lib_vision_models_pp/Src/pd_pp_model.c **** }
 128:Lib/lib_vision_models_pp/lib_vision_models_pp/Src/pd_pp_model.c **** 
 129:Lib/lib_vision_models_pp/lib_vision_models_pp/Src/pd_pp_model.c **** static int pd_pp_nms(pd_postprocess_out_t *pOutput,
 130:Lib/lib_vision_models_pp/lib_vision_models_pp/Src/pd_pp_model.c ****                      pd_model_pp_static_param_t *pInput_static_param)
 131:Lib/lib_vision_models_pp/lib_vision_models_pp/Src/pd_pp_model.c **** {
 132:Lib/lib_vision_models_pp/lib_vision_models_pp/Src/pd_pp_model.c ****   int hand_nb = 0;
 133:Lib/lib_vision_models_pp/lib_vision_models_pp/Src/pd_pp_model.c ****   int skip_box;
 134:Lib/lib_vision_models_pp/lib_vision_models_pp/Src/pd_pp_model.c ****   float iou;
 135:Lib/lib_vision_models_pp/lib_vision_models_pp/Src/pd_pp_model.c ****   pd_pp_box_t *pd_boxes = (pd_pp_box_t *)pOutput->pOutData;
 136:Lib/lib_vision_models_pp/lib_vision_models_pp/Src/pd_pp_model.c ****   size_t box_nb =  pOutput->box_nb;
 137:Lib/lib_vision_models_pp/lib_vision_models_pp/Src/pd_pp_model.c **** 
 138:Lib/lib_vision_models_pp/lib_vision_models_pp/Src/pd_pp_model.c ****   /* first sort boxes by higher probability */
 139:Lib/lib_vision_models_pp/lib_vision_models_pp/Src/pd_pp_model.c ****   qsort(pd_boxes, box_nb, sizeof(pd_pp_box_t), pd_pp_nms_comparator);
 140:Lib/lib_vision_models_pp/lib_vision_models_pp/Src/pd_pp_model.c **** 
 141:Lib/lib_vision_models_pp/lib_vision_models_pp/Src/pd_pp_model.c ****   /* then apply iou to filter them */
 142:Lib/lib_vision_models_pp/lib_vision_models_pp/Src/pd_pp_model.c ****   for (size_t i = 0; i < box_nb; i++) {
 143:Lib/lib_vision_models_pp/lib_vision_models_pp/Src/pd_pp_model.c ****     skip_box = 0;
 144:Lib/lib_vision_models_pp/lib_vision_models_pp/Src/pd_pp_model.c ****     for (int j = 0; j < hand_nb; j++) {
 145:Lib/lib_vision_models_pp/lib_vision_models_pp/Src/pd_pp_model.c ****       iou = pd_pp_compute_iou(&pd_boxes[i], &pd_boxes[j]);
 146:Lib/lib_vision_models_pp/lib_vision_models_pp/Src/pd_pp_model.c ****       if (iou >= pInput_static_param->iou_threshold) {
 147:Lib/lib_vision_models_pp/lib_vision_models_pp/Src/pd_pp_model.c ****         skip_box = 1;
 148:Lib/lib_vision_models_pp/lib_vision_models_pp/Src/pd_pp_model.c ****         break;
 149:Lib/lib_vision_models_pp/lib_vision_models_pp/Src/pd_pp_model.c ****       }
 150:Lib/lib_vision_models_pp/lib_vision_models_pp/Src/pd_pp_model.c ****     }
 151:Lib/lib_vision_models_pp/lib_vision_models_pp/Src/pd_pp_model.c ****     if (skip_box)
 152:Lib/lib_vision_models_pp/lib_vision_models_pp/Src/pd_pp_model.c ****       continue;
 153:Lib/lib_vision_models_pp/lib_vision_models_pp/Src/pd_pp_model.c **** 
 154:Lib/lib_vision_models_pp/lib_vision_models_pp/Src/pd_pp_model.c ****     pd_boxes[hand_nb++] = pd_boxes[i];
 155:Lib/lib_vision_models_pp/lib_vision_models_pp/Src/pd_pp_model.c ****   }
 156:Lib/lib_vision_models_pp/lib_vision_models_pp/Src/pd_pp_model.c **** 
 157:Lib/lib_vision_models_pp/lib_vision_models_pp/Src/pd_pp_model.c ****   return hand_nb;
 158:Lib/lib_vision_models_pp/lib_vision_models_pp/Src/pd_pp_model.c **** }
ARM GAS  /tmp/ccpBZfNH.s 			page 5


 159:Lib/lib_vision_models_pp/lib_vision_models_pp/Src/pd_pp_model.c **** int32_t pd_model_pp_reset(pd_model_pp_static_param_t *pInput_static_param)
 160:Lib/lib_vision_models_pp/lib_vision_models_pp/Src/pd_pp_model.c **** {
  74              		.loc 1 160 1 is_stmt 1 view -0
  75              		.cfi_startproc
  76              		@ args = 0, pretend = 0, frame = 0
  77              		@ frame_needed = 0, uses_anonymous_args = 0
  78              		@ link register save eliminated.
 161:Lib/lib_vision_models_pp/lib_vision_models_pp/Src/pd_pp_model.c ****   return AI_PD_POSTPROCESS_ERROR_NO;
  79              		.loc 1 161 3 view .LVU11
 162:Lib/lib_vision_models_pp/lib_vision_models_pp/Src/pd_pp_model.c **** }
  80              		.loc 1 162 1 is_stmt 0 view .LVU12
  81 0000 0020     		movs	r0, #0
  82              	.LVL3:
  83              		.loc 1 162 1 view .LVU13
  84 0002 7047     		bx	lr
  85              		.cfi_endproc
  86              	.LFE2650:
  88              		.section	.text.pd_model_pp_process,"ax",%progbits
  89              		.align	1
  90              		.global	pd_model_pp_process
  91              		.syntax unified
  92              		.thumb
  93              		.thumb_func
  95              	pd_model_pp_process:
  96              	.LVL4:
  97              	.LFB2651:
 163:Lib/lib_vision_models_pp/lib_vision_models_pp/Src/pd_pp_model.c **** 
 164:Lib/lib_vision_models_pp/lib_vision_models_pp/Src/pd_pp_model.c **** 
 165:Lib/lib_vision_models_pp/lib_vision_models_pp/Src/pd_pp_model.c **** int32_t pd_model_pp_process(pd_model_pp_in_t *pInput,
 166:Lib/lib_vision_models_pp/lib_vision_models_pp/Src/pd_pp_model.c ****                             pd_postprocess_out_t *pOutput,
 167:Lib/lib_vision_models_pp/lib_vision_models_pp/Src/pd_pp_model.c ****                             pd_model_pp_static_param_t *pInput_static_param)
 168:Lib/lib_vision_models_pp/lib_vision_models_pp/Src/pd_pp_model.c **** {
  98              		.loc 1 168 1 is_stmt 1 view -0
  99              		.cfi_startproc
 100              		@ args = 0, pretend = 0, frame = 80
 101              		@ frame_needed = 0, uses_anonymous_args = 0
 169:Lib/lib_vision_models_pp/lib_vision_models_pp/Src/pd_pp_model.c ****   int32_t ret = AI_PD_POSTPROCESS_ERROR;
 102              		.loc 1 169 3 view .LVU15
 170:Lib/lib_vision_models_pp/lib_vision_models_pp/Src/pd_pp_model.c ****   ret = pd_pp_decode(pInput,
 103              		.loc 1 170 3 view .LVU16
 104              	.LBB19:
 105              	.LBI19:
  85:Lib/lib_vision_models_pp/lib_vision_models_pp/Src/pd_pp_model.c ****                                      pd_postprocess_out_t *pOutput,
 106              		.loc 1 85 16 view .LVU17
 107              	.LBB20:
  89:Lib/lib_vision_models_pp/lib_vision_models_pp/Src/pd_pp_model.c **** 
 108              		.loc 1 89 3 view .LVU18
  92:Lib/lib_vision_models_pp/lib_vision_models_pp/Src/pd_pp_model.c ****   float32_t height = pInput_static_param->height;
 109              		.loc 1 92 13 is_stmt 0 view .LVU19
 110 0000 D2ED007A 		vldr.32	s15, [r2]	@ int
 111              	.LBE20:
 112              	.LBE19:
 168:Lib/lib_vision_models_pp/lib_vision_models_pp/Src/pd_pp_model.c ****   int32_t ret = AI_PD_POSTPROCESS_ERROR;
 113              		.loc 1 168 1 view .LVU20
 114 0004 2DE9F04F 		push	{r4, r5, r6, r7, r8, r9, r10, fp, lr}
 115              		.cfi_def_cfa_offset 36
 116              		.cfi_offset 4, -36
ARM GAS  /tmp/ccpBZfNH.s 			page 6


 117              		.cfi_offset 5, -32
 118              		.cfi_offset 6, -28
 119              		.cfi_offset 7, -24
 120              		.cfi_offset 8, -20
 121              		.cfi_offset 9, -16
 122              		.cfi_offset 10, -12
 123              		.cfi_offset 11, -8
 124              		.cfi_offset 14, -4
 125              	.LBB36:
 126              	.LBB30:
  89:Lib/lib_vision_models_pp/lib_vision_models_pp/Src/pd_pp_model.c **** 
 127              		.loc 1 89 19 view .LVU21
 128 0008 0026     		movs	r6, #0
 129              	.LBE30:
 130              	.LBE36:
 168:Lib/lib_vision_models_pp/lib_vision_models_pp/Src/pd_pp_model.c ****   int32_t ret = AI_PD_POSTPROCESS_ERROR;
 131              		.loc 1 168 1 view .LVU22
 132 000a 2DED048B 		vpush.64	{d8, d9}
 133              		.cfi_def_cfa_offset 52
 134              		.cfi_offset 80, -52
 135              		.cfi_offset 81, -48
 136              		.cfi_offset 82, -44
 137              		.cfi_offset 83, -40
 138              	.LBB37:
 139              	.LBB31:
  92:Lib/lib_vision_models_pp/lib_vision_models_pp/Src/pd_pp_model.c ****   float32_t height = pInput_static_param->height;
 140              		.loc 1 92 13 view .LVU23
 141 000e B8EE678A 		vcvt.f32.u32	s16, s15
  93:Lib/lib_vision_models_pp/lib_vision_models_pp/Src/pd_pp_model.c ****   float32_t *pRawBoxes = (float32_t *)pInput->pBoxes;
 142              		.loc 1 93 13 view .LVU24
 143 0012 D2ED017A 		vldr.32	s15, [r2, #4]	@ int
 144              	.LBE31:
 145              	.LBE37:
 168:Lib/lib_vision_models_pp/lib_vision_models_pp/Src/pd_pp_model.c ****   int32_t ret = AI_PD_POSTPROCESS_ERROR;
 146              		.loc 1 168 1 view .LVU25
 147 0016 1446     		mov	r4, r2
 148 0018 8A46     		mov	r10, r1
 149              	.LBB38:
 150              	.LBB32:
  93:Lib/lib_vision_models_pp/lib_vision_models_pp/Src/pd_pp_model.c ****   float32_t *pRawBoxes = (float32_t *)pInput->pBoxes;
 151              		.loc 1 93 13 view .LVU26
 152 001a F8EE678A 		vcvt.f32.u32	s17, s15
  98:Lib/lib_vision_models_pp/lib_vision_models_pp/Src/pd_pp_model.c **** 
 153              		.loc 1 98 10 view .LVU27
 154 001e 3546     		mov	r5, r6
 155              	.LBB21:
 156              	.LBB22:
 104:Lib/lib_vision_models_pp/lib_vision_models_pp/Src/pd_pp_model.c ****     if (pBox->prob >= pInput_static_param->conf_threshold) {
 157              		.loc 1 104 31 discriminator 1 view .LVU28
 158 0020 B7EE009A 		vmov.f32	s18, #1.0e+0
 159              	.LBE22:
 160              	.LBE21:
  97:Lib/lib_vision_models_pp/lib_vision_models_pp/Src/pd_pp_model.c ****   size_t box_nb = 0;
 161              		.loc 1 97 57 view .LVU29
 162 0024 D2F808B0 		ldr	fp, [r2, #8]
 163              	.LBE32:
 164              	.LBE38:
ARM GAS  /tmp/ccpBZfNH.s 			page 7


 168:Lib/lib_vision_models_pp/lib_vision_models_pp/Src/pd_pp_model.c ****   int32_t ret = AI_PD_POSTPROCESS_ERROR;
 165              		.loc 1 168 1 view .LVU30
 166 0028 95B0     		sub	sp, sp, #84
 167              		.cfi_def_cfa_offset 136
 168              	.LBB39:
 169              	.LBB33:
  97:Lib/lib_vision_models_pp/lib_vision_models_pp/Src/pd_pp_model.c ****   size_t box_nb = 0;
 170              		.loc 1 97 73 view .LVU31
 171 002a 0BF10203 		add	r3, fp, #2
 172 002e DB00     		lsls	r3, r3, #3
  91:Lib/lib_vision_models_pp/lib_vision_models_pp/Src/pd_pp_model.c ****   float32_t width  = pInput_static_param->width;
 173              		.loc 1 91 16 view .LVU32
 174 0030 D1F80080 		ldr	r8, [r1]
 175 0034 0268     		ldr	r2, [r0]
 176              	.LVL5:
  91:Lib/lib_vision_models_pp/lib_vision_models_pp/Src/pd_pp_model.c ****   float32_t width  = pInput_static_param->width;
 177              		.loc 1 91 16 view .LVU33
 178 0036 4768     		ldr	r7, [r0, #4]
 179 0038 D4F81C90 		ldr	r9, [r4, #28]
  89:Lib/lib_vision_models_pp/lib_vision_models_pp/Src/pd_pp_model.c **** 
 180              		.loc 1 89 19 view .LVU34
 181 003c 4E60     		str	r6, [r1, #4]
  91:Lib/lib_vision_models_pp/lib_vision_models_pp/Src/pd_pp_model.c ****   float32_t width  = pInput_static_param->width;
 182              		.loc 1 91 3 is_stmt 1 view .LVU35
 183              	.LVL6:
  92:Lib/lib_vision_models_pp/lib_vision_models_pp/Src/pd_pp_model.c ****   float32_t height = pInput_static_param->height;
 184              		.loc 1 92 3 view .LVU36
  93:Lib/lib_vision_models_pp/lib_vision_models_pp/Src/pd_pp_model.c ****   float32_t *pRawBoxes = (float32_t *)pInput->pBoxes;
 185              		.loc 1 93 3 view .LVU37
  94:Lib/lib_vision_models_pp/lib_vision_models_pp/Src/pd_pp_model.c ****   float32_t *pRawProbs = (float32_t *)pInput->pProbs;
 186              		.loc 1 94 3 view .LVU38
  95:Lib/lib_vision_models_pp/lib_vision_models_pp/Src/pd_pp_model.c ****   float32_t *pAnchors = (float32_t *)pInput_static_param->pAnchors;
 187              		.loc 1 95 3 view .LVU39
  96:Lib/lib_vision_models_pp/lib_vision_models_pp/Src/pd_pp_model.c ****   const size_t in_struct_size = (2 * pInput_static_param->nb_keypoints) + AI_PD_MODEL_PP_KEYPOINTS;
 188              		.loc 1 96 3 view .LVU40
  97:Lib/lib_vision_models_pp/lib_vision_models_pp/Src/pd_pp_model.c ****   size_t box_nb = 0;
 189              		.loc 1 97 3 view .LVU41
  98:Lib/lib_vision_models_pp/lib_vision_models_pp/Src/pd_pp_model.c **** 
 190              		.loc 1 98 3 view .LVU42
 100:Lib/lib_vision_models_pp/lib_vision_models_pp/Src/pd_pp_model.c ****     pd_pp_box_t *pBox = &pBoxes[box_nb]; //&pd_boxes[box_nb];
 191              		.loc 1 100 3 view .LVU43
 192              	.LBB28:
 100:Lib/lib_vision_models_pp/lib_vision_models_pp/Src/pd_pp_model.c ****     pd_pp_box_t *pBox = &pBoxes[box_nb]; //&pd_boxes[box_nb];
 193              		.loc 1 100 8 view .LVU44
 100:Lib/lib_vision_models_pp/lib_vision_models_pp/Src/pd_pp_model.c ****     pd_pp_box_t *pBox = &pBoxes[box_nb]; //&pd_boxes[box_nb];
 194              		.loc 1 100 8 is_stmt 0 view .LVU45
 195 003e 0193     		str	r3, [sp, #4]
 196              	.LVL7:
 197              	.L6:
 100:Lib/lib_vision_models_pp/lib_vision_models_pp/Src/pd_pp_model.c ****     pd_pp_box_t *pBox = &pBoxes[box_nb]; //&pd_boxes[box_nb];
 198              		.loc 1 100 26 is_stmt 1 discriminator 1 view .LVU46
 199 0040 6369     		ldr	r3, [r4, #20]
 200 0042 9E42     		cmp	r6, r3
 201 0044 1BD3     		bcc	.L12
 202              	.L11:
 100:Lib/lib_vision_models_pp/lib_vision_models_pp/Src/pd_pp_model.c ****     pd_pp_box_t *pBox = &pBoxes[box_nb]; //&pd_boxes[box_nb];
 203              		.loc 1 100 26 is_stmt 0 discriminator 1 view .LVU47
ARM GAS  /tmp/ccpBZfNH.s 			page 8


 204              	.LBE28:
 125:Lib/lib_vision_models_pp/lib_vision_models_pp/Src/pd_pp_model.c ****   return AI_PD_POSTPROCESS_ERROR_NO;
 205              		.loc 1 125 3 is_stmt 1 view .LVU48
 206              	.LBE33:
 207              	.LBE39:
 208              	.LBB40:
 209              	.LBB41:
 139:Lib/lib_vision_models_pp/lib_vision_models_pp/Src/pd_pp_model.c **** 
 210              		.loc 1 139 3 is_stmt 0 view .LVU49
 211 0046 1822     		movs	r2, #24
 212 0048 2946     		mov	r1, r5
 213 004a 4046     		mov	r0, r8
 214 004c B64B     		ldr	r3, .L51
 215              	.LBE41:
 216              	.LBE40:
 217              	.LBB79:
 218              	.LBB34:
 125:Lib/lib_vision_models_pp/lib_vision_models_pp/Src/pd_pp_model.c ****   return AI_PD_POSTPROCESS_ERROR_NO;
 219              		.loc 1 125 19 view .LVU50
 220 004e CAF80450 		str	r5, [r10, #4]
 126:Lib/lib_vision_models_pp/lib_vision_models_pp/Src/pd_pp_model.c **** }
 221              		.loc 1 126 3 is_stmt 1 view .LVU51
 222              	.LVL8:
 126:Lib/lib_vision_models_pp/lib_vision_models_pp/Src/pd_pp_model.c **** }
 223              		.loc 1 126 3 is_stmt 0 view .LVU52
 224              	.LBE34:
 225              	.LBE79:
 171:Lib/lib_vision_models_pp/lib_vision_models_pp/Src/pd_pp_model.c ****                      pOutput,
 172:Lib/lib_vision_models_pp/lib_vision_models_pp/Src/pd_pp_model.c ****                      pInput_static_param);
 173:Lib/lib_vision_models_pp/lib_vision_models_pp/Src/pd_pp_model.c **** 
 174:Lib/lib_vision_models_pp/lib_vision_models_pp/Src/pd_pp_model.c ****   if (AI_PD_POSTPROCESS_ERROR_NO != ret) {
 226              		.loc 1 174 3 is_stmt 1 view .LVU53
 175:Lib/lib_vision_models_pp/lib_vision_models_pp/Src/pd_pp_model.c ****     return ret;
 176:Lib/lib_vision_models_pp/lib_vision_models_pp/Src/pd_pp_model.c ****   }
 177:Lib/lib_vision_models_pp/lib_vision_models_pp/Src/pd_pp_model.c ****   pd_pp_nms(pOutput,
 227              		.loc 1 177 3 view .LVU54
 228              	.LBB80:
 229              	.LBI40:
 129:Lib/lib_vision_models_pp/lib_vision_models_pp/Src/pd_pp_model.c ****                      pd_model_pp_static_param_t *pInput_static_param)
 230              		.loc 1 129 12 view .LVU55
 231              	.LBB77:
 132:Lib/lib_vision_models_pp/lib_vision_models_pp/Src/pd_pp_model.c ****   int skip_box;
 232              		.loc 1 132 3 view .LVU56
 133:Lib/lib_vision_models_pp/lib_vision_models_pp/Src/pd_pp_model.c ****   float iou;
 233              		.loc 1 133 3 view .LVU57
 134:Lib/lib_vision_models_pp/lib_vision_models_pp/Src/pd_pp_model.c ****   pd_pp_box_t *pd_boxes = (pd_pp_box_t *)pOutput->pOutData;
 234              		.loc 1 134 3 view .LVU58
 135:Lib/lib_vision_models_pp/lib_vision_models_pp/Src/pd_pp_model.c ****   size_t box_nb =  pOutput->box_nb;
 235              		.loc 1 135 3 view .LVU59
 136:Lib/lib_vision_models_pp/lib_vision_models_pp/Src/pd_pp_model.c **** 
 236              		.loc 1 136 3 view .LVU60
 139:Lib/lib_vision_models_pp/lib_vision_models_pp/Src/pd_pp_model.c **** 
 237              		.loc 1 139 3 view .LVU61
 238 0052 FFF7FEFF 		bl	qsort
 239              	.LVL9:
 142:Lib/lib_vision_models_pp/lib_vision_models_pp/Src/pd_pp_model.c ****     skip_box = 0;
 240              		.loc 1 142 3 view .LVU62
ARM GAS  /tmp/ccpBZfNH.s 			page 9


 241              	.LBB42:
 142:Lib/lib_vision_models_pp/lib_vision_models_pp/Src/pd_pp_model.c ****     skip_box = 0;
 242              		.loc 1 142 8 view .LVU63
 142:Lib/lib_vision_models_pp/lib_vision_models_pp/Src/pd_pp_model.c ****     skip_box = 0;
 243              		.loc 1 142 8 is_stmt 0 view .LVU64
 244 0056 4FF0180E 		mov	lr, #24
 142:Lib/lib_vision_models_pp/lib_vision_models_pp/Src/pd_pp_model.c ****     skip_box = 0;
 245              		.loc 1 142 3 view .LVU65
 246 005a 4746     		mov	r7, r8
 247              	.LBE42:
 132:Lib/lib_vision_models_pp/lib_vision_models_pp/Src/pd_pp_model.c ****   int skip_box;
 248              		.loc 1 132 7 view .LVU66
 249 005c 4FF0000C 		mov	ip, #0
 250              	.LBB75:
 251              	.LBB43:
 252              	.LBB44:
 253              	.LBB45:
 254              	.LBB46:
 255              	.LBB47:
  39:Lib/lib_vision_models_pp/lib_vision_models_pp/Src/pd_pp_model.c ****   corners[0].y = box->y_center - box->height / 2;
 256              		.loc 1 39 32 view .LVU67
 257 0060 F6EE006A 		vmov.f32	s13, #5.0e-1
 258              	.LBE47:
 259              	.LBE46:
  74:Lib/lib_vision_models_pp/lib_vision_models_pp/Src/pd_pp_model.c **** 
 260              		.loc 1 74 12 view .LVU68
 261 0064 9FEDB14A 		vldr.32	s8, .L51+4
 262 0068 0EFB058E 		mla	lr, lr, r5, r8
 263              	.LVL10:
 264              	.L13:
  74:Lib/lib_vision_models_pp/lib_vision_models_pp/Src/pd_pp_model.c **** 
 265              		.loc 1 74 12 view .LVU69
 266              	.LBE45:
 267              	.LBE44:
 268              	.LBE43:
 142:Lib/lib_vision_models_pp/lib_vision_models_pp/Src/pd_pp_model.c ****     skip_box = 0;
 269              		.loc 1 142 24 is_stmt 1 discriminator 1 view .LVU70
 270 006c 7745     		cmp	r7, lr
 271 006e 40F05781 		bne	.L39
 272              	.LBE75:
 273              	.LBE77:
 274              	.LBE80:
 178:Lib/lib_vision_models_pp/lib_vision_models_pp/Src/pd_pp_model.c ****             pInput_static_param);
 179:Lib/lib_vision_models_pp/lib_vision_models_pp/Src/pd_pp_model.c **** 
 180:Lib/lib_vision_models_pp/lib_vision_models_pp/Src/pd_pp_model.c ****   return ret;
 181:Lib/lib_vision_models_pp/lib_vision_models_pp/Src/pd_pp_model.c **** }
 275              		.loc 1 181 1 is_stmt 0 view .LVU71
 276 0072 0020     		movs	r0, #0
 277 0074 15B0     		add	sp, sp, #84
 278              		.cfi_remember_state
 279              		.cfi_def_cfa_offset 52
 280              		@ sp needed
 281 0076 BDEC048B 		vldm	sp!, {d8-d9}
 282              		.cfi_restore 82
 283              		.cfi_restore 83
 284              		.cfi_restore 80
 285              		.cfi_restore 81
ARM GAS  /tmp/ccpBZfNH.s 			page 10


 286              		.cfi_def_cfa_offset 36
 287 007a BDE8F08F 		pop	{r4, r5, r6, r7, r8, r9, r10, fp, pc}
 288              	.LVL11:
 289              	.L12:
 290              		.cfi_restore_state
 291              	.LBB81:
 292              	.LBB35:
 293              	.LBB29:
 294              	.LBB26:
 101:Lib/lib_vision_models_pp/lib_vision_models_pp/Src/pd_pp_model.c **** 
 295              		.loc 1 101 5 is_stmt 1 view .LVU72
 101:Lib/lib_vision_models_pp/lib_vision_models_pp/Src/pd_pp_model.c **** 
 296              		.loc 1 101 18 is_stmt 0 view .LVU73
 297 007e 1823     		movs	r3, #24
 104:Lib/lib_vision_models_pp/lib_vision_models_pp/Src/pd_pp_model.c ****     if (pBox->prob >= pInput_static_param->conf_threshold) {
 298              		.loc 1 104 48 view .LVU74
 299 0080 B2EC010A 		vldmia.32	r2!, {s0}
 101:Lib/lib_vision_models_pp/lib_vision_models_pp/Src/pd_pp_model.c **** 
 300              		.loc 1 101 18 view .LVU75
 301 0084 03FB0581 		mla	r1, r3, r5, r8
 104:Lib/lib_vision_models_pp/lib_vision_models_pp/Src/pd_pp_model.c ****     if (pBox->prob >= pInput_static_param->conf_threshold) {
 302              		.loc 1 104 33 view .LVU76
 303 0088 B1EE400A 		vneg.f32	s0, s0
 101:Lib/lib_vision_models_pp/lib_vision_models_pp/Src/pd_pp_model.c **** 
 304              		.loc 1 101 18 view .LVU77
 305 008c 0391     		str	r1, [sp, #12]
 306              	.LVL12:
 104:Lib/lib_vision_models_pp/lib_vision_models_pp/Src/pd_pp_model.c ****     if (pBox->prob >= pInput_static_param->conf_threshold) {
 307              		.loc 1 104 5 is_stmt 1 view .LVU78
 104:Lib/lib_vision_models_pp/lib_vision_models_pp/Src/pd_pp_model.c ****     if (pBox->prob >= pInput_static_param->conf_threshold) {
 308              		.loc 1 104 48 is_stmt 0 view .LVU79
 309 008e 0292     		str	r2, [sp, #8]
 104:Lib/lib_vision_models_pp/lib_vision_models_pp/Src/pd_pp_model.c ****     if (pBox->prob >= pInput_static_param->conf_threshold) {
 310              		.loc 1 104 33 view .LVU80
 311 0090 FFF7FEFF 		bl	expf
 312              	.LVL13:
 104:Lib/lib_vision_models_pp/lib_vision_models_pp/Src/pd_pp_model.c ****     if (pBox->prob >= pInput_static_param->conf_threshold) {
 313              		.loc 1 104 31 discriminator 1 view .LVU81
 314 0094 30EE090A 		vadd.f32	s0, s0, s18
 105:Lib/lib_vision_models_pp/lib_vision_models_pp/Src/pd_pp_model.c ****       /* decode palm box */
 315              		.loc 1 105 8 view .LVU82
 316 0098 94ED037A 		vldr.32	s14, [r4, #12]
 104:Lib/lib_vision_models_pp/lib_vision_models_pp/Src/pd_pp_model.c ****     if (pBox->prob >= pInput_static_param->conf_threshold) {
 317              		.loc 1 104 23 discriminator 1 view .LVU83
 318 009c C9EE007A 		vdiv.f32	s15, s18, s0
 105:Lib/lib_vision_models_pp/lib_vision_models_pp/Src/pd_pp_model.c ****       /* decode palm box */
 319              		.loc 1 105 8 view .LVU84
 320 00a0 F4EEC77A 		vcmpe.f32	s15, s14
 321 00a4 F1EE10FA 		vmrs	APSR_nzcv, FPSCR
 104:Lib/lib_vision_models_pp/lib_vision_models_pp/Src/pd_pp_model.c ****     if (pBox->prob >= pInput_static_param->conf_threshold) {
 322              		.loc 1 104 16 discriminator 1 view .LVU85
 323 00a8 0399     		ldr	r1, [sp, #12]
 105:Lib/lib_vision_models_pp/lib_vision_models_pp/Src/pd_pp_model.c ****       /* decode palm box */
 324              		.loc 1 105 8 view .LVU86
 325 00aa 029A     		ldr	r2, [sp, #8]
 104:Lib/lib_vision_models_pp/lib_vision_models_pp/Src/pd_pp_model.c ****     if (pBox->prob >= pInput_static_param->conf_threshold) {
 326              		.loc 1 104 16 discriminator 1 view .LVU87
ARM GAS  /tmp/ccpBZfNH.s 			page 11


 327 00ac C1ED007A 		vstr.32	s15, [r1]
 105:Lib/lib_vision_models_pp/lib_vision_models_pp/Src/pd_pp_model.c ****       /* decode palm box */
 328              		.loc 1 105 5 is_stmt 1 view .LVU88
 105:Lib/lib_vision_models_pp/lib_vision_models_pp/Src/pd_pp_model.c ****       /* decode palm box */
 329              		.loc 1 105 8 is_stmt 0 view .LVU89
 330 00b0 2DDB     		blt	.L7
 107:Lib/lib_vision_models_pp/lib_vision_models_pp/Src/pd_pp_model.c ****       pBox->y_center = (pAnchors[i*2+1] * height + pRawBoxes[i * in_struct_size + AI_PD_MODEL_PP_YC
 331              		.loc 1 107 7 is_stmt 1 view .LVU90
 107:Lib/lib_vision_models_pp/lib_vision_models_pp/Src/pd_pp_model.c ****       pBox->y_center = (pAnchors[i*2+1] * height + pRawBoxes[i * in_struct_size + AI_PD_MODEL_PP_YC
 332              		.loc 1 107 50 is_stmt 0 view .LVU91
 333 00b2 99ED007A 		vldr.32	s14, [r9]
 334 00b6 D7ED007A 		vldr.32	s15, [r7]
 335 00ba E8EE077A 		vfma.f32	s15, s16, s14
 107:Lib/lib_vision_models_pp/lib_vision_models_pp/Src/pd_pp_model.c ****       pBox->y_center = (pAnchors[i*2+1] * height + pRawBoxes[i * in_struct_size + AI_PD_MODEL_PP_YC
 336              		.loc 1 107 108 view .LVU92
 337 00be 87EE887A 		vdiv.f32	s14, s15, s16
 107:Lib/lib_vision_models_pp/lib_vision_models_pp/Src/pd_pp_model.c ****       pBox->y_center = (pAnchors[i*2+1] * height + pRawBoxes[i * in_struct_size + AI_PD_MODEL_PP_YC
 338              		.loc 1 107 22 view .LVU93
 339 00c2 81ED017A 		vstr.32	s14, [r1, #4]
 108:Lib/lib_vision_models_pp/lib_vision_models_pp/Src/pd_pp_model.c ****       pBox->width = pRawBoxes[i * in_struct_size + AI_PD_MODEL_PP_WIDTHREL]  / width;
 340              		.loc 1 108 7 is_stmt 1 view .LVU94
 108:Lib/lib_vision_models_pp/lib_vision_models_pp/Src/pd_pp_model.c ****       pBox->width = pRawBoxes[i * in_struct_size + AI_PD_MODEL_PP_WIDTHREL]  / width;
 341              		.loc 1 108 50 is_stmt 0 view .LVU95
 342 00c6 D7ED017A 		vldr.32	s15, [r7, #4]
 343 00ca 99ED017A 		vldr.32	s14, [r9, #4]
 344 00ce E8EE877A 		vfma.f32	s15, s17, s14
 108:Lib/lib_vision_models_pp/lib_vision_models_pp/Src/pd_pp_model.c ****       pBox->width = pRawBoxes[i * in_struct_size + AI_PD_MODEL_PP_WIDTHREL]  / width;
 345              		.loc 1 108 108 view .LVU96
 346 00d2 87EEA87A 		vdiv.f32	s14, s15, s17
 108:Lib/lib_vision_models_pp/lib_vision_models_pp/Src/pd_pp_model.c ****       pBox->width = pRawBoxes[i * in_struct_size + AI_PD_MODEL_PP_WIDTHREL]  / width;
 347              		.loc 1 108 22 view .LVU97
 348 00d6 81ED027A 		vstr.32	s14, [r1, #8]
 109:Lib/lib_vision_models_pp/lib_vision_models_pp/Src/pd_pp_model.c ****       pBox->height = pRawBoxes[i * in_struct_size + AI_PD_MODEL_PP_HEIGHTREL] / height;
 349              		.loc 1 109 7 is_stmt 1 view .LVU98
 109:Lib/lib_vision_models_pp/lib_vision_models_pp/Src/pd_pp_model.c ****       pBox->height = pRawBoxes[i * in_struct_size + AI_PD_MODEL_PP_HEIGHTREL] / height;
 350              		.loc 1 109 78 is_stmt 0 view .LVU99
 351 00da 97ED027A 		vldr.32	s14, [r7, #8]
 352 00de C7EE087A 		vdiv.f32	s15, s14, s16
 109:Lib/lib_vision_models_pp/lib_vision_models_pp/Src/pd_pp_model.c ****       pBox->height = pRawBoxes[i * in_struct_size + AI_PD_MODEL_PP_HEIGHTREL] / height;
 353              		.loc 1 109 19 view .LVU100
 354 00e2 C1ED037A 		vstr.32	s15, [r1, #12]
 110:Lib/lib_vision_models_pp/lib_vision_models_pp/Src/pd_pp_model.c **** 
 355              		.loc 1 110 7 is_stmt 1 view .LVU101
 110:Lib/lib_vision_models_pp/lib_vision_models_pp/Src/pd_pp_model.c **** 
 356              		.loc 1 110 79 is_stmt 0 view .LVU102
 357 00e6 97ED037A 		vldr.32	s14, [r7, #12]
 358 00ea C7EE287A 		vdiv.f32	s15, s14, s17
 359              	.LBB23:
 113:Lib/lib_vision_models_pp/lib_vision_models_pp/Src/pd_pp_model.c ****         pBox->pKps[j].x = (pAnchors[i*2+0] * width  + pRawBoxes[i * in_struct_size + AI_PD_MODEL_PP
 360              		.loc 1 113 7 view .LVU103
 361 00ee 3846     		mov	r0, r7
 362              	.LBE23:
 110:Lib/lib_vision_models_pp/lib_vision_models_pp/Src/pd_pp_model.c **** 
 363              		.loc 1 110 20 view .LVU104
 364 00f0 C1ED047A 		vstr.32	s15, [r1, #16]
 113:Lib/lib_vision_models_pp/lib_vision_models_pp/Src/pd_pp_model.c ****         pBox->pKps[j].x = (pAnchors[i*2+0] * width  + pRawBoxes[i * in_struct_size + AI_PD_MODEL_PP
 365              		.loc 1 113 7 is_stmt 1 view .LVU105
ARM GAS  /tmp/ccpBZfNH.s 			page 12


 366              	.LBB24:
 113:Lib/lib_vision_models_pp/lib_vision_models_pp/Src/pd_pp_model.c ****         pBox->pKps[j].x = (pAnchors[i*2+0] * width  + pRawBoxes[i * in_struct_size + AI_PD_MODEL_PP
 367              		.loc 1 113 12 view .LVU106
 368              	.LVL14:
 113:Lib/lib_vision_models_pp/lib_vision_models_pp/Src/pd_pp_model.c ****         pBox->pKps[j].x = (pAnchors[i*2+0] * width  + pRawBoxes[i * in_struct_size + AI_PD_MODEL_PP
 369              		.loc 1 113 21 is_stmt 0 view .LVU107
 370 00f4 4FF0000E 		mov	lr, #0
 371 00f8 0BF1010C 		add	ip, fp, #1
 372              	.LVL15:
 373              	.L9:
 113:Lib/lib_vision_models_pp/lib_vision_models_pp/Src/pd_pp_model.c ****         pBox->pKps[j].x = (pAnchors[i*2+0] * width  + pRawBoxes[i * in_struct_size + AI_PD_MODEL_PP
 374              		.loc 1 113 30 is_stmt 1 discriminator 1 view .LVU108
 375 00fc BCF1010C 		subs	ip, ip, #1
 376 0100 00F10800 		add	r0, r0, #8
 377 0104 09D1     		bne	.L10
 378              	.LBE24:
 118:Lib/lib_vision_models_pp/lib_vision_models_pp/Src/pd_pp_model.c ****       if (box_nb >= pInput_static_param->max_boxes_limit) {
 379              		.loc 1 118 7 view .LVU109
 119:Lib/lib_vision_models_pp/lib_vision_models_pp/Src/pd_pp_model.c ****         break;
 380              		.loc 1 119 10 is_stmt 0 view .LVU110
 381 0106 A369     		ldr	r3, [r4, #24]
 118:Lib/lib_vision_models_pp/lib_vision_models_pp/Src/pd_pp_model.c ****       if (box_nb >= pInput_static_param->max_boxes_limit) {
 382              		.loc 1 118 13 view .LVU111
 383 0108 0135     		adds	r5, r5, #1
 384              	.LVL16:
 119:Lib/lib_vision_models_pp/lib_vision_models_pp/Src/pd_pp_model.c ****         break;
 385              		.loc 1 119 7 is_stmt 1 view .LVU112
 119:Lib/lib_vision_models_pp/lib_vision_models_pp/Src/pd_pp_model.c ****         break;
 386              		.loc 1 119 10 is_stmt 0 view .LVU113
 387 010a 9D42     		cmp	r5, r3
 388 010c 9BD2     		bcs	.L11
 389              	.LVL17:
 390              	.L7:
 119:Lib/lib_vision_models_pp/lib_vision_models_pp/Src/pd_pp_model.c ****         break;
 391              		.loc 1 119 10 view .LVU114
 392              	.LBE26:
 100:Lib/lib_vision_models_pp/lib_vision_models_pp/Src/pd_pp_model.c ****     pd_pp_box_t *pBox = &pBoxes[box_nb]; //&pd_boxes[box_nb];
 393              		.loc 1 100 66 is_stmt 1 discriminator 2 view .LVU115
 394 010e 019B     		ldr	r3, [sp, #4]
 395 0110 0136     		adds	r6, r6, #1
 396              	.LVL18:
 100:Lib/lib_vision_models_pp/lib_vision_models_pp/Src/pd_pp_model.c ****     pd_pp_box_t *pBox = &pBoxes[box_nb]; //&pd_boxes[box_nb];
 397              		.loc 1 100 66 is_stmt 0 discriminator 2 view .LVU116
 398 0112 1F44     		add	r7, r7, r3
 399 0114 09F10809 		add	r9, r9, #8
 400 0118 92E7     		b	.L6
 401              	.LVL19:
 402              	.L10:
 403              	.LBB27:
 404              	.LBB25:
 114:Lib/lib_vision_models_pp/lib_vision_models_pp/Src/pd_pp_model.c ****         pBox->pKps[j].y = (pAnchors[i*2+1] * height + pRawBoxes[i * in_struct_size + AI_PD_MODEL_PP
 405              		.loc 1 114 9 is_stmt 1 view .LVU117
 114:Lib/lib_vision_models_pp/lib_vision_models_pp/Src/pd_pp_model.c ****         pBox->pKps[j].y = (pAnchors[i*2+1] * height + pRawBoxes[i * in_struct_size + AI_PD_MODEL_PP
 406              		.loc 1 114 53 is_stmt 0 view .LVU118
 407 011a 99ED007A 		vldr.32	s14, [r9]
 408 011e D0ED027A 		vldr.32	s15, [r0, #8]
 409 0122 E8EE077A 		vfma.f32	s15, s16, s14
ARM GAS  /tmp/ccpBZfNH.s 			page 13


 114:Lib/lib_vision_models_pp/lib_vision_models_pp/Src/pd_pp_model.c ****         pBox->pKps[j].y = (pAnchors[i*2+1] * height + pRawBoxes[i * in_struct_size + AI_PD_MODEL_PP
 410              		.loc 1 114 127 view .LVU119
 411 0126 87EE887A 		vdiv.f32	s14, s15, s16
 114:Lib/lib_vision_models_pp/lib_vision_models_pp/Src/pd_pp_model.c ****         pBox->pKps[j].y = (pAnchors[i*2+1] * height + pRawBoxes[i * in_struct_size + AI_PD_MODEL_PP
 412              		.loc 1 114 19 view .LVU120
 413 012a 4B69     		ldr	r3, [r1, #20]
 414 012c 03EBCE03 		add	r3, r3, lr, lsl #3
 114:Lib/lib_vision_models_pp/lib_vision_models_pp/Src/pd_pp_model.c ****         pBox->pKps[j].y = (pAnchors[i*2+1] * height + pRawBoxes[i * in_struct_size + AI_PD_MODEL_PP
 415              		.loc 1 114 25 view .LVU121
 416 0130 83ED007A 		vstr.32	s14, [r3]
 115:Lib/lib_vision_models_pp/lib_vision_models_pp/Src/pd_pp_model.c ****       }
 417              		.loc 1 115 9 is_stmt 1 view .LVU122
 115:Lib/lib_vision_models_pp/lib_vision_models_pp/Src/pd_pp_model.c ****       }
 418              		.loc 1 115 53 is_stmt 0 view .LVU123
 419 0134 99ED017A 		vldr.32	s14, [r9, #4]
 420 0138 D0ED037A 		vldr.32	s15, [r0, #12]
 421 013c E8EE877A 		vfma.f32	s15, s17, s14
 115:Lib/lib_vision_models_pp/lib_vision_models_pp/Src/pd_pp_model.c ****       }
 422              		.loc 1 115 127 view .LVU124
 423 0140 87EEA87A 		vdiv.f32	s14, s15, s17
 113:Lib/lib_vision_models_pp/lib_vision_models_pp/Src/pd_pp_model.c ****         pBox->pKps[j].x = (pAnchors[i*2+0] * width  + pRawBoxes[i * in_struct_size + AI_PD_MODEL_PP
 424              		.loc 1 113 68 discriminator 3 view .LVU125
 425 0144 0EF1010E 		add	lr, lr, #1
 426              	.LVL20:
 115:Lib/lib_vision_models_pp/lib_vision_models_pp/Src/pd_pp_model.c ****       }
 427              		.loc 1 115 25 view .LVU126
 428 0148 83ED017A 		vstr.32	s14, [r3, #4]
 113:Lib/lib_vision_models_pp/lib_vision_models_pp/Src/pd_pp_model.c ****         pBox->pKps[j].x = (pAnchors[i*2+0] * width  + pRawBoxes[i * in_struct_size + AI_PD_MODEL_PP
 429              		.loc 1 113 68 is_stmt 1 discriminator 3 view .LVU127
 430              	.LVL21:
 113:Lib/lib_vision_models_pp/lib_vision_models_pp/Src/pd_pp_model.c ****         pBox->pKps[j].x = (pAnchors[i*2+0] * width  + pRawBoxes[i * in_struct_size + AI_PD_MODEL_PP
 431              		.loc 1 113 68 is_stmt 0 discriminator 3 view .LVU128
 432 014c D6E7     		b	.L9
 433              	.LVL22:
 434              	.L31:
 113:Lib/lib_vision_models_pp/lib_vision_models_pp/Src/pd_pp_model.c ****         pBox->pKps[j].x = (pAnchors[i*2+0] * width  + pRawBoxes[i * in_struct_size + AI_PD_MODEL_PP
 435              		.loc 1 113 68 discriminator 3 view .LVU129
 436              	.LBE25:
 437              	.LBE27:
 438              	.LBE29:
 439              	.LBE35:
 440              	.LBE81:
 441              	.LBB82:
 442              	.LBB78:
 443              	.LBB76:
 444              	.LBB72:
 145:Lib/lib_vision_models_pp/lib_vision_models_pp/Src/pd_pp_model.c ****       if (iou >= pInput_static_param->iou_threshold) {
 445              		.loc 1 145 7 is_stmt 1 view .LVU130
 446              	.LBB70:
 447              	.LBI44:
  45:Lib/lib_vision_models_pp/lib_vision_models_pp/Src/pd_pp_model.c **** {
 448              		.loc 1 45 14 view .LVU131
 449              	.LBB68:
  47:Lib/lib_vision_models_pp/lib_vision_models_pp/Src/pd_pp_model.c ****   float32_t intersect_xmin;
 450              		.loc 1 47 3 view .LVU132
  48:Lib/lib_vision_models_pp/lib_vision_models_pp/Src/pd_pp_model.c ****   float32_t intersect_ymin;
 451              		.loc 1 48 3 view .LVU133
ARM GAS  /tmp/ccpBZfNH.s 			page 14


  49:Lib/lib_vision_models_pp/lib_vision_models_pp/Src/pd_pp_model.c ****   float32_t intersect_xmax;
 452              		.loc 1 49 3 view .LVU134
  50:Lib/lib_vision_models_pp/lib_vision_models_pp/Src/pd_pp_model.c ****   float32_t intersect_ymax;
 453              		.loc 1 50 3 view .LVU135
  51:Lib/lib_vision_models_pp/lib_vision_models_pp/Src/pd_pp_model.c ****   float32_t intersect_area;
 454              		.loc 1 51 3 view .LVU136
  52:Lib/lib_vision_models_pp/lib_vision_models_pp/Src/pd_pp_model.c ****   float32_t area[2];
 455              		.loc 1 52 3 view .LVU137
  53:Lib/lib_vision_models_pp/lib_vision_models_pp/Src/pd_pp_model.c ****   float32_t xmin[2];
 456              		.loc 1 53 3 view .LVU138
  54:Lib/lib_vision_models_pp/lib_vision_models_pp/Src/pd_pp_model.c ****   float32_t xmax[2];
 457              		.loc 1 54 3 view .LVU139
  55:Lib/lib_vision_models_pp/lib_vision_models_pp/Src/pd_pp_model.c ****   float32_t ymin[2];
 458              		.loc 1 55 3 view .LVU140
  56:Lib/lib_vision_models_pp/lib_vision_models_pp/Src/pd_pp_model.c ****   float32_t ymax[2];
 459              		.loc 1 56 3 view .LVU141
  57:Lib/lib_vision_models_pp/lib_vision_models_pp/Src/pd_pp_model.c ****   int i;
 460              		.loc 1 57 3 view .LVU142
  58:Lib/lib_vision_models_pp/lib_vision_models_pp/Src/pd_pp_model.c **** 
 461              		.loc 1 58 3 view .LVU143
  60:Lib/lib_vision_models_pp/lib_vision_models_pp/Src/pd_pp_model.c ****   pd_pp_compute_opposite_corners_from_box(box1, corners[1]);
 462              		.loc 1 60 3 view .LVU144
 463              	.LBB53:
 464              	.LBI46:
  37:Lib/lib_vision_models_pp/lib_vision_models_pp/Src/pd_pp_model.c **** {
 465              		.loc 1 37 13 view .LVU145
 466              	.LBB48:
  39:Lib/lib_vision_models_pp/lib_vision_models_pp/Src/pd_pp_model.c ****   corners[0].y = box->y_center - box->height / 2;
 467              		.loc 1 39 3 view .LVU146
  39:Lib/lib_vision_models_pp/lib_vision_models_pp/Src/pd_pp_model.c ****   corners[0].y = box->y_center - box->height / 2;
 468              		.loc 1 39 21 is_stmt 0 view .LVU147
 469 014e 97ED017A 		vldr.32	s14, [r7, #4]
  39:Lib/lib_vision_models_pp/lib_vision_models_pp/Src/pd_pp_model.c ****   corners[0].y = box->y_center - box->height / 2;
 470              		.loc 1 39 37 view .LVU148
 471 0152 D7ED035A 		vldr.32	s11, [r7, #12]
  39:Lib/lib_vision_models_pp/lib_vision_models_pp/Src/pd_pp_model.c ****   corners[0].y = box->y_center - box->height / 2;
 472              		.loc 1 39 32 view .LVU149
 473 0156 F0EE477A 		vmov.f32	s15, s14
 474 015a E5EEE67A 		vfms.f32	s15, s11, s13
  40:Lib/lib_vision_models_pp/lib_vision_models_pp/Src/pd_pp_model.c ****   corners[1].x = box->x_center + box->width / 2;
 475              		.loc 1 40 37 view .LVU150
 476 015e 97ED046A 		vldr.32	s12, [r7, #16]
  41:Lib/lib_vision_models_pp/lib_vision_models_pp/Src/pd_pp_model.c ****   corners[1].y = box->y_center + box->height / 2;
 477              		.loc 1 41 32 view .LVU151
 478 0162 A5EEA67A 		vfma.f32	s14, s11, s13
  39:Lib/lib_vision_models_pp/lib_vision_models_pp/Src/pd_pp_model.c ****   corners[0].y = box->y_center - box->height / 2;
 479              		.loc 1 39 16 view .LVU152
 480 0166 CDED0C7A 		vstr.32	s15, [sp, #48]
  40:Lib/lib_vision_models_pp/lib_vision_models_pp/Src/pd_pp_model.c ****   corners[1].x = box->x_center + box->width / 2;
 481              		.loc 1 40 3 is_stmt 1 view .LVU153
  40:Lib/lib_vision_models_pp/lib_vision_models_pp/Src/pd_pp_model.c ****   corners[1].x = box->x_center + box->width / 2;
 482              		.loc 1 40 21 is_stmt 0 view .LVU154
 483 016a D7ED027A 		vldr.32	s15, [r7, #8]
  41:Lib/lib_vision_models_pp/lib_vision_models_pp/Src/pd_pp_model.c ****   corners[1].y = box->y_center + box->height / 2;
 484              		.loc 1 41 16 view .LVU155
 485 016e 8DED0E7A 		vstr.32	s14, [sp, #56]
  40:Lib/lib_vision_models_pp/lib_vision_models_pp/Src/pd_pp_model.c ****   corners[1].x = box->x_center + box->width / 2;
ARM GAS  /tmp/ccpBZfNH.s 			page 15


 486              		.loc 1 40 32 view .LVU156
 487 0172 B0EE675A 		vmov.f32	s10, s15
 488              	.LBE48:
 489              	.LBE53:
 490              	.LBB54:
 491              	.LBB55:
  39:Lib/lib_vision_models_pp/lib_vision_models_pp/Src/pd_pp_model.c ****   corners[0].y = box->y_center - box->height / 2;
 492              		.loc 1 39 21 view .LVU157
 493 0176 93ED017A 		vldr.32	s14, [r3, #4]
 494              	.LBE55:
 495              	.LBE54:
 496              	.LBB60:
 497              	.LBB49:
  42:Lib/lib_vision_models_pp/lib_vision_models_pp/Src/pd_pp_model.c **** }
 498              		.loc 1 42 32 view .LVU158
 499 017a E6EE267A 		vfma.f32	s15, s12, s13
 500              	.LBE49:
 501              	.LBE60:
 502              	.LBB61:
 503              	.LBB56:
  39:Lib/lib_vision_models_pp/lib_vision_models_pp/Src/pd_pp_model.c ****   corners[0].y = box->y_center - box->height / 2;
 504              		.loc 1 39 37 view .LVU159
 505 017e D3ED035A 		vldr.32	s11, [r3, #12]
 506              	.LBE56:
 507              	.LBE61:
 508              	.LBB62:
 509              	.LBB50:
  42:Lib/lib_vision_models_pp/lib_vision_models_pp/Src/pd_pp_model.c **** }
 510              		.loc 1 42 16 view .LVU160
 511 0182 CDED0F7A 		vstr.32	s15, [sp, #60]
 512              	.LBE50:
 513              	.LBE62:
 514              	.LBB63:
 515              	.LBB57:
  39:Lib/lib_vision_models_pp/lib_vision_models_pp/Src/pd_pp_model.c ****   corners[0].y = box->y_center - box->height / 2;
 516              		.loc 1 39 32 view .LVU161
 517 0186 F0EE477A 		vmov.f32	s15, s14
 518 018a E5EEE67A 		vfms.f32	s15, s11, s13
 519              	.LBE57:
 520              	.LBE63:
 521              	.LBB64:
 522              	.LBB51:
  40:Lib/lib_vision_models_pp/lib_vision_models_pp/Src/pd_pp_model.c ****   corners[1].x = box->x_center + box->width / 2;
 523              		.loc 1 40 32 view .LVU162
 524 018e A6EE665A 		vfms.f32	s10, s12, s13
 525              	.LBE51:
 526              	.LBE64:
 527              	.LBB65:
 528              	.LBB58:
  39:Lib/lib_vision_models_pp/lib_vision_models_pp/Src/pd_pp_model.c ****   corners[0].y = box->y_center - box->height / 2;
 529              		.loc 1 39 16 view .LVU163
 530 0192 CDED107A 		vstr.32	s15, [sp, #64]
  40:Lib/lib_vision_models_pp/lib_vision_models_pp/Src/pd_pp_model.c ****   corners[1].x = box->x_center + box->width / 2;
 531              		.loc 1 40 21 view .LVU164
 532 0196 D3ED027A 		vldr.32	s15, [r3, #8]
  40:Lib/lib_vision_models_pp/lib_vision_models_pp/Src/pd_pp_model.c ****   corners[1].x = box->x_center + box->width / 2;
 533              		.loc 1 40 37 view .LVU165
ARM GAS  /tmp/ccpBZfNH.s 			page 16


 534 019a 93ED046A 		vldr.32	s12, [r3, #16]
 535              	.LBE58:
 536              	.LBE65:
 537              	.LBB66:
 538              	.LBB52:
  40:Lib/lib_vision_models_pp/lib_vision_models_pp/Src/pd_pp_model.c ****   corners[1].x = box->x_center + box->width / 2;
 539              		.loc 1 40 16 view .LVU166
 540 019e 8DED0D5A 		vstr.32	s10, [sp, #52]
  41:Lib/lib_vision_models_pp/lib_vision_models_pp/Src/pd_pp_model.c ****   corners[1].y = box->y_center + box->height / 2;
 541              		.loc 1 41 3 is_stmt 1 view .LVU167
  42:Lib/lib_vision_models_pp/lib_vision_models_pp/Src/pd_pp_model.c **** }
 542              		.loc 1 42 3 view .LVU168
 543              	.LVL23:
  42:Lib/lib_vision_models_pp/lib_vision_models_pp/Src/pd_pp_model.c **** }
 544              		.loc 1 42 3 is_stmt 0 view .LVU169
 545              	.LBE52:
 546              	.LBE66:
  61:Lib/lib_vision_models_pp/lib_vision_models_pp/Src/pd_pp_model.c **** 
 547              		.loc 1 61 3 is_stmt 1 view .LVU170
 548              	.LBB67:
 549              	.LBI54:
  37:Lib/lib_vision_models_pp/lib_vision_models_pp/Src/pd_pp_model.c **** {
 550              		.loc 1 37 13 view .LVU171
 551              	.LBB59:
  39:Lib/lib_vision_models_pp/lib_vision_models_pp/Src/pd_pp_model.c ****   corners[0].y = box->y_center - box->height / 2;
 552              		.loc 1 39 3 view .LVU172
  40:Lib/lib_vision_models_pp/lib_vision_models_pp/Src/pd_pp_model.c ****   corners[1].x = box->x_center + box->width / 2;
 553              		.loc 1 40 3 view .LVU173
  40:Lib/lib_vision_models_pp/lib_vision_models_pp/Src/pd_pp_model.c ****   corners[1].x = box->x_center + box->width / 2;
 554              		.loc 1 40 32 is_stmt 0 view .LVU174
 555 01a2 B0EE675A 		vmov.f32	s10, s15
  41:Lib/lib_vision_models_pp/lib_vision_models_pp/Src/pd_pp_model.c ****   corners[1].y = box->y_center + box->height / 2;
 556              		.loc 1 41 32 view .LVU175
 557 01a6 A5EEA67A 		vfma.f32	s14, s11, s13
  40:Lib/lib_vision_models_pp/lib_vision_models_pp/Src/pd_pp_model.c ****   corners[1].x = box->x_center + box->width / 2;
 558              		.loc 1 40 32 view .LVU176
 559 01aa A6EE665A 		vfms.f32	s10, s12, s13
  42:Lib/lib_vision_models_pp/lib_vision_models_pp/Src/pd_pp_model.c **** }
 560              		.loc 1 42 32 view .LVU177
 561 01ae E6EE267A 		vfma.f32	s15, s12, s13
  40:Lib/lib_vision_models_pp/lib_vision_models_pp/Src/pd_pp_model.c ****   corners[1].x = box->x_center + box->width / 2;
 562              		.loc 1 40 16 view .LVU178
 563 01b2 8DED115A 		vstr.32	s10, [sp, #68]
  41:Lib/lib_vision_models_pp/lib_vision_models_pp/Src/pd_pp_model.c ****   corners[1].y = box->y_center + box->height / 2;
 564              		.loc 1 41 3 is_stmt 1 view .LVU179
  41:Lib/lib_vision_models_pp/lib_vision_models_pp/Src/pd_pp_model.c ****   corners[1].y = box->y_center + box->height / 2;
 565              		.loc 1 41 16 is_stmt 0 view .LVU180
 566 01b6 8DED127A 		vstr.32	s14, [sp, #72]
  42:Lib/lib_vision_models_pp/lib_vision_models_pp/Src/pd_pp_model.c **** }
 567              		.loc 1 42 3 is_stmt 1 view .LVU181
  42:Lib/lib_vision_models_pp/lib_vision_models_pp/Src/pd_pp_model.c **** }
 568              		.loc 1 42 16 is_stmt 0 view .LVU182
 569 01ba CDED137A 		vstr.32	s15, [sp, #76]
 570              	.LVL24:
  42:Lib/lib_vision_models_pp/lib_vision_models_pp/Src/pd_pp_model.c **** }
 571              		.loc 1 42 16 view .LVU183
 572              	.LBE59:
ARM GAS  /tmp/ccpBZfNH.s 			page 17


 573              	.LBE67:
  63:Lib/lib_vision_models_pp/lib_vision_models_pp/Src/pd_pp_model.c ****     xmin[i] = MIN(corners[i][0].x, corners[i][1].x);
 574              		.loc 1 63 3 is_stmt 1 view .LVU184
  63:Lib/lib_vision_models_pp/lib_vision_models_pp/Src/pd_pp_model.c ****     xmin[i] = MIN(corners[i][0].x, corners[i][1].x);
 575              		.loc 1 63 17 discriminator 1 view .LVU185
  63:Lib/lib_vision_models_pp/lib_vision_models_pp/Src/pd_pp_model.c ****     xmin[i] = MIN(corners[i][0].x, corners[i][1].x);
 576              		.loc 1 63 10 is_stmt 0 view .LVU186
 577 01be 0020     		movs	r0, #0
 578 01c0 0CAA     		add	r2, sp, #48
 579 01c2 08AE     		add	r6, sp, #32
 580 01c4 0AAD     		add	r5, sp, #40
 581 01c6 0DF1100A 		add	r10, sp, #16
 582 01ca 0DF11809 		add	r9, sp, #24
 583              	.LVL25:
 584              	.L18:
  64:Lib/lib_vision_models_pp/lib_vision_models_pp/Src/pd_pp_model.c ****     xmax[i] = MAX(corners[i][0].x, corners[i][1].x);
 585              		.loc 1 64 5 is_stmt 1 view .LVU187
  64:Lib/lib_vision_models_pp/lib_vision_models_pp/Src/pd_pp_model.c ****     xmax[i] = MAX(corners[i][0].x, corners[i][1].x);
 586              		.loc 1 64 15 is_stmt 0 view .LVU188
 587 01ce 92ED007A 		vldr.32	s14, [r2]
 588 01d2 D2ED027A 		vldr.32	s15, [r2, #8]
 589 01d6 B4EEE77A 		vcmpe.f32	s14, s15
 590 01da F1EE10FA 		vmrs	APSR_nzcv, FPSCR
 591 01de 08D4     		bmi	.L14
  65:Lib/lib_vision_models_pp/lib_vision_models_pp/Src/pd_pp_model.c ****     ymin[i] = MIN(corners[i][0].y, corners[i][1].y);
 592              		.loc 1 65 5 is_stmt 1 view .LVU189
  65:Lib/lib_vision_models_pp/lib_vision_models_pp/Src/pd_pp_model.c ****     ymin[i] = MIN(corners[i][0].y, corners[i][1].y);
 593              		.loc 1 65 15 is_stmt 0 view .LVU190
 594 01e0 C9BF     		itett	gt
 595 01e2 17EE90BA 		vmovgt	fp, s15
 596 01e6 B0EE677A 		vmovle.f32	s14, s15
  65:Lib/lib_vision_models_pp/lib_vision_models_pp/Src/pd_pp_model.c ****     ymin[i] = MIN(corners[i][0].y, corners[i][1].y);
 597              		.loc 1 65 15 discriminator 1 view .LVU191
 598 01ea F0EE477A 		vmovgt.f32	s15, s14
  65:Lib/lib_vision_models_pp/lib_vision_models_pp/Src/pd_pp_model.c ****     ymin[i] = MIN(corners[i][0].y, corners[i][1].y);
 599              		.loc 1 65 15 view .LVU192
 600 01ee 07EE10BA 		vmovgt	s14, fp
 601              	.L14:
  64:Lib/lib_vision_models_pp/lib_vision_models_pp/Src/pd_pp_model.c ****     xmax[i] = MAX(corners[i][0].x, corners[i][1].x);
 602              		.loc 1 64 13 discriminator 4 view .LVU193
 603 01f2 AAEC017A 		vstmia.32	r10!, {s14}
  65:Lib/lib_vision_models_pp/lib_vision_models_pp/Src/pd_pp_model.c ****     ymin[i] = MIN(corners[i][0].y, corners[i][1].y);
 604              		.loc 1 65 13 discriminator 4 view .LVU194
 605 01f6 E9EC017A 		vstmia.32	r9!, {s15}
  66:Lib/lib_vision_models_pp/lib_vision_models_pp/Src/pd_pp_model.c ****     ymax[i] = MAX(corners[i][0].y, corners[i][1].y);
 606              		.loc 1 66 5 is_stmt 1 view .LVU195
  66:Lib/lib_vision_models_pp/lib_vision_models_pp/Src/pd_pp_model.c ****     ymax[i] = MAX(corners[i][0].y, corners[i][1].y);
 607              		.loc 1 66 15 is_stmt 0 view .LVU196
 608 01fa 92ED017A 		vldr.32	s14, [r2, #4]
 609 01fe D2ED037A 		vldr.32	s15, [r2, #12]
 610 0202 B4EEE77A 		vcmpe.f32	s14, s15
 611 0206 F1EE10FA 		vmrs	APSR_nzcv, FPSCR
 612 020a 08D4     		bmi	.L16
  67:Lib/lib_vision_models_pp/lib_vision_models_pp/Src/pd_pp_model.c ****   }
 613              		.loc 1 67 5 is_stmt 1 view .LVU197
  67:Lib/lib_vision_models_pp/lib_vision_models_pp/Src/pd_pp_model.c ****   }
 614              		.loc 1 67 15 is_stmt 0 view .LVU198
ARM GAS  /tmp/ccpBZfNH.s 			page 18


 615 020c C9BF     		itett	gt
 616 020e 17EE90BA 		vmovgt	fp, s15
 617 0212 B0EE677A 		vmovle.f32	s14, s15
  67:Lib/lib_vision_models_pp/lib_vision_models_pp/Src/pd_pp_model.c ****   }
 618              		.loc 1 67 15 discriminator 1 view .LVU199
 619 0216 F0EE477A 		vmovgt.f32	s15, s14
  67:Lib/lib_vision_models_pp/lib_vision_models_pp/Src/pd_pp_model.c ****   }
 620              		.loc 1 67 15 view .LVU200
 621 021a 07EE10BA 		vmovgt	s14, fp
 622              	.L16:
  66:Lib/lib_vision_models_pp/lib_vision_models_pp/Src/pd_pp_model.c ****     ymax[i] = MAX(corners[i][0].y, corners[i][1].y);
 623              		.loc 1 66 13 discriminator 4 view .LVU201
 624 021e A6EC017A 		vstmia.32	r6!, {s14}
  67:Lib/lib_vision_models_pp/lib_vision_models_pp/Src/pd_pp_model.c ****   }
 625              		.loc 1 67 13 discriminator 4 view .LVU202
 626 0222 E5EC017A 		vstmia.32	r5!, {s15}
  63:Lib/lib_vision_models_pp/lib_vision_models_pp/Src/pd_pp_model.c ****     xmin[i] = MIN(corners[i][0].x, corners[i][1].x);
 627              		.loc 1 63 23 is_stmt 1 discriminator 2 view .LVU203
 628              	.LVL26:
  63:Lib/lib_vision_models_pp/lib_vision_models_pp/Src/pd_pp_model.c ****     xmin[i] = MIN(corners[i][0].x, corners[i][1].x);
 629              		.loc 1 63 17 discriminator 1 view .LVU204
 630 0226 1032     		adds	r2, r2, #16
 631 0228 0028     		cmp	r0, #0
 632 022a 74D0     		beq	.L36
 633              	.LVL27:
  70:Lib/lib_vision_models_pp/lib_vision_models_pp/Src/pd_pp_model.c ****     area[i] = (ymax[i] - ymin[i]) * (xmax[i] - xmin[i]);
 634              		.loc 1 70 17 discriminator 1 view .LVU205
  71:Lib/lib_vision_models_pp/lib_vision_models_pp/Src/pd_pp_model.c ****   }
 635              		.loc 1 71 5 view .LVU206
  71:Lib/lib_vision_models_pp/lib_vision_models_pp/Src/pd_pp_model.c ****   }
 636              		.loc 1 71 20 is_stmt 0 view .LVU207
 637 022c DDED0A3A 		vldr.32	s7, [sp, #40]
  71:Lib/lib_vision_models_pp/lib_vision_models_pp/Src/pd_pp_model.c ****   }
 638              		.loc 1 71 30 view .LVU208
 639 0230 DDED082A 		vldr.32	s5, [sp, #32]
  71:Lib/lib_vision_models_pp/lib_vision_models_pp/Src/pd_pp_model.c ****   }
 640              		.loc 1 71 42 view .LVU209
 641 0234 9DED063A 		vldr.32	s6, [sp, #24]
  71:Lib/lib_vision_models_pp/lib_vision_models_pp/Src/pd_pp_model.c ****   }
 642              		.loc 1 71 52 view .LVU210
 643 0238 9DED042A 		vldr.32	s4, [sp, #16]
  71:Lib/lib_vision_models_pp/lib_vision_models_pp/Src/pd_pp_model.c ****   }
 644              		.loc 1 71 24 view .LVU211
 645 023c 33EEE26A 		vsub.f32	s12, s7, s5
  71:Lib/lib_vision_models_pp/lib_vision_models_pp/Src/pd_pp_model.c ****   }
 646              		.loc 1 71 46 view .LVU212
 647 0240 73EE427A 		vsub.f32	s15, s6, s4
  71:Lib/lib_vision_models_pp/lib_vision_models_pp/Src/pd_pp_model.c ****   }
 648              		.loc 1 71 35 view .LVU213
 649 0244 26EE276A 		vmul.f32	s12, s12, s15
  70:Lib/lib_vision_models_pp/lib_vision_models_pp/Src/pd_pp_model.c ****     area[i] = (ymax[i] - ymin[i]) * (xmax[i] - xmin[i]);
 650              		.loc 1 70 23 is_stmt 1 discriminator 3 view .LVU214
 651              	.LVL28:
  70:Lib/lib_vision_models_pp/lib_vision_models_pp/Src/pd_pp_model.c ****     area[i] = (ymax[i] - ymin[i]) * (xmax[i] - xmin[i]);
 652              		.loc 1 70 17 discriminator 1 view .LVU215
  71:Lib/lib_vision_models_pp/lib_vision_models_pp/Src/pd_pp_model.c ****   }
 653              		.loc 1 71 5 view .LVU216
ARM GAS  /tmp/ccpBZfNH.s 			page 19


  73:Lib/lib_vision_models_pp/lib_vision_models_pp/Src/pd_pp_model.c ****     return 0;
 654              		.loc 1 73 6 is_stmt 0 view .LVU217
 655 0248 B5EEC06A 		vcmpe.f32	s12, #0
 656 024c F1EE10FA 		vmrs	APSR_nzcv, FPSCR
  71:Lib/lib_vision_models_pp/lib_vision_models_pp/Src/pd_pp_model.c ****   }
 657              		.loc 1 71 20 view .LVU218
 658 0250 DDED0B7A 		vldr.32	s15, [sp, #44]
  71:Lib/lib_vision_models_pp/lib_vision_models_pp/Src/pd_pp_model.c ****   }
 659              		.loc 1 71 30 view .LVU219
 660 0254 DDED094A 		vldr.32	s9, [sp, #36]
  71:Lib/lib_vision_models_pp/lib_vision_models_pp/Src/pd_pp_model.c ****   }
 661              		.loc 1 71 42 view .LVU220
 662 0258 9DED077A 		vldr.32	s14, [sp, #28]
  71:Lib/lib_vision_models_pp/lib_vision_models_pp/Src/pd_pp_model.c ****   }
 663              		.loc 1 71 52 view .LVU221
 664 025c 9DED055A 		vldr.32	s10, [sp, #20]
  70:Lib/lib_vision_models_pp/lib_vision_models_pp/Src/pd_pp_model.c ****     area[i] = (ymax[i] - ymin[i]) * (xmax[i] - xmin[i]);
 665              		.loc 1 70 23 is_stmt 1 discriminator 3 view .LVU222
 666              	.LVL29:
  70:Lib/lib_vision_models_pp/lib_vision_models_pp/Src/pd_pp_model.c ****     area[i] = (ymax[i] - ymin[i]) * (xmax[i] - xmin[i]);
 667              		.loc 1 70 17 discriminator 1 view .LVU223
  73:Lib/lib_vision_models_pp/lib_vision_models_pp/Src/pd_pp_model.c ****     return 0;
 668              		.loc 1 73 3 view .LVU224
  74:Lib/lib_vision_models_pp/lib_vision_models_pp/Src/pd_pp_model.c **** 
 669              		.loc 1 74 12 is_stmt 0 view .LVU225
 670 0260 F0EE445A 		vmov.f32	s11, s8
  73:Lib/lib_vision_models_pp/lib_vision_models_pp/Src/pd_pp_model.c ****     return 0;
 671              		.loc 1 73 6 view .LVU226
 672 0264 3CD9     		bls	.L19
  71:Lib/lib_vision_models_pp/lib_vision_models_pp/Src/pd_pp_model.c ****   }
 673              		.loc 1 71 24 view .LVU227
 674 0266 77EEE45A 		vsub.f32	s11, s15, s9
  71:Lib/lib_vision_models_pp/lib_vision_models_pp/Src/pd_pp_model.c ****   }
 675              		.loc 1 71 46 view .LVU228
 676 026a 77EE451A 		vsub.f32	s3, s14, s10
  71:Lib/lib_vision_models_pp/lib_vision_models_pp/Src/pd_pp_model.c ****   }
 677              		.loc 1 71 35 view .LVU229
 678 026e 65EEA15A 		vmul.f32	s11, s11, s3
  73:Lib/lib_vision_models_pp/lib_vision_models_pp/Src/pd_pp_model.c ****     return 0;
 679              		.loc 1 73 20 discriminator 1 view .LVU230
 680 0272 F5EEC05A 		vcmpe.f32	s11, #0
 681 0276 F1EE10FA 		vmrs	APSR_nzcv, FPSCR
 682 027a 4ED9     		bls	.L38
  76:Lib/lib_vision_models_pp/lib_vision_models_pp/Src/pd_pp_model.c ****   intersect_ymin = MAX(ymin[0], ymin[1]);
 683              		.loc 1 76 3 is_stmt 1 view .LVU231
  76:Lib/lib_vision_models_pp/lib_vision_models_pp/Src/pd_pp_model.c ****   intersect_ymin = MAX(ymin[0], ymin[1]);
 684              		.loc 1 76 20 is_stmt 0 discriminator 1 view .LVU232
 685 027c B4EE452A 		vcmp.f32	s4, s10
 686 0280 F1EE10FA 		vmrs	APSR_nzcv, FPSCR
  77:Lib/lib_vision_models_pp/lib_vision_models_pp/Src/pd_pp_model.c ****   intersect_xmax = MIN(xmax[0], xmax[1]);
 687              		.loc 1 77 20 discriminator 1 view .LVU233
 688 0284 F4EE642A 		vcmp.f32	s5, s9
  76:Lib/lib_vision_models_pp/lib_vision_models_pp/Src/pd_pp_model.c ****   intersect_ymin = MAX(ymin[0], ymin[1]);
 689              		.loc 1 76 20 discriminator 1 view .LVU234
 690 0288 32FE055A 		vselgt.f32	s10, s4, s10
 691              	.LVL30:
  77:Lib/lib_vision_models_pp/lib_vision_models_pp/Src/pd_pp_model.c ****   intersect_xmax = MIN(xmax[0], xmax[1]);
ARM GAS  /tmp/ccpBZfNH.s 			page 20


 692              		.loc 1 77 3 is_stmt 1 view .LVU235
  77:Lib/lib_vision_models_pp/lib_vision_models_pp/Src/pd_pp_model.c ****   intersect_xmax = MIN(xmax[0], xmax[1]);
 693              		.loc 1 77 20 is_stmt 0 discriminator 1 view .LVU236
 694 028c F1EE10FA 		vmrs	APSR_nzcv, FPSCR
  78:Lib/lib_vision_models_pp/lib_vision_models_pp/Src/pd_pp_model.c ****   intersect_ymax = MIN(ymax[0], ymax[1]);
 695              		.loc 1 78 20 discriminator 1 view .LVU237
 696 0290 B4EE473A 		vcmp.f32	s6, s14
  77:Lib/lib_vision_models_pp/lib_vision_models_pp/Src/pd_pp_model.c ****   intersect_xmax = MIN(xmax[0], xmax[1]);
 697              		.loc 1 77 20 discriminator 1 view .LVU238
 698 0294 72FEA44A 		vselgt.f32	s9, s5, s9
 699              	.LVL31:
  78:Lib/lib_vision_models_pp/lib_vision_models_pp/Src/pd_pp_model.c ****   intersect_ymax = MIN(ymax[0], ymax[1]);
 700              		.loc 1 78 3 is_stmt 1 view .LVU239
  78:Lib/lib_vision_models_pp/lib_vision_models_pp/Src/pd_pp_model.c ****   intersect_ymax = MIN(ymax[0], ymax[1]);
 701              		.loc 1 78 20 is_stmt 0 discriminator 1 view .LVU240
 702 0298 F1EE10FA 		vmrs	APSR_nzcv, FPSCR
  79:Lib/lib_vision_models_pp/lib_vision_models_pp/Src/pd_pp_model.c **** 
 703              		.loc 1 79 20 discriminator 1 view .LVU241
 704 029c F4EE673A 		vcmp.f32	s7, s15
  78:Lib/lib_vision_models_pp/lib_vision_models_pp/Src/pd_pp_model.c ****   intersect_ymax = MIN(ymax[0], ymax[1]);
 705              		.loc 1 78 20 discriminator 1 view .LVU242
 706 02a0 48BF     		it	mi
 707 02a2 B0EE437A 		vmovmi.f32	s14, s6
 708              	.LVL32:
  79:Lib/lib_vision_models_pp/lib_vision_models_pp/Src/pd_pp_model.c **** 
 709              		.loc 1 79 3 is_stmt 1 view .LVU243
  79:Lib/lib_vision_models_pp/lib_vision_models_pp/Src/pd_pp_model.c **** 
 710              		.loc 1 79 20 is_stmt 0 discriminator 1 view .LVU244
 711 02a6 F1EE10FA 		vmrs	APSR_nzcv, FPSCR
 712 02aa 48BF     		it	mi
 713 02ac F0EE637A 		vmovmi.f32	s15, s7
 714              	.LVL33:
  81:Lib/lib_vision_models_pp/lib_vision_models_pp/Src/pd_pp_model.c **** 
 715              		.loc 1 81 3 is_stmt 1 view .LVU245
  81:Lib/lib_vision_models_pp/lib_vision_models_pp/Src/pd_pp_model.c **** 
 716              		.loc 1 81 20 is_stmt 0 view .LVU246
 717 02b0 77EEE47A 		vsub.f32	s15, s15, s9
 718              	.LVL34:
  81:Lib/lib_vision_models_pp/lib_vision_models_pp/Src/pd_pp_model.c **** 
 719              		.loc 1 81 65 discriminator 4 view .LVU247
 720 02b4 37EE457A 		vsub.f32	s14, s14, s10
 721              	.LVL35:
  81:Lib/lib_vision_models_pp/lib_vision_models_pp/Src/pd_pp_model.c **** 
 722              		.loc 1 81 20 view .LVU248
 723 02b8 F5EEC07A 		vcmpe.f32	s15, #0
 724 02bc F1EE10FA 		vmrs	APSR_nzcv, FPSCR
 725              	.LVL36:
  81:Lib/lib_vision_models_pp/lib_vision_models_pp/Src/pd_pp_model.c **** 
 726              		.loc 1 81 65 discriminator 4 view .LVU249
 727 02c0 B5EEC07A 		vcmpe.f32	s14, #0
  81:Lib/lib_vision_models_pp/lib_vision_models_pp/Src/pd_pp_model.c **** 
 728              		.loc 1 81 20 discriminator 2 view .LVU250
 729 02c4 77FE847A 		vselgt.f32	s15, s15, s8
  81:Lib/lib_vision_models_pp/lib_vision_models_pp/Src/pd_pp_model.c **** 
 730              		.loc 1 81 65 discriminator 4 view .LVU251
 731 02c8 F1EE10FA 		vmrs	APSR_nzcv, FPSCR
  81:Lib/lib_vision_models_pp/lib_vision_models_pp/Src/pd_pp_model.c **** 
ARM GAS  /tmp/ccpBZfNH.s 			page 21


 732              		.loc 1 81 65 discriminator 6 view .LVU252
 733 02cc 37FE047A 		vselgt.f32	s14, s14, s8
  81:Lib/lib_vision_models_pp/lib_vision_models_pp/Src/pd_pp_model.c **** 
 734              		.loc 1 81 18 discriminator 8 view .LVU253
 735 02d0 67EE877A 		vmul.f32	s15, s15, s14
 736              	.LVL37:
  83:Lib/lib_vision_models_pp/lib_vision_models_pp/Src/pd_pp_model.c **** }
 737              		.loc 1 83 3 is_stmt 1 view .LVU254
  83:Lib/lib_vision_models_pp/lib_vision_models_pp/Src/pd_pp_model.c **** }
 738              		.loc 1 83 36 is_stmt 0 view .LVU255
 739 02d4 36EE256A 		vadd.f32	s12, s12, s11
  83:Lib/lib_vision_models_pp/lib_vision_models_pp/Src/pd_pp_model.c **** }
 740              		.loc 1 83 46 view .LVU256
 741 02d8 36EE676A 		vsub.f32	s12, s12, s15
  83:Lib/lib_vision_models_pp/lib_vision_models_pp/Src/pd_pp_model.c **** }
 742              		.loc 1 83 25 view .LVU257
 743 02dc C7EE865A 		vdiv.f32	s11, s15, s12
 744              	.LVL38:
 745              	.L19:
  83:Lib/lib_vision_models_pp/lib_vision_models_pp/Src/pd_pp_model.c **** }
 746              		.loc 1 83 25 view .LVU258
 747              	.LBE68:
 748              	.LBE70:
 146:Lib/lib_vision_models_pp/lib_vision_models_pp/Src/pd_pp_model.c ****         skip_box = 1;
 749              		.loc 1 146 7 is_stmt 1 view .LVU259
 146:Lib/lib_vision_models_pp/lib_vision_models_pp/Src/pd_pp_model.c ****         skip_box = 1;
 750              		.loc 1 146 10 is_stmt 0 view .LVU260
 751 02e0 D4ED047A 		vldr.32	s15, [r4, #16]
 752 02e4 F4EEE57A 		vcmpe.f32	s15, s11
 753 02e8 F1EE10FA 		vmrs	APSR_nzcv, FPSCR
 754 02ec 03F11803 		add	r3, r3, #24
 755 02f0 0FD9     		bls	.L30
 144:Lib/lib_vision_models_pp/lib_vision_models_pp/Src/pd_pp_model.c ****       iou = pd_pp_compute_iou(&pd_boxes[i], &pd_boxes[j]);
 756              		.loc 1 144 35 is_stmt 1 discriminator 2 view .LVU261
 757 02f2 0131     		adds	r1, r1, #1
 758              	.LVL39:
 759              	.L33:
 144:Lib/lib_vision_models_pp/lib_vision_models_pp/Src/pd_pp_model.c ****       iou = pd_pp_compute_iou(&pd_boxes[i], &pd_boxes[j]);
 760              		.loc 1 144 23 discriminator 1 view .LVU262
 761 02f4 6145     		cmp	r1, ip
 762 02f6 FFF62AAF 		blt	.L31
 763              	.LVL40:
 144:Lib/lib_vision_models_pp/lib_vision_models_pp/Src/pd_pp_model.c ****       iou = pd_pp_compute_iou(&pd_boxes[i], &pd_boxes[j]);
 764              		.loc 1 144 23 is_stmt 0 discriminator 1 view .LVU263
 765              	.LBE72:
 151:Lib/lib_vision_models_pp/lib_vision_models_pp/Src/pd_pp_model.c ****       continue;
 766              		.loc 1 151 5 is_stmt 1 view .LVU264
 154:Lib/lib_vision_models_pp/lib_vision_models_pp/Src/pd_pp_model.c ****   }
 767              		.loc 1 154 5 view .LVU265
 154:Lib/lib_vision_models_pp/lib_vision_models_pp/Src/pd_pp_model.c ****   }
 768              		.loc 1 154 25 is_stmt 0 view .LVU266
 769 02fa 1825     		movs	r5, #24
 770 02fc 3E46     		mov	r6, r7
 771 02fe 05FB0C85 		mla	r5, r5, ip, r8
 772 0302 0FCE     		ldmia	r6!, {r0, r1, r2, r3}
 773              	.LVL41:
 154:Lib/lib_vision_models_pp/lib_vision_models_pp/Src/pd_pp_model.c ****   }
ARM GAS  /tmp/ccpBZfNH.s 			page 22


 774              		.loc 1 154 25 view .LVU267
 775 0304 0FC5     		stmia	r5!, {r0, r1, r2, r3}
 776 0306 96E80300 		ldm	r6, {r0, r1}
 777 030a 85E80300 		stm	r5, {r0, r1}
 154:Lib/lib_vision_models_pp/lib_vision_models_pp/Src/pd_pp_model.c ****   }
 778              		.loc 1 154 21 view .LVU268
 779 030e 0CF1010C 		add	ip, ip, #1
 780              	.LVL42:
 781              	.L30:
 142:Lib/lib_vision_models_pp/lib_vision_models_pp/Src/pd_pp_model.c ****     skip_box = 0;
 782              		.loc 1 142 35 is_stmt 1 discriminator 2 view .LVU269
 783 0312 1837     		adds	r7, r7, #24
 784 0314 AAE6     		b	.L13
 785              	.LVL43:
 786              	.L36:
 787              	.LBB73:
 788              	.LBB71:
 789              	.LBB69:
 142:Lib/lib_vision_models_pp/lib_vision_models_pp/Src/pd_pp_model.c ****     skip_box = 0;
 790              		.loc 1 142 35 is_stmt 0 discriminator 2 view .LVU270
 791 0316 0120     		movs	r0, #1
 792              	.LVL44:
 142:Lib/lib_vision_models_pp/lib_vision_models_pp/Src/pd_pp_model.c ****     skip_box = 0;
 793              		.loc 1 142 35 discriminator 2 view .LVU271
 794 0318 59E7     		b	.L18
 795              	.LVL45:
 796              	.L38:
  74:Lib/lib_vision_models_pp/lib_vision_models_pp/Src/pd_pp_model.c **** 
 797              		.loc 1 74 12 view .LVU272
 798 031a F0EE445A 		vmov.f32	s11, s8
 799 031e DFE7     		b	.L19
 800              	.LVL46:
 801              	.L39:
  74:Lib/lib_vision_models_pp/lib_vision_models_pp/Src/pd_pp_model.c **** 
 802              		.loc 1 74 12 view .LVU273
 803              	.LBE69:
 804              	.LBE71:
 805              	.LBE73:
 806 0320 4346     		mov	r3, r8
 807              	.LBB74:
 144:Lib/lib_vision_models_pp/lib_vision_models_pp/Src/pd_pp_model.c ****       iou = pd_pp_compute_iou(&pd_boxes[i], &pd_boxes[j]);
 808              		.loc 1 144 14 view .LVU274
 809 0322 0021     		movs	r1, #0
 810 0324 E6E7     		b	.L33
 811              	.L52:
 812 0326 00BF     		.align	2
 813              	.L51:
 814 0328 00000000 		.word	pd_pp_nms_comparator
 815 032c 00000000 		.word	0
 816              	.LBE74:
 817              	.LBE76:
 818              	.LBE78:
 819              	.LBE82:
 820              		.cfi_endproc
 821              	.LFE2651:
 823              		.text
 824              	.Letext0:
ARM GAS  /tmp/ccpBZfNH.s 			page 23


 825              		.file 2 "/opt/st/stm32cubeide_1.18.1/plugins/com.st.stm32cube.ide.mcu.externaltools.gnu-tools-for-
 826              		.file 3 "/opt/st/stm32cubeide_1.18.1/plugins/com.st.stm32cube.ide.mcu.externaltools.gnu-tools-for-
 827              		.file 4 "/opt/st/stm32cubeide_1.18.1/plugins/com.st.stm32cube.ide.mcu.externaltools.gnu-tools-for-
 828              		.file 5 "/opt/st/stm32cubeide_1.18.1/plugins/com.st.stm32cube.ide.mcu.externaltools.gnu-tools-for-
 829              		.file 6 "Lib/lib_vision_models_pp/lib_vision_models_pp/Inc/pd_pp_output_if.h"
 830              		.file 7 "Lib/lib_vision_models_pp/lib_vision_models_pp/Inc/pd_model_pp_if.h"
 831              		.file 8 "Lib/lib_vision_models_pp/lib_vision_models_pp/Src/vision_models_pp.h"
 832              		.file 9 "/opt/st/stm32cubeide_1.18.1/plugins/com.st.stm32cube.ide.mcu.externaltools.gnu-tools-for-
ARM GAS  /tmp/ccpBZfNH.s 			page 24

