ARM GAS  /tmp/ccWHsT5O.s 			page 1


   1              		.arch armv8.1-m.main
   2              		.fpu fpv5-d16
   3              		.arch_extension dsp
   4              		.arch_extension fp
   5              		.arch_extension fp.dp
   6              		.arch_extension mve
   7              		.arch_extension mve.fp
   8              		.eabi_attribute 5, "cortex-m55"
   9              		.eabi_attribute 28, 1
  10              		.eabi_attribute 20, 1
  11              		.eabi_attribute 21, 1
  12              		.eabi_attribute 23, 3
  13              		.eabi_attribute 24, 1
  14              		.eabi_attribute 25, 1
  15              		.eabi_attribute 26, 1
  16              		.eabi_attribute 30, 4
  17              		.eabi_attribute 34, 1
  18              		.eabi_attribute 38, 1
  19              		.eabi_attribute 18, 4
  20              		.file	"vd6g.c"
  21              		.text
  22              	.Ltext0:
  23              		.cfi_sections	.debug_frame
  24              		.file 1 "Lib/Camera_Middleware/sensors/vd6g/vd6g.c"
  25              		.section	.text.VD6G_error,"ax",%progbits
  26              		.align	1
  27              		.syntax unified
  28              		.thumb
  29              		.thumb_func
  31              	VD6G_error:
  32              	.LVL0:
  33              	.LFB3:
   1:Lib/Camera_Middleware/sensors/vd6g/vd6g.c **** /**
   2:Lib/Camera_Middleware/sensors/vd6g/vd6g.c ****   ******************************************************************************
   3:Lib/Camera_Middleware/sensors/vd6g/vd6g.c ****   * @file    vd6g.c
   4:Lib/Camera_Middleware/sensors/vd6g/vd6g.c ****   * @author  MDG Application Team
   5:Lib/Camera_Middleware/sensors/vd6g/vd6g.c ****   ******************************************************************************
   6:Lib/Camera_Middleware/sensors/vd6g/vd6g.c ****   * @attention
   7:Lib/Camera_Middleware/sensors/vd6g/vd6g.c ****   *
   8:Lib/Camera_Middleware/sensors/vd6g/vd6g.c ****   * Copyright (c) 2024 STMicroelectronics.
   9:Lib/Camera_Middleware/sensors/vd6g/vd6g.c ****   * All rights reserved.
  10:Lib/Camera_Middleware/sensors/vd6g/vd6g.c ****   *
  11:Lib/Camera_Middleware/sensors/vd6g/vd6g.c ****   * This software is licensed under terms that can be found in the LICENSE file
  12:Lib/Camera_Middleware/sensors/vd6g/vd6g.c ****   * in the root directory of this software component.
  13:Lib/Camera_Middleware/sensors/vd6g/vd6g.c ****   * If no LICENSE file comes with this software, it is provided AS-IS.
  14:Lib/Camera_Middleware/sensors/vd6g/vd6g.c ****   *
  15:Lib/Camera_Middleware/sensors/vd6g/vd6g.c ****   ******************************************************************************
  16:Lib/Camera_Middleware/sensors/vd6g/vd6g.c ****   */
  17:Lib/Camera_Middleware/sensors/vd6g/vd6g.c **** 
  18:Lib/Camera_Middleware/sensors/vd6g/vd6g.c **** #include "vd6g.h"
  19:Lib/Camera_Middleware/sensors/vd6g/vd6g.c **** 
  20:Lib/Camera_Middleware/sensors/vd6g/vd6g.c **** #include <assert.h>
  21:Lib/Camera_Middleware/sensors/vd6g/vd6g.c **** #include <stddef.h>
  22:Lib/Camera_Middleware/sensors/vd6g/vd6g.c **** 
  23:Lib/Camera_Middleware/sensors/vd6g/vd6g.c **** #define ARRAY_SIZE(a) (sizeof(a)/sizeof(a[0]))
  24:Lib/Camera_Middleware/sensors/vd6g/vd6g.c **** #include "vd6g_patch.c"
  25:Lib/Camera_Middleware/sensors/vd6g/vd6g.c **** #include "vd6g_vtpatch.c"
ARM GAS  /tmp/ccWHsT5O.s 			page 2


  26:Lib/Camera_Middleware/sensors/vd6g/vd6g.c **** 
  27:Lib/Camera_Middleware/sensors/vd6g/vd6g.c **** #define VD6G_REG_MODEL_ID                    0x0000
  28:Lib/Camera_Middleware/sensors/vd6g/vd6g.c ****   #define VD6G_MODEL_ID                      0x5603
  29:Lib/Camera_Middleware/sensors/vd6g/vd6g.c **** #define VD6G_REG_REVISION                    0x0002
  30:Lib/Camera_Middleware/sensors/vd6g/vd6g.c ****   #define VD6G_TOP_DIE_SLOW_BOOT             0x020
  31:Lib/Camera_Middleware/sensors/vd6g/vd6g.c ****   #define VD6G_TOP_DIE_FAST_BOOT             0x031
  32:Lib/Camera_Middleware/sensors/vd6g/vd6g.c **** #define VD6G_REG_ROM_REVISION                0x0014
  33:Lib/Camera_Middleware/sensors/vd6g/vd6g.c **** #define VD6G_REG_UI_REVISION                 0x0018
  34:Lib/Camera_Middleware/sensors/vd6g/vd6g.c **** #define VD6G_ERROR_CODE                      0x001c
  35:Lib/Camera_Middleware/sensors/vd6g/vd6g.c **** #define VD6G_REG_OPTICAL_REVISION            0x001a
  36:Lib/Camera_Middleware/sensors/vd6g/vd6g.c **** #define VD6G_REG_FWPATCH_REVISION            0x001e
  37:Lib/Camera_Middleware/sensors/vd6g/vd6g.c **** #define VD6G_REG_VTIMING_RD_REVISION         0x0020
  38:Lib/Camera_Middleware/sensors/vd6g/vd6g.c **** #define VD6G_REG_VTIMING_GR_REVISION         0x0024
  39:Lib/Camera_Middleware/sensors/vd6g/vd6g.c **** #define VD6G_REG_VTIMING_GT_REVISION         0x0026
  40:Lib/Camera_Middleware/sensors/vd6g/vd6g.c **** #define VD6G_REG_SYSTEM_FSM                  0x0028
  41:Lib/Camera_Middleware/sensors/vd6g/vd6g.c ****   #define VD6G_SYSTEM_FSM_READY_TO_BOOT      0x01
  42:Lib/Camera_Middleware/sensors/vd6g/vd6g.c ****   #define VD6G_SYSTEM_FSM_SW_STBY            0x02
  43:Lib/Camera_Middleware/sensors/vd6g/vd6g.c ****   #define VD6G_SYSTEM_FSM_STREAMING          0x03
  44:Lib/Camera_Middleware/sensors/vd6g/vd6g.c **** #define VD6G_REG_BOOT                        0x0200
  45:Lib/Camera_Middleware/sensors/vd6g/vd6g.c ****   #define VD6G_CMD_ACK                       0
  46:Lib/Camera_Middleware/sensors/vd6g/vd6g.c ****   #define VD6G_CMD_BOOT                      1
  47:Lib/Camera_Middleware/sensors/vd6g/vd6g.c ****   #define VD6G_CMD_PATCH_SETUP               2
  48:Lib/Camera_Middleware/sensors/vd6g/vd6g.c **** #define VD6G_REG_STBY                        0x0201
  49:Lib/Camera_Middleware/sensors/vd6g/vd6g.c ****   #define VD6G_CMD_START_STREAM              1
  50:Lib/Camera_Middleware/sensors/vd6g/vd6g.c **** #define VD6G_REG_STREAMING                   0x0202
  51:Lib/Camera_Middleware/sensors/vd6g/vd6g.c ****   #define VD6G_CMD_STOP_STREAM               1
  52:Lib/Camera_Middleware/sensors/vd6g/vd6g.c **** #define VD6G_REG_VTPATCHING                  0x0203
  53:Lib/Camera_Middleware/sensors/vd6g/vd6g.c ****   #define VD6G_CMD_START_VTRAM_UPDATE        1
  54:Lib/Camera_Middleware/sensors/vd6g/vd6g.c ****   #define VD6G_CMD_END_VTRAM_UPDATE          2
  55:Lib/Camera_Middleware/sensors/vd6g/vd6g.c **** #define VD6G_REG_EXT_CLOCK                   0x0220
  56:Lib/Camera_Middleware/sensors/vd6g/vd6g.c **** #define VD6G_REG_CLK_PLL_PREDIV              0x0224
  57:Lib/Camera_Middleware/sensors/vd6g/vd6g.c **** #define VD6G_REG_CLK_SYS_PLL_MULT            0x0226
  58:Lib/Camera_Middleware/sensors/vd6g/vd6g.c **** #define VD6G_LINE_LENGTH                     0x0300
  59:Lib/Camera_Middleware/sensors/vd6g/vd6g.c **** #define VD6G_REG_ORIENTATION                 0x0302
  60:Lib/Camera_Middleware/sensors/vd6g/vd6g.c **** #define VD6G_REG_FORMAT_CTRL                 0x030a
  61:Lib/Camera_Middleware/sensors/vd6g/vd6g.c **** #define VD6G_REG_OIF_CTRL                    0x030c
  62:Lib/Camera_Middleware/sensors/vd6g/vd6g.c **** #define VD6G_REG_OIF_IMG_CTRL                0x030f
  63:Lib/Camera_Middleware/sensors/vd6g/vd6g.c **** #define VD6G_REG_OIF_CSI_BITRATE             0x0312
  64:Lib/Camera_Middleware/sensors/vd6g/vd6g.c **** #define VD6G_REG_DUSTER_CTRL                 0x0318
  65:Lib/Camera_Middleware/sensors/vd6g/vd6g.c ****   #define VD6G_DUSTER_CTRL_DISABLE           0
  66:Lib/Camera_Middleware/sensors/vd6g/vd6g.c **** #define VD6G_REG_DARKCAL_CTRL                0x0340
  67:Lib/Camera_Middleware/sensors/vd6g/vd6g.c ****   #define VD6G_DARKCAL_CTRL_DISABLE          0
  68:Lib/Camera_Middleware/sensors/vd6g/vd6g.c ****   #define VD6G_DARKCAL_CTRL_ENABLE           1
  69:Lib/Camera_Middleware/sensors/vd6g/vd6g.c ****   #define VD6G_DARKCAL_CTRL_DISABLE_DARKAVG  2
  70:Lib/Camera_Middleware/sensors/vd6g/vd6g.c **** #define VD6G_REG_PATGEN_CTRL                 0x0400
  71:Lib/Camera_Middleware/sensors/vd6g/vd6g.c ****   #define VD6G_PATGEN_CTRL_DISABLE           0x0000
  72:Lib/Camera_Middleware/sensors/vd6g/vd6g.c ****   #define VD6G_PATGEN_CTRL_SOLID_COLOR       0x0011
  73:Lib/Camera_Middleware/sensors/vd6g/vd6g.c ****   #define VD6G_PATGEN_CTRL_VER_COLOR_BAR     0x0021
  74:Lib/Camera_Middleware/sensors/vd6g/vd6g.c ****   #define VD6G_PATGEN_CTRL_HOR_GRAY          0x0101
  75:Lib/Camera_Middleware/sensors/vd6g/vd6g.c ****   #define VD6G_PATGEN_CTRL_VER_GRAY          0x0111
  76:Lib/Camera_Middleware/sensors/vd6g/vd6g.c ****   #define VD6G_PATGEN_CTRL_DIAG_GRAY         0x0121
  77:Lib/Camera_Middleware/sensors/vd6g/vd6g.c ****   #define VD6G_PATGEN_CTRL_PSN               0x0131
  78:Lib/Camera_Middleware/sensors/vd6g/vd6g.c **** #define VD6G_REG_AE_COMPILER_CONTROL         0x0430
  79:Lib/Camera_Middleware/sensors/vd6g/vd6g.c ****   #define AE_COMP_CTRL_GAIN_PRIO             0
  80:Lib/Camera_Middleware/sensors/vd6g/vd6g.c ****   #define AE_COMP_CTRL_FLICKER_50_HZ         1
  81:Lib/Camera_Middleware/sensors/vd6g/vd6g.c ****   #define AE_COMP_CTRL_FLICKER_60_HZ         3
  82:Lib/Camera_Middleware/sensors/vd6g/vd6g.c **** #define VD6G_REG_AE_TARGET_PERCENTAGE        0x043c
ARM GAS  /tmp/ccWHsT5O.s 			page 3


  83:Lib/Camera_Middleware/sensors/vd6g/vd6g.c **** #define VD6G_REG_EXP_MODE                    0x044c
  84:Lib/Camera_Middleware/sensors/vd6g/vd6g.c ****   #define VD6G_EXP_AUTO                      0
  85:Lib/Camera_Middleware/sensors/vd6g/vd6g.c ****   #define VD6G_EXP_FREEZE                    1
  86:Lib/Camera_Middleware/sensors/vd6g/vd6g.c ****   #define VD6G_EXP_MANUAL                    2
  87:Lib/Camera_Middleware/sensors/vd6g/vd6g.c **** #define VD6G_REG_MANUAL_ANALOG_GAIN          0x044d
  88:Lib/Camera_Middleware/sensors/vd6g/vd6g.c **** #define VD6G_REG_MANUAL_COARSE_EXP           0x044e
  89:Lib/Camera_Middleware/sensors/vd6g/vd6g.c **** #define VD6G_REG_MANUAL_CH0_DIGITAL_GAIN     0x0450
  90:Lib/Camera_Middleware/sensors/vd6g/vd6g.c **** #define VD6G_REG_MANUAL_CH1_DIGITAL_GAIN     0x0452
  91:Lib/Camera_Middleware/sensors/vd6g/vd6g.c **** #define VD6G_REG_MANUAL_CH2_DIGITAL_GAIN     0x0454
  92:Lib/Camera_Middleware/sensors/vd6g/vd6g.c **** #define VD6G_REG_MANUAL_CH3_DIGITAL_GAIN     0x0456
  93:Lib/Camera_Middleware/sensors/vd6g/vd6g.c **** #define VD6G_FRAME_LENGTH                    0x0458
  94:Lib/Camera_Middleware/sensors/vd6g/vd6g.c **** #define VD6G_REG_OUT_ROI_X_START             0x045e
  95:Lib/Camera_Middleware/sensors/vd6g/vd6g.c **** #define VD6G_REG_OUT_ROI_X_END               0x0460
  96:Lib/Camera_Middleware/sensors/vd6g/vd6g.c **** #define VD6G_REG_OUT_ROI_Y_START             0x0462
  97:Lib/Camera_Middleware/sensors/vd6g/vd6g.c **** #define VD6G_REG_OUT_ROI_Y_END               0x0464
  98:Lib/Camera_Middleware/sensors/vd6g/vd6g.c **** #define VD6G_REG_GPIO_x_CTRL(_i_)            (0x0467 + _i_)
  99:Lib/Camera_Middleware/sensors/vd6g/vd6g.c ****   #define VD6G_REG_GPIO_INPUT                1
 100:Lib/Camera_Middleware/sensors/vd6g/vd6g.c **** #define VD6G_REG_READOUT_CTRL                0x047e
 101:Lib/Camera_Middleware/sensors/vd6g/vd6g.c **** #define VD6G_REG_EXP_COARSE_INTG_MARGIN      0x0946
 102:Lib/Camera_Middleware/sensors/vd6g/vd6g.c ****   #define VD6G_MIN_EXP_COARSE_INTG_MARGIN    68
 103:Lib/Camera_Middleware/sensors/vd6g/vd6g.c ****   #define VD6G_MIN_MANUAL_EXP_COARSE         21
 104:Lib/Camera_Middleware/sensors/vd6g/vd6g.c ****   #define VD6G_MAX_MANUAL_EXP_COARSE_OFFSET  7
 105:Lib/Camera_Middleware/sensors/vd6g/vd6g.c **** #define VD6G_DPHYTX_CTRL                     0x0956
 106:Lib/Camera_Middleware/sensors/vd6g/vd6g.c ****   #define DBG_CONT_MODE_DISABLED             0x0c
 107:Lib/Camera_Middleware/sensors/vd6g/vd6g.c ****   #define DBG_CONT_MODE_ENABLED              0x1c
 108:Lib/Camera_Middleware/sensors/vd6g/vd6g.c **** #define VD6G_REG_MAX_DG                      0x095E
 109:Lib/Camera_Middleware/sensors/vd6g/vd6g.c **** #define VD6G_REG_MAX_AG_CODED                0x0960
 110:Lib/Camera_Middleware/sensors/vd6g/vd6g.c ****   #define VD6G_REG_MAX_AG_CODED_MASK         0x001f
 111:Lib/Camera_Middleware/sensors/vd6g/vd6g.c **** #define VD6G_REG_MIN_DG                      0x097C
 112:Lib/Camera_Middleware/sensors/vd6g/vd6g.c **** #define VD6G_REG_MIN_AG_CODED                0x097E
 113:Lib/Camera_Middleware/sensors/vd6g/vd6g.c ****   #define VD6G_REG_MIN_AG_CODED_MASK         0x001f
 114:Lib/Camera_Middleware/sensors/vd6g/vd6g.c **** 
 115:Lib/Camera_Middleware/sensors/vd6g/vd6g.c **** #define VD6G_TARGET_PLL                      804000000UL
 116:Lib/Camera_Middleware/sensors/vd6g/vd6g.c **** 
 117:Lib/Camera_Middleware/sensors/vd6g/vd6g.c **** #define M_HZ                                 (1000 * 1000)
 118:Lib/Camera_Middleware/sensors/vd6g/vd6g.c **** #define VD6G_PIXEL_CLOCK                     160800000
 119:Lib/Camera_Middleware/sensors/vd6g/vd6g.c **** 
 120:Lib/Camera_Middleware/sensors/vd6g/vd6g.c **** #define CHECK_RANGE(x, min, max)             (((x) >= (min) && (x) <= (max)) ? 0 : -1)
 121:Lib/Camera_Middleware/sensors/vd6g/vd6g.c **** #define CEIL(num)                            ((num) == (int)(num) ? (int)(num) : (num) > 0 ? (int)(
 122:Lib/Camera_Middleware/sensors/vd6g/vd6g.c **** 
 123:Lib/Camera_Middleware/sensors/vd6g/vd6g.c **** enum vdg_bin_mode {
 124:Lib/Camera_Middleware/sensors/vd6g/vd6g.c ****   VD6G_BIN_MODE_NORMAL,
 125:Lib/Camera_Middleware/sensors/vd6g/vd6g.c ****   VD6G_BIN_MODE_DIGITAL_X2,
 126:Lib/Camera_Middleware/sensors/vd6g/vd6g.c ****   VD6G_BIN_MODE_DIGITAL_X4,
 127:Lib/Camera_Middleware/sensors/vd6g/vd6g.c **** };
 128:Lib/Camera_Middleware/sensors/vd6g/vd6g.c **** 
 129:Lib/Camera_Middleware/sensors/vd6g/vd6g.c **** struct vdg_rect {
 130:Lib/Camera_Middleware/sensors/vd6g/vd6g.c ****   int32_t left;
 131:Lib/Camera_Middleware/sensors/vd6g/vd6g.c ****   int32_t top;
 132:Lib/Camera_Middleware/sensors/vd6g/vd6g.c ****   uint32_t width;
 133:Lib/Camera_Middleware/sensors/vd6g/vd6g.c ****   uint32_t height;
 134:Lib/Camera_Middleware/sensors/vd6g/vd6g.c **** };
 135:Lib/Camera_Middleware/sensors/vd6g/vd6g.c **** 
 136:Lib/Camera_Middleware/sensors/vd6g/vd6g.c **** struct vdg_mode {
 137:Lib/Camera_Middleware/sensors/vd6g/vd6g.c ****   uint32_t width;
 138:Lib/Camera_Middleware/sensors/vd6g/vd6g.c ****   uint32_t height;
 139:Lib/Camera_Middleware/sensors/vd6g/vd6g.c ****   enum vdg_bin_mode bin_mode;
ARM GAS  /tmp/ccWHsT5O.s 			page 4


 140:Lib/Camera_Middleware/sensors/vd6g/vd6g.c ****   struct vdg_rect crop;
 141:Lib/Camera_Middleware/sensors/vd6g/vd6g.c **** };
 142:Lib/Camera_Middleware/sensors/vd6g/vd6g.c **** 
 143:Lib/Camera_Middleware/sensors/vd6g/vd6g.c **** static const struct vdg_mode vdg_supported_modes[] = {
 144:Lib/Camera_Middleware/sensors/vd6g/vd6g.c ****   {
 145:Lib/Camera_Middleware/sensors/vd6g/vd6g.c ****     .width = VD6G_MAX_WIDTH,
 146:Lib/Camera_Middleware/sensors/vd6g/vd6g.c ****     .height = VD6G_MAX_HEIGHT,
 147:Lib/Camera_Middleware/sensors/vd6g/vd6g.c ****     .bin_mode = VD6G_BIN_MODE_NORMAL,
 148:Lib/Camera_Middleware/sensors/vd6g/vd6g.c ****     .crop = {
 149:Lib/Camera_Middleware/sensors/vd6g/vd6g.c ****       .left = 2,
 150:Lib/Camera_Middleware/sensors/vd6g/vd6g.c ****       .top = 0,
 151:Lib/Camera_Middleware/sensors/vd6g/vd6g.c ****       .width = VD6G_MAX_WIDTH,
 152:Lib/Camera_Middleware/sensors/vd6g/vd6g.c ****       .height = VD6G_MAX_HEIGHT,
 153:Lib/Camera_Middleware/sensors/vd6g/vd6g.c ****     },
 154:Lib/Camera_Middleware/sensors/vd6g/vd6g.c ****   },
 155:Lib/Camera_Middleware/sensors/vd6g/vd6g.c ****   {
 156:Lib/Camera_Middleware/sensors/vd6g/vd6g.c ****     .width = 1024,
 157:Lib/Camera_Middleware/sensors/vd6g/vd6g.c ****     .height = 1280,
 158:Lib/Camera_Middleware/sensors/vd6g/vd6g.c ****     .bin_mode = VD6G_BIN_MODE_NORMAL,
 159:Lib/Camera_Middleware/sensors/vd6g/vd6g.c ****     .crop = {
 160:Lib/Camera_Middleware/sensors/vd6g/vd6g.c ****       .left = 50,
 161:Lib/Camera_Middleware/sensors/vd6g/vd6g.c ****       .top = 42,
 162:Lib/Camera_Middleware/sensors/vd6g/vd6g.c ****       .width = 1024,
 163:Lib/Camera_Middleware/sensors/vd6g/vd6g.c ****       .height = 1280,
 164:Lib/Camera_Middleware/sensors/vd6g/vd6g.c ****     },
 165:Lib/Camera_Middleware/sensors/vd6g/vd6g.c ****   },
 166:Lib/Camera_Middleware/sensors/vd6g/vd6g.c ****   {
 167:Lib/Camera_Middleware/sensors/vd6g/vd6g.c ****     .width = 1024,
 168:Lib/Camera_Middleware/sensors/vd6g/vd6g.c ****     .height = 768,
 169:Lib/Camera_Middleware/sensors/vd6g/vd6g.c ****     .bin_mode = VD6G_BIN_MODE_NORMAL,
 170:Lib/Camera_Middleware/sensors/vd6g/vd6g.c ****     .crop = {
 171:Lib/Camera_Middleware/sensors/vd6g/vd6g.c ****       .left = 50,
 172:Lib/Camera_Middleware/sensors/vd6g/vd6g.c ****       .top = 298,
 173:Lib/Camera_Middleware/sensors/vd6g/vd6g.c ****       .width = 1024,
 174:Lib/Camera_Middleware/sensors/vd6g/vd6g.c ****       .height = 768,
 175:Lib/Camera_Middleware/sensors/vd6g/vd6g.c ****     },
 176:Lib/Camera_Middleware/sensors/vd6g/vd6g.c ****   },
 177:Lib/Camera_Middleware/sensors/vd6g/vd6g.c ****   {
 178:Lib/Camera_Middleware/sensors/vd6g/vd6g.c ****     .width = 768,
 179:Lib/Camera_Middleware/sensors/vd6g/vd6g.c ****     .height = 1024,
 180:Lib/Camera_Middleware/sensors/vd6g/vd6g.c ****     .bin_mode = VD6G_BIN_MODE_NORMAL,
 181:Lib/Camera_Middleware/sensors/vd6g/vd6g.c ****     .crop = {
 182:Lib/Camera_Middleware/sensors/vd6g/vd6g.c ****       .left = 178,
 183:Lib/Camera_Middleware/sensors/vd6g/vd6g.c ****       .top = 170,
 184:Lib/Camera_Middleware/sensors/vd6g/vd6g.c ****       .width = 768,
 185:Lib/Camera_Middleware/sensors/vd6g/vd6g.c ****       .height = 1024,
 186:Lib/Camera_Middleware/sensors/vd6g/vd6g.c ****     },
 187:Lib/Camera_Middleware/sensors/vd6g/vd6g.c ****   },
 188:Lib/Camera_Middleware/sensors/vd6g/vd6g.c ****   {
 189:Lib/Camera_Middleware/sensors/vd6g/vd6g.c ****     .width = 720,
 190:Lib/Camera_Middleware/sensors/vd6g/vd6g.c ****     .height = 1280,
 191:Lib/Camera_Middleware/sensors/vd6g/vd6g.c ****     .bin_mode = VD6G_BIN_MODE_NORMAL,
 192:Lib/Camera_Middleware/sensors/vd6g/vd6g.c ****     .crop = {
 193:Lib/Camera_Middleware/sensors/vd6g/vd6g.c ****       .left = 202,
 194:Lib/Camera_Middleware/sensors/vd6g/vd6g.c ****       .top = 42,
 195:Lib/Camera_Middleware/sensors/vd6g/vd6g.c ****       .width = 720,
 196:Lib/Camera_Middleware/sensors/vd6g/vd6g.c ****       .height = 1280,
ARM GAS  /tmp/ccWHsT5O.s 			page 5


 197:Lib/Camera_Middleware/sensors/vd6g/vd6g.c ****     },
 198:Lib/Camera_Middleware/sensors/vd6g/vd6g.c ****   },
 199:Lib/Camera_Middleware/sensors/vd6g/vd6g.c ****   {
 200:Lib/Camera_Middleware/sensors/vd6g/vd6g.c ****     .width = 640,
 201:Lib/Camera_Middleware/sensors/vd6g/vd6g.c ****     .height = 480,
 202:Lib/Camera_Middleware/sensors/vd6g/vd6g.c ****     .bin_mode = VD6G_BIN_MODE_NORMAL,
 203:Lib/Camera_Middleware/sensors/vd6g/vd6g.c ****     .crop = {
 204:Lib/Camera_Middleware/sensors/vd6g/vd6g.c ****       .left = 242,
 205:Lib/Camera_Middleware/sensors/vd6g/vd6g.c ****       .top = 442,
 206:Lib/Camera_Middleware/sensors/vd6g/vd6g.c ****       .width = 640,
 207:Lib/Camera_Middleware/sensors/vd6g/vd6g.c ****       .height = 480,
 208:Lib/Camera_Middleware/sensors/vd6g/vd6g.c ****     },
 209:Lib/Camera_Middleware/sensors/vd6g/vd6g.c ****   },
 210:Lib/Camera_Middleware/sensors/vd6g/vd6g.c ****   {
 211:Lib/Camera_Middleware/sensors/vd6g/vd6g.c ****     .width = 480,
 212:Lib/Camera_Middleware/sensors/vd6g/vd6g.c ****     .height = 640,
 213:Lib/Camera_Middleware/sensors/vd6g/vd6g.c ****     .bin_mode = VD6G_BIN_MODE_DIGITAL_X2,
 214:Lib/Camera_Middleware/sensors/vd6g/vd6g.c ****     .crop = {
 215:Lib/Camera_Middleware/sensors/vd6g/vd6g.c ****       .left = 82,
 216:Lib/Camera_Middleware/sensors/vd6g/vd6g.c ****       .top = 42,
 217:Lib/Camera_Middleware/sensors/vd6g/vd6g.c ****       .width = 960,
 218:Lib/Camera_Middleware/sensors/vd6g/vd6g.c ****       .height = 1280,
 219:Lib/Camera_Middleware/sensors/vd6g/vd6g.c ****     },
 220:Lib/Camera_Middleware/sensors/vd6g/vd6g.c ****   },
 221:Lib/Camera_Middleware/sensors/vd6g/vd6g.c ****   {
 222:Lib/Camera_Middleware/sensors/vd6g/vd6g.c ****     .width = 320,
 223:Lib/Camera_Middleware/sensors/vd6g/vd6g.c ****     .height = 240,
 224:Lib/Camera_Middleware/sensors/vd6g/vd6g.c ****     .bin_mode = VD6G_BIN_MODE_DIGITAL_X2,
 225:Lib/Camera_Middleware/sensors/vd6g/vd6g.c ****     .crop = {
 226:Lib/Camera_Middleware/sensors/vd6g/vd6g.c ****       .left = 242,
 227:Lib/Camera_Middleware/sensors/vd6g/vd6g.c ****       .top = 442,
 228:Lib/Camera_Middleware/sensors/vd6g/vd6g.c ****       .width = 640,
 229:Lib/Camera_Middleware/sensors/vd6g/vd6g.c ****       .height = 480,
 230:Lib/Camera_Middleware/sensors/vd6g/vd6g.c ****     },
 231:Lib/Camera_Middleware/sensors/vd6g/vd6g.c ****   },
 232:Lib/Camera_Middleware/sensors/vd6g/vd6g.c ****   {
 233:Lib/Camera_Middleware/sensors/vd6g/vd6g.c ****     .width = VD6G_MAX_WIDTH,
 234:Lib/Camera_Middleware/sensors/vd6g/vd6g.c ****     .height = 720,
 235:Lib/Camera_Middleware/sensors/vd6g/vd6g.c ****     .bin_mode = VD6G_BIN_MODE_NORMAL,
 236:Lib/Camera_Middleware/sensors/vd6g/vd6g.c ****     .crop = {
 237:Lib/Camera_Middleware/sensors/vd6g/vd6g.c ****       .left = 2,
 238:Lib/Camera_Middleware/sensors/vd6g/vd6g.c ****       .top = 322,
 239:Lib/Camera_Middleware/sensors/vd6g/vd6g.c ****       .width = VD6G_MAX_WIDTH,
 240:Lib/Camera_Middleware/sensors/vd6g/vd6g.c ****       .height = 720,
 241:Lib/Camera_Middleware/sensors/vd6g/vd6g.c ****     },
 242:Lib/Camera_Middleware/sensors/vd6g/vd6g.c ****   },
 243:Lib/Camera_Middleware/sensors/vd6g/vd6g.c **** };
 244:Lib/Camera_Middleware/sensors/vd6g/vd6g.c **** 
 245:Lib/Camera_Middleware/sensors/vd6g/vd6g.c **** #define VD6G_TraceError(_ctx_,_ret_) do { \
 246:Lib/Camera_Middleware/sensors/vd6g/vd6g.c ****   if (_ret_) VD6G_error(_ctx_, "Error on %s:%d : %d\n", __func__, __LINE__, _ret_); \
 247:Lib/Camera_Middleware/sensors/vd6g/vd6g.c ****   if (_ret_) display_error(_ctx_); \
 248:Lib/Camera_Middleware/sensors/vd6g/vd6g.c ****   if (_ret_) return _ret_; \
 249:Lib/Camera_Middleware/sensors/vd6g/vd6g.c **** } while(0)
 250:Lib/Camera_Middleware/sensors/vd6g/vd6g.c **** 
 251:Lib/Camera_Middleware/sensors/vd6g/vd6g.c **** static void VD6G_dbg(VD6G_Ctx_t *ctx, int lvl, const char *format, ...)
 252:Lib/Camera_Middleware/sensors/vd6g/vd6g.c **** {
 253:Lib/Camera_Middleware/sensors/vd6g/vd6g.c ****   va_list ap;
ARM GAS  /tmp/ccWHsT5O.s 			page 6


 254:Lib/Camera_Middleware/sensors/vd6g/vd6g.c **** 
 255:Lib/Camera_Middleware/sensors/vd6g/vd6g.c ****   if (!ctx->log)
 256:Lib/Camera_Middleware/sensors/vd6g/vd6g.c ****     return ;
 257:Lib/Camera_Middleware/sensors/vd6g/vd6g.c **** 
 258:Lib/Camera_Middleware/sensors/vd6g/vd6g.c ****   va_start(ap, format);
 259:Lib/Camera_Middleware/sensors/vd6g/vd6g.c ****   ctx->log(ctx, VD6G_LVL_DBG(lvl), format, ap);
 260:Lib/Camera_Middleware/sensors/vd6g/vd6g.c ****   va_end(ap);
 261:Lib/Camera_Middleware/sensors/vd6g/vd6g.c **** }
 262:Lib/Camera_Middleware/sensors/vd6g/vd6g.c **** 
 263:Lib/Camera_Middleware/sensors/vd6g/vd6g.c **** static void VD6G_notice(VD6G_Ctx_t *ctx, const char *format, ...)
 264:Lib/Camera_Middleware/sensors/vd6g/vd6g.c **** {
 265:Lib/Camera_Middleware/sensors/vd6g/vd6g.c ****   va_list ap;
 266:Lib/Camera_Middleware/sensors/vd6g/vd6g.c **** 
 267:Lib/Camera_Middleware/sensors/vd6g/vd6g.c ****   if (!ctx->log)
 268:Lib/Camera_Middleware/sensors/vd6g/vd6g.c ****     return ;
 269:Lib/Camera_Middleware/sensors/vd6g/vd6g.c **** 
 270:Lib/Camera_Middleware/sensors/vd6g/vd6g.c ****   va_start(ap, format);
 271:Lib/Camera_Middleware/sensors/vd6g/vd6g.c ****   ctx->log(ctx, VD6G_LVL_NOTICE, format, ap);
 272:Lib/Camera_Middleware/sensors/vd6g/vd6g.c ****   va_end(ap);
 273:Lib/Camera_Middleware/sensors/vd6g/vd6g.c **** }
 274:Lib/Camera_Middleware/sensors/vd6g/vd6g.c **** 
 275:Lib/Camera_Middleware/sensors/vd6g/vd6g.c **** static void VD6G_warn(VD6G_Ctx_t *ctx, const char *format, ...)
 276:Lib/Camera_Middleware/sensors/vd6g/vd6g.c **** {
 277:Lib/Camera_Middleware/sensors/vd6g/vd6g.c ****   va_list ap;
 278:Lib/Camera_Middleware/sensors/vd6g/vd6g.c **** 
 279:Lib/Camera_Middleware/sensors/vd6g/vd6g.c ****   if (!ctx->log)
 280:Lib/Camera_Middleware/sensors/vd6g/vd6g.c ****     return ;
 281:Lib/Camera_Middleware/sensors/vd6g/vd6g.c **** 
 282:Lib/Camera_Middleware/sensors/vd6g/vd6g.c ****   va_start(ap, format);
 283:Lib/Camera_Middleware/sensors/vd6g/vd6g.c ****   ctx->log(ctx, VD6G_LVL_WARNING, format, ap);
 284:Lib/Camera_Middleware/sensors/vd6g/vd6g.c ****   va_end(ap);
 285:Lib/Camera_Middleware/sensors/vd6g/vd6g.c **** }
 286:Lib/Camera_Middleware/sensors/vd6g/vd6g.c **** 
 287:Lib/Camera_Middleware/sensors/vd6g/vd6g.c **** static void VD6G_error(VD6G_Ctx_t *ctx, const char *format, ...)
 288:Lib/Camera_Middleware/sensors/vd6g/vd6g.c **** {
  34              		.loc 1 288 1 view -0
  35              		.cfi_startproc
  36              		@ args = 4, pretend = 12, frame = 8
  37              		@ frame_needed = 0, uses_anonymous_args = 1
 289:Lib/Camera_Middleware/sensors/vd6g/vd6g.c ****   va_list ap;
  38              		.loc 1 289 3 view .LVU1
 290:Lib/Camera_Middleware/sensors/vd6g/vd6g.c **** 
 291:Lib/Camera_Middleware/sensors/vd6g/vd6g.c ****   if (!ctx->log)
  39              		.loc 1 291 3 view .LVU2
 288:Lib/Camera_Middleware/sensors/vd6g/vd6g.c ****   va_list ap;
  40              		.loc 1 288 1 is_stmt 0 view .LVU3
  41 0000 0EB4     		push	{r1, r2, r3}
  42              		.cfi_def_cfa_offset 12
  43              		.cfi_offset 1, -12
  44              		.cfi_offset 2, -8
  45              		.cfi_offset 3, -4
  46 0002 17B5     		push	{r0, r1, r2, r4, lr}
  47              		.cfi_def_cfa_offset 32
  48              		.cfi_offset 4, -20
  49              		.cfi_offset 14, -16
  50              		.loc 1 291 6 view .LVU4
  51 0004 446A     		ldr	r4, [r0, #36]
ARM GAS  /tmp/ccWHsT5O.s 			page 7


  52 0006 24B1     		cbz	r4, .L1
 292:Lib/Camera_Middleware/sensors/vd6g/vd6g.c ****     return ;
 293:Lib/Camera_Middleware/sensors/vd6g/vd6g.c **** 
 294:Lib/Camera_Middleware/sensors/vd6g/vd6g.c ****   va_start(ap, format);
  53              		.loc 1 294 3 is_stmt 1 view .LVU5
  54 0008 06AB     		add	r3, sp, #24
 295:Lib/Camera_Middleware/sensors/vd6g/vd6g.c ****   ctx->log(ctx, VD6G_LVL_ERROR, format, ap);
  55              		.loc 1 295 3 is_stmt 0 view .LVU6
  56 000a 0021     		movs	r1, #0
  57 000c 059A     		ldr	r2, [sp, #20]
 294:Lib/Camera_Middleware/sensors/vd6g/vd6g.c ****   ctx->log(ctx, VD6G_LVL_ERROR, format, ap);
  58              		.loc 1 294 3 view .LVU7
  59 000e 0193     		str	r3, [sp, #4]
  60              		.loc 1 295 3 is_stmt 1 view .LVU8
  61 0010 A047     		blx	r4
  62              	.LVL1:
 296:Lib/Camera_Middleware/sensors/vd6g/vd6g.c ****   va_end(ap);
  63              		.loc 1 296 3 view .LVU9
  64              	.L1:
 297:Lib/Camera_Middleware/sensors/vd6g/vd6g.c **** }
  65              		.loc 1 297 1 is_stmt 0 view .LVU10
  66 0012 03B0     		add	sp, sp, #12
  67              		.cfi_def_cfa_offset 20
  68              		@ sp needed
  69 0014 BDE81040 		pop	{r4, lr}
  70              		.cfi_restore 14
  71              		.cfi_restore 4
  72              		.cfi_def_cfa_offset 12
  73 0018 03B0     		add	sp, sp, #12
  74              		.cfi_restore 3
  75              		.cfi_restore 2
  76              		.cfi_restore 1
  77              		.cfi_def_cfa_offset 0
  78 001a 7047     		bx	lr
  79              		.cfi_endproc
  80              	.LFE3:
  82              		.section	.text.VD6G_notice,"ax",%progbits
  83              		.align	1
  84              		.syntax unified
  85              		.thumb
  86              		.thumb_func
  88              	VD6G_notice:
  89              	.LVL2:
  90              	.LFB1:
 264:Lib/Camera_Middleware/sensors/vd6g/vd6g.c ****   va_list ap;
  91              		.loc 1 264 1 is_stmt 1 view -0
  92              		.cfi_startproc
  93              		@ args = 4, pretend = 12, frame = 8
  94              		@ frame_needed = 0, uses_anonymous_args = 1
 265:Lib/Camera_Middleware/sensors/vd6g/vd6g.c **** 
  95              		.loc 1 265 3 view .LVU12
 267:Lib/Camera_Middleware/sensors/vd6g/vd6g.c ****     return ;
  96              		.loc 1 267 3 view .LVU13
 264:Lib/Camera_Middleware/sensors/vd6g/vd6g.c ****   va_list ap;
  97              		.loc 1 264 1 is_stmt 0 view .LVU14
  98 0000 0EB4     		push	{r1, r2, r3}
  99              		.cfi_def_cfa_offset 12
ARM GAS  /tmp/ccWHsT5O.s 			page 8


 100              		.cfi_offset 1, -12
 101              		.cfi_offset 2, -8
 102              		.cfi_offset 3, -4
 103 0002 17B5     		push	{r0, r1, r2, r4, lr}
 104              		.cfi_def_cfa_offset 32
 105              		.cfi_offset 4, -20
 106              		.cfi_offset 14, -16
 267:Lib/Camera_Middleware/sensors/vd6g/vd6g.c ****     return ;
 107              		.loc 1 267 6 view .LVU15
 108 0004 446A     		ldr	r4, [r0, #36]
 109 0006 24B1     		cbz	r4, .L6
 270:Lib/Camera_Middleware/sensors/vd6g/vd6g.c ****   ctx->log(ctx, VD6G_LVL_NOTICE, format, ap);
 110              		.loc 1 270 3 is_stmt 1 view .LVU16
 111 0008 06AB     		add	r3, sp, #24
 271:Lib/Camera_Middleware/sensors/vd6g/vd6g.c ****   va_end(ap);
 112              		.loc 1 271 3 is_stmt 0 view .LVU17
 113 000a 0221     		movs	r1, #2
 114 000c 059A     		ldr	r2, [sp, #20]
 270:Lib/Camera_Middleware/sensors/vd6g/vd6g.c ****   ctx->log(ctx, VD6G_LVL_NOTICE, format, ap);
 115              		.loc 1 270 3 view .LVU18
 116 000e 0193     		str	r3, [sp, #4]
 271:Lib/Camera_Middleware/sensors/vd6g/vd6g.c ****   va_end(ap);
 117              		.loc 1 271 3 is_stmt 1 view .LVU19
 118 0010 A047     		blx	r4
 119              	.LVL3:
 272:Lib/Camera_Middleware/sensors/vd6g/vd6g.c **** }
 120              		.loc 1 272 3 view .LVU20
 121              	.L6:
 273:Lib/Camera_Middleware/sensors/vd6g/vd6g.c **** 
 122              		.loc 1 273 1 is_stmt 0 view .LVU21
 123 0012 03B0     		add	sp, sp, #12
 124              		.cfi_def_cfa_offset 20
 125              		@ sp needed
 126 0014 BDE81040 		pop	{r4, lr}
 127              		.cfi_restore 14
 128              		.cfi_restore 4
 129              		.cfi_def_cfa_offset 12
 130 0018 03B0     		add	sp, sp, #12
 131              		.cfi_restore 3
 132              		.cfi_restore 2
 133              		.cfi_restore 1
 134              		.cfi_def_cfa_offset 0
 135 001a 7047     		bx	lr
 136              		.cfi_endproc
 137              	.LFE1:
 139              		.section	.rodata.display_error.str1.1,"aMS",%progbits,1
 140              	.LC1:
 141 0000 72657420 		.ascii	"ret == 0\000"
 141      3D3D2030 
 141      00
 142              	.LC2:
 143 0009 4C69622F 		.ascii	"Lib/Camera_Middleware/sensors/vd6g/vd6g.c\000"
 143      43616D65 
 143      72615F4D 
 143      6964646C 
 143      65776172 
 144              	.LC3:
ARM GAS  /tmp/ccWHsT5O.s 			page 9


 145 0033 4552524F 		.ascii	"ERROR_CODE : 0x%04x\012\000"
 145      525F434F 
 145      4445203A 
 145      20307825 
 145      3034780A 
 146              		.section	.text.display_error,"ax",%progbits
 147              		.align	1
 148              		.syntax unified
 149              		.thumb
 150              		.thumb_func
 152              	display_error:
 153              	.LVL4:
 154              	.LFB4:
 298:Lib/Camera_Middleware/sensors/vd6g/vd6g.c **** 
 299:Lib/Camera_Middleware/sensors/vd6g/vd6g.c **** static void display_error(VD6G_Ctx_t *ctx)
 300:Lib/Camera_Middleware/sensors/vd6g/vd6g.c **** {
 155              		.loc 1 300 1 is_stmt 1 view -0
 156              		.cfi_startproc
 157              		@ args = 0, pretend = 0, frame = 8
 158              		@ frame_needed = 0, uses_anonymous_args = 0
 301:Lib/Camera_Middleware/sensors/vd6g/vd6g.c ****   uint16_t reg16;
 159              		.loc 1 301 3 view .LVU23
 302:Lib/Camera_Middleware/sensors/vd6g/vd6g.c ****   int ret;
 160              		.loc 1 302 3 view .LVU24
 303:Lib/Camera_Middleware/sensors/vd6g/vd6g.c **** 
 304:Lib/Camera_Middleware/sensors/vd6g/vd6g.c ****   ret = ctx->read16(ctx, VD6G_ERROR_CODE, &reg16);
 161              		.loc 1 304 3 view .LVU25
 300:Lib/Camera_Middleware/sensors/vd6g/vd6g.c ****   uint16_t reg16;
 162              		.loc 1 300 1 is_stmt 0 view .LVU26
 163 0000 13B5     		push	{r0, r1, r4, lr}
 164              		.cfi_def_cfa_offset 16
 165              		.cfi_offset 4, -8
 166              		.cfi_offset 14, -4
 167              		.loc 1 304 9 view .LVU27
 168 0002 8368     		ldr	r3, [r0, #8]
 169 0004 1C21     		movs	r1, #28
 170 0006 0DF10602 		add	r2, sp, #6
 300:Lib/Camera_Middleware/sensors/vd6g/vd6g.c ****   uint16_t reg16;
 171              		.loc 1 300 1 view .LVU28
 172 000a 0446     		mov	r4, r0
 173              		.loc 1 304 9 view .LVU29
 174 000c 9847     		blx	r3
 175              	.LVL5:
 305:Lib/Camera_Middleware/sensors/vd6g/vd6g.c ****   assert(ret == 0);
 176              		.loc 1 305 3 is_stmt 1 view .LVU30
 177 000e 30B1     		cbz	r0, .L12
 178              	.LBB4:
 179              	.LBI4:
 299:Lib/Camera_Middleware/sensors/vd6g/vd6g.c **** {
 180              		.loc 1 299 13 view .LVU31
 181              	.LVL6:
 182              	.LBB5:
 183              		.loc 1 305 3 is_stmt 0 discriminator 1 view .LVU32
 184 0010 40F23111 		movw	r1, #305
 185 0014 064B     		ldr	r3, .L13
 186 0016 074A     		ldr	r2, .L13+4
 187 0018 0748     		ldr	r0, .L13+8
ARM GAS  /tmp/ccWHsT5O.s 			page 10


 188              	.LVL7:
 189              		.loc 1 305 3 discriminator 1 view .LVU33
 190 001a FFF7FEFF 		bl	__assert_func
 191              	.LVL8:
 192              	.L12:
 193              		.loc 1 305 3 discriminator 1 view .LVU34
 194              	.LBE5:
 195              	.LBE4:
 306:Lib/Camera_Middleware/sensors/vd6g/vd6g.c ****   VD6G_error(ctx, "ERROR_CODE : 0x%04x\n", reg16);
 196              		.loc 1 306 3 is_stmt 1 view .LVU35
 197 001e 2046     		mov	r0, r4
 198              	.LVL9:
 199              		.loc 1 306 3 is_stmt 0 view .LVU36
 200 0020 BDF80620 		ldrh	r2, [sp, #6]
 201 0024 0549     		ldr	r1, .L13+12
 202 0026 FFF7FEFF 		bl	VD6G_error
 203              	.LVL10:
 307:Lib/Camera_Middleware/sensors/vd6g/vd6g.c **** }
 204              		.loc 1 307 1 view .LVU37
 205 002a 02B0     		add	sp, sp, #8
 206              		.cfi_def_cfa_offset 8
 207              		@ sp needed
 208 002c 10BD     		pop	{r4, pc}
 209              	.LVL11:
 210              	.L14:
 211              		.loc 1 307 1 view .LVU38
 212 002e 00BF     		.align	2
 213              	.L13:
 214 0030 00000000 		.word	.LC1
 215 0034 00000000 		.word	__func__.29
 216 0038 09000000 		.word	.LC2
 217 003c 33000000 		.word	.LC3
 218              		.cfi_endproc
 219              	.LFE4:
 221              		.section	.rodata.VD6G_PollReg8.str1.1,"aMS",%progbits,1
 222              	.LC4:
 223 0000 4572726F 		.ascii	"Error on %s:%d : %d\012\000"
 223      72206F6E 
 223      2025733A 
 223      2564203A 
 223      2025640A 
 224              		.section	.text.VD6G_PollReg8,"ax",%progbits
 225              		.align	1
 226              		.syntax unified
 227              		.thumb
 228              		.thumb_func
 230              	VD6G_PollReg8:
 231              	.LVL12:
 232              	.LFB5:
 308:Lib/Camera_Middleware/sensors/vd6g/vd6g.c **** 
 309:Lib/Camera_Middleware/sensors/vd6g/vd6g.c **** static int VD6G_PollReg8(VD6G_Ctx_t *ctx, uint16_t addr, uint8_t poll_val)
 310:Lib/Camera_Middleware/sensors/vd6g/vd6g.c **** {
 233              		.loc 1 310 1 is_stmt 1 view -0
 234              		.cfi_startproc
 235              		@ args = 0, pretend = 0, frame = 8
 236              		@ frame_needed = 0, uses_anonymous_args = 0
 311:Lib/Camera_Middleware/sensors/vd6g/vd6g.c ****   const unsigned int loop_delay_ms = 10;
ARM GAS  /tmp/ccWHsT5O.s 			page 11


 237              		.loc 1 311 3 view .LVU40
 312:Lib/Camera_Middleware/sensors/vd6g/vd6g.c ****   const unsigned int timeout_ms = 500;
 238              		.loc 1 312 3 view .LVU41
 313:Lib/Camera_Middleware/sensors/vd6g/vd6g.c ****   int loop_nb = timeout_ms / loop_delay_ms;
 239              		.loc 1 313 3 view .LVU42
 314:Lib/Camera_Middleware/sensors/vd6g/vd6g.c ****   uint8_t val;
 240              		.loc 1 314 3 view .LVU43
 315:Lib/Camera_Middleware/sensors/vd6g/vd6g.c ****   int ret;
 241              		.loc 1 315 3 view .LVU44
 316:Lib/Camera_Middleware/sensors/vd6g/vd6g.c **** 
 317:Lib/Camera_Middleware/sensors/vd6g/vd6g.c ****   while (--loop_nb) {
 242              		.loc 1 317 3 view .LVU45
 243              		.loc 1 317 10 view .LVU46
 310:Lib/Camera_Middleware/sensors/vd6g/vd6g.c ****   const unsigned int loop_delay_ms = 10;
 244              		.loc 1 310 1 is_stmt 0 view .LVU47
 245 0000 2DE9FF41 		push	{r0, r1, r2, r3, r4, r5, r6, r7, r8, lr}
 246              		.cfi_def_cfa_offset 40
 247              		.cfi_offset 4, -24
 248              		.cfi_offset 5, -20
 249              		.cfi_offset 6, -16
 250              		.cfi_offset 7, -12
 251              		.cfi_offset 8, -8
 252              		.cfi_offset 14, -4
 310:Lib/Camera_Middleware/sensors/vd6g/vd6g.c ****   const unsigned int loop_delay_ms = 10;
 253              		.loc 1 310 1 view .LVU48
 254 0004 0446     		mov	r4, r0
 255 0006 0F46     		mov	r7, r1
 256 0008 9046     		mov	r8, r2
 257 000a 3126     		movs	r6, #49
 258              	.LVL13:
 259              	.L19:
 318:Lib/Camera_Middleware/sensors/vd6g/vd6g.c ****     ret = ctx->read8(ctx, addr, &val);
 260              		.loc 1 318 5 is_stmt 1 view .LVU49
 261              		.loc 1 318 11 is_stmt 0 view .LVU50
 262 000c 3946     		mov	r1, r7
 263 000e 2046     		mov	r0, r4
 264 0010 6368     		ldr	r3, [r4, #4]
 265 0012 0DF10F02 		add	r2, sp, #15
 266 0016 9847     		blx	r3
 267              	.LVL14:
 319:Lib/Camera_Middleware/sensors/vd6g/vd6g.c ****     VD6G_TraceError(ctx, ret);
 268              		.loc 1 319 5 is_stmt 1 view .LVU51
 269              		.loc 1 319 5 view .LVU52
 270 0018 0546     		mov	r5, r0
 271 001a 38B9     		cbnz	r0, .L16
 272              		.loc 1 319 5 discriminator 6 view .LVU53
 273              		.loc 1 319 5 discriminator 8 view .LVU54
 320:Lib/Camera_Middleware/sensors/vd6g/vd6g.c ****     if (val == poll_val)
 274              		.loc 1 320 5 view .LVU55
 275              		.loc 1 320 8 is_stmt 0 view .LVU56
 276 001c 9DF80F30 		ldrb	r3, [sp, #15]	@ zero_extendqisi2
 277 0020 4345     		cmp	r3, r8
 278 0022 0FD1     		bne	.L21
 279              	.LVL15:
 280              	.L15:
 321:Lib/Camera_Middleware/sensors/vd6g/vd6g.c ****       return 0;
 322:Lib/Camera_Middleware/sensors/vd6g/vd6g.c ****     ctx->delay(ctx, loop_delay_ms);
ARM GAS  /tmp/ccWHsT5O.s 			page 12


 323:Lib/Camera_Middleware/sensors/vd6g/vd6g.c ****   }
 324:Lib/Camera_Middleware/sensors/vd6g/vd6g.c **** 
 325:Lib/Camera_Middleware/sensors/vd6g/vd6g.c ****   return -1;
 326:Lib/Camera_Middleware/sensors/vd6g/vd6g.c **** }
 281              		.loc 1 326 1 view .LVU57
 282 0024 2846     		mov	r0, r5
 283 0026 04B0     		add	sp, sp, #16
 284              		.cfi_remember_state
 285              		.cfi_def_cfa_offset 24
 286              		@ sp needed
 287 0028 BDE8F081 		pop	{r4, r5, r6, r7, r8, pc}
 288              	.LVL16:
 289              	.L16:
 290              		.cfi_restore_state
 319:Lib/Camera_Middleware/sensors/vd6g/vd6g.c ****     if (val == poll_val)
 291              		.loc 1 319 5 is_stmt 1 discriminator 1 view .LVU58
 292 002c 0090     		str	r0, [sp]
 293 002e 40F23F13 		movw	r3, #319
 294 0032 2046     		mov	r0, r4
 295              	.LVL17:
 319:Lib/Camera_Middleware/sensors/vd6g/vd6g.c ****     if (val == poll_val)
 296              		.loc 1 319 5 is_stmt 0 discriminator 1 view .LVU59
 297 0034 084A     		ldr	r2, .L22
 298 0036 0949     		ldr	r1, .L22+4
 299 0038 FFF7FEFF 		bl	VD6G_error
 300              	.LVL18:
 319:Lib/Camera_Middleware/sensors/vd6g/vd6g.c ****     if (val == poll_val)
 301              		.loc 1 319 5 is_stmt 1 discriminator 3 view .LVU60
 319:Lib/Camera_Middleware/sensors/vd6g/vd6g.c ****     if (val == poll_val)
 302              		.loc 1 319 5 discriminator 4 view .LVU61
 303 003c 2046     		mov	r0, r4
 304 003e FFF7FEFF 		bl	display_error
 305              	.LVL19:
 319:Lib/Camera_Middleware/sensors/vd6g/vd6g.c ****     if (val == poll_val)
 306              		.loc 1 319 5 discriminator 6 view .LVU62
 307 0042 EFE7     		b	.L15
 308              	.LVL20:
 309              	.L21:
 322:Lib/Camera_Middleware/sensors/vd6g/vd6g.c ****   }
 310              		.loc 1 322 5 view .LVU63
 311 0044 0A21     		movs	r1, #10
 312 0046 2046     		mov	r0, r4
 313              	.LVL21:
 322:Lib/Camera_Middleware/sensors/vd6g/vd6g.c ****   }
 314              		.loc 1 322 5 is_stmt 0 view .LVU64
 315 0048 236A     		ldr	r3, [r4, #32]
 316 004a 9847     		blx	r3
 317              	.LVL22:
 317:Lib/Camera_Middleware/sensors/vd6g/vd6g.c ****     ret = ctx->read8(ctx, addr, &val);
 318              		.loc 1 317 10 is_stmt 1 view .LVU65
 317:Lib/Camera_Middleware/sensors/vd6g/vd6g.c ****     ret = ctx->read8(ctx, addr, &val);
 319              		.loc 1 317 10 is_stmt 0 view .LVU66
 320 004c 013E     		subs	r6, r6, #1
 321              	.LVL23:
 317:Lib/Camera_Middleware/sensors/vd6g/vd6g.c ****     ret = ctx->read8(ctx, addr, &val);
 322              		.loc 1 317 10 view .LVU67
 323 004e DDD1     		bne	.L19
ARM GAS  /tmp/ccWHsT5O.s 			page 13


 325:Lib/Camera_Middleware/sensors/vd6g/vd6g.c **** }
 324              		.loc 1 325 10 view .LVU68
 325 0050 4FF0FF35 		mov	r5, #-1
 326              	.LVL24:
 325:Lib/Camera_Middleware/sensors/vd6g/vd6g.c **** }
 327              		.loc 1 325 10 view .LVU69
 328 0054 E6E7     		b	.L15
 329              	.L23:
 330 0056 00BF     		.align	2
 331              	.L22:
 332 0058 00000000 		.word	__func__.30
 333 005c 00000000 		.word	.LC4
 334              		.cfi_endproc
 335              	.LFE5:
 337              		.section	.text.VD6G_SetExposureModeInternal,"ax",%progbits
 338              		.align	1
 339              		.syntax unified
 340              		.thumb
 341              		.thumb_func
 343              	VD6G_SetExposureModeInternal:
 344              	.LVL25:
 345              	.LFB17:
 327:Lib/Camera_Middleware/sensors/vd6g/vd6g.c **** 
 328:Lib/Camera_Middleware/sensors/vd6g/vd6g.c **** static int VD6G_GetLineTimeInUs(VD6G_Ctx_t *ctx, uint32_t *line_time_in_us)
 329:Lib/Camera_Middleware/sensors/vd6g/vd6g.c **** {
 330:Lib/Camera_Middleware/sensors/vd6g/vd6g.c ****   uint16_t line_len;
 331:Lib/Camera_Middleware/sensors/vd6g/vd6g.c ****   int ret;
 332:Lib/Camera_Middleware/sensors/vd6g/vd6g.c **** 
 333:Lib/Camera_Middleware/sensors/vd6g/vd6g.c ****   ret = ctx->read16(ctx, VD6G_LINE_LENGTH, &line_len);
 334:Lib/Camera_Middleware/sensors/vd6g/vd6g.c ****   VD6G_TraceError(ctx, ret);
 335:Lib/Camera_Middleware/sensors/vd6g/vd6g.c **** 
 336:Lib/Camera_Middleware/sensors/vd6g/vd6g.c ****   /* compute line_time_in_us */
 337:Lib/Camera_Middleware/sensors/vd6g/vd6g.c ****   *line_time_in_us = ((uint64_t)line_len * 1000000) / VD6G_PIXEL_CLOCK;
 338:Lib/Camera_Middleware/sensors/vd6g/vd6g.c **** 
 339:Lib/Camera_Middleware/sensors/vd6g/vd6g.c ****   return 0;
 340:Lib/Camera_Middleware/sensors/vd6g/vd6g.c **** }
 341:Lib/Camera_Middleware/sensors/vd6g/vd6g.c **** 
 342:Lib/Camera_Middleware/sensors/vd6g/vd6g.c **** static int VD6G_IsStreaming(VD6G_Ctx_t *ctx)
 343:Lib/Camera_Middleware/sensors/vd6g/vd6g.c **** {
 344:Lib/Camera_Middleware/sensors/vd6g/vd6g.c ****   uint8_t state;
 345:Lib/Camera_Middleware/sensors/vd6g/vd6g.c ****   int ret;
 346:Lib/Camera_Middleware/sensors/vd6g/vd6g.c **** 
 347:Lib/Camera_Middleware/sensors/vd6g/vd6g.c ****   ret = ctx->read8(ctx, VD6G_REG_SYSTEM_FSM, &state);
 348:Lib/Camera_Middleware/sensors/vd6g/vd6g.c ****   VD6G_TraceError(ctx, ret);
 349:Lib/Camera_Middleware/sensors/vd6g/vd6g.c **** 
 350:Lib/Camera_Middleware/sensors/vd6g/vd6g.c ****   return state == VD6G_SYSTEM_FSM_STREAMING;
 351:Lib/Camera_Middleware/sensors/vd6g/vd6g.c **** }
 352:Lib/Camera_Middleware/sensors/vd6g/vd6g.c **** 
 353:Lib/Camera_Middleware/sensors/vd6g/vd6g.c **** static int VD6G_WaitState(VD6G_Ctx_t *ctx, int state)
 354:Lib/Camera_Middleware/sensors/vd6g/vd6g.c **** {
 355:Lib/Camera_Middleware/sensors/vd6g/vd6g.c ****   int ret = VD6G_PollReg8(ctx, VD6G_REG_SYSTEM_FSM, state);
 356:Lib/Camera_Middleware/sensors/vd6g/vd6g.c **** 
 357:Lib/Camera_Middleware/sensors/vd6g/vd6g.c ****   if (ret)
 358:Lib/Camera_Middleware/sensors/vd6g/vd6g.c ****     VD6G_warn(ctx, "Unable to reach state %d\n", state);
 359:Lib/Camera_Middleware/sensors/vd6g/vd6g.c ****   else
 360:Lib/Camera_Middleware/sensors/vd6g/vd6g.c ****     VD6G_dbg(ctx, 0, "reach state %d\n", state);
 361:Lib/Camera_Middleware/sensors/vd6g/vd6g.c **** 
ARM GAS  /tmp/ccWHsT5O.s 			page 14


 362:Lib/Camera_Middleware/sensors/vd6g/vd6g.c ****   return ret;
 363:Lib/Camera_Middleware/sensors/vd6g/vd6g.c **** }
 364:Lib/Camera_Middleware/sensors/vd6g/vd6g.c **** 
 365:Lib/Camera_Middleware/sensors/vd6g/vd6g.c **** static int VD6G_GetTopDie(VD6G_Ctx_t *ctx, uint8_t *top_die)
 366:Lib/Camera_Middleware/sensors/vd6g/vd6g.c **** {
 367:Lib/Camera_Middleware/sensors/vd6g/vd6g.c ****   uint16_t reg16;
 368:Lib/Camera_Middleware/sensors/vd6g/vd6g.c ****   int ret;
 369:Lib/Camera_Middleware/sensors/vd6g/vd6g.c **** 
 370:Lib/Camera_Middleware/sensors/vd6g/vd6g.c ****   ret = ctx->read16(ctx, VD6G_REG_REVISION, &reg16);
 371:Lib/Camera_Middleware/sensors/vd6g/vd6g.c ****   VD6G_TraceError(ctx, ret);
 372:Lib/Camera_Middleware/sensors/vd6g/vd6g.c ****   VD6G_dbg(ctx, 0, "revision = 0x%04x\n", reg16);
 373:Lib/Camera_Middleware/sensors/vd6g/vd6g.c ****   *top_die = reg16 >> 8;
 374:Lib/Camera_Middleware/sensors/vd6g/vd6g.c **** 
 375:Lib/Camera_Middleware/sensors/vd6g/vd6g.c ****   return 0;
 376:Lib/Camera_Middleware/sensors/vd6g/vd6g.c **** }
 377:Lib/Camera_Middleware/sensors/vd6g/vd6g.c **** 
 378:Lib/Camera_Middleware/sensors/vd6g/vd6g.c **** static int VD6G_CheckModelId(VD6G_Ctx_t *ctx)
 379:Lib/Camera_Middleware/sensors/vd6g/vd6g.c **** {
 380:Lib/Camera_Middleware/sensors/vd6g/vd6g.c ****   uint8_t top_die;
 381:Lib/Camera_Middleware/sensors/vd6g/vd6g.c ****   uint16_t reg16;
 382:Lib/Camera_Middleware/sensors/vd6g/vd6g.c ****   int ret;
 383:Lib/Camera_Middleware/sensors/vd6g/vd6g.c **** 
 384:Lib/Camera_Middleware/sensors/vd6g/vd6g.c ****   ret = ctx->read16(ctx, VD6G_REG_MODEL_ID, &reg16);
 385:Lib/Camera_Middleware/sensors/vd6g/vd6g.c ****   VD6G_TraceError(ctx, ret);
 386:Lib/Camera_Middleware/sensors/vd6g/vd6g.c ****   VD6G_dbg(ctx, 0, "model_id = 0x%04x\n", reg16);
 387:Lib/Camera_Middleware/sensors/vd6g/vd6g.c ****   if (reg16 != VD6G_MODEL_ID) {
 388:Lib/Camera_Middleware/sensors/vd6g/vd6g.c ****     VD6G_error(ctx, "Bad model id expected 0x%04x / got 0x%04x\n", VD6G_MODEL_ID, reg16);
 389:Lib/Camera_Middleware/sensors/vd6g/vd6g.c ****     return -1;
 390:Lib/Camera_Middleware/sensors/vd6g/vd6g.c ****   }
 391:Lib/Camera_Middleware/sensors/vd6g/vd6g.c **** 
 392:Lib/Camera_Middleware/sensors/vd6g/vd6g.c ****   ret = VD6G_GetTopDie(ctx, &top_die);
 393:Lib/Camera_Middleware/sensors/vd6g/vd6g.c ****   if (ret)
 394:Lib/Camera_Middleware/sensors/vd6g/vd6g.c ****     return ret;
 395:Lib/Camera_Middleware/sensors/vd6g/vd6g.c ****   if (top_die != VD6G_TOP_DIE_SLOW_BOOT && top_die != VD6G_TOP_DIE_FAST_BOOT) {
 396:Lib/Camera_Middleware/sensors/vd6g/vd6g.c ****     VD6G_error(ctx, "Unsupported revision\n");
 397:Lib/Camera_Middleware/sensors/vd6g/vd6g.c ****     return -1;
 398:Lib/Camera_Middleware/sensors/vd6g/vd6g.c ****   }
 399:Lib/Camera_Middleware/sensors/vd6g/vd6g.c **** 
 400:Lib/Camera_Middleware/sensors/vd6g/vd6g.c ****   ret = ctx->read16(ctx, VD6G_REG_ROM_REVISION, &reg16);
 401:Lib/Camera_Middleware/sensors/vd6g/vd6g.c ****   VD6G_TraceError(ctx, ret);
 402:Lib/Camera_Middleware/sensors/vd6g/vd6g.c ****   VD6G_dbg(ctx, 0, "rom = 0x%04x\n", reg16);
 403:Lib/Camera_Middleware/sensors/vd6g/vd6g.c **** 
 404:Lib/Camera_Middleware/sensors/vd6g/vd6g.c ****   return 0;
 405:Lib/Camera_Middleware/sensors/vd6g/vd6g.c **** }
 406:Lib/Camera_Middleware/sensors/vd6g/vd6g.c **** 
 407:Lib/Camera_Middleware/sensors/vd6g/vd6g.c **** static int VD6G_ApplyPatchSlowBoot(VD6G_Ctx_t *ctx)
 408:Lib/Camera_Middleware/sensors/vd6g/vd6g.c **** {
 409:Lib/Camera_Middleware/sensors/vd6g/vd6g.c ****   uint8_t patch_major;
 410:Lib/Camera_Middleware/sensors/vd6g/vd6g.c ****   uint8_t patch_minor;
 411:Lib/Camera_Middleware/sensors/vd6g/vd6g.c ****   uint16_t reg16;
 412:Lib/Camera_Middleware/sensors/vd6g/vd6g.c ****   int ret;
 413:Lib/Camera_Middleware/sensors/vd6g/vd6g.c **** 
 414:Lib/Camera_Middleware/sensors/vd6g/vd6g.c ****   patch_major = patch_cut2[3];
 415:Lib/Camera_Middleware/sensors/vd6g/vd6g.c ****   patch_minor = patch_cut2[2];
 416:Lib/Camera_Middleware/sensors/vd6g/vd6g.c **** 
 417:Lib/Camera_Middleware/sensors/vd6g/vd6g.c ****   ret = ctx->write_array(ctx, 0x2000, (uint8_t *) patch_cut2, sizeof(patch_cut2));
 418:Lib/Camera_Middleware/sensors/vd6g/vd6g.c ****   VD6G_TraceError(ctx, ret);
ARM GAS  /tmp/ccWHsT5O.s 			page 15


 419:Lib/Camera_Middleware/sensors/vd6g/vd6g.c **** 
 420:Lib/Camera_Middleware/sensors/vd6g/vd6g.c ****   ret = ctx->write8(ctx, VD6G_REG_BOOT, VD6G_CMD_PATCH_SETUP);
 421:Lib/Camera_Middleware/sensors/vd6g/vd6g.c ****   VD6G_TraceError(ctx, ret);
 422:Lib/Camera_Middleware/sensors/vd6g/vd6g.c **** 
 423:Lib/Camera_Middleware/sensors/vd6g/vd6g.c ****   ret = VD6G_PollReg8(ctx, VD6G_REG_BOOT, VD6G_CMD_ACK);
 424:Lib/Camera_Middleware/sensors/vd6g/vd6g.c ****   if (ret)
 425:Lib/Camera_Middleware/sensors/vd6g/vd6g.c ****     return ret;
 426:Lib/Camera_Middleware/sensors/vd6g/vd6g.c **** 
 427:Lib/Camera_Middleware/sensors/vd6g/vd6g.c ****   ret = ctx->read16(ctx, VD6G_REG_FWPATCH_REVISION, &reg16);
 428:Lib/Camera_Middleware/sensors/vd6g/vd6g.c ****   VD6G_TraceError(ctx, ret);
 429:Lib/Camera_Middleware/sensors/vd6g/vd6g.c ****   VD6G_dbg(ctx, 0, "patch = 0x%04x\n", reg16);
 430:Lib/Camera_Middleware/sensors/vd6g/vd6g.c **** 
 431:Lib/Camera_Middleware/sensors/vd6g/vd6g.c ****   if (reg16 != (patch_major << 8) + patch_minor) {
 432:Lib/Camera_Middleware/sensors/vd6g/vd6g.c ****     VD6G_error(ctx, "bad patch version expected %d.%d got %d.%d\n", patch_major, patch_minor,
 433:Lib/Camera_Middleware/sensors/vd6g/vd6g.c ****                  reg16 >> 8, reg16 & 0xff);
 434:Lib/Camera_Middleware/sensors/vd6g/vd6g.c ****     return -1;
 435:Lib/Camera_Middleware/sensors/vd6g/vd6g.c ****   }
 436:Lib/Camera_Middleware/sensors/vd6g/vd6g.c ****   VD6G_notice(ctx, "patch %d.%d applied\n", reg16 >> 8, reg16 & 0xff);
 437:Lib/Camera_Middleware/sensors/vd6g/vd6g.c **** 
 438:Lib/Camera_Middleware/sensors/vd6g/vd6g.c ****   return 0;
 439:Lib/Camera_Middleware/sensors/vd6g/vd6g.c **** }
 440:Lib/Camera_Middleware/sensors/vd6g/vd6g.c **** 
 441:Lib/Camera_Middleware/sensors/vd6g/vd6g.c **** static int VD6G_ApplyPatch(VD6G_Ctx_t *ctx)
 442:Lib/Camera_Middleware/sensors/vd6g/vd6g.c **** {
 443:Lib/Camera_Middleware/sensors/vd6g/vd6g.c ****   uint8_t top_die;
 444:Lib/Camera_Middleware/sensors/vd6g/vd6g.c ****   int ret;
 445:Lib/Camera_Middleware/sensors/vd6g/vd6g.c **** 
 446:Lib/Camera_Middleware/sensors/vd6g/vd6g.c ****   ret = VD6G_GetTopDie(ctx, &top_die);
 447:Lib/Camera_Middleware/sensors/vd6g/vd6g.c ****   if (ret)
 448:Lib/Camera_Middleware/sensors/vd6g/vd6g.c ****     return ret;
 449:Lib/Camera_Middleware/sensors/vd6g/vd6g.c **** 
 450:Lib/Camera_Middleware/sensors/vd6g/vd6g.c ****   switch (top_die) {
 451:Lib/Camera_Middleware/sensors/vd6g/vd6g.c ****   case VD6G_TOP_DIE_SLOW_BOOT:
 452:Lib/Camera_Middleware/sensors/vd6g/vd6g.c ****     ret = VD6G_ApplyPatchSlowBoot(ctx);
 453:Lib/Camera_Middleware/sensors/vd6g/vd6g.c ****     break;
 454:Lib/Camera_Middleware/sensors/vd6g/vd6g.c ****   case VD6G_TOP_DIE_FAST_BOOT:
 455:Lib/Camera_Middleware/sensors/vd6g/vd6g.c ****     ret = 0;
 456:Lib/Camera_Middleware/sensors/vd6g/vd6g.c ****     break;
 457:Lib/Camera_Middleware/sensors/vd6g/vd6g.c ****   default:
 458:Lib/Camera_Middleware/sensors/vd6g/vd6g.c ****     assert(0);
 459:Lib/Camera_Middleware/sensors/vd6g/vd6g.c ****   }
 460:Lib/Camera_Middleware/sensors/vd6g/vd6g.c **** 
 461:Lib/Camera_Middleware/sensors/vd6g/vd6g.c ****   return ret;
 462:Lib/Camera_Middleware/sensors/vd6g/vd6g.c **** }
 463:Lib/Camera_Middleware/sensors/vd6g/vd6g.c **** 
 464:Lib/Camera_Middleware/sensors/vd6g/vd6g.c **** static int VD6G_BootMcu(VD6G_Ctx_t *ctx)
 465:Lib/Camera_Middleware/sensors/vd6g/vd6g.c **** {
 466:Lib/Camera_Middleware/sensors/vd6g/vd6g.c ****   int ret;
 467:Lib/Camera_Middleware/sensors/vd6g/vd6g.c **** 
 468:Lib/Camera_Middleware/sensors/vd6g/vd6g.c ****   ret = ctx->write8(ctx, VD6G_REG_BOOT, VD6G_CMD_BOOT);
 469:Lib/Camera_Middleware/sensors/vd6g/vd6g.c ****   VD6G_TraceError(ctx, ret);
 470:Lib/Camera_Middleware/sensors/vd6g/vd6g.c **** 
 471:Lib/Camera_Middleware/sensors/vd6g/vd6g.c ****   ret = VD6G_PollReg8(ctx, VD6G_REG_BOOT, VD6G_CMD_ACK);
 472:Lib/Camera_Middleware/sensors/vd6g/vd6g.c ****   if (ret)
 473:Lib/Camera_Middleware/sensors/vd6g/vd6g.c ****     return ret;
 474:Lib/Camera_Middleware/sensors/vd6g/vd6g.c **** 
 475:Lib/Camera_Middleware/sensors/vd6g/vd6g.c ****   ret = VD6G_WaitState(ctx, VD6G_SYSTEM_FSM_SW_STBY);
ARM GAS  /tmp/ccWHsT5O.s 			page 16


 476:Lib/Camera_Middleware/sensors/vd6g/vd6g.c ****   if (ret)
 477:Lib/Camera_Middleware/sensors/vd6g/vd6g.c ****     return ret;
 478:Lib/Camera_Middleware/sensors/vd6g/vd6g.c **** 
 479:Lib/Camera_Middleware/sensors/vd6g/vd6g.c ****   VD6G_notice(ctx, "sensor boot successfully\n");
 480:Lib/Camera_Middleware/sensors/vd6g/vd6g.c **** 
 481:Lib/Camera_Middleware/sensors/vd6g/vd6g.c ****   return 0;
 482:Lib/Camera_Middleware/sensors/vd6g/vd6g.c **** }
 483:Lib/Camera_Middleware/sensors/vd6g/vd6g.c **** 
 484:Lib/Camera_Middleware/sensors/vd6g/vd6g.c **** static int VD6G_ApplyVtPatchSlowBoot(VD6G_Ctx_t *ctx)
 485:Lib/Camera_Middleware/sensors/vd6g/vd6g.c **** {
 486:Lib/Camera_Middleware/sensors/vd6g/vd6g.c ****   uint8_t cur_vtpatch_rd_rev, cur_vtpatch_gr_rev, cur_vtpatch_gt_rev;
 487:Lib/Camera_Middleware/sensors/vd6g/vd6g.c ****   int vtpatch_offset = 0;
 488:Lib/Camera_Middleware/sensors/vd6g/vd6g.c ****   int ret;
 489:Lib/Camera_Middleware/sensors/vd6g/vd6g.c ****   int i;
 490:Lib/Camera_Middleware/sensors/vd6g/vd6g.c **** 
 491:Lib/Camera_Middleware/sensors/vd6g/vd6g.c ****   ret = ctx->write8(ctx, VD6G_REG_VTPATCHING, VD6G_CMD_START_VTRAM_UPDATE);
 492:Lib/Camera_Middleware/sensors/vd6g/vd6g.c ****   VD6G_TraceError(ctx, ret);
 493:Lib/Camera_Middleware/sensors/vd6g/vd6g.c **** 
 494:Lib/Camera_Middleware/sensors/vd6g/vd6g.c ****   ret = VD6G_PollReg8(ctx, VD6G_REG_VTPATCHING, VD6G_CMD_ACK);
 495:Lib/Camera_Middleware/sensors/vd6g/vd6g.c ****   if (ret)
 496:Lib/Camera_Middleware/sensors/vd6g/vd6g.c ****     return ret;
 497:Lib/Camera_Middleware/sensors/vd6g/vd6g.c **** 
 498:Lib/Camera_Middleware/sensors/vd6g/vd6g.c ****   ret = VD6G_WaitState(ctx, VD6G_SYSTEM_FSM_SW_STBY);
 499:Lib/Camera_Middleware/sensors/vd6g/vd6g.c ****   if (ret)
 500:Lib/Camera_Middleware/sensors/vd6g/vd6g.c ****     return ret;
 501:Lib/Camera_Middleware/sensors/vd6g/vd6g.c **** 
 502:Lib/Camera_Middleware/sensors/vd6g/vd6g.c ****   for (i = 0; i < vtpatch_area_nb; i++) {
 503:Lib/Camera_Middleware/sensors/vd6g/vd6g.c ****     ret = ctx->write_array(ctx, vtpatch_desc[i].offset, (uint8_t *) (vtpatch + vtpatch_offset),
 504:Lib/Camera_Middleware/sensors/vd6g/vd6g.c ****                            vtpatch_desc[i].size);
 505:Lib/Camera_Middleware/sensors/vd6g/vd6g.c ****     VD6G_TraceError(ctx, ret);
 506:Lib/Camera_Middleware/sensors/vd6g/vd6g.c ****     vtpatch_offset += vtpatch_desc[i].size;
 507:Lib/Camera_Middleware/sensors/vd6g/vd6g.c ****   }
 508:Lib/Camera_Middleware/sensors/vd6g/vd6g.c ****   ret = ctx->write8(ctx, 0xd9f8, VT_REVISION);
 509:Lib/Camera_Middleware/sensors/vd6g/vd6g.c ****   VD6G_TraceError(ctx, ret);
 510:Lib/Camera_Middleware/sensors/vd6g/vd6g.c ****   ret = ctx->write8(ctx, 0xaffc, VT_REVISION);
 511:Lib/Camera_Middleware/sensors/vd6g/vd6g.c ****   VD6G_TraceError(ctx, ret);
 512:Lib/Camera_Middleware/sensors/vd6g/vd6g.c ****   ret = ctx->write8(ctx, 0xbbb4, VT_REVISION);
 513:Lib/Camera_Middleware/sensors/vd6g/vd6g.c ****   VD6G_TraceError(ctx, ret);
 514:Lib/Camera_Middleware/sensors/vd6g/vd6g.c ****   ret = ctx->write8(ctx, 0xb898, VT_REVISION);
 515:Lib/Camera_Middleware/sensors/vd6g/vd6g.c ****   VD6G_TraceError(ctx, ret);
 516:Lib/Camera_Middleware/sensors/vd6g/vd6g.c **** 
 517:Lib/Camera_Middleware/sensors/vd6g/vd6g.c ****   ret = ctx->write8(ctx, VD6G_REG_VTPATCHING, VD6G_CMD_END_VTRAM_UPDATE);
 518:Lib/Camera_Middleware/sensors/vd6g/vd6g.c ****   VD6G_TraceError(ctx, ret);
 519:Lib/Camera_Middleware/sensors/vd6g/vd6g.c **** 
 520:Lib/Camera_Middleware/sensors/vd6g/vd6g.c ****   ret = VD6G_PollReg8(ctx, VD6G_REG_VTPATCHING, VD6G_CMD_ACK);
 521:Lib/Camera_Middleware/sensors/vd6g/vd6g.c ****   if (ret)
 522:Lib/Camera_Middleware/sensors/vd6g/vd6g.c ****     return ret;
 523:Lib/Camera_Middleware/sensors/vd6g/vd6g.c **** 
 524:Lib/Camera_Middleware/sensors/vd6g/vd6g.c ****   ret = VD6G_WaitState(ctx, VD6G_SYSTEM_FSM_SW_STBY);
 525:Lib/Camera_Middleware/sensors/vd6g/vd6g.c ****   if (ret)
 526:Lib/Camera_Middleware/sensors/vd6g/vd6g.c ****     return ret;
 527:Lib/Camera_Middleware/sensors/vd6g/vd6g.c **** 
 528:Lib/Camera_Middleware/sensors/vd6g/vd6g.c ****   ret = ctx->read8(ctx, VD6G_REG_VTIMING_RD_REVISION, &cur_vtpatch_rd_rev);
 529:Lib/Camera_Middleware/sensors/vd6g/vd6g.c ****   VD6G_TraceError(ctx, ret);
 530:Lib/Camera_Middleware/sensors/vd6g/vd6g.c ****   ret = ctx->read8(ctx, VD6G_REG_VTIMING_GR_REVISION, &cur_vtpatch_gr_rev);
 531:Lib/Camera_Middleware/sensors/vd6g/vd6g.c ****   VD6G_TraceError(ctx, ret);
 532:Lib/Camera_Middleware/sensors/vd6g/vd6g.c ****   ret = ctx->read8(ctx, VD6G_REG_VTIMING_GT_REVISION, &cur_vtpatch_gt_rev);
ARM GAS  /tmp/ccWHsT5O.s 			page 17


 533:Lib/Camera_Middleware/sensors/vd6g/vd6g.c ****   VD6G_TraceError(ctx, ret);
 534:Lib/Camera_Middleware/sensors/vd6g/vd6g.c **** 
 535:Lib/Camera_Middleware/sensors/vd6g/vd6g.c ****   if (cur_vtpatch_rd_rev != VT_REVISION ||
 536:Lib/Camera_Middleware/sensors/vd6g/vd6g.c ****       cur_vtpatch_gr_rev != VT_REVISION ||
 537:Lib/Camera_Middleware/sensors/vd6g/vd6g.c ****       cur_vtpatch_gt_rev != VT_REVISION) {
 538:Lib/Camera_Middleware/sensors/vd6g/vd6g.c ****     VD6G_error(ctx, "bad vtpatch version, expected %d got rd:%d, gr:%d gt:%d\n", VT_REVISION, cur_v
 539:Lib/Camera_Middleware/sensors/vd6g/vd6g.c ****                  cur_vtpatch_gr_rev, cur_vtpatch_gt_rev);
 540:Lib/Camera_Middleware/sensors/vd6g/vd6g.c ****     return -1;
 541:Lib/Camera_Middleware/sensors/vd6g/vd6g.c ****   }
 542:Lib/Camera_Middleware/sensors/vd6g/vd6g.c ****   VD6G_notice(ctx, "VT patch %d applied\n", VT_REVISION);
 543:Lib/Camera_Middleware/sensors/vd6g/vd6g.c **** 
 544:Lib/Camera_Middleware/sensors/vd6g/vd6g.c ****   return 0;
 545:Lib/Camera_Middleware/sensors/vd6g/vd6g.c **** }
 546:Lib/Camera_Middleware/sensors/vd6g/vd6g.c **** 
 547:Lib/Camera_Middleware/sensors/vd6g/vd6g.c **** static int VD6G_ApplyVtPatch(VD6G_Ctx_t *ctx)
 548:Lib/Camera_Middleware/sensors/vd6g/vd6g.c **** {
 549:Lib/Camera_Middleware/sensors/vd6g/vd6g.c ****   uint8_t top_die;
 550:Lib/Camera_Middleware/sensors/vd6g/vd6g.c ****   int ret;
 551:Lib/Camera_Middleware/sensors/vd6g/vd6g.c **** 
 552:Lib/Camera_Middleware/sensors/vd6g/vd6g.c ****   ret = VD6G_GetTopDie(ctx, &top_die);
 553:Lib/Camera_Middleware/sensors/vd6g/vd6g.c ****   if (ret)
 554:Lib/Camera_Middleware/sensors/vd6g/vd6g.c ****     return ret;
 555:Lib/Camera_Middleware/sensors/vd6g/vd6g.c **** 
 556:Lib/Camera_Middleware/sensors/vd6g/vd6g.c ****   switch (top_die) {
 557:Lib/Camera_Middleware/sensors/vd6g/vd6g.c ****   case VD6G_TOP_DIE_SLOW_BOOT:
 558:Lib/Camera_Middleware/sensors/vd6g/vd6g.c ****     ret = VD6G_ApplyVtPatchSlowBoot(ctx);
 559:Lib/Camera_Middleware/sensors/vd6g/vd6g.c ****     break;
 560:Lib/Camera_Middleware/sensors/vd6g/vd6g.c ****   case VD6G_TOP_DIE_FAST_BOOT:
 561:Lib/Camera_Middleware/sensors/vd6g/vd6g.c ****     ret = 0;
 562:Lib/Camera_Middleware/sensors/vd6g/vd6g.c ****     break;
 563:Lib/Camera_Middleware/sensors/vd6g/vd6g.c ****   default:
 564:Lib/Camera_Middleware/sensors/vd6g/vd6g.c ****     assert(0);
 565:Lib/Camera_Middleware/sensors/vd6g/vd6g.c ****   }
 566:Lib/Camera_Middleware/sensors/vd6g/vd6g.c **** 
 567:Lib/Camera_Middleware/sensors/vd6g/vd6g.c ****   return ret;
 568:Lib/Camera_Middleware/sensors/vd6g/vd6g.c **** }
 569:Lib/Camera_Middleware/sensors/vd6g/vd6g.c **** 
 570:Lib/Camera_Middleware/sensors/vd6g/vd6g.c **** static int VD6G_SetBayerType(VD6G_Ctx_t *ctx)
 571:Lib/Camera_Middleware/sensors/vd6g/vd6g.c **** {
 572:Lib/Camera_Middleware/sensors/vd6g/vd6g.c ****   struct drv_vd6g_ctx *drv_ctx = &ctx->ctx;
 573:Lib/Camera_Middleware/sensors/vd6g/vd6g.c ****   uint8_t reg8;
 574:Lib/Camera_Middleware/sensors/vd6g/vd6g.c ****   int ret;
 575:Lib/Camera_Middleware/sensors/vd6g/vd6g.c **** 
 576:Lib/Camera_Middleware/sensors/vd6g/vd6g.c ****   ret = ctx->read8(ctx, VD6G_REG_OPTICAL_REVISION, &reg8);
 577:Lib/Camera_Middleware/sensors/vd6g/vd6g.c ****   VD6G_TraceError(ctx, ret);
 578:Lib/Camera_Middleware/sensors/vd6g/vd6g.c **** 
 579:Lib/Camera_Middleware/sensors/vd6g/vd6g.c ****   if (!(reg8 & 1)) {
 580:Lib/Camera_Middleware/sensors/vd6g/vd6g.c ****     ctx->bayer = VD6G_BAYER_NONE;
 581:Lib/Camera_Middleware/sensors/vd6g/vd6g.c ****     return 0;
 582:Lib/Camera_Middleware/sensors/vd6g/vd6g.c ****   }
 583:Lib/Camera_Middleware/sensors/vd6g/vd6g.c **** 
 584:Lib/Camera_Middleware/sensors/vd6g/vd6g.c ****   switch (drv_ctx->config_save.flip_mirror_mode) {
 585:Lib/Camera_Middleware/sensors/vd6g/vd6g.c ****   case VD6G_MIRROR_FLIP_NONE:
 586:Lib/Camera_Middleware/sensors/vd6g/vd6g.c ****     ctx->bayer = VD6G_BAYER_GRBG;
 587:Lib/Camera_Middleware/sensors/vd6g/vd6g.c ****     break;
 588:Lib/Camera_Middleware/sensors/vd6g/vd6g.c ****   case VD6G_FLIP:
 589:Lib/Camera_Middleware/sensors/vd6g/vd6g.c ****     ctx->bayer = VD6G_BAYER_BGGR;
ARM GAS  /tmp/ccWHsT5O.s 			page 18


 590:Lib/Camera_Middleware/sensors/vd6g/vd6g.c ****     break;
 591:Lib/Camera_Middleware/sensors/vd6g/vd6g.c ****   case VD6G_MIRROR:
 592:Lib/Camera_Middleware/sensors/vd6g/vd6g.c ****     ctx->bayer = VD6G_BAYER_RGGB;
 593:Lib/Camera_Middleware/sensors/vd6g/vd6g.c ****     break;
 594:Lib/Camera_Middleware/sensors/vd6g/vd6g.c ****   case VD6G_MIRROR_FLIP:
 595:Lib/Camera_Middleware/sensors/vd6g/vd6g.c ****     ctx->bayer = VD6G_BAYER_GBRG;
 596:Lib/Camera_Middleware/sensors/vd6g/vd6g.c ****     break;
 597:Lib/Camera_Middleware/sensors/vd6g/vd6g.c ****   default:
 598:Lib/Camera_Middleware/sensors/vd6g/vd6g.c ****     assert(0);
 599:Lib/Camera_Middleware/sensors/vd6g/vd6g.c ****   }
 600:Lib/Camera_Middleware/sensors/vd6g/vd6g.c **** 
 601:Lib/Camera_Middleware/sensors/vd6g/vd6g.c ****   return 0;
 602:Lib/Camera_Middleware/sensors/vd6g/vd6g.c **** }
 603:Lib/Camera_Middleware/sensors/vd6g/vd6g.c **** 
 604:Lib/Camera_Middleware/sensors/vd6g/vd6g.c **** static int VD6G_SetExposureModeInternal(VD6G_Ctx_t *ctx, VD6G_ExposureMode_t mode)
 605:Lib/Camera_Middleware/sensors/vd6g/vd6g.c **** {
 346              		.loc 1 605 1 is_stmt 1 view -0
 347              		.cfi_startproc
 348              		@ args = 0, pretend = 0, frame = 0
 349              		@ frame_needed = 0, uses_anonymous_args = 0
 606:Lib/Camera_Middleware/sensors/vd6g/vd6g.c ****   int ret;
 350              		.loc 1 606 3 view .LVU71
 607:Lib/Camera_Middleware/sensors/vd6g/vd6g.c **** 
 608:Lib/Camera_Middleware/sensors/vd6g/vd6g.c ****   if ((mode != VD6G_EXPOSURE_AUTO) &&
 351              		.loc 1 608 3 view .LVU72
 352              		.loc 1 608 6 is_stmt 0 view .LVU73
 353 0000 0229     		cmp	r1, #2
 605:Lib/Camera_Middleware/sensors/vd6g/vd6g.c ****   int ret;
 354              		.loc 1 605 1 view .LVU74
 355 0002 37B5     		push	{r0, r1, r2, r4, r5, lr}
 356              		.cfi_def_cfa_offset 24
 357              		.cfi_offset 4, -12
 358              		.cfi_offset 5, -8
 359              		.cfi_offset 14, -4
 605:Lib/Camera_Middleware/sensors/vd6g/vd6g.c ****   int ret;
 360              		.loc 1 605 1 view .LVU75
 361 0004 0546     		mov	r5, r0
 362 0006 0A46     		mov	r2, r1
 363              		.loc 1 608 6 view .LVU76
 364 0008 13D8     		bhi	.L27
 609:Lib/Camera_Middleware/sensors/vd6g/vd6g.c ****       (mode != VD6G_EXPOSURE_FREEZE_AEALGO) &&
 610:Lib/Camera_Middleware/sensors/vd6g/vd6g.c ****       (mode != VD6G_EXPOSURE_MANUAL)) {
 611:Lib/Camera_Middleware/sensors/vd6g/vd6g.c ****     return -1;
 612:Lib/Camera_Middleware/sensors/vd6g/vd6g.c ****   }
 613:Lib/Camera_Middleware/sensors/vd6g/vd6g.c **** 
 614:Lib/Camera_Middleware/sensors/vd6g/vd6g.c ****   ret = ctx->write8(ctx, VD6G_REG_EXP_MODE, mode);
 365              		.loc 1 614 3 is_stmt 1 view .LVU77
 366              		.loc 1 614 9 is_stmt 0 view .LVU78
 367 000a 40F24C41 		movw	r1, #1100
 368              	.LVL26:
 369              		.loc 1 614 9 view .LVU79
 370 000e 0369     		ldr	r3, [r0, #16]
 371 0010 9847     		blx	r3
 372              	.LVL27:
 615:Lib/Camera_Middleware/sensors/vd6g/vd6g.c ****   VD6G_TraceError(ctx, ret);
 373              		.loc 1 615 3 is_stmt 1 view .LVU80
 374              		.loc 1 615 3 view .LVU81
ARM GAS  /tmp/ccWHsT5O.s 			page 19


 375 0012 0446     		mov	r4, r0
 376 0014 50B1     		cbz	r0, .L24
 377              		.loc 1 615 3 discriminator 1 view .LVU82
 378 0016 0090     		str	r0, [sp]
 379 0018 40F26723 		movw	r3, #615
 380 001c 2846     		mov	r0, r5
 381              	.LVL28:
 382              		.loc 1 615 3 is_stmt 0 discriminator 1 view .LVU83
 383 001e 064A     		ldr	r2, .L31
 384 0020 0649     		ldr	r1, .L31+4
 385 0022 FFF7FEFF 		bl	VD6G_error
 386              	.LVL29:
 387              		.loc 1 615 3 is_stmt 1 discriminator 3 view .LVU84
 388              		.loc 1 615 3 discriminator 4 view .LVU85
 389 0026 2846     		mov	r0, r5
 390 0028 FFF7FEFF 		bl	display_error
 391              	.LVL30:
 392              	.L24:
 616:Lib/Camera_Middleware/sensors/vd6g/vd6g.c **** 
 617:Lib/Camera_Middleware/sensors/vd6g/vd6g.c ****   return 0;
 618:Lib/Camera_Middleware/sensors/vd6g/vd6g.c **** }
 393              		.loc 1 618 1 is_stmt 0 view .LVU86
 394 002c 2046     		mov	r0, r4
 395 002e 03B0     		add	sp, sp, #12
 396              		.cfi_remember_state
 397              		.cfi_def_cfa_offset 12
 398              		@ sp needed
 399 0030 30BD     		pop	{r4, r5, pc}
 400              	.LVL31:
 401              	.L27:
 402              		.cfi_restore_state
 611:Lib/Camera_Middleware/sensors/vd6g/vd6g.c ****   }
 403              		.loc 1 611 12 view .LVU87
 404 0032 4FF0FF34 		mov	r4, #-1
 405 0036 F9E7     		b	.L24
 406              	.L32:
 407              		.align	2
 408              	.L31:
 409 0038 00000000 		.word	__func__.15
 410 003c 00000000 		.word	.LC4
 411              		.cfi_endproc
 412              	.LFE17:
 414              		.section	.text.VD6G_SetFlicker,"ax",%progbits
 415              		.align	1
 416              		.syntax unified
 417              		.thumb
 418              		.thumb_func
 420              	VD6G_SetFlicker:
 421              	.LVL32:
 422              	.LFB29:
 619:Lib/Camera_Middleware/sensors/vd6g/vd6g.c **** 
 620:Lib/Camera_Middleware/sensors/vd6g/vd6g.c **** static int VD6G_Gpios(VD6G_Ctx_t *ctx)
 621:Lib/Camera_Middleware/sensors/vd6g/vd6g.c **** {
 622:Lib/Camera_Middleware/sensors/vd6g/vd6g.c ****   struct drv_vd6g_ctx *drv_ctx = &ctx->ctx;
 623:Lib/Camera_Middleware/sensors/vd6g/vd6g.c ****   int ret;
 624:Lib/Camera_Middleware/sensors/vd6g/vd6g.c ****   int i;
 625:Lib/Camera_Middleware/sensors/vd6g/vd6g.c **** 
ARM GAS  /tmp/ccWHsT5O.s 			page 20


 626:Lib/Camera_Middleware/sensors/vd6g/vd6g.c ****   for (i = 0; i < VD6G_GPIO_NB; i++) {
 627:Lib/Camera_Middleware/sensors/vd6g/vd6g.c ****     ret = ctx->write8(ctx, VD6G_REG_GPIO_x_CTRL(i), drv_ctx->config_save.gpio_ctrl[i]);
 628:Lib/Camera_Middleware/sensors/vd6g/vd6g.c ****     VD6G_TraceError(ctx, ret);
 629:Lib/Camera_Middleware/sensors/vd6g/vd6g.c ****   }
 630:Lib/Camera_Middleware/sensors/vd6g/vd6g.c **** 
 631:Lib/Camera_Middleware/sensors/vd6g/vd6g.c ****   return 0;
 632:Lib/Camera_Middleware/sensors/vd6g/vd6g.c **** }
 633:Lib/Camera_Middleware/sensors/vd6g/vd6g.c **** 
 634:Lib/Camera_Middleware/sensors/vd6g/vd6g.c **** static int VD6G_Boot(VD6G_Ctx_t *ctx)
 635:Lib/Camera_Middleware/sensors/vd6g/vd6g.c **** {
 636:Lib/Camera_Middleware/sensors/vd6g/vd6g.c ****   int ret;
 637:Lib/Camera_Middleware/sensors/vd6g/vd6g.c **** 
 638:Lib/Camera_Middleware/sensors/vd6g/vd6g.c ****   ret = VD6G_WaitState(ctx, VD6G_SYSTEM_FSM_READY_TO_BOOT);
 639:Lib/Camera_Middleware/sensors/vd6g/vd6g.c ****   if (ret)
 640:Lib/Camera_Middleware/sensors/vd6g/vd6g.c ****     return ret;
 641:Lib/Camera_Middleware/sensors/vd6g/vd6g.c **** 
 642:Lib/Camera_Middleware/sensors/vd6g/vd6g.c ****   ret = VD6G_CheckModelId(ctx);
 643:Lib/Camera_Middleware/sensors/vd6g/vd6g.c ****   if (ret)
 644:Lib/Camera_Middleware/sensors/vd6g/vd6g.c ****     return ret;
 645:Lib/Camera_Middleware/sensors/vd6g/vd6g.c **** 
 646:Lib/Camera_Middleware/sensors/vd6g/vd6g.c ****   ret = VD6G_ApplyPatch(ctx);
 647:Lib/Camera_Middleware/sensors/vd6g/vd6g.c ****   if (ret)
 648:Lib/Camera_Middleware/sensors/vd6g/vd6g.c ****     return ret;
 649:Lib/Camera_Middleware/sensors/vd6g/vd6g.c **** 
 650:Lib/Camera_Middleware/sensors/vd6g/vd6g.c ****   ret = VD6G_BootMcu(ctx);
 651:Lib/Camera_Middleware/sensors/vd6g/vd6g.c ****   if (ret)
 652:Lib/Camera_Middleware/sensors/vd6g/vd6g.c ****     return ret;
 653:Lib/Camera_Middleware/sensors/vd6g/vd6g.c **** 
 654:Lib/Camera_Middleware/sensors/vd6g/vd6g.c ****   ret = VD6G_ApplyVtPatch(ctx);
 655:Lib/Camera_Middleware/sensors/vd6g/vd6g.c ****   if (ret)
 656:Lib/Camera_Middleware/sensors/vd6g/vd6g.c ****     return ret;
 657:Lib/Camera_Middleware/sensors/vd6g/vd6g.c **** 
 658:Lib/Camera_Middleware/sensors/vd6g/vd6g.c ****   ret = VD6G_SetBayerType(ctx);
 659:Lib/Camera_Middleware/sensors/vd6g/vd6g.c ****   if (ret)
 660:Lib/Camera_Middleware/sensors/vd6g/vd6g.c ****     return ret;
 661:Lib/Camera_Middleware/sensors/vd6g/vd6g.c **** 
 662:Lib/Camera_Middleware/sensors/vd6g/vd6g.c ****   ret = VD6G_Gpios(ctx);
 663:Lib/Camera_Middleware/sensors/vd6g/vd6g.c ****   if (ret)
 664:Lib/Camera_Middleware/sensors/vd6g/vd6g.c ****     return ret;
 665:Lib/Camera_Middleware/sensors/vd6g/vd6g.c ****   return 0;
 666:Lib/Camera_Middleware/sensors/vd6g/vd6g.c **** }
 667:Lib/Camera_Middleware/sensors/vd6g/vd6g.c **** 
 668:Lib/Camera_Middleware/sensors/vd6g/vd6g.c **** static int VD6G_ComputeClocks(VD6G_Ctx_t *ctx, uint32_t ext_clock, uint8_t *pll_prediv, uint8_t *pl
 669:Lib/Camera_Middleware/sensors/vd6g/vd6g.c **** {
 670:Lib/Camera_Middleware/sensors/vd6g/vd6g.c ****   const unsigned int predivs[] = { 1, 2, 4 };
 671:Lib/Camera_Middleware/sensors/vd6g/vd6g.c ****   int i;
 672:Lib/Camera_Middleware/sensors/vd6g/vd6g.c **** 
 673:Lib/Camera_Middleware/sensors/vd6g/vd6g.c ****   if (ext_clock < 6 * M_HZ ||
 674:Lib/Camera_Middleware/sensors/vd6g/vd6g.c ****       ext_clock > 27 * M_HZ) {
 675:Lib/Camera_Middleware/sensors/vd6g/vd6g.c ****     VD6G_error(ctx, "External clock out of rangen\n");
 676:Lib/Camera_Middleware/sensors/vd6g/vd6g.c ****     return -1;
 677:Lib/Camera_Middleware/sensors/vd6g/vd6g.c ****   }
 678:Lib/Camera_Middleware/sensors/vd6g/vd6g.c **** 
 679:Lib/Camera_Middleware/sensors/vd6g/vd6g.c ****   /* PLL input should be in [6Mhz-12Mhz[ */
 680:Lib/Camera_Middleware/sensors/vd6g/vd6g.c ****   for (i = 0; i < ARRAY_SIZE(predivs); i++) {
 681:Lib/Camera_Middleware/sensors/vd6g/vd6g.c ****     *pll_prediv = predivs[i];
 682:Lib/Camera_Middleware/sensors/vd6g/vd6g.c ****     if (ext_clock / *pll_prediv < 12 * M_HZ)
ARM GAS  /tmp/ccWHsT5O.s 			page 21


 683:Lib/Camera_Middleware/sensors/vd6g/vd6g.c ****       break;
 684:Lib/Camera_Middleware/sensors/vd6g/vd6g.c ****   }
 685:Lib/Camera_Middleware/sensors/vd6g/vd6g.c **** 
 686:Lib/Camera_Middleware/sensors/vd6g/vd6g.c ****   /* PLL output clock must be as close as possible to 804Mhz */
 687:Lib/Camera_Middleware/sensors/vd6g/vd6g.c ****   *pll_mult = (VD6G_TARGET_PLL * *pll_prediv + ext_clock / 2) / ext_clock;
 688:Lib/Camera_Middleware/sensors/vd6g/vd6g.c **** 
 689:Lib/Camera_Middleware/sensors/vd6g/vd6g.c ****   VD6G_dbg(ctx, 0, "Ext Clock = %d Hz\n", ext_clock);
 690:Lib/Camera_Middleware/sensors/vd6g/vd6g.c ****   VD6G_dbg(ctx, 0, "PLL prediv = %d\n", *pll_prediv);
 691:Lib/Camera_Middleware/sensors/vd6g/vd6g.c ****   VD6G_dbg(ctx, 0, "PLL mult = %d\n", *pll_mult);
 692:Lib/Camera_Middleware/sensors/vd6g/vd6g.c **** 
 693:Lib/Camera_Middleware/sensors/vd6g/vd6g.c ****   return 0;
 694:Lib/Camera_Middleware/sensors/vd6g/vd6g.c **** }
 695:Lib/Camera_Middleware/sensors/vd6g/vd6g.c **** 
 696:Lib/Camera_Middleware/sensors/vd6g/vd6g.c **** static int VD6G_SetupClocks(VD6G_Ctx_t *ctx)
 697:Lib/Camera_Middleware/sensors/vd6g/vd6g.c **** {
 698:Lib/Camera_Middleware/sensors/vd6g/vd6g.c ****   struct drv_vd6g_ctx *drv_ctx = &ctx->ctx;
 699:Lib/Camera_Middleware/sensors/vd6g/vd6g.c ****   uint8_t pll_prediv;
 700:Lib/Camera_Middleware/sensors/vd6g/vd6g.c ****   uint8_t pll_mult;
 701:Lib/Camera_Middleware/sensors/vd6g/vd6g.c ****   int ret;
 702:Lib/Camera_Middleware/sensors/vd6g/vd6g.c **** 
 703:Lib/Camera_Middleware/sensors/vd6g/vd6g.c ****   ret = VD6G_ComputeClocks(ctx, drv_ctx->config_save.ext_clock_freq_in_hz, &pll_prediv, &pll_mult);
 704:Lib/Camera_Middleware/sensors/vd6g/vd6g.c ****   if (ret)
 705:Lib/Camera_Middleware/sensors/vd6g/vd6g.c ****     return ret;
 706:Lib/Camera_Middleware/sensors/vd6g/vd6g.c **** 
 707:Lib/Camera_Middleware/sensors/vd6g/vd6g.c ****   ret = ctx->write32(ctx, VD6G_REG_EXT_CLOCK, drv_ctx->config_save.ext_clock_freq_in_hz);
 708:Lib/Camera_Middleware/sensors/vd6g/vd6g.c ****   VD6G_TraceError(ctx, ret);
 709:Lib/Camera_Middleware/sensors/vd6g/vd6g.c **** 
 710:Lib/Camera_Middleware/sensors/vd6g/vd6g.c ****   ret = ctx->write8(ctx, VD6G_REG_CLK_PLL_PREDIV, pll_prediv);
 711:Lib/Camera_Middleware/sensors/vd6g/vd6g.c ****   VD6G_TraceError(ctx, ret);
 712:Lib/Camera_Middleware/sensors/vd6g/vd6g.c **** 
 713:Lib/Camera_Middleware/sensors/vd6g/vd6g.c ****   ret = ctx->write8(ctx, VD6G_REG_CLK_SYS_PLL_MULT, pll_mult);
 714:Lib/Camera_Middleware/sensors/vd6g/vd6g.c ****   VD6G_TraceError(ctx, ret);
 715:Lib/Camera_Middleware/sensors/vd6g/vd6g.c **** 
 716:Lib/Camera_Middleware/sensors/vd6g/vd6g.c ****   if (drv_ctx->config_save.line_len) {
 717:Lib/Camera_Middleware/sensors/vd6g/vd6g.c ****     ret = ctx->write16(ctx, VD6G_LINE_LENGTH, drv_ctx->config_save.line_len);
 718:Lib/Camera_Middleware/sensors/vd6g/vd6g.c ****     VD6G_TraceError(ctx, ret);
 719:Lib/Camera_Middleware/sensors/vd6g/vd6g.c ****   }
 720:Lib/Camera_Middleware/sensors/vd6g/vd6g.c **** 
 721:Lib/Camera_Middleware/sensors/vd6g/vd6g.c ****   return 0;
 722:Lib/Camera_Middleware/sensors/vd6g/vd6g.c **** }
 723:Lib/Camera_Middleware/sensors/vd6g/vd6g.c **** 
 724:Lib/Camera_Middleware/sensors/vd6g/vd6g.c **** static int VD6G_SetupOutput(VD6G_Ctx_t *ctx)
 725:Lib/Camera_Middleware/sensors/vd6g/vd6g.c **** {
 726:Lib/Camera_Middleware/sensors/vd6g/vd6g.c ****   VD6G_OutItf_Config_t *out_itf = &ctx->ctx.config_save.out_itf;
 727:Lib/Camera_Middleware/sensors/vd6g/vd6g.c ****   uint16_t oif_ctrl;
 728:Lib/Camera_Middleware/sensors/vd6g/vd6g.c ****   int ret;
 729:Lib/Camera_Middleware/sensors/vd6g/vd6g.c **** 
 730:Lib/Camera_Middleware/sensors/vd6g/vd6g.c ****   if (out_itf->datalane_nb != 1 && out_itf->datalane_nb != 2)
 731:Lib/Camera_Middleware/sensors/vd6g/vd6g.c ****     return -1;
 732:Lib/Camera_Middleware/sensors/vd6g/vd6g.c ****   /* Be sure we got value 0 or 1 */
 733:Lib/Camera_Middleware/sensors/vd6g/vd6g.c ****   out_itf->clock_lane_swap_enable = !!out_itf->clock_lane_swap_enable;
 734:Lib/Camera_Middleware/sensors/vd6g/vd6g.c ****   out_itf->data_lane0_swap_enable = !!out_itf->data_lane0_swap_enable;
 735:Lib/Camera_Middleware/sensors/vd6g/vd6g.c ****   out_itf->data_lane1_swap_enable = !!out_itf->data_lane1_swap_enable;
 736:Lib/Camera_Middleware/sensors/vd6g/vd6g.c ****   out_itf->data_lanes_mapping_swap_enable = !!out_itf->data_lanes_mapping_swap_enable;
 737:Lib/Camera_Middleware/sensors/vd6g/vd6g.c **** 
 738:Lib/Camera_Middleware/sensors/vd6g/vd6g.c ****   /* raw8 */
 739:Lib/Camera_Middleware/sensors/vd6g/vd6g.c ****   ret = ctx->write8(ctx, VD6G_REG_FORMAT_CTRL, VD6G_COLOR_DEPTH_RAW8);
ARM GAS  /tmp/ccWHsT5O.s 			page 22


 740:Lib/Camera_Middleware/sensors/vd6g/vd6g.c ****   VD6G_TraceError(ctx, ret);
 741:Lib/Camera_Middleware/sensors/vd6g/vd6g.c **** 
 742:Lib/Camera_Middleware/sensors/vd6g/vd6g.c ****   /* csi lanes */
 743:Lib/Camera_Middleware/sensors/vd6g/vd6g.c ****   oif_ctrl = out_itf->data_lane1_swap_enable << 9 |
 744:Lib/Camera_Middleware/sensors/vd6g/vd6g.c ****              !out_itf->data_lanes_mapping_swap_enable << 7 |
 745:Lib/Camera_Middleware/sensors/vd6g/vd6g.c ****              out_itf->data_lane0_swap_enable << 6 |
 746:Lib/Camera_Middleware/sensors/vd6g/vd6g.c ****              out_itf->data_lanes_mapping_swap_enable << 4 |
 747:Lib/Camera_Middleware/sensors/vd6g/vd6g.c ****              out_itf->clock_lane_swap_enable << 3 |
 748:Lib/Camera_Middleware/sensors/vd6g/vd6g.c ****              out_itf->datalane_nb << 0;
 749:Lib/Camera_Middleware/sensors/vd6g/vd6g.c ****   ret = ctx->write16(ctx, VD6G_REG_OIF_CTRL, oif_ctrl);
 750:Lib/Camera_Middleware/sensors/vd6g/vd6g.c ****   VD6G_TraceError(ctx, ret);
 751:Lib/Camera_Middleware/sensors/vd6g/vd6g.c **** 
 752:Lib/Camera_Middleware/sensors/vd6g/vd6g.c ****   /* csi speed */
 753:Lib/Camera_Middleware/sensors/vd6g/vd6g.c ****   ret = ctx->write16(ctx, VD6G_REG_OIF_CSI_BITRATE, 804);
 754:Lib/Camera_Middleware/sensors/vd6g/vd6g.c ****   VD6G_TraceError(ctx, ret);
 755:Lib/Camera_Middleware/sensors/vd6g/vd6g.c **** 
 756:Lib/Camera_Middleware/sensors/vd6g/vd6g.c ****   /* data type */
 757:Lib/Camera_Middleware/sensors/vd6g/vd6g.c ****   ret = ctx->write8(ctx, VD6G_REG_OIF_IMG_CTRL, 0x2a);
 758:Lib/Camera_Middleware/sensors/vd6g/vd6g.c ****   VD6G_TraceError(ctx, ret);
 759:Lib/Camera_Middleware/sensors/vd6g/vd6g.c **** 
 760:Lib/Camera_Middleware/sensors/vd6g/vd6g.c ****   return 0;
 761:Lib/Camera_Middleware/sensors/vd6g/vd6g.c **** }
 762:Lib/Camera_Middleware/sensors/vd6g/vd6g.c **** 
 763:Lib/Camera_Middleware/sensors/vd6g/vd6g.c **** static const struct vdg_mode *VD6G_Resolution2Mode(VD6G_Res_t resolution)
 764:Lib/Camera_Middleware/sensors/vd6g/vd6g.c **** {
 765:Lib/Camera_Middleware/sensors/vd6g/vd6g.c ****   switch (resolution) {
 766:Lib/Camera_Middleware/sensors/vd6g/vd6g.c ****   case VD6G_RES_QVGA_320_240:
 767:Lib/Camera_Middleware/sensors/vd6g/vd6g.c ****     return &vdg_supported_modes[7];
 768:Lib/Camera_Middleware/sensors/vd6g/vd6g.c ****     break;
 769:Lib/Camera_Middleware/sensors/vd6g/vd6g.c ****   case VD6G_RES_VGA_640_480:
 770:Lib/Camera_Middleware/sensors/vd6g/vd6g.c ****     return &vdg_supported_modes[5];
 771:Lib/Camera_Middleware/sensors/vd6g/vd6g.c ****     break;
 772:Lib/Camera_Middleware/sensors/vd6g/vd6g.c ****   case VD6G_RES_VGA_PORTRAIT_480_640:
 773:Lib/Camera_Middleware/sensors/vd6g/vd6g.c ****     return &vdg_supported_modes[6];
 774:Lib/Camera_Middleware/sensors/vd6g/vd6g.c ****     break;
 775:Lib/Camera_Middleware/sensors/vd6g/vd6g.c ****   case VD6G_RES_XGA_1024_768:
 776:Lib/Camera_Middleware/sensors/vd6g/vd6g.c ****     return &vdg_supported_modes[2];
 777:Lib/Camera_Middleware/sensors/vd6g/vd6g.c ****     break;
 778:Lib/Camera_Middleware/sensors/vd6g/vd6g.c ****   case VD6G_RES_XGA_PORTRAIT_768_1024:
 779:Lib/Camera_Middleware/sensors/vd6g/vd6g.c ****     return &vdg_supported_modes[3];
 780:Lib/Camera_Middleware/sensors/vd6g/vd6g.c ****     break;
 781:Lib/Camera_Middleware/sensors/vd6g/vd6g.c ****   case VD6G_RES_720P_PORTRAIT_720_1280:
 782:Lib/Camera_Middleware/sensors/vd6g/vd6g.c ****     return &vdg_supported_modes[4];
 783:Lib/Camera_Middleware/sensors/vd6g/vd6g.c ****     break;
 784:Lib/Camera_Middleware/sensors/vd6g/vd6g.c ****   case VD6G_RES_SXGA_PORTRAIT_1024_1280:
 785:Lib/Camera_Middleware/sensors/vd6g/vd6g.c ****     return &vdg_supported_modes[1];
 786:Lib/Camera_Middleware/sensors/vd6g/vd6g.c ****     break;
 787:Lib/Camera_Middleware/sensors/vd6g/vd6g.c ****   case VD6G_RES_PORTRAIT_1120_720:
 788:Lib/Camera_Middleware/sensors/vd6g/vd6g.c ****     return &vdg_supported_modes[8];
 789:Lib/Camera_Middleware/sensors/vd6g/vd6g.c ****     break;
 790:Lib/Camera_Middleware/sensors/vd6g/vd6g.c ****   case VD6G_RES_FULL_1120_1364:
 791:Lib/Camera_Middleware/sensors/vd6g/vd6g.c ****     return &vdg_supported_modes[0];
 792:Lib/Camera_Middleware/sensors/vd6g/vd6g.c ****     break;
 793:Lib/Camera_Middleware/sensors/vd6g/vd6g.c ****   default:
 794:Lib/Camera_Middleware/sensors/vd6g/vd6g.c ****     return NULL;
 795:Lib/Camera_Middleware/sensors/vd6g/vd6g.c ****   }
 796:Lib/Camera_Middleware/sensors/vd6g/vd6g.c **** }
ARM GAS  /tmp/ccWHsT5O.s 			page 23


 797:Lib/Camera_Middleware/sensors/vd6g/vd6g.c **** 
 798:Lib/Camera_Middleware/sensors/vd6g/vd6g.c **** static int VD6G_SetupSize(VD6G_Ctx_t *ctx)
 799:Lib/Camera_Middleware/sensors/vd6g/vd6g.c **** {
 800:Lib/Camera_Middleware/sensors/vd6g/vd6g.c ****   struct drv_vd6g_ctx *drv_ctx = &ctx->ctx;
 801:Lib/Camera_Middleware/sensors/vd6g/vd6g.c ****   const struct vdg_mode *mode;
 802:Lib/Camera_Middleware/sensors/vd6g/vd6g.c ****   int ret;
 803:Lib/Camera_Middleware/sensors/vd6g/vd6g.c **** 
 804:Lib/Camera_Middleware/sensors/vd6g/vd6g.c ****   mode = VD6G_Resolution2Mode(drv_ctx->config_save.resolution);
 805:Lib/Camera_Middleware/sensors/vd6g/vd6g.c ****   if (!mode)
 806:Lib/Camera_Middleware/sensors/vd6g/vd6g.c ****     return -1;
 807:Lib/Camera_Middleware/sensors/vd6g/vd6g.c **** 
 808:Lib/Camera_Middleware/sensors/vd6g/vd6g.c ****   ret = ctx->write8(ctx, VD6G_REG_READOUT_CTRL, mode->bin_mode);
 809:Lib/Camera_Middleware/sensors/vd6g/vd6g.c ****   VD6G_TraceError(ctx, ret);
 810:Lib/Camera_Middleware/sensors/vd6g/vd6g.c **** 
 811:Lib/Camera_Middleware/sensors/vd6g/vd6g.c ****   ret = ctx->write16(ctx, VD6G_REG_OUT_ROI_X_START, mode->crop.left);
 812:Lib/Camera_Middleware/sensors/vd6g/vd6g.c ****   VD6G_TraceError(ctx, ret);
 813:Lib/Camera_Middleware/sensors/vd6g/vd6g.c ****   ret = ctx->write16(ctx, VD6G_REG_OUT_ROI_X_END, mode->crop.left + mode->crop.width - 1);
 814:Lib/Camera_Middleware/sensors/vd6g/vd6g.c ****   VD6G_TraceError(ctx, ret);
 815:Lib/Camera_Middleware/sensors/vd6g/vd6g.c **** 
 816:Lib/Camera_Middleware/sensors/vd6g/vd6g.c ****   ret = ctx->write16(ctx, VD6G_REG_OUT_ROI_Y_START, mode->crop.top);
 817:Lib/Camera_Middleware/sensors/vd6g/vd6g.c ****   VD6G_TraceError(ctx, ret);
 818:Lib/Camera_Middleware/sensors/vd6g/vd6g.c ****   ret = ctx->write16(ctx, VD6G_REG_OUT_ROI_Y_END, mode->crop.top + mode->crop.height - 1);
 819:Lib/Camera_Middleware/sensors/vd6g/vd6g.c ****   VD6G_TraceError(ctx, ret);
 820:Lib/Camera_Middleware/sensors/vd6g/vd6g.c **** 
 821:Lib/Camera_Middleware/sensors/vd6g/vd6g.c ****   return 0;
 822:Lib/Camera_Middleware/sensors/vd6g/vd6g.c **** }
 823:Lib/Camera_Middleware/sensors/vd6g/vd6g.c **** 
 824:Lib/Camera_Middleware/sensors/vd6g/vd6g.c **** static int VD6G_SetupFrameRate(VD6G_Ctx_t *ctx)
 825:Lib/Camera_Middleware/sensors/vd6g/vd6g.c **** {
 826:Lib/Camera_Middleware/sensors/vd6g/vd6g.c ****   struct drv_vd6g_ctx *drv_ctx = &ctx->ctx;
 827:Lib/Camera_Middleware/sensors/vd6g/vd6g.c ****   uint16_t frame_length;
 828:Lib/Camera_Middleware/sensors/vd6g/vd6g.c ****   uint16_t line_length;
 829:Lib/Camera_Middleware/sensors/vd6g/vd6g.c ****   int ret;
 830:Lib/Camera_Middleware/sensors/vd6g/vd6g.c **** 
 831:Lib/Camera_Middleware/sensors/vd6g/vd6g.c ****   ret = ctx->read16(ctx, VD6G_LINE_LENGTH, &line_length);
 832:Lib/Camera_Middleware/sensors/vd6g/vd6g.c ****   VD6G_TraceError(ctx, ret);
 833:Lib/Camera_Middleware/sensors/vd6g/vd6g.c ****   VD6G_dbg(ctx, 0, "Line len = %d\n", line_length);
 834:Lib/Camera_Middleware/sensors/vd6g/vd6g.c **** 
 835:Lib/Camera_Middleware/sensors/vd6g/vd6g.c ****   frame_length = VD6G_PIXEL_CLOCK / (line_length * drv_ctx->config_save.frame_rate);
 836:Lib/Camera_Middleware/sensors/vd6g/vd6g.c ****   VD6G_dbg(ctx, 0, "Set frame_length to %d to reach %d fps\n", frame_length, drv_ctx->config_save.f
 837:Lib/Camera_Middleware/sensors/vd6g/vd6g.c ****   ret = ctx->write16(ctx, VD6G_FRAME_LENGTH, frame_length);
 838:Lib/Camera_Middleware/sensors/vd6g/vd6g.c ****   VD6G_TraceError(ctx, ret);
 839:Lib/Camera_Middleware/sensors/vd6g/vd6g.c **** 
 840:Lib/Camera_Middleware/sensors/vd6g/vd6g.c ****   return 0;
 841:Lib/Camera_Middleware/sensors/vd6g/vd6g.c **** }
 842:Lib/Camera_Middleware/sensors/vd6g/vd6g.c **** 
 843:Lib/Camera_Middleware/sensors/vd6g/vd6g.c **** static int VD6G_SetupExposure(VD6G_Ctx_t *ctx)
 844:Lib/Camera_Middleware/sensors/vd6g/vd6g.c **** {
 845:Lib/Camera_Middleware/sensors/vd6g/vd6g.c ****   struct drv_vd6g_ctx *drv_ctx = &ctx->ctx;
 846:Lib/Camera_Middleware/sensors/vd6g/vd6g.c **** 
 847:Lib/Camera_Middleware/sensors/vd6g/vd6g.c ****   return VD6G_SetExposureModeInternal(ctx, drv_ctx->config_save.exposure_mode);
 848:Lib/Camera_Middleware/sensors/vd6g/vd6g.c **** }
 849:Lib/Camera_Middleware/sensors/vd6g/vd6g.c **** 
 850:Lib/Camera_Middleware/sensors/vd6g/vd6g.c **** static int VD6G_SetupMirrorFlip(VD6G_Ctx_t *ctx)
 851:Lib/Camera_Middleware/sensors/vd6g/vd6g.c **** {
 852:Lib/Camera_Middleware/sensors/vd6g/vd6g.c ****   struct drv_vd6g_ctx *drv_ctx = &ctx->ctx;
 853:Lib/Camera_Middleware/sensors/vd6g/vd6g.c ****   uint8_t mode;
ARM GAS  /tmp/ccWHsT5O.s 			page 24


 854:Lib/Camera_Middleware/sensors/vd6g/vd6g.c ****   int ret;
 855:Lib/Camera_Middleware/sensors/vd6g/vd6g.c **** 
 856:Lib/Camera_Middleware/sensors/vd6g/vd6g.c ****   switch (drv_ctx->config_save.flip_mirror_mode) {
 857:Lib/Camera_Middleware/sensors/vd6g/vd6g.c ****   case VD6G_MIRROR_FLIP_NONE:
 858:Lib/Camera_Middleware/sensors/vd6g/vd6g.c ****     mode = 0;
 859:Lib/Camera_Middleware/sensors/vd6g/vd6g.c ****     break;
 860:Lib/Camera_Middleware/sensors/vd6g/vd6g.c ****   case VD6G_FLIP:
 861:Lib/Camera_Middleware/sensors/vd6g/vd6g.c ****     mode = 2;
 862:Lib/Camera_Middleware/sensors/vd6g/vd6g.c ****     break;
 863:Lib/Camera_Middleware/sensors/vd6g/vd6g.c ****   case VD6G_MIRROR:
 864:Lib/Camera_Middleware/sensors/vd6g/vd6g.c ****     mode = 1;
 865:Lib/Camera_Middleware/sensors/vd6g/vd6g.c ****     break;
 866:Lib/Camera_Middleware/sensors/vd6g/vd6g.c ****   case VD6G_MIRROR_FLIP:
 867:Lib/Camera_Middleware/sensors/vd6g/vd6g.c ****     mode = 3;
 868:Lib/Camera_Middleware/sensors/vd6g/vd6g.c ****     break;
 869:Lib/Camera_Middleware/sensors/vd6g/vd6g.c ****   default:
 870:Lib/Camera_Middleware/sensors/vd6g/vd6g.c ****     return -1;
 871:Lib/Camera_Middleware/sensors/vd6g/vd6g.c ****   }
 872:Lib/Camera_Middleware/sensors/vd6g/vd6g.c **** 
 873:Lib/Camera_Middleware/sensors/vd6g/vd6g.c ****   ret = ctx->write8(ctx, VD6G_REG_ORIENTATION, mode);
 874:Lib/Camera_Middleware/sensors/vd6g/vd6g.c ****   VD6G_TraceError(ctx, ret);
 875:Lib/Camera_Middleware/sensors/vd6g/vd6g.c **** 
 876:Lib/Camera_Middleware/sensors/vd6g/vd6g.c ****   return 0;
 877:Lib/Camera_Middleware/sensors/vd6g/vd6g.c **** }
 878:Lib/Camera_Middleware/sensors/vd6g/vd6g.c **** 
 879:Lib/Camera_Middleware/sensors/vd6g/vd6g.c **** static int VD6G_SetupPatGen(VD6G_Ctx_t *ctx)
 880:Lib/Camera_Middleware/sensors/vd6g/vd6g.c **** {
 881:Lib/Camera_Middleware/sensors/vd6g/vd6g.c ****   struct drv_vd6g_ctx *drv_ctx = &ctx->ctx;
 882:Lib/Camera_Middleware/sensors/vd6g/vd6g.c ****   uint16_t value = VD6G_PATGEN_CTRL_DISABLE;
 883:Lib/Camera_Middleware/sensors/vd6g/vd6g.c ****   int ret;
 884:Lib/Camera_Middleware/sensors/vd6g/vd6g.c **** 
 885:Lib/Camera_Middleware/sensors/vd6g/vd6g.c ****   switch (drv_ctx->config_save.patgen) {
 886:Lib/Camera_Middleware/sensors/vd6g/vd6g.c ****   case VD6G_PATGEN_DISABLE:
 887:Lib/Camera_Middleware/sensors/vd6g/vd6g.c ****     value = VD6G_PATGEN_CTRL_DISABLE;
 888:Lib/Camera_Middleware/sensors/vd6g/vd6g.c ****     break;
 889:Lib/Camera_Middleware/sensors/vd6g/vd6g.c ****   case VD6G_PATGEN_SOLID_COLOR:
 890:Lib/Camera_Middleware/sensors/vd6g/vd6g.c ****     value = VD6G_PATGEN_CTRL_SOLID_COLOR ;
 891:Lib/Camera_Middleware/sensors/vd6g/vd6g.c ****     break;
 892:Lib/Camera_Middleware/sensors/vd6g/vd6g.c ****   case VD6G_PATGEN_VERTICAL_COLOR_BARS:
 893:Lib/Camera_Middleware/sensors/vd6g/vd6g.c ****     value = VD6G_PATGEN_CTRL_VER_COLOR_BAR;
 894:Lib/Camera_Middleware/sensors/vd6g/vd6g.c ****     break;
 895:Lib/Camera_Middleware/sensors/vd6g/vd6g.c ****   case VD6G_PATGEN_HORIZONTAL_GRAYSCALE:
 896:Lib/Camera_Middleware/sensors/vd6g/vd6g.c ****     value = VD6G_PATGEN_CTRL_HOR_GRAY;
 897:Lib/Camera_Middleware/sensors/vd6g/vd6g.c ****     break;
 898:Lib/Camera_Middleware/sensors/vd6g/vd6g.c ****   case VD6G_PATGEN_VERTICAL_GRAYSCALE:
 899:Lib/Camera_Middleware/sensors/vd6g/vd6g.c ****     value = VD6G_PATGEN_CTRL_VER_GRAY;
 900:Lib/Camera_Middleware/sensors/vd6g/vd6g.c ****     break;
 901:Lib/Camera_Middleware/sensors/vd6g/vd6g.c ****   case VD6G_PATGEN_DIAGONAL_GRAYSCALE:
 902:Lib/Camera_Middleware/sensors/vd6g/vd6g.c ****     value = VD6G_PATGEN_CTRL_DIAG_GRAY;
 903:Lib/Camera_Middleware/sensors/vd6g/vd6g.c ****     break;
 904:Lib/Camera_Middleware/sensors/vd6g/vd6g.c ****   case VD6G_PATGEN_PSEUDO_RANDOM:
 905:Lib/Camera_Middleware/sensors/vd6g/vd6g.c ****     value = VD6G_PATGEN_CTRL_PSN;
 906:Lib/Camera_Middleware/sensors/vd6g/vd6g.c ****     break;
 907:Lib/Camera_Middleware/sensors/vd6g/vd6g.c ****   default:
 908:Lib/Camera_Middleware/sensors/vd6g/vd6g.c ****     return -1;
 909:Lib/Camera_Middleware/sensors/vd6g/vd6g.c ****   }
 910:Lib/Camera_Middleware/sensors/vd6g/vd6g.c **** 
ARM GAS  /tmp/ccWHsT5O.s 			page 25


 911:Lib/Camera_Middleware/sensors/vd6g/vd6g.c ****   if (drv_ctx->config_save.patgen != VD6G_PATGEN_DISABLE)
 912:Lib/Camera_Middleware/sensors/vd6g/vd6g.c ****   {
 913:Lib/Camera_Middleware/sensors/vd6g/vd6g.c ****     ret = ctx->write8(ctx, VD6G_REG_DUSTER_CTRL, VD6G_DUSTER_CTRL_DISABLE);
 914:Lib/Camera_Middleware/sensors/vd6g/vd6g.c ****     VD6G_TraceError(ctx, ret);
 915:Lib/Camera_Middleware/sensors/vd6g/vd6g.c ****     ret = ctx->write8(ctx, VD6G_REG_DARKCAL_CTRL, VD6G_DARKCAL_CTRL_DISABLE_DARKAVG);
 916:Lib/Camera_Middleware/sensors/vd6g/vd6g.c ****     VD6G_TraceError(ctx, ret);
 917:Lib/Camera_Middleware/sensors/vd6g/vd6g.c ****   }
 918:Lib/Camera_Middleware/sensors/vd6g/vd6g.c **** 
 919:Lib/Camera_Middleware/sensors/vd6g/vd6g.c ****   ret = ctx->write16(ctx, VD6G_REG_PATGEN_CTRL, value);
 920:Lib/Camera_Middleware/sensors/vd6g/vd6g.c ****   VD6G_TraceError(ctx, ret);
 921:Lib/Camera_Middleware/sensors/vd6g/vd6g.c **** 
 922:Lib/Camera_Middleware/sensors/vd6g/vd6g.c ****   return 0;
 923:Lib/Camera_Middleware/sensors/vd6g/vd6g.c **** }
 924:Lib/Camera_Middleware/sensors/vd6g/vd6g.c **** 
 925:Lib/Camera_Middleware/sensors/vd6g/vd6g.c **** static int VD6G_SetFlicker(VD6G_Ctx_t *ctx, VD6G_Flicker_t flicker)
 926:Lib/Camera_Middleware/sensors/vd6g/vd6g.c **** {
 423              		.loc 1 926 1 is_stmt 1 view -0
 424              		.cfi_startproc
 425              		@ args = 0, pretend = 0, frame = 0
 426              		@ frame_needed = 0, uses_anonymous_args = 0
 927:Lib/Camera_Middleware/sensors/vd6g/vd6g.c ****   uint16_t mode;
 427              		.loc 1 927 3 view .LVU89
 928:Lib/Camera_Middleware/sensors/vd6g/vd6g.c ****   int ret;
 428              		.loc 1 928 3 view .LVU90
 929:Lib/Camera_Middleware/sensors/vd6g/vd6g.c **** 
 930:Lib/Camera_Middleware/sensors/vd6g/vd6g.c ****   switch (flicker) {
 429              		.loc 1 930 3 view .LVU91
 430 0000 0229     		cmp	r1, #2
 926:Lib/Camera_Middleware/sensors/vd6g/vd6g.c ****   uint16_t mode;
 431              		.loc 1 926 1 is_stmt 0 view .LVU92
 432 0002 37B5     		push	{r0, r1, r2, r4, r5, lr}
 433              		.cfi_def_cfa_offset 24
 434              		.cfi_offset 4, -12
 435              		.cfi_offset 5, -8
 436              		.cfi_offset 14, -4
 926:Lib/Camera_Middleware/sensors/vd6g/vd6g.c ****   uint16_t mode;
 437              		.loc 1 926 1 view .LVU93
 438 0004 0546     		mov	r5, r0
 439 0006 15D8     		bhi	.L36
 440              	.LVL33:
 931:Lib/Camera_Middleware/sensors/vd6g/vd6g.c ****   case VD6G_FLICKER_FREE_NONE:
 932:Lib/Camera_Middleware/sensors/vd6g/vd6g.c ****     mode = AE_COMP_CTRL_GAIN_PRIO;
 933:Lib/Camera_Middleware/sensors/vd6g/vd6g.c ****     break;
 934:Lib/Camera_Middleware/sensors/vd6g/vd6g.c ****   case VD6G_FLICKER_FREE_50HZ:
 935:Lib/Camera_Middleware/sensors/vd6g/vd6g.c ****     mode = AE_COMP_CTRL_FLICKER_50_HZ;
 936:Lib/Camera_Middleware/sensors/vd6g/vd6g.c ****     break;
 937:Lib/Camera_Middleware/sensors/vd6g/vd6g.c ****   case VD6G_FLICKER_FREE_60HZ:
 938:Lib/Camera_Middleware/sensors/vd6g/vd6g.c ****     mode = AE_COMP_CTRL_FLICKER_60_HZ;
 939:Lib/Camera_Middleware/sensors/vd6g/vd6g.c ****     break;
 940:Lib/Camera_Middleware/sensors/vd6g/vd6g.c ****   default:
 941:Lib/Camera_Middleware/sensors/vd6g/vd6g.c ****     return -1;
 942:Lib/Camera_Middleware/sensors/vd6g/vd6g.c ****   }
 943:Lib/Camera_Middleware/sensors/vd6g/vd6g.c **** 
 944:Lib/Camera_Middleware/sensors/vd6g/vd6g.c ****   ret = ctx->write16(ctx, VD6G_REG_AE_COMPILER_CONTROL, mode);
 441              		.loc 1 944 3 is_stmt 1 view .LVU94
 442              		.loc 1 944 9 is_stmt 0 view .LVU95
 443 0008 0C4A     		ldr	r2, .L40
ARM GAS  /tmp/ccWHsT5O.s 			page 26


 444 000a 4369     		ldr	r3, [r0, #20]
 445 000c 525C     		ldrb	r2, [r2, r1]	@ zero_extendqisi2
 446 000e 4FF48661 		mov	r1, #1072
 447              	.LVL34:
 448              		.loc 1 944 9 view .LVU96
 449 0012 9847     		blx	r3
 450              	.LVL35:
 945:Lib/Camera_Middleware/sensors/vd6g/vd6g.c ****   VD6G_TraceError(ctx, ret);
 451              		.loc 1 945 3 is_stmt 1 view .LVU97
 452              		.loc 1 945 3 view .LVU98
 453 0014 0446     		mov	r4, r0
 454 0016 50B1     		cbz	r0, .L33
 455              		.loc 1 945 3 discriminator 1 view .LVU99
 456 0018 0090     		str	r0, [sp]
 457 001a 40F2B133 		movw	r3, #945
 458 001e 2846     		mov	r0, r5
 459              	.LVL36:
 460              		.loc 1 945 3 is_stmt 0 discriminator 1 view .LVU100
 461 0020 074A     		ldr	r2, .L40+4
 462 0022 0849     		ldr	r1, .L40+8
 463 0024 FFF7FEFF 		bl	VD6G_error
 464              	.LVL37:
 465              		.loc 1 945 3 is_stmt 1 discriminator 3 view .LVU101
 466              		.loc 1 945 3 discriminator 4 view .LVU102
 467 0028 2846     		mov	r0, r5
 468 002a FFF7FEFF 		bl	display_error
 469              	.LVL38:
 470              	.L33:
 946:Lib/Camera_Middleware/sensors/vd6g/vd6g.c **** 
 947:Lib/Camera_Middleware/sensors/vd6g/vd6g.c ****   return 0;
 948:Lib/Camera_Middleware/sensors/vd6g/vd6g.c **** }
 471              		.loc 1 948 1 is_stmt 0 view .LVU103
 472 002e 2046     		mov	r0, r4
 473 0030 03B0     		add	sp, sp, #12
 474              		.cfi_remember_state
 475              		.cfi_def_cfa_offset 12
 476              		@ sp needed
 477 0032 30BD     		pop	{r4, r5, pc}
 478              	.LVL39:
 479              	.L36:
 480              		.cfi_restore_state
 941:Lib/Camera_Middleware/sensors/vd6g/vd6g.c ****   }
 481              		.loc 1 941 12 view .LVU104
 482 0034 4FF0FF34 		mov	r4, #-1
 483 0038 F9E7     		b	.L33
 484              	.L41:
 485 003a 00BF     		.align	2
 486              	.L40:
 487 003c 00000000 		.word	CSWTCH.85
 488 0040 00000000 		.word	__func__.12
 489 0044 00000000 		.word	.LC4
 490              		.cfi_endproc
 491              	.LFE29:
 493              		.global	__aeabi_uldivmod
 494              		.global	__aeabi_ldivmod
 495              		.section	.text.VD6G_GetLineTimeInUs,"ax",%progbits
 496              		.align	1
ARM GAS  /tmp/ccWHsT5O.s 			page 27


 497              		.syntax unified
 498              		.thumb
 499              		.thumb_func
 501              	VD6G_GetLineTimeInUs:
 502              	.LVL40:
 503              	.LFB6:
 329:Lib/Camera_Middleware/sensors/vd6g/vd6g.c ****   uint16_t line_len;
 504              		.loc 1 329 1 is_stmt 1 view -0
 505              		.cfi_startproc
 506              		@ args = 0, pretend = 0, frame = 8
 507              		@ frame_needed = 0, uses_anonymous_args = 0
 330:Lib/Camera_Middleware/sensors/vd6g/vd6g.c ****   int ret;
 508              		.loc 1 330 3 view .LVU106
 331:Lib/Camera_Middleware/sensors/vd6g/vd6g.c **** 
 509              		.loc 1 331 3 view .LVU107
 333:Lib/Camera_Middleware/sensors/vd6g/vd6g.c ****   VD6G_TraceError(ctx, ret);
 510              		.loc 1 333 3 view .LVU108
 329:Lib/Camera_Middleware/sensors/vd6g/vd6g.c ****   uint16_t line_len;
 511              		.loc 1 329 1 is_stmt 0 view .LVU109
 512 0000 7FB5     		push	{r0, r1, r2, r3, r4, r5, r6, lr}
 513              		.cfi_def_cfa_offset 32
 514              		.cfi_offset 4, -16
 515              		.cfi_offset 5, -12
 516              		.cfi_offset 6, -8
 517              		.cfi_offset 14, -4
 329:Lib/Camera_Middleware/sensors/vd6g/vd6g.c ****   uint16_t line_len;
 518              		.loc 1 329 1 view .LVU110
 519 0002 0E46     		mov	r6, r1
 333:Lib/Camera_Middleware/sensors/vd6g/vd6g.c ****   VD6G_TraceError(ctx, ret);
 520              		.loc 1 333 9 view .LVU111
 521 0004 8368     		ldr	r3, [r0, #8]
 522 0006 4FF44071 		mov	r1, #768
 523              	.LVL41:
 333:Lib/Camera_Middleware/sensors/vd6g/vd6g.c ****   VD6G_TraceError(ctx, ret);
 524              		.loc 1 333 9 view .LVU112
 525 000a 0DF10E02 		add	r2, sp, #14
 329:Lib/Camera_Middleware/sensors/vd6g/vd6g.c ****   uint16_t line_len;
 526              		.loc 1 329 1 view .LVU113
 527 000e 0546     		mov	r5, r0
 333:Lib/Camera_Middleware/sensors/vd6g/vd6g.c ****   VD6G_TraceError(ctx, ret);
 528              		.loc 1 333 9 view .LVU114
 529 0010 9847     		blx	r3
 530              	.LVL42:
 334:Lib/Camera_Middleware/sensors/vd6g/vd6g.c **** 
 531              		.loc 1 334 3 is_stmt 1 view .LVU115
 334:Lib/Camera_Middleware/sensors/vd6g/vd6g.c **** 
 532              		.loc 1 334 3 view .LVU116
 533 0012 0446     		mov	r4, r0
 534 0014 68B9     		cbnz	r0, .L43
 334:Lib/Camera_Middleware/sensors/vd6g/vd6g.c **** 
 535              		.loc 1 334 3 discriminator 6 view .LVU117
 334:Lib/Camera_Middleware/sensors/vd6g/vd6g.c **** 
 536              		.loc 1 334 3 discriminator 8 view .LVU118
 337:Lib/Camera_Middleware/sensors/vd6g/vd6g.c **** 
 537              		.loc 1 337 3 view .LVU119
 337:Lib/Camera_Middleware/sensors/vd6g/vd6g.c **** 
 538              		.loc 1 337 53 is_stmt 0 view .LVU120
ARM GAS  /tmp/ccWHsT5O.s 			page 28


 539 0016 11A3     		adr	r3, .L45+12
 540 0018 D3E90023 		ldrd	r2, [r3]
 337:Lib/Camera_Middleware/sensors/vd6g/vd6g.c **** 
 541              		.loc 1 337 23 view .LVU121
 542 001c BDF80E00 		ldrh	r0, [sp, #14]
 543              	.LVL43:
 337:Lib/Camera_Middleware/sensors/vd6g/vd6g.c **** 
 544              		.loc 1 337 42 view .LVU122
 545 0020 0B49     		ldr	r1, .L45
 337:Lib/Camera_Middleware/sensors/vd6g/vd6g.c **** 
 546              		.loc 1 337 53 view .LVU123
 547 0022 A0FB0101 		umull	r0, r1, r0, r1
 548 0026 FFF7FEFF 		bl	__aeabi_uldivmod
 549              	.LVL44:
 337:Lib/Camera_Middleware/sensors/vd6g/vd6g.c **** 
 550              		.loc 1 337 20 view .LVU124
 551 002a 3060     		str	r0, [r6]
 339:Lib/Camera_Middleware/sensors/vd6g/vd6g.c **** }
 552              		.loc 1 339 3 is_stmt 1 view .LVU125
 553              	.L42:
 340:Lib/Camera_Middleware/sensors/vd6g/vd6g.c **** 
 554              		.loc 1 340 1 is_stmt 0 view .LVU126
 555 002c 2046     		mov	r0, r4
 556 002e 04B0     		add	sp, sp, #16
 557              		.cfi_remember_state
 558              		.cfi_def_cfa_offset 16
 559              		@ sp needed
 560 0030 70BD     		pop	{r4, r5, r6, pc}
 561              	.LVL45:
 562              	.L43:
 563              		.cfi_restore_state
 334:Lib/Camera_Middleware/sensors/vd6g/vd6g.c **** 
 564              		.loc 1 334 3 is_stmt 1 discriminator 1 view .LVU127
 565 0032 0090     		str	r0, [sp]
 566 0034 4FF4A773 		mov	r3, #334
 567 0038 2846     		mov	r0, r5
 568              	.LVL46:
 334:Lib/Camera_Middleware/sensors/vd6g/vd6g.c **** 
 569              		.loc 1 334 3 is_stmt 0 discriminator 1 view .LVU128
 570 003a 064A     		ldr	r2, .L45+4
 571 003c 0649     		ldr	r1, .L45+8
 572 003e FFF7FEFF 		bl	VD6G_error
 573              	.LVL47:
 334:Lib/Camera_Middleware/sensors/vd6g/vd6g.c **** 
 574              		.loc 1 334 3 is_stmt 1 discriminator 3 view .LVU129
 334:Lib/Camera_Middleware/sensors/vd6g/vd6g.c **** 
 575              		.loc 1 334 3 discriminator 4 view .LVU130
 576 0042 2846     		mov	r0, r5
 577 0044 FFF7FEFF 		bl	display_error
 578              	.LVL48:
 334:Lib/Camera_Middleware/sensors/vd6g/vd6g.c **** 
 579              		.loc 1 334 3 discriminator 6 view .LVU131
 580 0048 F0E7     		b	.L42
 581              	.L46:
 582 004a 00BFAFF3 		.align	3
 582      0080
 583              	.L45:
ARM GAS  /tmp/ccWHsT5O.s 			page 29


 584 0050 40420F00 		.word	1000000
 585 0054 00000000 		.word	__func__.1
 586 0058 00000000 		.word	.LC4
 587 005c 009D9509 		.word	160800000
 588 0060 00000000 		.word	0
 589              		.cfi_endproc
 590              	.LFE6:
 592              		.section	.rodata.VD6G_warn.constprop.0.str1.1,"aMS",%progbits,1
 593              	.LC5:
 594 0000 556E6162 		.ascii	"Unable to reach state %d\012\000"
 594      6C652074 
 594      6F207265 
 594      61636820 
 594      73746174 
 595              		.section	.text.VD6G_warn.constprop.0,"ax",%progbits
 596              		.align	1
 597              		.syntax unified
 598              		.thumb
 599              		.thumb_func
 601              	VD6G_warn.constprop.0:
 602              	.LVL49:
 603              	.LFB53:
 275:Lib/Camera_Middleware/sensors/vd6g/vd6g.c **** {
 604              		.loc 1 275 13 view -0
 605              		.cfi_startproc
 606              		@ args = 4, pretend = 12, frame = 8
 607              		@ frame_needed = 0, uses_anonymous_args = 1
 277:Lib/Camera_Middleware/sensors/vd6g/vd6g.c **** 
 608              		.loc 1 277 3 view .LVU133
 279:Lib/Camera_Middleware/sensors/vd6g/vd6g.c ****     return ;
 609              		.loc 1 279 3 view .LVU134
 275:Lib/Camera_Middleware/sensors/vd6g/vd6g.c **** {
 610              		.loc 1 275 13 is_stmt 0 view .LVU135
 611 0000 0EB4     		push	{r1, r2, r3}
 612              		.cfi_def_cfa_offset 12
 613              		.cfi_offset 1, -12
 614              		.cfi_offset 2, -8
 615              		.cfi_offset 3, -4
 616 0002 17B5     		push	{r0, r1, r2, r4, lr}
 617              		.cfi_def_cfa_offset 32
 618              		.cfi_offset 4, -20
 619              		.cfi_offset 14, -16
 279:Lib/Camera_Middleware/sensors/vd6g/vd6g.c ****     return ;
 620              		.loc 1 279 6 view .LVU136
 621 0004 446A     		ldr	r4, [r0, #36]
 622 0006 24B1     		cbz	r4, .L47
 282:Lib/Camera_Middleware/sensors/vd6g/vd6g.c ****   ctx->log(ctx, VD6G_LVL_WARNING, format, ap);
 623              		.loc 1 282 3 is_stmt 1 view .LVU137
 624 0008 06AB     		add	r3, sp, #24
 283:Lib/Camera_Middleware/sensors/vd6g/vd6g.c ****   va_end(ap);
 625              		.loc 1 283 3 is_stmt 0 view .LVU138
 626 000a 0121     		movs	r1, #1
 627 000c 034A     		ldr	r2, .L52
 282:Lib/Camera_Middleware/sensors/vd6g/vd6g.c ****   ctx->log(ctx, VD6G_LVL_WARNING, format, ap);
 628              		.loc 1 282 3 view .LVU139
 629 000e 0193     		str	r3, [sp, #4]
 283:Lib/Camera_Middleware/sensors/vd6g/vd6g.c ****   va_end(ap);
ARM GAS  /tmp/ccWHsT5O.s 			page 30


 630              		.loc 1 283 3 is_stmt 1 view .LVU140
 631 0010 A047     		blx	r4
 632              	.LVL50:
 284:Lib/Camera_Middleware/sensors/vd6g/vd6g.c **** }
 633              		.loc 1 284 3 view .LVU141
 634              	.L47:
 285:Lib/Camera_Middleware/sensors/vd6g/vd6g.c **** 
 635              		.loc 1 285 1 is_stmt 0 view .LVU142
 636 0012 03B0     		add	sp, sp, #12
 637              		.cfi_def_cfa_offset 20
 638              		@ sp needed
 639 0014 BDE81040 		pop	{r4, lr}
 640              		.cfi_restore 14
 641              		.cfi_restore 4
 642              		.cfi_def_cfa_offset 12
 643 0018 03B0     		add	sp, sp, #12
 644              		.cfi_restore 3
 645              		.cfi_restore 2
 646              		.cfi_restore 1
 647              		.cfi_def_cfa_offset 0
 648 001a 7047     		bx	lr
 649              	.L53:
 650              		.align	2
 651              	.L52:
 652 001c 00000000 		.word	.LC5
 653              		.cfi_endproc
 654              	.LFE53:
 656              		.section	.text.VD6G_dbg.constprop.0,"ax",%progbits
 657              		.align	1
 658              		.syntax unified
 659              		.thumb
 660              		.thumb_func
 662              	VD6G_dbg.constprop.0:
 663              	.LVL51:
 664              	.LFB54:
 251:Lib/Camera_Middleware/sensors/vd6g/vd6g.c **** {
 665              		.loc 1 251 13 is_stmt 1 view -0
 666              		.cfi_startproc
 667              		@ args = 4, pretend = 8, frame = 8
 668              		@ frame_needed = 0, uses_anonymous_args = 1
 253:Lib/Camera_Middleware/sensors/vd6g/vd6g.c **** 
 669              		.loc 1 253 3 view .LVU144
 255:Lib/Camera_Middleware/sensors/vd6g/vd6g.c ****     return ;
 670              		.loc 1 255 3 view .LVU145
 251:Lib/Camera_Middleware/sensors/vd6g/vd6g.c **** {
 671              		.loc 1 251 13 is_stmt 0 view .LVU146
 672 0000 0CB4     		push	{r2, r3}
 673              		.cfi_def_cfa_offset 8
 674              		.cfi_offset 2, -8
 675              		.cfi_offset 3, -4
 676 0002 13B5     		push	{r0, r1, r4, lr}
 677              		.cfi_def_cfa_offset 24
 678              		.cfi_offset 4, -16
 679              		.cfi_offset 14, -12
 255:Lib/Camera_Middleware/sensors/vd6g/vd6g.c ****     return ;
 680              		.loc 1 255 6 view .LVU147
 681 0004 446A     		ldr	r4, [r0, #36]
ARM GAS  /tmp/ccWHsT5O.s 			page 31


 682 0006 24B1     		cbz	r4, .L54
 258:Lib/Camera_Middleware/sensors/vd6g/vd6g.c ****   ctx->log(ctx, VD6G_LVL_DBG(lvl), format, ap);
 683              		.loc 1 258 3 is_stmt 1 view .LVU148
 684 0008 05AB     		add	r3, sp, #20
 259:Lib/Camera_Middleware/sensors/vd6g/vd6g.c ****   va_end(ap);
 685              		.loc 1 259 3 is_stmt 0 view .LVU149
 686 000a 0321     		movs	r1, #3
 687              	.LVL52:
 259:Lib/Camera_Middleware/sensors/vd6g/vd6g.c ****   va_end(ap);
 688              		.loc 1 259 3 view .LVU150
 689 000c 049A     		ldr	r2, [sp, #16]
 258:Lib/Camera_Middleware/sensors/vd6g/vd6g.c ****   ctx->log(ctx, VD6G_LVL_DBG(lvl), format, ap);
 690              		.loc 1 258 3 view .LVU151
 691 000e 0193     		str	r3, [sp, #4]
 259:Lib/Camera_Middleware/sensors/vd6g/vd6g.c ****   va_end(ap);
 692              		.loc 1 259 3 is_stmt 1 view .LVU152
 693 0010 A047     		blx	r4
 694              	.LVL53:
 260:Lib/Camera_Middleware/sensors/vd6g/vd6g.c **** }
 695              		.loc 1 260 3 view .LVU153
 696              	.L54:
 261:Lib/Camera_Middleware/sensors/vd6g/vd6g.c **** 
 697              		.loc 1 261 1 is_stmt 0 view .LVU154
 698 0012 02B0     		add	sp, sp, #8
 699              		.cfi_def_cfa_offset 16
 700              		@ sp needed
 701 0014 BDE81040 		pop	{r4, lr}
 702              		.cfi_restore 14
 703              		.cfi_restore 4
 704              		.cfi_def_cfa_offset 8
 705 0018 02B0     		add	sp, sp, #8
 706              		.cfi_restore 3
 707              		.cfi_restore 2
 708              		.cfi_def_cfa_offset 0
 709 001a 7047     		bx	lr
 710              		.cfi_endproc
 711              	.LFE54:
 713              		.section	.rodata.VD6G_GetTopDie.str1.1,"aMS",%progbits,1
 714              	.LC6:
 715 0000 72657669 		.ascii	"revision = 0x%04x\012\000"
 715      73696F6E 
 715      203D2030 
 715      78253034 
 715      780A00
 716              		.section	.text.VD6G_GetTopDie,"ax",%progbits
 717              		.align	1
 718              		.syntax unified
 719              		.thumb
 720              		.thumb_func
 722              	VD6G_GetTopDie:
 723              	.LVL54:
 724              	.LFB9:
 366:Lib/Camera_Middleware/sensors/vd6g/vd6g.c ****   uint16_t reg16;
 725              		.loc 1 366 1 is_stmt 1 view -0
 726              		.cfi_startproc
 727              		@ args = 0, pretend = 0, frame = 8
 728              		@ frame_needed = 0, uses_anonymous_args = 0
ARM GAS  /tmp/ccWHsT5O.s 			page 32


 367:Lib/Camera_Middleware/sensors/vd6g/vd6g.c ****   int ret;
 729              		.loc 1 367 3 view .LVU156
 368:Lib/Camera_Middleware/sensors/vd6g/vd6g.c **** 
 730              		.loc 1 368 3 view .LVU157
 370:Lib/Camera_Middleware/sensors/vd6g/vd6g.c ****   VD6G_TraceError(ctx, ret);
 731              		.loc 1 370 3 view .LVU158
 366:Lib/Camera_Middleware/sensors/vd6g/vd6g.c ****   uint16_t reg16;
 732              		.loc 1 366 1 is_stmt 0 view .LVU159
 733 0000 7FB5     		push	{r0, r1, r2, r3, r4, r5, r6, lr}
 734              		.cfi_def_cfa_offset 32
 735              		.cfi_offset 4, -16
 736              		.cfi_offset 5, -12
 737              		.cfi_offset 6, -8
 738              		.cfi_offset 14, -4
 366:Lib/Camera_Middleware/sensors/vd6g/vd6g.c ****   uint16_t reg16;
 739              		.loc 1 366 1 view .LVU160
 740 0002 0E46     		mov	r6, r1
 370:Lib/Camera_Middleware/sensors/vd6g/vd6g.c ****   VD6G_TraceError(ctx, ret);
 741              		.loc 1 370 9 view .LVU161
 742 0004 8368     		ldr	r3, [r0, #8]
 743 0006 0221     		movs	r1, #2
 744              	.LVL55:
 370:Lib/Camera_Middleware/sensors/vd6g/vd6g.c ****   VD6G_TraceError(ctx, ret);
 745              		.loc 1 370 9 view .LVU162
 746 0008 0DF10E02 		add	r2, sp, #14
 366:Lib/Camera_Middleware/sensors/vd6g/vd6g.c ****   uint16_t reg16;
 747              		.loc 1 366 1 view .LVU163
 748 000c 0546     		mov	r5, r0
 370:Lib/Camera_Middleware/sensors/vd6g/vd6g.c ****   VD6G_TraceError(ctx, ret);
 749              		.loc 1 370 9 view .LVU164
 750 000e 9847     		blx	r3
 751              	.LVL56:
 371:Lib/Camera_Middleware/sensors/vd6g/vd6g.c ****   VD6G_dbg(ctx, 0, "revision = 0x%04x\n", reg16);
 752              		.loc 1 371 3 is_stmt 1 view .LVU165
 371:Lib/Camera_Middleware/sensors/vd6g/vd6g.c ****   VD6G_dbg(ctx, 0, "revision = 0x%04x\n", reg16);
 753              		.loc 1 371 3 view .LVU166
 754 0010 0446     		mov	r4, r0
 755 0012 68B9     		cbnz	r0, .L60
 371:Lib/Camera_Middleware/sensors/vd6g/vd6g.c ****   VD6G_dbg(ctx, 0, "revision = 0x%04x\n", reg16);
 756              		.loc 1 371 3 discriminator 6 view .LVU167
 371:Lib/Camera_Middleware/sensors/vd6g/vd6g.c ****   VD6G_dbg(ctx, 0, "revision = 0x%04x\n", reg16);
 757              		.loc 1 371 3 discriminator 8 view .LVU168
 372:Lib/Camera_Middleware/sensors/vd6g/vd6g.c ****   *top_die = reg16 >> 8;
 758              		.loc 1 372 3 view .LVU169
 759 0014 0146     		mov	r1, r0
 760 0016 BDF80E30 		ldrh	r3, [sp, #14]
 761 001a 2846     		mov	r0, r5
 762              	.LVL57:
 372:Lib/Camera_Middleware/sensors/vd6g/vd6g.c ****   *top_die = reg16 >> 8;
 763              		.loc 1 372 3 is_stmt 0 view .LVU170
 764 001c 0A4A     		ldr	r2, .L62
 765 001e FFF7FEFF 		bl	VD6G_dbg.constprop.0
 766              	.LVL58:
 373:Lib/Camera_Middleware/sensors/vd6g/vd6g.c **** 
 767              		.loc 1 373 3 is_stmt 1 view .LVU171
 373:Lib/Camera_Middleware/sensors/vd6g/vd6g.c **** 
 768              		.loc 1 373 12 is_stmt 0 view .LVU172
ARM GAS  /tmp/ccWHsT5O.s 			page 33


 769 0022 BDF80E30 		ldrh	r3, [sp, #14]
 770 0026 1B0A     		lsrs	r3, r3, #8
 771 0028 3370     		strb	r3, [r6]
 375:Lib/Camera_Middleware/sensors/vd6g/vd6g.c **** }
 772              		.loc 1 375 3 is_stmt 1 view .LVU173
 773              	.L59:
 376:Lib/Camera_Middleware/sensors/vd6g/vd6g.c **** 
 774              		.loc 1 376 1 is_stmt 0 view .LVU174
 775 002a 2046     		mov	r0, r4
 776 002c 04B0     		add	sp, sp, #16
 777              		.cfi_remember_state
 778              		.cfi_def_cfa_offset 16
 779              		@ sp needed
 780 002e 70BD     		pop	{r4, r5, r6, pc}
 781              	.LVL59:
 782              	.L60:
 783              		.cfi_restore_state
 371:Lib/Camera_Middleware/sensors/vd6g/vd6g.c ****   VD6G_dbg(ctx, 0, "revision = 0x%04x\n", reg16);
 784              		.loc 1 371 3 is_stmt 1 discriminator 1 view .LVU175
 785 0030 0090     		str	r0, [sp]
 786 0032 40F27313 		movw	r3, #371
 787 0036 2846     		mov	r0, r5
 788              	.LVL60:
 371:Lib/Camera_Middleware/sensors/vd6g/vd6g.c ****   VD6G_dbg(ctx, 0, "revision = 0x%04x\n", reg16);
 789              		.loc 1 371 3 is_stmt 0 discriminator 1 view .LVU176
 790 0038 044A     		ldr	r2, .L62+4
 791 003a 0549     		ldr	r1, .L62+8
 792 003c FFF7FEFF 		bl	VD6G_error
 793              	.LVL61:
 371:Lib/Camera_Middleware/sensors/vd6g/vd6g.c ****   VD6G_dbg(ctx, 0, "revision = 0x%04x\n", reg16);
 794              		.loc 1 371 3 is_stmt 1 discriminator 3 view .LVU177
 371:Lib/Camera_Middleware/sensors/vd6g/vd6g.c ****   VD6G_dbg(ctx, 0, "revision = 0x%04x\n", reg16);
 795              		.loc 1 371 3 discriminator 4 view .LVU178
 796 0040 2846     		mov	r0, r5
 797 0042 FFF7FEFF 		bl	display_error
 798              	.LVL62:
 371:Lib/Camera_Middleware/sensors/vd6g/vd6g.c ****   VD6G_dbg(ctx, 0, "revision = 0x%04x\n", reg16);
 799              		.loc 1 371 3 discriminator 6 view .LVU179
 800 0046 F0E7     		b	.L59
 801              	.L63:
 802              		.align	2
 803              	.L62:
 804 0048 00000000 		.word	.LC6
 805 004c 00000000 		.word	__func__.27
 806 0050 00000000 		.word	.LC4
 807              		.cfi_endproc
 808              	.LFE9:
 810              		.section	.rodata.VD6G_WaitState.str1.1,"aMS",%progbits,1
 811              	.LC7:
 812 0000 72656163 		.ascii	"reach state %d\012\000"
 812      68207374 
 812      61746520 
 812      25640A00 
 813              		.section	.text.VD6G_WaitState,"ax",%progbits
 814              		.align	1
 815              		.syntax unified
 816              		.thumb
ARM GAS  /tmp/ccWHsT5O.s 			page 34


 817              		.thumb_func
 819              	VD6G_WaitState:
 820              	.LVL63:
 821              	.LFB8:
 354:Lib/Camera_Middleware/sensors/vd6g/vd6g.c ****   int ret = VD6G_PollReg8(ctx, VD6G_REG_SYSTEM_FSM, state);
 822              		.loc 1 354 1 view -0
 823              		.cfi_startproc
 824              		@ args = 0, pretend = 0, frame = 0
 825              		@ frame_needed = 0, uses_anonymous_args = 0
 355:Lib/Camera_Middleware/sensors/vd6g/vd6g.c **** 
 826              		.loc 1 355 3 view .LVU181
 354:Lib/Camera_Middleware/sensors/vd6g/vd6g.c ****   int ret = VD6G_PollReg8(ctx, VD6G_REG_SYSTEM_FSM, state);
 827              		.loc 1 354 1 is_stmt 0 view .LVU182
 828 0000 70B5     		push	{r4, r5, r6, lr}
 829              		.cfi_def_cfa_offset 16
 830              		.cfi_offset 4, -16
 831              		.cfi_offset 5, -12
 832              		.cfi_offset 6, -8
 833              		.cfi_offset 14, -4
 355:Lib/Camera_Middleware/sensors/vd6g/vd6g.c **** 
 834              		.loc 1 355 13 view .LVU183
 835 0002 CAB2     		uxtb	r2, r1
 354:Lib/Camera_Middleware/sensors/vd6g/vd6g.c ****   int ret = VD6G_PollReg8(ctx, VD6G_REG_SYSTEM_FSM, state);
 836              		.loc 1 354 1 view .LVU184
 837 0004 0D46     		mov	r5, r1
 355:Lib/Camera_Middleware/sensors/vd6g/vd6g.c **** 
 838              		.loc 1 355 13 view .LVU185
 839 0006 2821     		movs	r1, #40
 840              	.LVL64:
 354:Lib/Camera_Middleware/sensors/vd6g/vd6g.c ****   int ret = VD6G_PollReg8(ctx, VD6G_REG_SYSTEM_FSM, state);
 841              		.loc 1 354 1 view .LVU186
 842 0008 0646     		mov	r6, r0
 355:Lib/Camera_Middleware/sensors/vd6g/vd6g.c **** 
 843              		.loc 1 355 13 view .LVU187
 844 000a FFF7FEFF 		bl	VD6G_PollReg8
 845              	.LVL65:
 357:Lib/Camera_Middleware/sensors/vd6g/vd6g.c ****     VD6G_warn(ctx, "Unable to reach state %d\n", state);
 846              		.loc 1 357 3 is_stmt 1 view .LVU188
 357:Lib/Camera_Middleware/sensors/vd6g/vd6g.c ****     VD6G_warn(ctx, "Unable to reach state %d\n", state);
 847              		.loc 1 357 6 is_stmt 0 view .LVU189
 848 000e 0446     		mov	r4, r0
 849 0010 30B1     		cbz	r0, .L65
 358:Lib/Camera_Middleware/sensors/vd6g/vd6g.c ****   else
 850              		.loc 1 358 5 is_stmt 1 view .LVU190
 851 0012 2A46     		mov	r2, r5
 852 0014 3046     		mov	r0, r6
 853              	.LVL66:
 358:Lib/Camera_Middleware/sensors/vd6g/vd6g.c ****   else
 854              		.loc 1 358 5 is_stmt 0 view .LVU191
 855 0016 0649     		ldr	r1, .L67
 856 0018 FFF7FEFF 		bl	VD6G_warn.constprop.0
 857              	.LVL67:
 858              	.L64:
 363:Lib/Camera_Middleware/sensors/vd6g/vd6g.c **** 
 859              		.loc 1 363 1 view .LVU192
 860 001c 2046     		mov	r0, r4
 861 001e 70BD     		pop	{r4, r5, r6, pc}
ARM GAS  /tmp/ccWHsT5O.s 			page 35


 862              	.LVL68:
 863              	.L65:
 864              	.LBB8:
 865              	.LBI8:
 353:Lib/Camera_Middleware/sensors/vd6g/vd6g.c **** {
 866              		.loc 1 353 12 is_stmt 1 view .LVU193
 867              	.LBB9:
 360:Lib/Camera_Middleware/sensors/vd6g/vd6g.c **** 
 868              		.loc 1 360 5 view .LVU194
 869 0020 0146     		mov	r1, r0
 870 0022 2B46     		mov	r3, r5
 871 0024 3046     		mov	r0, r6
 872              	.LVL69:
 360:Lib/Camera_Middleware/sensors/vd6g/vd6g.c **** 
 873              		.loc 1 360 5 is_stmt 0 view .LVU195
 874 0026 034A     		ldr	r2, .L67+4
 875 0028 FFF7FEFF 		bl	VD6G_dbg.constprop.0
 876              	.LVL70:
 360:Lib/Camera_Middleware/sensors/vd6g/vd6g.c **** 
 877              		.loc 1 360 5 view .LVU196
 878              	.LBE9:
 879              	.LBE8:
 362:Lib/Camera_Middleware/sensors/vd6g/vd6g.c **** }
 880              		.loc 1 362 3 is_stmt 1 view .LVU197
 362:Lib/Camera_Middleware/sensors/vd6g/vd6g.c **** }
 881              		.loc 1 362 10 is_stmt 0 view .LVU198
 882 002c F6E7     		b	.L64
 883              	.L68:
 884 002e 00BF     		.align	2
 885              	.L67:
 886 0030 00000000 		.word	.LC5
 887 0034 00000000 		.word	.LC7
 888              		.cfi_endproc
 889              	.LFE8:
 891              		.section	.rodata.VD6G_Init.str1.1,"aMS",%progbits,1
 892              	.LC8:
 893 0000 6D6F6465 		.ascii	"model_id = 0x%04x\012\000"
 893      6C5F6964 
 893      203D2030 
 893      78253034 
 893      780A00
 894              	.LC9:
 895 0013 42616420 		.ascii	"Bad model id expected 0x%04x / got 0x%04x\012\000"
 895      6D6F6465 
 895      6C206964 
 895      20657870 
 895      65637465 
 896              	.LC10:
 897 003e 556E7375 		.ascii	"Unsupported revision\012\000"
 897      70706F72 
 897      74656420 
 897      72657669 
 897      73696F6E 
 898              	.LC11:
 899 0054 726F6D20 		.ascii	"rom = 0x%04x\012\000"
 899      3D203078 
 899      25303478 
ARM GAS  /tmp/ccWHsT5O.s 			page 36


 899      0A00
 900              	.LC12:
 901 0062 70617463 		.ascii	"patch = 0x%04x\012\000"
 901      68203D20 
 901      30782530 
 901      34780A00 
 902              	.LC13:
 903 0072 62616420 		.ascii	"bad patch version expected %d.%d got %d.%d\012\000"
 903      70617463 
 903      68207665 
 903      7273696F 
 903      6E206578 
 904              	.LC14:
 905 009e 70617463 		.ascii	"patch %d.%d applied\012\000"
 905      68202564 
 905      2E256420 
 905      6170706C 
 905      6965640A 
 906              	.LC15:
 907 00b3 3000     		.ascii	"0\000"
 908              	.LC16:
 909 00b5 73656E73 		.ascii	"sensor boot successfully\012\000"
 909      6F722062 
 909      6F6F7420 
 909      73756363 
 909      65737366 
 910              	.LC17:
 911 00cf 62616420 		.ascii	"bad vtpatch version, expected %d got rd:%d, gr:%d g"
 911      76747061 
 911      74636820 
 911      76657273 
 911      696F6E2C 
 912 0102 743A2564 		.ascii	"t:%d\012\000"
 912      0A00
 913              	.LC18:
 914 0108 56542070 		.ascii	"VT patch %d applied\012\000"
 914      61746368 
 914      20256420 
 914      6170706C 
 914      6965640A 
 915              	.LC19:
 916 011d 45787465 		.ascii	"External clock out of rangen\012\000"
 916      726E616C 
 916      20636C6F 
 916      636B206F 
 916      7574206F 
 917              	.LC20:
 918 013b 45787420 		.ascii	"Ext Clock = %d Hz\012\000"
 918      436C6F63 
 918      6B203D20 
 918      25642048 
 918      7A0A00
 919              	.LC21:
 920 014e 504C4C20 		.ascii	"PLL prediv = %d\012\000"
 920      70726564 
 920      6976203D 
 920      2025640A 
ARM GAS  /tmp/ccWHsT5O.s 			page 37


 920      00
 921              	.LC22:
 922 015f 504C4C20 		.ascii	"PLL mult = %d\012\000"
 922      6D756C74 
 922      203D2025 
 922      640A00
 923              	.LC23:
 924 016e 4C696E65 		.ascii	"Line len = %d\012\000"
 924      206C656E 
 924      203D2025 
 924      640A00
 925              	.LC24:
 926 017d 53657420 		.ascii	"Set frame_length to %d to reach %d fps\012\000"
 926      6672616D 
 926      655F6C65 
 926      6E677468 
 926      20746F20 
 927              		.section	.text.VD6G_Init,"ax",%progbits
 928              		.align	1
 929              		.global	VD6G_Init
 930              		.syntax unified
 931              		.thumb
 932              		.thumb_func
 934              	VD6G_Init:
 935              	.LVL71:
 936              	.LFB35:
 949:Lib/Camera_Middleware/sensors/vd6g/vd6g.c **** 
 950:Lib/Camera_Middleware/sensors/vd6g/vd6g.c **** static int VD6G_Flicker(VD6G_Ctx_t *ctx)
 951:Lib/Camera_Middleware/sensors/vd6g/vd6g.c **** {
 952:Lib/Camera_Middleware/sensors/vd6g/vd6g.c ****   struct drv_vd6g_ctx *drv_ctx = &ctx->ctx;
 953:Lib/Camera_Middleware/sensors/vd6g/vd6g.c **** 
 954:Lib/Camera_Middleware/sensors/vd6g/vd6g.c ****   return VD6G_SetFlicker(ctx, drv_ctx->config_save.flicker);
 955:Lib/Camera_Middleware/sensors/vd6g/vd6g.c **** }
 956:Lib/Camera_Middleware/sensors/vd6g/vd6g.c **** 
 957:Lib/Camera_Middleware/sensors/vd6g/vd6g.c **** static int VD6G_SetupEarly(VD6G_Ctx_t *ctx)
 958:Lib/Camera_Middleware/sensors/vd6g/vd6g.c **** {
 959:Lib/Camera_Middleware/sensors/vd6g/vd6g.c ****   int ret;
 960:Lib/Camera_Middleware/sensors/vd6g/vd6g.c **** 
 961:Lib/Camera_Middleware/sensors/vd6g/vd6g.c ****   ret = VD6G_SetupClocks(ctx);
 962:Lib/Camera_Middleware/sensors/vd6g/vd6g.c ****   if (ret)
 963:Lib/Camera_Middleware/sensors/vd6g/vd6g.c ****     return ret;
 964:Lib/Camera_Middleware/sensors/vd6g/vd6g.c **** 
 965:Lib/Camera_Middleware/sensors/vd6g/vd6g.c ****   ret = VD6G_SetupFrameRate(ctx);
 966:Lib/Camera_Middleware/sensors/vd6g/vd6g.c ****   if (ret)
 967:Lib/Camera_Middleware/sensors/vd6g/vd6g.c ****     return ret;
 968:Lib/Camera_Middleware/sensors/vd6g/vd6g.c **** 
 969:Lib/Camera_Middleware/sensors/vd6g/vd6g.c ****   return 0;
 970:Lib/Camera_Middleware/sensors/vd6g/vd6g.c **** }
 971:Lib/Camera_Middleware/sensors/vd6g/vd6g.c **** 
 972:Lib/Camera_Middleware/sensors/vd6g/vd6g.c **** static int VD6G_Setup(VD6G_Ctx_t *ctx)
 973:Lib/Camera_Middleware/sensors/vd6g/vd6g.c **** {
 974:Lib/Camera_Middleware/sensors/vd6g/vd6g.c ****   int ret;
 975:Lib/Camera_Middleware/sensors/vd6g/vd6g.c **** 
 976:Lib/Camera_Middleware/sensors/vd6g/vd6g.c ****   ret = VD6G_SetupOutput(ctx);
 977:Lib/Camera_Middleware/sensors/vd6g/vd6g.c ****   if (ret)
 978:Lib/Camera_Middleware/sensors/vd6g/vd6g.c ****     return ret;
 979:Lib/Camera_Middleware/sensors/vd6g/vd6g.c **** 
ARM GAS  /tmp/ccWHsT5O.s 			page 38


 980:Lib/Camera_Middleware/sensors/vd6g/vd6g.c ****   ret = VD6G_SetupSize(ctx);
 981:Lib/Camera_Middleware/sensors/vd6g/vd6g.c ****   if (ret)
 982:Lib/Camera_Middleware/sensors/vd6g/vd6g.c ****     return ret;
 983:Lib/Camera_Middleware/sensors/vd6g/vd6g.c **** 
 984:Lib/Camera_Middleware/sensors/vd6g/vd6g.c ****   ret = VD6G_SetupExposure(ctx);
 985:Lib/Camera_Middleware/sensors/vd6g/vd6g.c ****   if (ret)
 986:Lib/Camera_Middleware/sensors/vd6g/vd6g.c ****     return ret;
 987:Lib/Camera_Middleware/sensors/vd6g/vd6g.c **** 
 988:Lib/Camera_Middleware/sensors/vd6g/vd6g.c ****   ret = VD6G_SetupMirrorFlip(ctx);
 989:Lib/Camera_Middleware/sensors/vd6g/vd6g.c ****   if (ret)
 990:Lib/Camera_Middleware/sensors/vd6g/vd6g.c ****     return ret;
 991:Lib/Camera_Middleware/sensors/vd6g/vd6g.c **** 
 992:Lib/Camera_Middleware/sensors/vd6g/vd6g.c ****   ret = VD6G_SetupPatGen(ctx);
 993:Lib/Camera_Middleware/sensors/vd6g/vd6g.c ****   if (ret)
 994:Lib/Camera_Middleware/sensors/vd6g/vd6g.c ****     return ret;
 995:Lib/Camera_Middleware/sensors/vd6g/vd6g.c **** 
 996:Lib/Camera_Middleware/sensors/vd6g/vd6g.c ****   ret = VD6G_Flicker(ctx);
 997:Lib/Camera_Middleware/sensors/vd6g/vd6g.c ****   if (ret)
 998:Lib/Camera_Middleware/sensors/vd6g/vd6g.c ****     return ret;
 999:Lib/Camera_Middleware/sensors/vd6g/vd6g.c **** 
1000:Lib/Camera_Middleware/sensors/vd6g/vd6g.c ****   return 0;
1001:Lib/Camera_Middleware/sensors/vd6g/vd6g.c **** }
1002:Lib/Camera_Middleware/sensors/vd6g/vd6g.c **** 
1003:Lib/Camera_Middleware/sensors/vd6g/vd6g.c **** static int VD6G_StartStreaming(VD6G_Ctx_t *ctx)
1004:Lib/Camera_Middleware/sensors/vd6g/vd6g.c **** {
1005:Lib/Camera_Middleware/sensors/vd6g/vd6g.c ****   int ret;
1006:Lib/Camera_Middleware/sensors/vd6g/vd6g.c **** 
1007:Lib/Camera_Middleware/sensors/vd6g/vd6g.c ****   ret = ctx->write8(ctx, VD6G_REG_STBY, VD6G_CMD_START_STREAM);
1008:Lib/Camera_Middleware/sensors/vd6g/vd6g.c ****   VD6G_TraceError(ctx, ret);
1009:Lib/Camera_Middleware/sensors/vd6g/vd6g.c **** 
1010:Lib/Camera_Middleware/sensors/vd6g/vd6g.c ****   ret = VD6G_PollReg8(ctx, VD6G_REG_STBY, VD6G_CMD_ACK);
1011:Lib/Camera_Middleware/sensors/vd6g/vd6g.c ****   if (ret)
1012:Lib/Camera_Middleware/sensors/vd6g/vd6g.c ****     return ret;
1013:Lib/Camera_Middleware/sensors/vd6g/vd6g.c **** 
1014:Lib/Camera_Middleware/sensors/vd6g/vd6g.c ****   ret = VD6G_WaitState(ctx, VD6G_SYSTEM_FSM_STREAMING);
1015:Lib/Camera_Middleware/sensors/vd6g/vd6g.c ****   if (ret)
1016:Lib/Camera_Middleware/sensors/vd6g/vd6g.c ****     return ret;
1017:Lib/Camera_Middleware/sensors/vd6g/vd6g.c **** 
1018:Lib/Camera_Middleware/sensors/vd6g/vd6g.c ****   VD6G_notice(ctx, "Streaming is on\n");
1019:Lib/Camera_Middleware/sensors/vd6g/vd6g.c **** 
1020:Lib/Camera_Middleware/sensors/vd6g/vd6g.c ****   return 0;
1021:Lib/Camera_Middleware/sensors/vd6g/vd6g.c **** }
1022:Lib/Camera_Middleware/sensors/vd6g/vd6g.c **** 
1023:Lib/Camera_Middleware/sensors/vd6g/vd6g.c **** static int VD6G_StopStreaming(VD6G_Ctx_t *ctx)
1024:Lib/Camera_Middleware/sensors/vd6g/vd6g.c **** {
1025:Lib/Camera_Middleware/sensors/vd6g/vd6g.c ****   int ret;
1026:Lib/Camera_Middleware/sensors/vd6g/vd6g.c **** 
1027:Lib/Camera_Middleware/sensors/vd6g/vd6g.c ****   ret = ctx->write8(ctx, VD6G_REG_STREAMING, VD6G_CMD_STOP_STREAM);
1028:Lib/Camera_Middleware/sensors/vd6g/vd6g.c ****   VD6G_TraceError(ctx, ret);
1029:Lib/Camera_Middleware/sensors/vd6g/vd6g.c **** 
1030:Lib/Camera_Middleware/sensors/vd6g/vd6g.c ****   ret = VD6G_PollReg8(ctx, VD6G_REG_STREAMING, VD6G_CMD_ACK);
1031:Lib/Camera_Middleware/sensors/vd6g/vd6g.c ****   if (ret)
1032:Lib/Camera_Middleware/sensors/vd6g/vd6g.c ****     return ret;
1033:Lib/Camera_Middleware/sensors/vd6g/vd6g.c **** 
1034:Lib/Camera_Middleware/sensors/vd6g/vd6g.c ****   ret = VD6G_WaitState(ctx, VD6G_SYSTEM_FSM_SW_STBY);
1035:Lib/Camera_Middleware/sensors/vd6g/vd6g.c ****   if (ret)
1036:Lib/Camera_Middleware/sensors/vd6g/vd6g.c ****     return ret;
ARM GAS  /tmp/ccWHsT5O.s 			page 39


1037:Lib/Camera_Middleware/sensors/vd6g/vd6g.c **** 
1038:Lib/Camera_Middleware/sensors/vd6g/vd6g.c ****   VD6G_notice(ctx, "Streaming is off\n");
1039:Lib/Camera_Middleware/sensors/vd6g/vd6g.c **** 
1040:Lib/Camera_Middleware/sensors/vd6g/vd6g.c ****   return 0;
1041:Lib/Camera_Middleware/sensors/vd6g/vd6g.c **** }
1042:Lib/Camera_Middleware/sensors/vd6g/vd6g.c **** 
1043:Lib/Camera_Middleware/sensors/vd6g/vd6g.c **** int VD6G_Init(VD6G_Ctx_t *ctx, VD6G_Config_t *config)
1044:Lib/Camera_Middleware/sensors/vd6g/vd6g.c **** {
 937              		.loc 1 1044 1 is_stmt 1 view -0
 938              		.cfi_startproc
 939              		@ args = 0, pretend = 0, frame = 16
 940              		@ frame_needed = 0, uses_anonymous_args = 0
1045:Lib/Camera_Middleware/sensors/vd6g/vd6g.c ****   struct drv_vd6g_ctx *drv_ctx = &ctx->ctx;
 941              		.loc 1 1045 3 view .LVU200
1046:Lib/Camera_Middleware/sensors/vd6g/vd6g.c ****   int ret;
 942              		.loc 1 1046 3 view .LVU201
1047:Lib/Camera_Middleware/sensors/vd6g/vd6g.c **** 
1048:Lib/Camera_Middleware/sensors/vd6g/vd6g.c ****   if (config->frame_rate < VD6G_MIN_FPS)
 943              		.loc 1 1048 3 view .LVU202
1044:Lib/Camera_Middleware/sensors/vd6g/vd6g.c ****   struct drv_vd6g_ctx *drv_ctx = &ctx->ctx;
 944              		.loc 1 1044 1 is_stmt 0 view .LVU203
 945 0000 2DE9F04F 		push	{r4, r5, r6, r7, r8, r9, r10, fp, lr}
 946              		.cfi_def_cfa_offset 36
 947              		.cfi_offset 4, -36
 948              		.cfi_offset 5, -32
 949              		.cfi_offset 6, -28
 950              		.cfi_offset 7, -24
 951              		.cfi_offset 8, -20
 952              		.cfi_offset 9, -16
 953              		.cfi_offset 10, -12
 954              		.cfi_offset 11, -8
 955              		.cfi_offset 14, -4
 956              		.loc 1 1048 6 view .LVU204
 957 0004 8B68     		ldr	r3, [r1, #8]
1044:Lib/Camera_Middleware/sensors/vd6g/vd6g.c ****   struct drv_vd6g_ctx *drv_ctx = &ctx->ctx;
 958              		.loc 1 1044 1 view .LVU205
 959 0006 0546     		mov	r5, r0
 960              		.loc 1 1048 6 view .LVU206
 961 0008 013B     		subs	r3, r3, #1
 962 000a 572B     		cmp	r3, #87
1044:Lib/Camera_Middleware/sensors/vd6g/vd6g.c ****   struct drv_vd6g_ctx *drv_ctx = &ctx->ctx;
 963              		.loc 1 1044 1 view .LVU207
 964 000c 0C46     		mov	r4, r1
 965 000e 87B0     		sub	sp, sp, #28
 966              		.cfi_def_cfa_offset 64
 967              		.loc 1 1048 6 view .LVU208
 968 0010 42D8     		bhi	.L70
1049:Lib/Camera_Middleware/sensors/vd6g/vd6g.c ****     return -1;
1050:Lib/Camera_Middleware/sensors/vd6g/vd6g.c ****   if (config->frame_rate > VD6G_MAX_FPS)
 969              		.loc 1 1050 3 is_stmt 1 view .LVU209
1051:Lib/Camera_Middleware/sensors/vd6g/vd6g.c ****     return -1;
1052:Lib/Camera_Middleware/sensors/vd6g/vd6g.c **** 
1053:Lib/Camera_Middleware/sensors/vd6g/vd6g.c ****   if ((config->resolution != VD6G_RES_QVGA_320_240) &&
 970              		.loc 1 1053 3 view .LVU210
 971              		.loc 1 1053 6 is_stmt 0 view .LVU211
 972 0012 0B79     		ldrb	r3, [r1, #4]	@ zero_extendqisi2
 973 0014 082B     		cmp	r3, #8
ARM GAS  /tmp/ccWHsT5O.s 			page 40


 974 0016 3FD8     		bhi	.L70
1054:Lib/Camera_Middleware/sensors/vd6g/vd6g.c ****       (config->resolution != VD6G_RES_VGA_640_480) &&
1055:Lib/Camera_Middleware/sensors/vd6g/vd6g.c ****       (config->resolution != VD6G_RES_VGA_PORTRAIT_480_640) &&
1056:Lib/Camera_Middleware/sensors/vd6g/vd6g.c ****       (config->resolution != VD6G_RES_XGA_1024_768) &&
1057:Lib/Camera_Middleware/sensors/vd6g/vd6g.c ****       (config->resolution != VD6G_RES_XGA_PORTRAIT_768_1024) &&
1058:Lib/Camera_Middleware/sensors/vd6g/vd6g.c ****       (config->resolution != VD6G_RES_720P_PORTRAIT_720_1280) &&
1059:Lib/Camera_Middleware/sensors/vd6g/vd6g.c ****       (config->resolution != VD6G_RES_SXGA_PORTRAIT_1024_1280) &&
1060:Lib/Camera_Middleware/sensors/vd6g/vd6g.c ****       (config->resolution != VD6G_RES_PORTRAIT_1120_720) &&
1061:Lib/Camera_Middleware/sensors/vd6g/vd6g.c ****       (config->resolution != VD6G_RES_FULL_1120_1364)) {
1062:Lib/Camera_Middleware/sensors/vd6g/vd6g.c ****     return -1;
1063:Lib/Camera_Middleware/sensors/vd6g/vd6g.c ****   }
1064:Lib/Camera_Middleware/sensors/vd6g/vd6g.c **** 
1065:Lib/Camera_Middleware/sensors/vd6g/vd6g.c ****   if ((config->flip_mirror_mode != VD6G_MIRROR_FLIP_NONE) &&
 975              		.loc 1 1065 3 is_stmt 1 view .LVU212
 976              		.loc 1 1065 6 is_stmt 0 view .LVU213
 977 0018 0B7B     		ldrb	r3, [r1, #12]	@ zero_extendqisi2
 978 001a 032B     		cmp	r3, #3
 979 001c 3CD8     		bhi	.L70
1066:Lib/Camera_Middleware/sensors/vd6g/vd6g.c ****       (config->flip_mirror_mode != VD6G_FLIP) &&
1067:Lib/Camera_Middleware/sensors/vd6g/vd6g.c ****       (config->flip_mirror_mode != VD6G_MIRROR) &&
1068:Lib/Camera_Middleware/sensors/vd6g/vd6g.c ****       (config->flip_mirror_mode != VD6G_MIRROR_FLIP)) {
1069:Lib/Camera_Middleware/sensors/vd6g/vd6g.c ****     return -1;
1070:Lib/Camera_Middleware/sensors/vd6g/vd6g.c ****   }
1071:Lib/Camera_Middleware/sensors/vd6g/vd6g.c **** 
1072:Lib/Camera_Middleware/sensors/vd6g/vd6g.c ****   ctx->shutdown_pin(ctx, 0);
 980              		.loc 1 1072 3 is_stmt 1 view .LVU214
 981 001e 0368     		ldr	r3, [r0]
 982 0020 0021     		movs	r1, #0
 983              	.LVL72:
 984              		.loc 1 1072 3 is_stmt 0 view .LVU215
 985 0022 9847     		blx	r3
 986              	.LVL73:
1073:Lib/Camera_Middleware/sensors/vd6g/vd6g.c ****   ctx->delay(ctx, 10);
 987              		.loc 1 1073 3 is_stmt 1 view .LVU216
 988 0024 0A21     		movs	r1, #10
 989 0026 2846     		mov	r0, r5
 990 0028 2B6A     		ldr	r3, [r5, #32]
 991 002a 9847     		blx	r3
 992              	.LVL74:
1074:Lib/Camera_Middleware/sensors/vd6g/vd6g.c ****   ctx->shutdown_pin(ctx, 1);
 993              		.loc 1 1074 3 view .LVU217
 994 002c 0121     		movs	r1, #1
 995 002e 2846     		mov	r0, r5
 996 0030 2B68     		ldr	r3, [r5]
 997 0032 9847     		blx	r3
 998              	.LVL75:
1075:Lib/Camera_Middleware/sensors/vd6g/vd6g.c ****   ctx->delay(ctx, 10);
 999              		.loc 1 1075 3 view .LVU218
1076:Lib/Camera_Middleware/sensors/vd6g/vd6g.c **** 
1077:Lib/Camera_Middleware/sensors/vd6g/vd6g.c ****   drv_ctx->config_save = *config;
 1000              		.loc 1 1077 24 is_stmt 0 view .LVU219
 1001 0034 05F13006 		add	r6, r5, #48
1075:Lib/Camera_Middleware/sensors/vd6g/vd6g.c ****   ctx->delay(ctx, 10);
 1002              		.loc 1 1075 3 view .LVU220
 1003 0038 0A21     		movs	r1, #10
 1004 003a 2846     		mov	r0, r5
 1005 003c 2B6A     		ldr	r3, [r5, #32]
ARM GAS  /tmp/ccWHsT5O.s 			page 41


 1006 003e 9847     		blx	r3
 1007              	.LVL76:
 1008              		.loc 1 1077 3 is_stmt 1 view .LVU221
 1009              		.loc 1 1077 24 is_stmt 0 view .LVU222
 1010 0040 0FCC     		ldmia	r4!, {r0, r1, r2, r3}
 1011              	.LVL77:
 1012              		.loc 1 1077 24 view .LVU223
 1013 0042 0FC6     		stmia	r6!, {r0, r1, r2, r3}
 1014 0044 0FCC     		ldmia	r4!, {r0, r1, r2, r3}
 1015              	.LVL78:
 1016              		.loc 1 1077 24 view .LVU224
 1017 0046 0FC6     		stmia	r6!, {r0, r1, r2, r3}
 1018 0048 0FCC     		ldmia	r4!, {r0, r1, r2, r3}
 1019              	.LVL79:
 1020              		.loc 1 1077 24 view .LVU225
 1021 004a 0FC6     		stmia	r6!, {r0, r1, r2, r3}
1078:Lib/Camera_Middleware/sensors/vd6g/vd6g.c ****   drv_ctx->is_streaming = 0;
 1022              		.loc 1 1078 25 view .LVU226
 1023 004c 0023     		movs	r3, #0
1077:Lib/Camera_Middleware/sensors/vd6g/vd6g.c ****   drv_ctx->is_streaming = 0;
 1024              		.loc 1 1077 24 view .LVU227
 1025 004e 94E80300 		ldm	r4, {r0, r1}
 1026 0052 86E80300 		stm	r6, {r0, r1}
 1027              		.loc 1 1078 3 is_stmt 1 view .LVU228
 1028              	.LBB36:
 1029              	.LBB37:
 638:Lib/Camera_Middleware/sensors/vd6g/vd6g.c ****   if (ret)
 1030              		.loc 1 638 9 is_stmt 0 view .LVU229
 1031 0056 0121     		movs	r1, #1
 1032 0058 2846     		mov	r0, r5
 1033              	.LBE37:
 1034              	.LBE36:
 1035              		.loc 1 1078 25 view .LVU230
 1036 005a EB62     		str	r3, [r5, #44]
1079:Lib/Camera_Middleware/sensors/vd6g/vd6g.c **** 
1080:Lib/Camera_Middleware/sensors/vd6g/vd6g.c ****   ret = VD6G_Boot(ctx);
 1037              		.loc 1 1080 3 is_stmt 1 view .LVU231
 1038              	.LVL80:
 1039              	.LBB97:
 1040              	.LBI36:
 634:Lib/Camera_Middleware/sensors/vd6g/vd6g.c **** {
 1041              		.loc 1 634 12 view .LVU232
 1042              	.LBB92:
 636:Lib/Camera_Middleware/sensors/vd6g/vd6g.c **** 
 1043              		.loc 1 636 3 view .LVU233
 638:Lib/Camera_Middleware/sensors/vd6g/vd6g.c ****   if (ret)
 1044              		.loc 1 638 3 view .LVU234
 638:Lib/Camera_Middleware/sensors/vd6g/vd6g.c ****   if (ret)
 1045              		.loc 1 638 9 is_stmt 0 view .LVU235
 1046 005c FFF7FEFF 		bl	VD6G_WaitState
 1047              	.LVL81:
 639:Lib/Camera_Middleware/sensors/vd6g/vd6g.c ****     return ret;
 1048              		.loc 1 639 3 is_stmt 1 view .LVU236
 639:Lib/Camera_Middleware/sensors/vd6g/vd6g.c ****     return ret;
 1049              		.loc 1 639 6 is_stmt 0 view .LVU237
 1050 0060 0446     		mov	r4, r0
 1051              	.LVL82:
ARM GAS  /tmp/ccWHsT5O.s 			page 42


 639:Lib/Camera_Middleware/sensors/vd6g/vd6g.c ****     return ret;
 1052              		.loc 1 639 6 view .LVU238
 1053 0062 0028     		cmp	r0, #0
 1054 0064 4ED1     		bne	.L69
 642:Lib/Camera_Middleware/sensors/vd6g/vd6g.c ****   if (ret)
 1055              		.loc 1 642 3 is_stmt 1 view .LVU239
 1056              	.LVL83:
 1057              	.LBB38:
 1058              	.LBI38:
 378:Lib/Camera_Middleware/sensors/vd6g/vd6g.c **** {
 1059              		.loc 1 378 12 view .LVU240
 1060              	.LBB39:
 380:Lib/Camera_Middleware/sensors/vd6g/vd6g.c ****   uint16_t reg16;
 1061              		.loc 1 380 3 view .LVU241
 381:Lib/Camera_Middleware/sensors/vd6g/vd6g.c ****   int ret;
 1062              		.loc 1 381 3 view .LVU242
 382:Lib/Camera_Middleware/sensors/vd6g/vd6g.c **** 
 1063              		.loc 1 382 3 view .LVU243
 384:Lib/Camera_Middleware/sensors/vd6g/vd6g.c ****   VD6G_TraceError(ctx, ret);
 1064              		.loc 1 384 3 view .LVU244
 384:Lib/Camera_Middleware/sensors/vd6g/vd6g.c ****   VD6G_TraceError(ctx, ret);
 1065              		.loc 1 384 9 is_stmt 0 view .LVU245
 1066 0066 03AE     		add	r6, sp, #12
 1067 0068 0146     		mov	r1, r0
 1068 006a 3246     		mov	r2, r6
 1069 006c 2846     		mov	r0, r5
 1070              	.LVL84:
 384:Lib/Camera_Middleware/sensors/vd6g/vd6g.c ****   VD6G_TraceError(ctx, ret);
 1071              		.loc 1 384 9 view .LVU246
 1072 006e AB68     		ldr	r3, [r5, #8]
 1073 0070 9847     		blx	r3
 1074              	.LVL85:
 385:Lib/Camera_Middleware/sensors/vd6g/vd6g.c ****   VD6G_dbg(ctx, 0, "model_id = 0x%04x\n", reg16);
 1075              		.loc 1 385 3 is_stmt 1 view .LVU247
 385:Lib/Camera_Middleware/sensors/vd6g/vd6g.c ****   VD6G_dbg(ctx, 0, "model_id = 0x%04x\n", reg16);
 1076              		.loc 1 385 3 view .LVU248
 1077 0072 0446     		mov	r4, r0
 1078              	.LVL86:
 385:Lib/Camera_Middleware/sensors/vd6g/vd6g.c ****   VD6G_dbg(ctx, 0, "model_id = 0x%04x\n", reg16);
 1079              		.loc 1 385 3 is_stmt 0 view .LVU249
 1080 0074 98B9     		cbnz	r0, .L72
 385:Lib/Camera_Middleware/sensors/vd6g/vd6g.c ****   VD6G_dbg(ctx, 0, "model_id = 0x%04x\n", reg16);
 1081              		.loc 1 385 3 is_stmt 1 discriminator 6 view .LVU250
 385:Lib/Camera_Middleware/sensors/vd6g/vd6g.c ****   VD6G_dbg(ctx, 0, "model_id = 0x%04x\n", reg16);
 1082              		.loc 1 385 3 discriminator 8 view .LVU251
 386:Lib/Camera_Middleware/sensors/vd6g/vd6g.c ****   if (reg16 != VD6G_MODEL_ID) {
 1083              		.loc 1 386 3 view .LVU252
 1084 0076 0146     		mov	r1, r0
 1085 0078 BDF80C30 		ldrh	r3, [sp, #12]
 1086 007c B04A     		ldr	r2, .L191
 1087 007e 2846     		mov	r0, r5
 1088              	.LVL87:
 386:Lib/Camera_Middleware/sensors/vd6g/vd6g.c ****   if (reg16 != VD6G_MODEL_ID) {
 1089              		.loc 1 386 3 is_stmt 0 view .LVU253
 1090 0080 FFF7FEFF 		bl	VD6G_dbg.constprop.0
 1091              	.LVL88:
 387:Lib/Camera_Middleware/sensors/vd6g/vd6g.c ****     VD6G_error(ctx, "Bad model id expected 0x%04x / got 0x%04x\n", VD6G_MODEL_ID, reg16);
ARM GAS  /tmp/ccWHsT5O.s 			page 43


 1092              		.loc 1 387 3 is_stmt 1 view .LVU254
 387:Lib/Camera_Middleware/sensors/vd6g/vd6g.c ****     VD6G_error(ctx, "Bad model id expected 0x%04x / got 0x%04x\n", VD6G_MODEL_ID, reg16);
 1093              		.loc 1 387 6 is_stmt 0 view .LVU255
 1094 0084 45F20362 		movw	r2, #22019
 387:Lib/Camera_Middleware/sensors/vd6g/vd6g.c ****     VD6G_error(ctx, "Bad model id expected 0x%04x / got 0x%04x\n", VD6G_MODEL_ID, reg16);
 1095              		.loc 1 387 13 view .LVU256
 1096 0088 BDF80C30 		ldrh	r3, [sp, #12]
 387:Lib/Camera_Middleware/sensors/vd6g/vd6g.c ****     VD6G_error(ctx, "Bad model id expected 0x%04x / got 0x%04x\n", VD6G_MODEL_ID, reg16);
 1097              		.loc 1 387 6 view .LVU257
 1098 008c 9342     		cmp	r3, r2
 1099 008e 12D0     		beq	.L165
 388:Lib/Camera_Middleware/sensors/vd6g/vd6g.c ****     return -1;
 1100              		.loc 1 388 5 is_stmt 1 view .LVU258
 1101 0090 2846     		mov	r0, r5
 1102 0092 AC49     		ldr	r1, .L191+4
 1103 0094 FFF7FEFF 		bl	VD6G_error
 1104              	.LVL89:
 389:Lib/Camera_Middleware/sensors/vd6g/vd6g.c ****   }
 1105              		.loc 1 389 5 view .LVU259
 389:Lib/Camera_Middleware/sensors/vd6g/vd6g.c ****   }
 1106              		.loc 1 389 5 is_stmt 0 view .LVU260
 1107              	.LBE39:
 1108              	.LBE38:
 643:Lib/Camera_Middleware/sensors/vd6g/vd6g.c ****     return ret;
 1109              		.loc 1 643 3 is_stmt 1 view .LVU261
 1110              	.L70:
 643:Lib/Camera_Middleware/sensors/vd6g/vd6g.c ****     return ret;
 1111              		.loc 1 643 3 is_stmt 0 view .LVU262
 1112              	.LBE92:
 1113              	.LBE97:
 1114              	.LBB98:
 1115              	.LBB99:
 963:Lib/Camera_Middleware/sensors/vd6g/vd6g.c **** 
 1116              		.loc 1 963 12 view .LVU263
 1117 0098 4FF0FF34 		mov	r4, #-1
 1118 009c 32E0     		b	.L69
 1119              	.LVL90:
 1120              	.L72:
 963:Lib/Camera_Middleware/sensors/vd6g/vd6g.c **** 
 1121              		.loc 1 963 12 view .LVU264
 1122              	.LBE99:
 1123              	.LBE98:
 1124              	.LBB121:
 1125              	.LBB93:
 1126              	.LBB44:
 1127              	.LBB40:
 385:Lib/Camera_Middleware/sensors/vd6g/vd6g.c ****   VD6G_dbg(ctx, 0, "model_id = 0x%04x\n", reg16);
 1128              		.loc 1 385 3 is_stmt 1 discriminator 1 view .LVU265
 1129 009e 40F28113 		movw	r3, #385
 1130 00a2 0090     		str	r0, [sp]
 1131              	.L187:
 401:Lib/Camera_Middleware/sensors/vd6g/vd6g.c ****   VD6G_dbg(ctx, 0, "rom = 0x%04x\n", reg16);
 1132              		.loc 1 401 3 is_stmt 0 discriminator 1 view .LVU266
 1133 00a4 A84A     		ldr	r2, .L191+8
 1134              	.LVL91:
 1135              	.L184:
 401:Lib/Camera_Middleware/sensors/vd6g/vd6g.c ****   VD6G_dbg(ctx, 0, "rom = 0x%04x\n", reg16);
ARM GAS  /tmp/ccWHsT5O.s 			page 44


 1136              		.loc 1 401 3 discriminator 1 view .LVU267
 1137              	.LBE40:
 1138              	.LBE44:
 1139              	.LBE93:
 1140              	.LBE121:
 1141              	.LBB122:
 1142              	.LBB118:
 1143              	.LBB100:
 1144              	.LBB101:
 838:Lib/Camera_Middleware/sensors/vd6g/vd6g.c **** 
 1145              		.loc 1 838 3 discriminator 1 view .LVU268
 1146 00a6 2846     		mov	r0, r5
 1147 00a8 A849     		ldr	r1, .L191+12
 1148 00aa FFF7FEFF 		bl	VD6G_error
 1149              	.LVL92:
 838:Lib/Camera_Middleware/sensors/vd6g/vd6g.c **** 
 1150              		.loc 1 838 3 is_stmt 1 discriminator 3 view .LVU269
 838:Lib/Camera_Middleware/sensors/vd6g/vd6g.c **** 
 1151              		.loc 1 838 3 discriminator 4 view .LVU270
 1152 00ae 2846     		mov	r0, r5
 1153 00b0 FFF7FEFF 		bl	display_error
 1154              	.LVL93:
 838:Lib/Camera_Middleware/sensors/vd6g/vd6g.c **** 
 1155              		.loc 1 838 3 discriminator 6 view .LVU271
 838:Lib/Camera_Middleware/sensors/vd6g/vd6g.c **** 
 1156              		.loc 1 838 3 discriminator 7 view .LVU272
 838:Lib/Camera_Middleware/sensors/vd6g/vd6g.c **** 
 1157              		.loc 1 838 3 is_stmt 0 view .LVU273
 1158 00b4 26E0     		b	.L69
 1159              	.LVL94:
 1160              	.L165:
 838:Lib/Camera_Middleware/sensors/vd6g/vd6g.c **** 
 1161              		.loc 1 838 3 view .LVU274
 1162              	.LBE101:
 1163              	.LBE100:
 1164              	.LBE118:
 1165              	.LBE122:
 1166              	.LBB123:
 1167              	.LBB94:
 1168              	.LBB45:
 1169              	.LBB41:
 392:Lib/Camera_Middleware/sensors/vd6g/vd6g.c ****   if (ret)
 1170              		.loc 1 392 3 is_stmt 1 view .LVU275
 392:Lib/Camera_Middleware/sensors/vd6g/vd6g.c ****   if (ret)
 1171              		.loc 1 392 9 is_stmt 0 view .LVU276
 1172 00b6 2846     		mov	r0, r5
 1173 00b8 0DF10B01 		add	r1, sp, #11
 1174 00bc FFF7FEFF 		bl	VD6G_GetTopDie
 1175              	.LVL95:
 393:Lib/Camera_Middleware/sensors/vd6g/vd6g.c ****     return ret;
 1176              		.loc 1 393 3 is_stmt 1 view .LVU277
 393:Lib/Camera_Middleware/sensors/vd6g/vd6g.c ****     return ret;
 1177              		.loc 1 393 6 is_stmt 0 view .LVU278
 1178 00c0 0446     		mov	r4, r0
 1179 00c2 F8B9     		cbnz	r0, .L69
 395:Lib/Camera_Middleware/sensors/vd6g/vd6g.c ****     VD6G_error(ctx, "Unsupported revision\n");
 1180              		.loc 1 395 3 is_stmt 1 view .LVU279
ARM GAS  /tmp/ccWHsT5O.s 			page 45


 395:Lib/Camera_Middleware/sensors/vd6g/vd6g.c ****     VD6G_error(ctx, "Unsupported revision\n");
 1181              		.loc 1 395 15 is_stmt 0 view .LVU280
 1182 00c4 9DF80B30 		ldrb	r3, [sp, #11]	@ zero_extendqisi2
 395:Lib/Camera_Middleware/sensors/vd6g/vd6g.c ****     VD6G_error(ctx, "Unsupported revision\n");
 1183              		.loc 1 395 6 view .LVU281
 1184 00c8 202B     		cmp	r3, #32
 1185 00ca 06D0     		beq	.L76
 395:Lib/Camera_Middleware/sensors/vd6g/vd6g.c ****     VD6G_error(ctx, "Unsupported revision\n");
 1186              		.loc 1 395 41 discriminator 1 view .LVU282
 1187 00cc 312B     		cmp	r3, #49
 1188 00ce 04D0     		beq	.L76
 396:Lib/Camera_Middleware/sensors/vd6g/vd6g.c ****     return -1;
 1189              		.loc 1 396 5 is_stmt 1 view .LVU283
 1190 00d0 9F49     		ldr	r1, .L191+16
 1191              	.LVL96:
 1192              	.L183:
 396:Lib/Camera_Middleware/sensors/vd6g/vd6g.c ****     return -1;
 1193              		.loc 1 396 5 is_stmt 0 view .LVU284
 1194              	.LBE41:
 1195              	.LBE45:
 1196              	.LBE94:
 1197              	.LBE123:
 1198              	.LBB124:
 1199              	.LBB119:
 1200              	.LBB104:
 1201              	.LBB105:
 1202              	.LBB106:
 1203              	.LBB107:
 675:Lib/Camera_Middleware/sensors/vd6g/vd6g.c ****     return -1;
 1204              		.loc 1 675 5 view .LVU285
 1205 00d2 2846     		mov	r0, r5
 1206 00d4 FFF7FEFF 		bl	VD6G_error
 1207              	.LVL97:
 676:Lib/Camera_Middleware/sensors/vd6g/vd6g.c ****   }
 1208              		.loc 1 676 5 is_stmt 1 view .LVU286
 676:Lib/Camera_Middleware/sensors/vd6g/vd6g.c ****   }
 1209              		.loc 1 676 5 is_stmt 0 view .LVU287
 1210              	.LBE107:
 1211              	.LBE106:
 704:Lib/Camera_Middleware/sensors/vd6g/vd6g.c ****     return ret;
 1212              		.loc 1 704 3 is_stmt 1 view .LVU288
 1213 00d8 DEE7     		b	.L70
 1214              	.LVL98:
 1215              	.L76:
 704:Lib/Camera_Middleware/sensors/vd6g/vd6g.c ****     return ret;
 1216              		.loc 1 704 3 is_stmt 0 view .LVU289
 1217              	.LBE105:
 1218              	.LBE104:
 1219              	.LBE119:
 1220              	.LBE124:
 1221              	.LBB125:
 1222              	.LBB95:
 1223              	.LBB46:
 1224              	.LBB42:
 400:Lib/Camera_Middleware/sensors/vd6g/vd6g.c ****   VD6G_TraceError(ctx, ret);
 1225              		.loc 1 400 3 is_stmt 1 view .LVU290
 400:Lib/Camera_Middleware/sensors/vd6g/vd6g.c ****   VD6G_TraceError(ctx, ret);
ARM GAS  /tmp/ccWHsT5O.s 			page 46


 1226              		.loc 1 400 9 is_stmt 0 view .LVU291
 1227 00da 3246     		mov	r2, r6
 1228 00dc 1421     		movs	r1, #20
 1229 00de 2846     		mov	r0, r5
 1230              	.LVL99:
 400:Lib/Camera_Middleware/sensors/vd6g/vd6g.c ****   VD6G_TraceError(ctx, ret);
 1231              		.loc 1 400 9 view .LVU292
 1232 00e0 AB68     		ldr	r3, [r5, #8]
 1233 00e2 9847     		blx	r3
 1234              	.LVL100:
 401:Lib/Camera_Middleware/sensors/vd6g/vd6g.c ****   VD6G_dbg(ctx, 0, "rom = 0x%04x\n", reg16);
 1235              		.loc 1 401 3 is_stmt 1 view .LVU293
 401:Lib/Camera_Middleware/sensors/vd6g/vd6g.c ****   VD6G_dbg(ctx, 0, "rom = 0x%04x\n", reg16);
 1236              		.loc 1 401 3 view .LVU294
 1237 00e4 0446     		mov	r4, r0
 1238 00e6 88B9     		cbnz	r0, .L77
 401:Lib/Camera_Middleware/sensors/vd6g/vd6g.c ****   VD6G_dbg(ctx, 0, "rom = 0x%04x\n", reg16);
 1239              		.loc 1 401 3 discriminator 3 view .LVU295
 401:Lib/Camera_Middleware/sensors/vd6g/vd6g.c ****   VD6G_dbg(ctx, 0, "rom = 0x%04x\n", reg16);
 1240              		.loc 1 401 3 discriminator 6 view .LVU296
 401:Lib/Camera_Middleware/sensors/vd6g/vd6g.c ****   VD6G_dbg(ctx, 0, "rom = 0x%04x\n", reg16);
 1241              		.loc 1 401 3 discriminator 8 view .LVU297
 402:Lib/Camera_Middleware/sensors/vd6g/vd6g.c **** 
 1242              		.loc 1 402 3 view .LVU298
 1243 00e8 0146     		mov	r1, r0
 1244 00ea BDF80C30 		ldrh	r3, [sp, #12]
 1245 00ee 2846     		mov	r0, r5
 1246              	.LVL101:
 402:Lib/Camera_Middleware/sensors/vd6g/vd6g.c **** 
 1247              		.loc 1 402 3 is_stmt 0 view .LVU299
 1248 00f0 984A     		ldr	r2, .L191+20
 1249 00f2 FFF7FEFF 		bl	VD6G_dbg.constprop.0
 1250              	.LVL102:
 404:Lib/Camera_Middleware/sensors/vd6g/vd6g.c **** }
 1251              		.loc 1 404 3 is_stmt 1 view .LVU300
 404:Lib/Camera_Middleware/sensors/vd6g/vd6g.c **** }
 1252              		.loc 1 404 3 is_stmt 0 view .LVU301
 1253              	.LBE42:
 1254              	.LBE46:
 643:Lib/Camera_Middleware/sensors/vd6g/vd6g.c ****     return ret;
 1255              		.loc 1 643 3 is_stmt 1 view .LVU302
 646:Lib/Camera_Middleware/sensors/vd6g/vd6g.c ****   if (ret)
 1256              		.loc 1 646 3 view .LVU303
 1257              	.LBB47:
 1258              	.LBI47:
 441:Lib/Camera_Middleware/sensors/vd6g/vd6g.c **** {
 1259              		.loc 1 441 12 view .LVU304
 1260              	.LBB48:
 443:Lib/Camera_Middleware/sensors/vd6g/vd6g.c ****   int ret;
 1261              		.loc 1 443 3 view .LVU305
 444:Lib/Camera_Middleware/sensors/vd6g/vd6g.c **** 
 1262              		.loc 1 444 3 view .LVU306
 446:Lib/Camera_Middleware/sensors/vd6g/vd6g.c ****   if (ret)
 1263              		.loc 1 446 3 view .LVU307
 446:Lib/Camera_Middleware/sensors/vd6g/vd6g.c ****   if (ret)
 1264              		.loc 1 446 9 is_stmt 0 view .LVU308
 1265 00f6 2846     		mov	r0, r5
ARM GAS  /tmp/ccWHsT5O.s 			page 47


 1266 00f8 0DF10B01 		add	r1, sp, #11
 1267 00fc FFF7FEFF 		bl	VD6G_GetTopDie
 1268              	.LVL103:
 447:Lib/Camera_Middleware/sensors/vd6g/vd6g.c ****     return ret;
 1269              		.loc 1 447 3 is_stmt 1 view .LVU309
 447:Lib/Camera_Middleware/sensors/vd6g/vd6g.c ****     return ret;
 1270              		.loc 1 447 6 is_stmt 0 view .LVU310
 1271 0100 0446     		mov	r4, r0
 1272 0102 38B1     		cbz	r0, .L166
 1273              	.LVL104:
 1274              	.L69:
 447:Lib/Camera_Middleware/sensors/vd6g/vd6g.c ****     return ret;
 1275              		.loc 1 447 6 view .LVU311
 1276              	.LBE48:
 1277              	.LBE47:
 1278              	.LBE95:
 1279              	.LBE125:
1081:Lib/Camera_Middleware/sensors/vd6g/vd6g.c ****   if (ret)
1082:Lib/Camera_Middleware/sensors/vd6g/vd6g.c ****     return ret;
1083:Lib/Camera_Middleware/sensors/vd6g/vd6g.c **** 
1084:Lib/Camera_Middleware/sensors/vd6g/vd6g.c ****   ret = VD6G_SetupEarly(ctx);
1085:Lib/Camera_Middleware/sensors/vd6g/vd6g.c ****   if (ret)
1086:Lib/Camera_Middleware/sensors/vd6g/vd6g.c ****     return ret;
1087:Lib/Camera_Middleware/sensors/vd6g/vd6g.c **** 
1088:Lib/Camera_Middleware/sensors/vd6g/vd6g.c ****   return 0;
1089:Lib/Camera_Middleware/sensors/vd6g/vd6g.c **** }
 1280              		.loc 1 1089 1 view .LVU312
 1281 0104 2046     		mov	r0, r4
 1282 0106 07B0     		add	sp, sp, #28
 1283              		.cfi_remember_state
 1284              		.cfi_def_cfa_offset 36
 1285              		@ sp needed
 1286 0108 BDE8F08F 		pop	{r4, r5, r6, r7, r8, r9, r10, fp, pc}
 1287              	.LVL105:
 1288              	.L77:
 1289              		.cfi_restore_state
 1290              	.LBB126:
 1291              	.LBB96:
 1292              	.LBB56:
 1293              	.LBB43:
 401:Lib/Camera_Middleware/sensors/vd6g/vd6g.c ****   VD6G_dbg(ctx, 0, "rom = 0x%04x\n", reg16);
 1294              		.loc 1 401 3 is_stmt 1 discriminator 1 view .LVU313
 1295 010c 40F29113 		movw	r3, #401
 1296 0110 0090     		str	r0, [sp]
 1297 0112 C7E7     		b	.L187
 1298              	.LVL106:
 1299              	.L166:
 401:Lib/Camera_Middleware/sensors/vd6g/vd6g.c ****   VD6G_dbg(ctx, 0, "rom = 0x%04x\n", reg16);
 1300              		.loc 1 401 3 is_stmt 0 discriminator 1 view .LVU314
 1301              	.LBE43:
 1302              	.LBE56:
 1303              	.LBB57:
 1304              	.LBB53:
 450:Lib/Camera_Middleware/sensors/vd6g/vd6g.c ****   case VD6G_TOP_DIE_SLOW_BOOT:
 1305              		.loc 1 450 3 is_stmt 1 view .LVU315
 1306 0114 9DF80B30 		ldrb	r3, [sp, #11]	@ zero_extendqisi2
 1307 0118 202B     		cmp	r3, #32
ARM GAS  /tmp/ccWHsT5O.s 			page 48


 1308 011a 08D0     		beq	.L80
 1309 011c 312B     		cmp	r3, #49
 1310 011e 52D0     		beq	.L81
 458:Lib/Camera_Middleware/sensors/vd6g/vd6g.c ****   }
 1311              		.loc 1 458 5 view .LVU316
 1312 0120 4FF4E571 		mov	r1, #458
 1313 0124 8C4B     		ldr	r3, .L191+24
 1314 0126 8D4A     		ldr	r2, .L191+28
 1315              	.LVL107:
 1316              	.L186:
 458:Lib/Camera_Middleware/sensors/vd6g/vd6g.c ****   }
 1317              		.loc 1 458 5 is_stmt 0 view .LVU317
 1318              	.LBE53:
 1319              	.LBE57:
 1320              	.LBB58:
 1321              	.LBB59:
 564:Lib/Camera_Middleware/sensors/vd6g/vd6g.c ****   }
 1322              		.loc 1 564 5 view .LVU318
 1323 0128 8D48     		ldr	r0, .L191+32
 1324 012a FFF7FEFF 		bl	__assert_func
 1325              	.LVL108:
 1326              	.L80:
 564:Lib/Camera_Middleware/sensors/vd6g/vd6g.c ****   }
 1327              		.loc 1 564 5 view .LVU319
 1328              	.LBE59:
 1329              	.LBE58:
 1330              	.LBB69:
 1331              	.LBB54:
 452:Lib/Camera_Middleware/sensors/vd6g/vd6g.c ****     break;
 1332              		.loc 1 452 5 is_stmt 1 view .LVU320
 1333              	.LBB49:
 1334              	.LBI49:
 407:Lib/Camera_Middleware/sensors/vd6g/vd6g.c **** {
 1335              		.loc 1 407 12 view .LVU321
 1336              	.LBB50:
 409:Lib/Camera_Middleware/sensors/vd6g/vd6g.c ****   uint8_t patch_minor;
 1337              		.loc 1 409 3 view .LVU322
 410:Lib/Camera_Middleware/sensors/vd6g/vd6g.c ****   uint16_t reg16;
 1338              		.loc 1 410 3 view .LVU323
 411:Lib/Camera_Middleware/sensors/vd6g/vd6g.c ****   int ret;
 1339              		.loc 1 411 3 view .LVU324
 412:Lib/Camera_Middleware/sensors/vd6g/vd6g.c **** 
 1340              		.loc 1 412 3 view .LVU325
 414:Lib/Camera_Middleware/sensors/vd6g/vd6g.c ****   patch_minor = patch_cut2[2];
 1341              		.loc 1 414 3 view .LVU326
 415:Lib/Camera_Middleware/sensors/vd6g/vd6g.c **** 
 1342              		.loc 1 415 3 view .LVU327
 417:Lib/Camera_Middleware/sensors/vd6g/vd6g.c ****   VD6G_TraceError(ctx, ret);
 1343              		.loc 1 417 3 view .LVU328
 417:Lib/Camera_Middleware/sensors/vd6g/vd6g.c ****   VD6G_TraceError(ctx, ret);
 1344              		.loc 1 417 9 is_stmt 0 view .LVU329
 1345 012e EC69     		ldr	r4, [r5, #28]
 1346 0130 42F6F823 		movw	r3, #11000
 1347 0134 4FF40051 		mov	r1, #8192
 1348 0138 2846     		mov	r0, r5
 1349              	.LVL109:
 417:Lib/Camera_Middleware/sensors/vd6g/vd6g.c ****   VD6G_TraceError(ctx, ret);
ARM GAS  /tmp/ccWHsT5O.s 			page 49


 1350              		.loc 1 417 9 view .LVU330
 1351 013a 8A4A     		ldr	r2, .L191+36
 1352 013c A047     		blx	r4
 1353              	.LVL110:
 418:Lib/Camera_Middleware/sensors/vd6g/vd6g.c **** 
 1354              		.loc 1 418 3 is_stmt 1 view .LVU331
 418:Lib/Camera_Middleware/sensors/vd6g/vd6g.c **** 
 1355              		.loc 1 418 3 view .LVU332
 1356 013e 0446     		mov	r4, r0
 1357 0140 20B1     		cbz	r0, .L83
 418:Lib/Camera_Middleware/sensors/vd6g/vd6g.c **** 
 1358              		.loc 1 418 3 discriminator 1 view .LVU333
 1359 0142 4FF4D173 		mov	r3, #418
 1360 0146 0090     		str	r0, [sp]
 1361              	.L190:
 428:Lib/Camera_Middleware/sensors/vd6g/vd6g.c ****   VD6G_dbg(ctx, 0, "patch = 0x%04x\n", reg16);
 1362              		.loc 1 428 3 is_stmt 0 discriminator 1 view .LVU334
 1363 0148 874A     		ldr	r2, .L191+40
 1364 014a ACE7     		b	.L184
 1365              	.L83:
 418:Lib/Camera_Middleware/sensors/vd6g/vd6g.c **** 
 1366              		.loc 1 418 3 is_stmt 1 discriminator 6 view .LVU335
 418:Lib/Camera_Middleware/sensors/vd6g/vd6g.c **** 
 1367              		.loc 1 418 3 discriminator 8 view .LVU336
 420:Lib/Camera_Middleware/sensors/vd6g/vd6g.c ****   VD6G_TraceError(ctx, ret);
 1368              		.loc 1 420 3 view .LVU337
 420:Lib/Camera_Middleware/sensors/vd6g/vd6g.c ****   VD6G_TraceError(ctx, ret);
 1369              		.loc 1 420 9 is_stmt 0 view .LVU338
 1370 014c 0222     		movs	r2, #2
 1371 014e 4FF40071 		mov	r1, #512
 1372 0152 2846     		mov	r0, r5
 1373              	.LVL111:
 420:Lib/Camera_Middleware/sensors/vd6g/vd6g.c ****   VD6G_TraceError(ctx, ret);
 1374              		.loc 1 420 9 view .LVU339
 1375 0154 2B69     		ldr	r3, [r5, #16]
 1376 0156 9847     		blx	r3
 1377              	.LVL112:
 421:Lib/Camera_Middleware/sensors/vd6g/vd6g.c **** 
 1378              		.loc 1 421 3 is_stmt 1 view .LVU340
 421:Lib/Camera_Middleware/sensors/vd6g/vd6g.c **** 
 1379              		.loc 1 421 3 view .LVU341
 1380 0158 0446     		mov	r4, r0
 1381 015a 30BB     		cbnz	r0, .L84
 421:Lib/Camera_Middleware/sensors/vd6g/vd6g.c **** 
 1382              		.loc 1 421 3 discriminator 3 view .LVU342
 421:Lib/Camera_Middleware/sensors/vd6g/vd6g.c **** 
 1383              		.loc 1 421 3 discriminator 6 view .LVU343
 421:Lib/Camera_Middleware/sensors/vd6g/vd6g.c **** 
 1384              		.loc 1 421 3 discriminator 8 view .LVU344
 423:Lib/Camera_Middleware/sensors/vd6g/vd6g.c ****   if (ret)
 1385              		.loc 1 423 3 view .LVU345
 423:Lib/Camera_Middleware/sensors/vd6g/vd6g.c ****   if (ret)
 1386              		.loc 1 423 9 is_stmt 0 view .LVU346
 1387 015c 0246     		mov	r2, r0
 1388 015e 4FF40071 		mov	r1, #512
 1389 0162 2846     		mov	r0, r5
 1390              	.LVL113:
ARM GAS  /tmp/ccWHsT5O.s 			page 50


 423:Lib/Camera_Middleware/sensors/vd6g/vd6g.c ****   if (ret)
 1391              		.loc 1 423 9 view .LVU347
 1392 0164 FFF7FEFF 		bl	VD6G_PollReg8
 1393              	.LVL114:
 424:Lib/Camera_Middleware/sensors/vd6g/vd6g.c ****     return ret;
 1394              		.loc 1 424 3 is_stmt 1 view .LVU348
 424:Lib/Camera_Middleware/sensors/vd6g/vd6g.c ****     return ret;
 1395              		.loc 1 424 6 is_stmt 0 view .LVU349
 1396 0168 0446     		mov	r4, r0
 1397 016a 0028     		cmp	r0, #0
 1398 016c CAD1     		bne	.L69
 427:Lib/Camera_Middleware/sensors/vd6g/vd6g.c ****   VD6G_TraceError(ctx, ret);
 1399              		.loc 1 427 3 is_stmt 1 view .LVU350
 427:Lib/Camera_Middleware/sensors/vd6g/vd6g.c ****   VD6G_TraceError(ctx, ret);
 1400              		.loc 1 427 9 is_stmt 0 view .LVU351
 1401 016e 3246     		mov	r2, r6
 1402 0170 1E21     		movs	r1, #30
 1403 0172 2846     		mov	r0, r5
 1404              	.LVL115:
 427:Lib/Camera_Middleware/sensors/vd6g/vd6g.c ****   VD6G_TraceError(ctx, ret);
 1405              		.loc 1 427 9 view .LVU352
 1406 0174 AB68     		ldr	r3, [r5, #8]
 1407 0176 9847     		blx	r3
 1408              	.LVL116:
 428:Lib/Camera_Middleware/sensors/vd6g/vd6g.c ****   VD6G_dbg(ctx, 0, "patch = 0x%04x\n", reg16);
 1409              		.loc 1 428 3 is_stmt 1 view .LVU353
 428:Lib/Camera_Middleware/sensors/vd6g/vd6g.c ****   VD6G_dbg(ctx, 0, "patch = 0x%04x\n", reg16);
 1410              		.loc 1 428 3 view .LVU354
 1411 0178 0446     		mov	r4, r0
 1412 017a D0B9     		cbnz	r0, .L87
 428:Lib/Camera_Middleware/sensors/vd6g/vd6g.c ****   VD6G_dbg(ctx, 0, "patch = 0x%04x\n", reg16);
 1413              		.loc 1 428 3 discriminator 3 view .LVU355
 428:Lib/Camera_Middleware/sensors/vd6g/vd6g.c ****   VD6G_dbg(ctx, 0, "patch = 0x%04x\n", reg16);
 1414              		.loc 1 428 3 discriminator 6 view .LVU356
 428:Lib/Camera_Middleware/sensors/vd6g/vd6g.c ****   VD6G_dbg(ctx, 0, "patch = 0x%04x\n", reg16);
 1415              		.loc 1 428 3 discriminator 8 view .LVU357
 429:Lib/Camera_Middleware/sensors/vd6g/vd6g.c **** 
 1416              		.loc 1 429 3 view .LVU358
 1417 017c 0146     		mov	r1, r0
 1418 017e BDF80C30 		ldrh	r3, [sp, #12]
 1419 0182 2846     		mov	r0, r5
 1420              	.LVL117:
 429:Lib/Camera_Middleware/sensors/vd6g/vd6g.c **** 
 1421              		.loc 1 429 3 is_stmt 0 view .LVU359
 1422 0184 794A     		ldr	r2, .L191+44
 1423 0186 FFF7FEFF 		bl	VD6G_dbg.constprop.0
 1424              	.LVL118:
 431:Lib/Camera_Middleware/sensors/vd6g/vd6g.c ****     VD6G_error(ctx, "bad patch version expected %d.%d got %d.%d\n", patch_major, patch_minor,
 1425              		.loc 1 431 3 is_stmt 1 view .LVU360
 431:Lib/Camera_Middleware/sensors/vd6g/vd6g.c ****     VD6G_error(ctx, "bad patch version expected %d.%d got %d.%d\n", patch_major, patch_minor,
 1426              		.loc 1 431 13 is_stmt 0 view .LVU361
 1427 018a BDF80C30 		ldrh	r3, [sp, #12]
 431:Lib/Camera_Middleware/sensors/vd6g/vd6g.c ****     VD6G_error(ctx, "bad patch version expected %d.%d got %d.%d\n", patch_major, patch_minor,
 1428              		.loc 1 431 6 view .LVU362
 1429 018e B3F5077F 		cmp	r3, #540
 1430 0192 12D0     		beq	.L169
 432:Lib/Camera_Middleware/sensors/vd6g/vd6g.c ****                  reg16 >> 8, reg16 & 0xff);
ARM GAS  /tmp/ccWHsT5O.s 			page 51


 1431              		.loc 1 432 5 is_stmt 1 view .LVU363
 1432 0194 DAB2     		uxtb	r2, r3
 1433 0196 1B0A     		lsrs	r3, r3, #8
 1434 0198 0192     		str	r2, [sp, #4]
 1435 019a 0093     		str	r3, [sp]
 1436 019c 0222     		movs	r2, #2
 1437 019e 1C23     		movs	r3, #28
 1438 01a0 7349     		ldr	r1, .L191+48
 1439              	.LVL119:
 1440              	.L182:
 432:Lib/Camera_Middleware/sensors/vd6g/vd6g.c ****                  reg16 >> 8, reg16 & 0xff);
 1441              		.loc 1 432 5 is_stmt 0 view .LVU364
 1442              	.LBE50:
 1443              	.LBE49:
 1444              	.LBE54:
 1445              	.LBE69:
 1446              	.LBB70:
 1447              	.LBB66:
 1448              	.LBB60:
 1449              	.LBB61:
 538:Lib/Camera_Middleware/sensors/vd6g/vd6g.c ****                  cur_vtpatch_gr_rev, cur_vtpatch_gt_rev);
 1450              		.loc 1 538 5 view .LVU365
 1451 01a2 2846     		mov	r0, r5
 1452 01a4 FFF7FEFF 		bl	VD6G_error
 1453              	.LVL120:
 540:Lib/Camera_Middleware/sensors/vd6g/vd6g.c ****   }
 1454              		.loc 1 540 5 is_stmt 1 view .LVU366
 540:Lib/Camera_Middleware/sensors/vd6g/vd6g.c ****   }
 1455              		.loc 1 540 5 is_stmt 0 view .LVU367
 1456              	.LBE61:
 1457              	.LBE60:
 559:Lib/Camera_Middleware/sensors/vd6g/vd6g.c ****   case VD6G_TOP_DIE_FAST_BOOT:
 1458              		.loc 1 559 5 is_stmt 1 view .LVU368
 559:Lib/Camera_Middleware/sensors/vd6g/vd6g.c ****   case VD6G_TOP_DIE_FAST_BOOT:
 1459              		.loc 1 559 5 is_stmt 0 view .LVU369
 1460              	.LBE66:
 1461              	.LBE70:
 655:Lib/Camera_Middleware/sensors/vd6g/vd6g.c ****     return ret;
 1462              		.loc 1 655 3 is_stmt 1 view .LVU370
 1463 01a8 76E7     		b	.L70
 1464              	.LVL121:
 1465              	.L84:
 1466              	.LBB71:
 1467              	.LBB55:
 1468              	.LBB52:
 1469              	.LBB51:
 421:Lib/Camera_Middleware/sensors/vd6g/vd6g.c **** 
 1470              		.loc 1 421 3 discriminator 1 view .LVU371
 1471 01aa 40F2A513 		movw	r3, #421
 1472 01ae 0090     		str	r0, [sp]
 1473 01b0 CAE7     		b	.L190
 1474              	.L87:
 428:Lib/Camera_Middleware/sensors/vd6g/vd6g.c ****   VD6G_dbg(ctx, 0, "patch = 0x%04x\n", reg16);
 1475              		.loc 1 428 3 discriminator 1 view .LVU372
 1476 01b2 4FF4D673 		mov	r3, #428
 1477 01b6 0090     		str	r0, [sp]
 1478 01b8 C6E7     		b	.L190
ARM GAS  /tmp/ccWHsT5O.s 			page 52


 1479              	.LVL122:
 1480              	.L169:
 436:Lib/Camera_Middleware/sensors/vd6g/vd6g.c **** 
 1481              		.loc 1 436 3 view .LVU373
 1482 01ba 1C23     		movs	r3, #28
 1483 01bc 0222     		movs	r2, #2
 1484 01be 2846     		mov	r0, r5
 1485 01c0 6C49     		ldr	r1, .L191+52
 1486 01c2 FFF7FEFF 		bl	VD6G_notice
 1487              	.LVL123:
 438:Lib/Camera_Middleware/sensors/vd6g/vd6g.c **** }
 1488              		.loc 1 438 3 view .LVU374
 438:Lib/Camera_Middleware/sensors/vd6g/vd6g.c **** }
 1489              		.loc 1 438 3 is_stmt 0 view .LVU375
 1490              	.LBE51:
 1491              	.LBE52:
 453:Lib/Camera_Middleware/sensors/vd6g/vd6g.c ****   case VD6G_TOP_DIE_FAST_BOOT:
 1492              		.loc 1 453 5 is_stmt 1 view .LVU376
 453:Lib/Camera_Middleware/sensors/vd6g/vd6g.c ****   case VD6G_TOP_DIE_FAST_BOOT:
 1493              		.loc 1 453 5 is_stmt 0 view .LVU377
 1494              	.LBE55:
 1495              	.LBE71:
 647:Lib/Camera_Middleware/sensors/vd6g/vd6g.c ****     return ret;
 1496              		.loc 1 647 3 is_stmt 1 view .LVU378
 1497              	.L81:
 650:Lib/Camera_Middleware/sensors/vd6g/vd6g.c ****   if (ret)
 1498              		.loc 1 650 3 view .LVU379
 1499              	.LBB72:
 1500              	.LBI72:
 464:Lib/Camera_Middleware/sensors/vd6g/vd6g.c **** {
 1501              		.loc 1 464 12 view .LVU380
 1502              	.LBB73:
 466:Lib/Camera_Middleware/sensors/vd6g/vd6g.c **** 
 1503              		.loc 1 466 3 view .LVU381
 468:Lib/Camera_Middleware/sensors/vd6g/vd6g.c ****   VD6G_TraceError(ctx, ret);
 1504              		.loc 1 468 3 view .LVU382
 468:Lib/Camera_Middleware/sensors/vd6g/vd6g.c ****   VD6G_TraceError(ctx, ret);
 1505              		.loc 1 468 9 is_stmt 0 view .LVU383
 1506 01c6 0122     		movs	r2, #1
 1507 01c8 4FF40071 		mov	r1, #512
 1508 01cc 2846     		mov	r0, r5
 1509 01ce 2B69     		ldr	r3, [r5, #16]
 1510 01d0 9847     		blx	r3
 1511              	.LVL124:
 469:Lib/Camera_Middleware/sensors/vd6g/vd6g.c **** 
 1512              		.loc 1 469 3 is_stmt 1 view .LVU384
 469:Lib/Camera_Middleware/sensors/vd6g/vd6g.c **** 
 1513              		.loc 1 469 3 view .LVU385
 1514 01d2 0446     		mov	r4, r0
 1515 01d4 20B1     		cbz	r0, .L90
 469:Lib/Camera_Middleware/sensors/vd6g/vd6g.c **** 
 1516              		.loc 1 469 3 discriminator 1 view .LVU386
 1517 01d6 40F2D513 		movw	r3, #469
 1518 01da 674A     		ldr	r2, .L191+56
 1519 01dc 0090     		str	r0, [sp]
 1520 01de 62E7     		b	.L184
 1521              	.L90:
ARM GAS  /tmp/ccWHsT5O.s 			page 53


 469:Lib/Camera_Middleware/sensors/vd6g/vd6g.c **** 
 1522              		.loc 1 469 3 discriminator 6 view .LVU387
 469:Lib/Camera_Middleware/sensors/vd6g/vd6g.c **** 
 1523              		.loc 1 469 3 discriminator 8 view .LVU388
 471:Lib/Camera_Middleware/sensors/vd6g/vd6g.c ****   if (ret)
 1524              		.loc 1 471 3 view .LVU389
 471:Lib/Camera_Middleware/sensors/vd6g/vd6g.c ****   if (ret)
 1525              		.loc 1 471 9 is_stmt 0 view .LVU390
 1526 01e0 0246     		mov	r2, r0
 1527 01e2 4FF40071 		mov	r1, #512
 1528 01e6 2846     		mov	r0, r5
 1529              	.LVL125:
 471:Lib/Camera_Middleware/sensors/vd6g/vd6g.c ****   if (ret)
 1530              		.loc 1 471 9 view .LVU391
 1531 01e8 FFF7FEFF 		bl	VD6G_PollReg8
 1532              	.LVL126:
 472:Lib/Camera_Middleware/sensors/vd6g/vd6g.c ****     return ret;
 1533              		.loc 1 472 3 is_stmt 1 view .LVU392
 472:Lib/Camera_Middleware/sensors/vd6g/vd6g.c ****     return ret;
 1534              		.loc 1 472 6 is_stmt 0 view .LVU393
 1535 01ec 0446     		mov	r4, r0
 1536 01ee 0028     		cmp	r0, #0
 1537 01f0 88D1     		bne	.L69
 475:Lib/Camera_Middleware/sensors/vd6g/vd6g.c ****   if (ret)
 1538              		.loc 1 475 3 is_stmt 1 view .LVU394
 475:Lib/Camera_Middleware/sensors/vd6g/vd6g.c ****   if (ret)
 1539              		.loc 1 475 9 is_stmt 0 view .LVU395
 1540 01f2 0221     		movs	r1, #2
 1541 01f4 2846     		mov	r0, r5
 1542              	.LVL127:
 475:Lib/Camera_Middleware/sensors/vd6g/vd6g.c ****   if (ret)
 1543              		.loc 1 475 9 view .LVU396
 1544 01f6 FFF7FEFF 		bl	VD6G_WaitState
 1545              	.LVL128:
 476:Lib/Camera_Middleware/sensors/vd6g/vd6g.c ****     return ret;
 1546              		.loc 1 476 3 is_stmt 1 view .LVU397
 476:Lib/Camera_Middleware/sensors/vd6g/vd6g.c ****     return ret;
 1547              		.loc 1 476 6 is_stmt 0 view .LVU398
 1548 01fa 0446     		mov	r4, r0
 1549 01fc 0028     		cmp	r0, #0
 1550 01fe 81D1     		bne	.L69
 479:Lib/Camera_Middleware/sensors/vd6g/vd6g.c **** 
 1551              		.loc 1 479 3 is_stmt 1 view .LVU399
 1552 0200 2846     		mov	r0, r5
 1553              	.LVL129:
 479:Lib/Camera_Middleware/sensors/vd6g/vd6g.c **** 
 1554              		.loc 1 479 3 is_stmt 0 view .LVU400
 1555 0202 5E49     		ldr	r1, .L191+60
 1556 0204 FFF7FEFF 		bl	VD6G_notice
 1557              	.LVL130:
 481:Lib/Camera_Middleware/sensors/vd6g/vd6g.c **** }
 1558              		.loc 1 481 3 is_stmt 1 view .LVU401
 481:Lib/Camera_Middleware/sensors/vd6g/vd6g.c **** }
 1559              		.loc 1 481 3 is_stmt 0 view .LVU402
 1560              	.LBE73:
 1561              	.LBE72:
 651:Lib/Camera_Middleware/sensors/vd6g/vd6g.c ****     return ret;
ARM GAS  /tmp/ccWHsT5O.s 			page 54


 1562              		.loc 1 651 3 is_stmt 1 view .LVU403
 654:Lib/Camera_Middleware/sensors/vd6g/vd6g.c ****   if (ret)
 1563              		.loc 1 654 3 view .LVU404
 1564              	.LBB74:
 1565              	.LBI58:
 547:Lib/Camera_Middleware/sensors/vd6g/vd6g.c **** {
 1566              		.loc 1 547 12 view .LVU405
 1567              	.LBB67:
 549:Lib/Camera_Middleware/sensors/vd6g/vd6g.c ****   int ret;
 1568              		.loc 1 549 3 view .LVU406
 550:Lib/Camera_Middleware/sensors/vd6g/vd6g.c **** 
 1569              		.loc 1 550 3 view .LVU407
 552:Lib/Camera_Middleware/sensors/vd6g/vd6g.c ****   if (ret)
 1570              		.loc 1 552 3 view .LVU408
 552:Lib/Camera_Middleware/sensors/vd6g/vd6g.c ****   if (ret)
 1571              		.loc 1 552 9 is_stmt 0 view .LVU409
 1572 0208 2846     		mov	r0, r5
 1573 020a 0DF10901 		add	r1, sp, #9
 1574 020e FFF7FEFF 		bl	VD6G_GetTopDie
 1575              	.LVL131:
 553:Lib/Camera_Middleware/sensors/vd6g/vd6g.c ****     return ret;
 1576              		.loc 1 553 3 is_stmt 1 view .LVU410
 553:Lib/Camera_Middleware/sensors/vd6g/vd6g.c ****     return ret;
 1577              		.loc 1 553 6 is_stmt 0 view .LVU411
 1578 0212 0446     		mov	r4, r0
 1579 0214 0028     		cmp	r0, #0
 1580 0216 7FF475AF 		bne	.L69
 556:Lib/Camera_Middleware/sensors/vd6g/vd6g.c ****   case VD6G_TOP_DIE_SLOW_BOOT:
 1581              		.loc 1 556 3 is_stmt 1 view .LVU412
 1582 021a 9DF80930 		ldrb	r3, [sp, #9]	@ zero_extendqisi2
 1583 021e 202B     		cmp	r3, #32
 1584 0220 07D0     		beq	.L92
 1585 0222 312B     		cmp	r3, #49
 1586 0224 00F00081 		beq	.L93
 564:Lib/Camera_Middleware/sensors/vd6g/vd6g.c ****   }
 1587              		.loc 1 564 5 view .LVU413
 1588 0228 4FF40D71 		mov	r1, #564
 1589 022c 4A4B     		ldr	r3, .L191+24
 1590 022e 544A     		ldr	r2, .L191+64
 1591 0230 7AE7     		b	.L186
 1592              	.L92:
 558:Lib/Camera_Middleware/sensors/vd6g/vd6g.c ****     break;
 1593              		.loc 1 558 5 view .LVU414
 1594              	.LVL132:
 1595              	.LBB64:
 1596              	.LBI60:
 484:Lib/Camera_Middleware/sensors/vd6g/vd6g.c **** {
 1597              		.loc 1 484 12 view .LVU415
 1598              	.LBB62:
 486:Lib/Camera_Middleware/sensors/vd6g/vd6g.c ****   int vtpatch_offset = 0;
 1599              		.loc 1 486 3 view .LVU416
 487:Lib/Camera_Middleware/sensors/vd6g/vd6g.c ****   int ret;
 1600              		.loc 1 487 3 view .LVU417
 488:Lib/Camera_Middleware/sensors/vd6g/vd6g.c ****   int i;
 1601              		.loc 1 488 3 view .LVU418
 489:Lib/Camera_Middleware/sensors/vd6g/vd6g.c **** 
 1602              		.loc 1 489 3 view .LVU419
ARM GAS  /tmp/ccWHsT5O.s 			page 55


 491:Lib/Camera_Middleware/sensors/vd6g/vd6g.c ****   VD6G_TraceError(ctx, ret);
 1603              		.loc 1 491 3 view .LVU420
 491:Lib/Camera_Middleware/sensors/vd6g/vd6g.c ****   VD6G_TraceError(ctx, ret);
 1604              		.loc 1 491 9 is_stmt 0 view .LVU421
 1605 0232 0122     		movs	r2, #1
 1606 0234 40F20321 		movw	r1, #515
 1607 0238 2846     		mov	r0, r5
 1608              	.LVL133:
 491:Lib/Camera_Middleware/sensors/vd6g/vd6g.c ****   VD6G_TraceError(ctx, ret);
 1609              		.loc 1 491 9 view .LVU422
 1610 023a 2B69     		ldr	r3, [r5, #16]
 1611 023c 9847     		blx	r3
 1612              	.LVL134:
 492:Lib/Camera_Middleware/sensors/vd6g/vd6g.c **** 
 1613              		.loc 1 492 3 is_stmt 1 view .LVU423
 492:Lib/Camera_Middleware/sensors/vd6g/vd6g.c **** 
 1614              		.loc 1 492 3 view .LVU424
 1615 023e 0446     		mov	r4, r0
 1616              	.LVL135:
 492:Lib/Camera_Middleware/sensors/vd6g/vd6g.c **** 
 1617              		.loc 1 492 3 is_stmt 0 view .LVU425
 1618 0240 20B1     		cbz	r0, .L95
 492:Lib/Camera_Middleware/sensors/vd6g/vd6g.c **** 
 1619              		.loc 1 492 3 is_stmt 1 discriminator 1 view .LVU426
 1620 0242 4FF4F673 		mov	r3, #492
 1621 0246 0090     		str	r0, [sp]
 1622              	.LVL136:
 1623              	.L189:
 533:Lib/Camera_Middleware/sensors/vd6g/vd6g.c **** 
 1624              		.loc 1 533 3 is_stmt 0 discriminator 1 view .LVU427
 1625 0248 4E4A     		ldr	r2, .L191+68
 1626 024a 2CE7     		b	.L184
 1627              	.LVL137:
 1628              	.L95:
 492:Lib/Camera_Middleware/sensors/vd6g/vd6g.c **** 
 1629              		.loc 1 492 3 is_stmt 1 discriminator 6 view .LVU428
 492:Lib/Camera_Middleware/sensors/vd6g/vd6g.c **** 
 1630              		.loc 1 492 3 discriminator 8 view .LVU429
 494:Lib/Camera_Middleware/sensors/vd6g/vd6g.c ****   if (ret)
 1631              		.loc 1 494 3 view .LVU430
 494:Lib/Camera_Middleware/sensors/vd6g/vd6g.c ****   if (ret)
 1632              		.loc 1 494 9 is_stmt 0 view .LVU431
 1633 024c 0246     		mov	r2, r0
 1634 024e 40F20321 		movw	r1, #515
 1635 0252 2846     		mov	r0, r5
 1636              	.LVL138:
 494:Lib/Camera_Middleware/sensors/vd6g/vd6g.c ****   if (ret)
 1637              		.loc 1 494 9 view .LVU432
 1638 0254 FFF7FEFF 		bl	VD6G_PollReg8
 1639              	.LVL139:
 495:Lib/Camera_Middleware/sensors/vd6g/vd6g.c ****     return ret;
 1640              		.loc 1 495 3 is_stmt 1 view .LVU433
 495:Lib/Camera_Middleware/sensors/vd6g/vd6g.c ****     return ret;
 1641              		.loc 1 495 6 is_stmt 0 view .LVU434
 1642 0258 0446     		mov	r4, r0
 1643 025a 0028     		cmp	r0, #0
 1644 025c 7FF452AF 		bne	.L69
ARM GAS  /tmp/ccWHsT5O.s 			page 56


 498:Lib/Camera_Middleware/sensors/vd6g/vd6g.c ****   if (ret)
 1645              		.loc 1 498 3 is_stmt 1 view .LVU435
 498:Lib/Camera_Middleware/sensors/vd6g/vd6g.c ****   if (ret)
 1646              		.loc 1 498 9 is_stmt 0 view .LVU436
 1647 0260 0221     		movs	r1, #2
 1648 0262 2846     		mov	r0, r5
 1649              	.LVL140:
 498:Lib/Camera_Middleware/sensors/vd6g/vd6g.c ****   if (ret)
 1650              		.loc 1 498 9 view .LVU437
 1651 0264 FFF7FEFF 		bl	VD6G_WaitState
 1652              	.LVL141:
 499:Lib/Camera_Middleware/sensors/vd6g/vd6g.c ****     return ret;
 1653              		.loc 1 499 3 is_stmt 1 view .LVU438
 499:Lib/Camera_Middleware/sensors/vd6g/vd6g.c ****     return ret;
 1654              		.loc 1 499 6 is_stmt 0 view .LVU439
 1655 0268 0446     		mov	r4, r0
 1656 026a 0028     		cmp	r0, #0
 1657 026c 7FF44AAF 		bne	.L69
 502:Lib/Camera_Middleware/sensors/vd6g/vd6g.c ****     ret = ctx->write_array(ctx, vtpatch_desc[i].offset, (uint8_t *) (vtpatch + vtpatch_offset),
 1658              		.loc 1 502 10 view .LVU440
 1659 0270 8146     		mov	r9, r0
 1660 0272 DFF81481 		ldr	r8, .L191+72
 502:Lib/Camera_Middleware/sensors/vd6g/vd6g.c ****     ret = ctx->write_array(ctx, vtpatch_desc[i].offset, (uint8_t *) (vtpatch + vtpatch_offset),
 1661              		.loc 1 502 17 discriminator 1 view .LVU441
 1662 0276 DFF814A1 		ldr	r10, .L191+76
 503:Lib/Camera_Middleware/sensors/vd6g/vd6g.c ****                            vtpatch_desc[i].size);
 1663              		.loc 1 503 11 view .LVU442
 1664 027a DFF814B1 		ldr	fp, .L191+80
 1665              	.LVL142:
 1666              	.L98:
 502:Lib/Camera_Middleware/sensors/vd6g/vd6g.c ****     ret = ctx->write_array(ctx, vtpatch_desc[i].offset, (uint8_t *) (vtpatch + vtpatch_offset),
 1667              		.loc 1 502 17 is_stmt 1 discriminator 1 view .LVU443
 1668 027e DAF80030 		ldr	r3, [r10]
 1669 0282 9945     		cmp	r9, r3
 1670 0284 13DB     		blt	.L100
 508:Lib/Camera_Middleware/sensors/vd6g/vd6g.c ****   VD6G_TraceError(ctx, ret);
 1671              		.loc 1 508 3 view .LVU444
 508:Lib/Camera_Middleware/sensors/vd6g/vd6g.c ****   VD6G_TraceError(ctx, ret);
 1672              		.loc 1 508 9 is_stmt 0 view .LVU445
 1673 0286 1122     		movs	r2, #17
 1674 0288 4DF6F811 		movw	r1, #55800
 1675 028c 2846     		mov	r0, r5
 1676              	.LVL143:
 508:Lib/Camera_Middleware/sensors/vd6g/vd6g.c ****   VD6G_TraceError(ctx, ret);
 1677              		.loc 1 508 9 view .LVU446
 1678 028e 2B69     		ldr	r3, [r5, #16]
 1679 0290 9847     		blx	r3
 1680              	.LVL144:
 509:Lib/Camera_Middleware/sensors/vd6g/vd6g.c ****   ret = ctx->write8(ctx, 0xaffc, VT_REVISION);
 1681              		.loc 1 509 3 is_stmt 1 view .LVU447
 509:Lib/Camera_Middleware/sensors/vd6g/vd6g.c ****   ret = ctx->write8(ctx, 0xaffc, VT_REVISION);
 1682              		.loc 1 509 3 view .LVU448
 1683 0292 0446     		mov	r4, r0
 1684              	.LVL145:
 509:Lib/Camera_Middleware/sensors/vd6g/vd6g.c ****   ret = ctx->write8(ctx, 0xaffc, VT_REVISION);
 1685              		.loc 1 509 3 is_stmt 0 view .LVU449
 1686 0294 58BB     		cbnz	r0, .L101
ARM GAS  /tmp/ccWHsT5O.s 			page 57


 509:Lib/Camera_Middleware/sensors/vd6g/vd6g.c ****   ret = ctx->write8(ctx, 0xaffc, VT_REVISION);
 1687              		.loc 1 509 3 is_stmt 1 discriminator 3 view .LVU450
 509:Lib/Camera_Middleware/sensors/vd6g/vd6g.c ****   ret = ctx->write8(ctx, 0xaffc, VT_REVISION);
 1688              		.loc 1 509 3 discriminator 6 view .LVU451
 509:Lib/Camera_Middleware/sensors/vd6g/vd6g.c ****   ret = ctx->write8(ctx, 0xaffc, VT_REVISION);
 1689              		.loc 1 509 3 discriminator 8 view .LVU452
 510:Lib/Camera_Middleware/sensors/vd6g/vd6g.c ****   VD6G_TraceError(ctx, ret);
 1690              		.loc 1 510 3 view .LVU453
 510:Lib/Camera_Middleware/sensors/vd6g/vd6g.c ****   VD6G_TraceError(ctx, ret);
 1691              		.loc 1 510 9 is_stmt 0 view .LVU454
 1692 0296 1122     		movs	r2, #17
 1693 0298 4AF6FC71 		movw	r1, #45052
 1694 029c 2846     		mov	r0, r5
 1695              	.LVL146:
 510:Lib/Camera_Middleware/sensors/vd6g/vd6g.c ****   VD6G_TraceError(ctx, ret);
 1696              		.loc 1 510 9 view .LVU455
 1697 029e 2B69     		ldr	r3, [r5, #16]
 1698 02a0 9847     		blx	r3
 1699              	.LVL147:
 511:Lib/Camera_Middleware/sensors/vd6g/vd6g.c ****   ret = ctx->write8(ctx, 0xbbb4, VT_REVISION);
 1700              		.loc 1 511 3 is_stmt 1 view .LVU456
 511:Lib/Camera_Middleware/sensors/vd6g/vd6g.c ****   ret = ctx->write8(ctx, 0xbbb4, VT_REVISION);
 1701              		.loc 1 511 3 view .LVU457
 1702 02a2 0446     		mov	r4, r0
 1703 02a4 38B3     		cbz	r0, .L171
 511:Lib/Camera_Middleware/sensors/vd6g/vd6g.c ****   ret = ctx->write8(ctx, 0xbbb4, VT_REVISION);
 1704              		.loc 1 511 3 discriminator 1 view .LVU458
 1705 02a6 40F2FF13 		movw	r3, #511
 1706 02aa 0090     		str	r0, [sp]
 1707 02ac CCE7     		b	.L189
 1708              	.LVL148:
 1709              	.L100:
 503:Lib/Camera_Middleware/sensors/vd6g/vd6g.c ****                            vtpatch_desc[i].size);
 1710              		.loc 1 503 5 view .LVU459
 503:Lib/Camera_Middleware/sensors/vd6g/vd6g.c ****                            vtpatch_desc[i].size);
 1711              		.loc 1 503 11 is_stmt 0 view .LVU460
 1712 02ae EF69     		ldr	r7, [r5, #28]
 1713 02b0 D8F80430 		ldr	r3, [r8, #4]
 1714 02b4 B8F80010 		ldrh	r1, [r8]
 1715 02b8 2846     		mov	r0, r5
 1716              	.LVL149:
 503:Lib/Camera_Middleware/sensors/vd6g/vd6g.c ****                            vtpatch_desc[i].size);
 1717              		.loc 1 503 11 view .LVU461
 1718 02ba 0BEB0402 		add	r2, fp, r4
 1719 02be B847     		blx	r7
 1720              	.LVL150:
 505:Lib/Camera_Middleware/sensors/vd6g/vd6g.c ****     vtpatch_offset += vtpatch_desc[i].size;
 1721              		.loc 1 505 5 is_stmt 1 view .LVU462
 505:Lib/Camera_Middleware/sensors/vd6g/vd6g.c ****     vtpatch_offset += vtpatch_desc[i].size;
 1722              		.loc 1 505 5 view .LVU463
 1723 02c0 08F10808 		add	r8, r8, #8
 1724 02c4 0746     		mov	r7, r0
 1725 02c6 28B9     		cbnz	r0, .L99
 505:Lib/Camera_Middleware/sensors/vd6g/vd6g.c ****     vtpatch_offset += vtpatch_desc[i].size;
 1726              		.loc 1 505 5 discriminator 3 view .LVU464
 505:Lib/Camera_Middleware/sensors/vd6g/vd6g.c ****     vtpatch_offset += vtpatch_desc[i].size;
 1727              		.loc 1 505 5 discriminator 6 view .LVU465
ARM GAS  /tmp/ccWHsT5O.s 			page 58


 505:Lib/Camera_Middleware/sensors/vd6g/vd6g.c ****     vtpatch_offset += vtpatch_desc[i].size;
 1728              		.loc 1 505 5 discriminator 8 view .LVU466
 506:Lib/Camera_Middleware/sensors/vd6g/vd6g.c ****   }
 1729              		.loc 1 506 5 view .LVU467
 506:Lib/Camera_Middleware/sensors/vd6g/vd6g.c ****   }
 1730              		.loc 1 506 20 is_stmt 0 view .LVU468
 1731 02c8 58F8043C 		ldr	r3, [r8, #-4]
 502:Lib/Camera_Middleware/sensors/vd6g/vd6g.c ****     ret = ctx->write_array(ctx, vtpatch_desc[i].offset, (uint8_t *) (vtpatch + vtpatch_offset),
 1732              		.loc 1 502 37 discriminator 2 view .LVU469
 1733 02cc 09F10109 		add	r9, r9, #1
 1734              	.LVL151:
 506:Lib/Camera_Middleware/sensors/vd6g/vd6g.c ****   }
 1735              		.loc 1 506 20 view .LVU470
 1736 02d0 1C44     		add	r4, r4, r3
 1737              	.LVL152:
 502:Lib/Camera_Middleware/sensors/vd6g/vd6g.c ****     ret = ctx->write_array(ctx, vtpatch_desc[i].offset, (uint8_t *) (vtpatch + vtpatch_offset),
 1738              		.loc 1 502 37 is_stmt 1 discriminator 2 view .LVU471
 502:Lib/Camera_Middleware/sensors/vd6g/vd6g.c ****     ret = ctx->write_array(ctx, vtpatch_desc[i].offset, (uint8_t *) (vtpatch + vtpatch_offset),
 1739              		.loc 1 502 37 is_stmt 0 discriminator 2 view .LVU472
 1740 02d2 D4E7     		b	.L98
 1741              	.L99:
 505:Lib/Camera_Middleware/sensors/vd6g/vd6g.c ****     vtpatch_offset += vtpatch_desc[i].size;
 1742              		.loc 1 505 5 is_stmt 1 discriminator 1 view .LVU473
 1743 02d4 40F2F913 		movw	r3, #505
 1744 02d8 2A4A     		ldr	r2, .L191+68
 1745 02da 1C49     		ldr	r1, .L191+12
 1746 02dc 0090     		str	r0, [sp]
 1747 02de 2846     		mov	r0, r5
 1748              	.LVL153:
 505:Lib/Camera_Middleware/sensors/vd6g/vd6g.c ****     vtpatch_offset += vtpatch_desc[i].size;
 1749              		.loc 1 505 5 is_stmt 0 discriminator 1 view .LVU474
 1750 02e0 FFF7FEFF 		bl	VD6G_error
 1751              	.LVL154:
 505:Lib/Camera_Middleware/sensors/vd6g/vd6g.c ****     vtpatch_offset += vtpatch_desc[i].size;
 1752              		.loc 1 505 5 is_stmt 1 discriminator 3 view .LVU475
 505:Lib/Camera_Middleware/sensors/vd6g/vd6g.c ****     vtpatch_offset += vtpatch_desc[i].size;
 1753              		.loc 1 505 5 discriminator 4 view .LVU476
 1754 02e4 2846     		mov	r0, r5
 1755 02e6 FFF7FEFF 		bl	display_error
 1756              	.LVL155:
 505:Lib/Camera_Middleware/sensors/vd6g/vd6g.c ****     vtpatch_offset += vtpatch_desc[i].size;
 1757              		.loc 1 505 5 discriminator 6 view .LVU477
 505:Lib/Camera_Middleware/sensors/vd6g/vd6g.c ****     vtpatch_offset += vtpatch_desc[i].size;
 1758              		.loc 1 505 5 discriminator 7 view .LVU478
 505:Lib/Camera_Middleware/sensors/vd6g/vd6g.c ****     vtpatch_offset += vtpatch_desc[i].size;
 1759              		.loc 1 505 5 is_stmt 0 discriminator 7 view .LVU479
 1760              	.LBE62:
 1761              	.LBE64:
 559:Lib/Camera_Middleware/sensors/vd6g/vd6g.c ****   case VD6G_TOP_DIE_FAST_BOOT:
 1762              		.loc 1 559 5 is_stmt 1 view .LVU480
 559:Lib/Camera_Middleware/sensors/vd6g/vd6g.c ****   case VD6G_TOP_DIE_FAST_BOOT:
 1763              		.loc 1 559 5 is_stmt 0 view .LVU481
 1764              	.LBE67:
 1765              	.LBE74:
 655:Lib/Camera_Middleware/sensors/vd6g/vd6g.c ****     return ret;
 1766              		.loc 1 655 3 is_stmt 1 view .LVU482
 656:Lib/Camera_Middleware/sensors/vd6g/vd6g.c **** 
ARM GAS  /tmp/ccWHsT5O.s 			page 59


 1767              		.loc 1 656 12 is_stmt 0 view .LVU483
 1768 02ea 3C46     		mov	r4, r7
 1769 02ec 0AE7     		b	.L69
 1770              	.LVL156:
 1771              	.L101:
 1772              	.LBB75:
 1773              	.LBB68:
 1774              	.LBB65:
 1775              	.LBB63:
 509:Lib/Camera_Middleware/sensors/vd6g/vd6g.c ****   ret = ctx->write8(ctx, 0xaffc, VT_REVISION);
 1776              		.loc 1 509 3 is_stmt 1 discriminator 1 view .LVU484
 1777 02ee 40F2FD13 		movw	r3, #509
 1778 02f2 0090     		str	r0, [sp]
 1779 02f4 A8E7     		b	.L189
 1780              	.L171:
 511:Lib/Camera_Middleware/sensors/vd6g/vd6g.c ****   ret = ctx->write8(ctx, 0xbbb4, VT_REVISION);
 1781              		.loc 1 511 3 discriminator 3 view .LVU485
 511:Lib/Camera_Middleware/sensors/vd6g/vd6g.c ****   ret = ctx->write8(ctx, 0xbbb4, VT_REVISION);
 1782              		.loc 1 511 3 discriminator 6 view .LVU486
 511:Lib/Camera_Middleware/sensors/vd6g/vd6g.c ****   ret = ctx->write8(ctx, 0xbbb4, VT_REVISION);
 1783              		.loc 1 511 3 discriminator 8 view .LVU487
 512:Lib/Camera_Middleware/sensors/vd6g/vd6g.c ****   VD6G_TraceError(ctx, ret);
 1784              		.loc 1 512 3 view .LVU488
 512:Lib/Camera_Middleware/sensors/vd6g/vd6g.c ****   VD6G_TraceError(ctx, ret);
 1785              		.loc 1 512 9 is_stmt 0 view .LVU489
 1786 02f6 1122     		movs	r2, #17
 1787 02f8 4BF6B431 		movw	r1, #48052
 1788 02fc 2846     		mov	r0, r5
 1789              	.LVL157:
 512:Lib/Camera_Middleware/sensors/vd6g/vd6g.c ****   VD6G_TraceError(ctx, ret);
 1790              		.loc 1 512 9 view .LVU490
 1791 02fe 2B69     		ldr	r3, [r5, #16]
 1792 0300 9847     		blx	r3
 1793              	.LVL158:
 513:Lib/Camera_Middleware/sensors/vd6g/vd6g.c ****   ret = ctx->write8(ctx, 0xb898, VT_REVISION);
 1794              		.loc 1 513 3 is_stmt 1 view .LVU491
 513:Lib/Camera_Middleware/sensors/vd6g/vd6g.c ****   ret = ctx->write8(ctx, 0xb898, VT_REVISION);
 1795              		.loc 1 513 3 view .LVU492
 1796 0302 0446     		mov	r4, r0
 1797 0304 18B1     		cbz	r0, .L172
 513:Lib/Camera_Middleware/sensors/vd6g/vd6g.c ****   ret = ctx->write8(ctx, 0xb898, VT_REVISION);
 1798              		.loc 1 513 3 discriminator 1 view .LVU493
 1799 0306 40F20123 		movw	r3, #513
 1800 030a 0090     		str	r0, [sp]
 1801 030c 9CE7     		b	.L189
 1802              	.L172:
 513:Lib/Camera_Middleware/sensors/vd6g/vd6g.c ****   ret = ctx->write8(ctx, 0xb898, VT_REVISION);
 1803              		.loc 1 513 3 discriminator 3 view .LVU494
 513:Lib/Camera_Middleware/sensors/vd6g/vd6g.c ****   ret = ctx->write8(ctx, 0xb898, VT_REVISION);
 1804              		.loc 1 513 3 discriminator 6 view .LVU495
 513:Lib/Camera_Middleware/sensors/vd6g/vd6g.c ****   ret = ctx->write8(ctx, 0xb898, VT_REVISION);
 1805              		.loc 1 513 3 discriminator 8 view .LVU496
 514:Lib/Camera_Middleware/sensors/vd6g/vd6g.c ****   VD6G_TraceError(ctx, ret);
 1806              		.loc 1 514 3 view .LVU497
 514:Lib/Camera_Middleware/sensors/vd6g/vd6g.c ****   VD6G_TraceError(ctx, ret);
 1807              		.loc 1 514 9 is_stmt 0 view .LVU498
 1808 030e 1122     		movs	r2, #17
ARM GAS  /tmp/ccWHsT5O.s 			page 60


 1809 0310 4BF69801 		movw	r1, #47256
 1810 0314 2846     		mov	r0, r5
 1811              	.LVL159:
 514:Lib/Camera_Middleware/sensors/vd6g/vd6g.c ****   VD6G_TraceError(ctx, ret);
 1812              		.loc 1 514 9 view .LVU499
 1813 0316 2B69     		ldr	r3, [r5, #16]
 1814 0318 9847     		blx	r3
 1815              	.LVL160:
 515:Lib/Camera_Middleware/sensors/vd6g/vd6g.c **** 
 1816              		.loc 1 515 3 is_stmt 1 view .LVU500
 515:Lib/Camera_Middleware/sensors/vd6g/vd6g.c **** 
 1817              		.loc 1 515 3 view .LVU501
 1818 031a 0446     		mov	r4, r0
 1819 031c 18B1     		cbz	r0, .L173
 515:Lib/Camera_Middleware/sensors/vd6g/vd6g.c **** 
 1820              		.loc 1 515 3 discriminator 1 view .LVU502
 1821 031e 40F20323 		movw	r3, #515
 1822 0322 0090     		str	r0, [sp]
 1823 0324 90E7     		b	.L189
 1824              	.L173:
 515:Lib/Camera_Middleware/sensors/vd6g/vd6g.c **** 
 1825              		.loc 1 515 3 discriminator 3 view .LVU503
 515:Lib/Camera_Middleware/sensors/vd6g/vd6g.c **** 
 1826              		.loc 1 515 3 discriminator 6 view .LVU504
 515:Lib/Camera_Middleware/sensors/vd6g/vd6g.c **** 
 1827              		.loc 1 515 3 discriminator 8 view .LVU505
 517:Lib/Camera_Middleware/sensors/vd6g/vd6g.c ****   VD6G_TraceError(ctx, ret);
 1828              		.loc 1 517 3 view .LVU506
 517:Lib/Camera_Middleware/sensors/vd6g/vd6g.c ****   VD6G_TraceError(ctx, ret);
 1829              		.loc 1 517 9 is_stmt 0 view .LVU507
 1830 0326 0222     		movs	r2, #2
 1831 0328 40F20321 		movw	r1, #515
 1832 032c 2846     		mov	r0, r5
 1833              	.LVL161:
 517:Lib/Camera_Middleware/sensors/vd6g/vd6g.c ****   VD6G_TraceError(ctx, ret);
 1834              		.loc 1 517 9 view .LVU508
 1835 032e 2B69     		ldr	r3, [r5, #16]
 1836 0330 9847     		blx	r3
 1837              	.LVL162:
 518:Lib/Camera_Middleware/sensors/vd6g/vd6g.c **** 
 1838              		.loc 1 518 3 is_stmt 1 view .LVU509
 518:Lib/Camera_Middleware/sensors/vd6g/vd6g.c **** 
 1839              		.loc 1 518 3 view .LVU510
 1840 0332 0446     		mov	r4, r0
 1841 0334 70B3     		cbz	r0, .L174
 518:Lib/Camera_Middleware/sensors/vd6g/vd6g.c **** 
 1842              		.loc 1 518 3 discriminator 1 view .LVU511
 1843 0336 40F20623 		movw	r3, #518
 1844 033a 0090     		str	r0, [sp]
 1845 033c 84E7     		b	.L189
 1846              	.L192:
 1847 033e 00BF     		.align	2
 1848              	.L191:
 1849 0340 00000000 		.word	.LC8
 1850 0344 13000000 		.word	.LC9
 1851 0348 00000000 		.word	__func__.28
 1852 034c 00000000 		.word	.LC4
ARM GAS  /tmp/ccWHsT5O.s 			page 61


 1853 0350 3E000000 		.word	.LC10
 1854 0354 54000000 		.word	.LC11
 1855 0358 B3000000 		.word	.LC15
 1856 035c 00000000 		.word	__func__.26
 1857 0360 09000000 		.word	.LC2
 1858 0364 00000000 		.word	patch_cut2
 1859 0368 00000000 		.word	__func__.25
 1860 036c 62000000 		.word	.LC12
 1861 0370 72000000 		.word	.LC13
 1862 0374 9E000000 		.word	.LC14
 1863 0378 00000000 		.word	__func__.24
 1864 037c B5000000 		.word	.LC16
 1865 0380 00000000 		.word	__func__.23
 1866 0384 00000000 		.word	__func__.22
 1867 0388 00000000 		.word	vtpatch_desc
 1868 038c 00000000 		.word	vtpatch_area_nb
 1869 0390 00000000 		.word	vtpatch
 1870              	.L174:
 518:Lib/Camera_Middleware/sensors/vd6g/vd6g.c **** 
 1871              		.loc 1 518 3 discriminator 3 view .LVU512
 518:Lib/Camera_Middleware/sensors/vd6g/vd6g.c **** 
 1872              		.loc 1 518 3 discriminator 6 view .LVU513
 518:Lib/Camera_Middleware/sensors/vd6g/vd6g.c **** 
 1873              		.loc 1 518 3 discriminator 8 view .LVU514
 520:Lib/Camera_Middleware/sensors/vd6g/vd6g.c ****   if (ret)
 1874              		.loc 1 520 3 view .LVU515
 520:Lib/Camera_Middleware/sensors/vd6g/vd6g.c ****   if (ret)
 1875              		.loc 1 520 9 is_stmt 0 view .LVU516
 1876 0394 0246     		mov	r2, r0
 1877 0396 40F20321 		movw	r1, #515
 1878 039a 2846     		mov	r0, r5
 1879              	.LVL163:
 520:Lib/Camera_Middleware/sensors/vd6g/vd6g.c ****   if (ret)
 1880              		.loc 1 520 9 view .LVU517
 1881 039c FFF7FEFF 		bl	VD6G_PollReg8
 1882              	.LVL164:
 521:Lib/Camera_Middleware/sensors/vd6g/vd6g.c ****     return ret;
 1883              		.loc 1 521 3 is_stmt 1 view .LVU518
 521:Lib/Camera_Middleware/sensors/vd6g/vd6g.c ****     return ret;
 1884              		.loc 1 521 6 is_stmt 0 view .LVU519
 1885 03a0 0446     		mov	r4, r0
 1886 03a2 0028     		cmp	r0, #0
 1887 03a4 7FF4AEAE 		bne	.L69
 524:Lib/Camera_Middleware/sensors/vd6g/vd6g.c ****   if (ret)
 1888              		.loc 1 524 3 is_stmt 1 view .LVU520
 524:Lib/Camera_Middleware/sensors/vd6g/vd6g.c ****   if (ret)
 1889              		.loc 1 524 9 is_stmt 0 view .LVU521
 1890 03a8 0221     		movs	r1, #2
 1891 03aa 2846     		mov	r0, r5
 1892              	.LVL165:
 524:Lib/Camera_Middleware/sensors/vd6g/vd6g.c ****   if (ret)
 1893              		.loc 1 524 9 view .LVU522
 1894 03ac FFF7FEFF 		bl	VD6G_WaitState
 1895              	.LVL166:
 525:Lib/Camera_Middleware/sensors/vd6g/vd6g.c ****     return ret;
 1896              		.loc 1 525 3 is_stmt 1 view .LVU523
 525:Lib/Camera_Middleware/sensors/vd6g/vd6g.c ****     return ret;
ARM GAS  /tmp/ccWHsT5O.s 			page 62


 1897              		.loc 1 525 6 is_stmt 0 view .LVU524
 1898 03b0 0446     		mov	r4, r0
 1899 03b2 0028     		cmp	r0, #0
 1900 03b4 7FF4A6AE 		bne	.L69
 528:Lib/Camera_Middleware/sensors/vd6g/vd6g.c ****   VD6G_TraceError(ctx, ret);
 1901              		.loc 1 528 3 is_stmt 1 view .LVU525
 528:Lib/Camera_Middleware/sensors/vd6g/vd6g.c ****   VD6G_TraceError(ctx, ret);
 1902              		.loc 1 528 9 is_stmt 0 view .LVU526
 1903 03b8 2021     		movs	r1, #32
 1904 03ba 2846     		mov	r0, r5
 1905              	.LVL167:
 528:Lib/Camera_Middleware/sensors/vd6g/vd6g.c ****   VD6G_TraceError(ctx, ret);
 1906              		.loc 1 528 9 view .LVU527
 1907 03bc 6B68     		ldr	r3, [r5, #4]
 1908 03be 0DF10A02 		add	r2, sp, #10
 1909 03c2 9847     		blx	r3
 1910              	.LVL168:
 529:Lib/Camera_Middleware/sensors/vd6g/vd6g.c ****   ret = ctx->read8(ctx, VD6G_REG_VTIMING_GR_REVISION, &cur_vtpatch_gr_rev);
 1911              		.loc 1 529 3 is_stmt 1 view .LVU528
 529:Lib/Camera_Middleware/sensors/vd6g/vd6g.c ****   ret = ctx->read8(ctx, VD6G_REG_VTIMING_GR_REVISION, &cur_vtpatch_gr_rev);
 1912              		.loc 1 529 3 view .LVU529
 1913 03c4 0446     		mov	r4, r0
 1914 03c6 58B9     		cbnz	r0, .L113
 529:Lib/Camera_Middleware/sensors/vd6g/vd6g.c ****   ret = ctx->read8(ctx, VD6G_REG_VTIMING_GR_REVISION, &cur_vtpatch_gr_rev);
 1915              		.loc 1 529 3 discriminator 3 view .LVU530
 529:Lib/Camera_Middleware/sensors/vd6g/vd6g.c ****   ret = ctx->read8(ctx, VD6G_REG_VTIMING_GR_REVISION, &cur_vtpatch_gr_rev);
 1916              		.loc 1 529 3 discriminator 6 view .LVU531
 529:Lib/Camera_Middleware/sensors/vd6g/vd6g.c ****   ret = ctx->read8(ctx, VD6G_REG_VTIMING_GR_REVISION, &cur_vtpatch_gr_rev);
 1917              		.loc 1 529 3 discriminator 8 view .LVU532
 530:Lib/Camera_Middleware/sensors/vd6g/vd6g.c ****   VD6G_TraceError(ctx, ret);
 1918              		.loc 1 530 3 view .LVU533
 530:Lib/Camera_Middleware/sensors/vd6g/vd6g.c ****   VD6G_TraceError(ctx, ret);
 1919              		.loc 1 530 9 is_stmt 0 view .LVU534
 1920 03c8 2421     		movs	r1, #36
 1921 03ca 2846     		mov	r0, r5
 1922              	.LVL169:
 530:Lib/Camera_Middleware/sensors/vd6g/vd6g.c ****   VD6G_TraceError(ctx, ret);
 1923              		.loc 1 530 9 view .LVU535
 1924 03cc 6B68     		ldr	r3, [r5, #4]
 1925 03ce 0DF10B02 		add	r2, sp, #11
 1926 03d2 9847     		blx	r3
 1927              	.LVL170:
 531:Lib/Camera_Middleware/sensors/vd6g/vd6g.c ****   ret = ctx->read8(ctx, VD6G_REG_VTIMING_GT_REVISION, &cur_vtpatch_gt_rev);
 1928              		.loc 1 531 3 is_stmt 1 view .LVU536
 531:Lib/Camera_Middleware/sensors/vd6g/vd6g.c ****   ret = ctx->read8(ctx, VD6G_REG_VTIMING_GT_REVISION, &cur_vtpatch_gt_rev);
 1929              		.loc 1 531 3 view .LVU537
 1930 03d4 0446     		mov	r4, r0
 1931 03d6 38B1     		cbz	r0, .L176
 531:Lib/Camera_Middleware/sensors/vd6g/vd6g.c ****   ret = ctx->read8(ctx, VD6G_REG_VTIMING_GT_REVISION, &cur_vtpatch_gt_rev);
 1932              		.loc 1 531 3 discriminator 1 view .LVU538
 1933 03d8 40F21323 		movw	r3, #531
 1934 03dc 0090     		str	r0, [sp]
 1935 03de 33E7     		b	.L189
 1936              	.L113:
 529:Lib/Camera_Middleware/sensors/vd6g/vd6g.c ****   ret = ctx->read8(ctx, VD6G_REG_VTIMING_GR_REVISION, &cur_vtpatch_gr_rev);
 1937              		.loc 1 529 3 discriminator 1 view .LVU539
 1938 03e0 40F21123 		movw	r3, #529
ARM GAS  /tmp/ccWHsT5O.s 			page 63


 1939 03e4 0090     		str	r0, [sp]
 1940 03e6 2FE7     		b	.L189
 1941              	.L176:
 531:Lib/Camera_Middleware/sensors/vd6g/vd6g.c ****   ret = ctx->read8(ctx, VD6G_REG_VTIMING_GT_REVISION, &cur_vtpatch_gt_rev);
 1942              		.loc 1 531 3 discriminator 3 view .LVU540
 531:Lib/Camera_Middleware/sensors/vd6g/vd6g.c ****   ret = ctx->read8(ctx, VD6G_REG_VTIMING_GT_REVISION, &cur_vtpatch_gt_rev);
 1943              		.loc 1 531 3 discriminator 6 view .LVU541
 531:Lib/Camera_Middleware/sensors/vd6g/vd6g.c ****   ret = ctx->read8(ctx, VD6G_REG_VTIMING_GT_REVISION, &cur_vtpatch_gt_rev);
 1944              		.loc 1 531 3 discriminator 8 view .LVU542
 532:Lib/Camera_Middleware/sensors/vd6g/vd6g.c ****   VD6G_TraceError(ctx, ret);
 1945              		.loc 1 532 3 view .LVU543
 532:Lib/Camera_Middleware/sensors/vd6g/vd6g.c ****   VD6G_TraceError(ctx, ret);
 1946              		.loc 1 532 9 is_stmt 0 view .LVU544
 1947 03e8 3246     		mov	r2, r6
 1948 03ea 2621     		movs	r1, #38
 1949 03ec 2846     		mov	r0, r5
 1950              	.LVL171:
 532:Lib/Camera_Middleware/sensors/vd6g/vd6g.c ****   VD6G_TraceError(ctx, ret);
 1951              		.loc 1 532 9 view .LVU545
 1952 03ee 6B68     		ldr	r3, [r5, #4]
 1953 03f0 9847     		blx	r3
 1954              	.LVL172:
 533:Lib/Camera_Middleware/sensors/vd6g/vd6g.c **** 
 1955              		.loc 1 533 3 is_stmt 1 view .LVU546
 533:Lib/Camera_Middleware/sensors/vd6g/vd6g.c **** 
 1956              		.loc 1 533 3 view .LVU547
 1957 03f2 0446     		mov	r4, r0
 1958 03f4 18B1     		cbz	r0, .L177
 533:Lib/Camera_Middleware/sensors/vd6g/vd6g.c **** 
 1959              		.loc 1 533 3 discriminator 1 view .LVU548
 1960 03f6 40F21523 		movw	r3, #533
 1961 03fa 0090     		str	r0, [sp]
 1962 03fc 24E7     		b	.L189
 1963              	.L177:
 533:Lib/Camera_Middleware/sensors/vd6g/vd6g.c **** 
 1964              		.loc 1 533 3 discriminator 3 view .LVU549
 533:Lib/Camera_Middleware/sensors/vd6g/vd6g.c **** 
 1965              		.loc 1 533 3 discriminator 6 view .LVU550
 533:Lib/Camera_Middleware/sensors/vd6g/vd6g.c **** 
 1966              		.loc 1 533 3 discriminator 8 view .LVU551
 535:Lib/Camera_Middleware/sensors/vd6g/vd6g.c ****       cur_vtpatch_gr_rev != VT_REVISION ||
 1967              		.loc 1 535 3 view .LVU552
 535:Lib/Camera_Middleware/sensors/vd6g/vd6g.c ****       cur_vtpatch_gr_rev != VT_REVISION ||
 1968              		.loc 1 535 26 is_stmt 0 view .LVU553
 1969 03fe 9DF80A30 		ldrb	r3, [sp, #10]	@ zero_extendqisi2
 536:Lib/Camera_Middleware/sensors/vd6g/vd6g.c ****       cur_vtpatch_gt_rev != VT_REVISION) {
 1970              		.loc 1 536 26 view .LVU554
 1971 0402 9DF80B10 		ldrb	r1, [sp, #11]	@ zero_extendqisi2
 535:Lib/Camera_Middleware/sensors/vd6g/vd6g.c ****       cur_vtpatch_gr_rev != VT_REVISION ||
 1972              		.loc 1 535 6 view .LVU555
 1973 0406 112B     		cmp	r3, #17
 537:Lib/Camera_Middleware/sensors/vd6g/vd6g.c ****     VD6G_error(ctx, "bad vtpatch version, expected %d got rd:%d, gr:%d gt:%d\n", VT_REVISION, cur_v
 1974              		.loc 1 537 26 view .LVU556
 1975 0408 9DF80C20 		ldrb	r2, [sp, #12]	@ zero_extendqisi2
 535:Lib/Camera_Middleware/sensors/vd6g/vd6g.c ****       cur_vtpatch_gr_rev != VT_REVISION ||
 1976              		.loc 1 535 6 view .LVU557
 1977 040c 04D0     		beq	.L178
ARM GAS  /tmp/ccWHsT5O.s 			page 64


 1978              	.L118:
 538:Lib/Camera_Middleware/sensors/vd6g/vd6g.c ****                  cur_vtpatch_gr_rev, cur_vtpatch_gt_rev);
 1979              		.loc 1 538 5 is_stmt 1 view .LVU558
 1980 040e CDE90012 		strd	r1, r2, [sp]
 1981 0412 1122     		movs	r2, #17
 1982 0414 6E49     		ldr	r1, .L193
 1983 0416 C4E6     		b	.L182
 1984              	.L178:
 535:Lib/Camera_Middleware/sensors/vd6g/vd6g.c ****       cur_vtpatch_gr_rev != VT_REVISION ||
 1985              		.loc 1 535 41 is_stmt 0 discriminator 1 view .LVU559
 1986 0418 1129     		cmp	r1, #17
 1987 041a F8D1     		bne	.L118
 536:Lib/Camera_Middleware/sensors/vd6g/vd6g.c ****       cur_vtpatch_gt_rev != VT_REVISION) {
 1988              		.loc 1 536 41 view .LVU560
 1989 041c 112A     		cmp	r2, #17
 1990 041e F6D1     		bne	.L118
 542:Lib/Camera_Middleware/sensors/vd6g/vd6g.c **** 
 1991              		.loc 1 542 3 is_stmt 1 view .LVU561
 1992 0420 2846     		mov	r0, r5
 1993              	.LVL173:
 542:Lib/Camera_Middleware/sensors/vd6g/vd6g.c **** 
 1994              		.loc 1 542 3 is_stmt 0 view .LVU562
 1995 0422 6C49     		ldr	r1, .L193+4
 1996 0424 FFF7FEFF 		bl	VD6G_notice
 1997              	.LVL174:
 544:Lib/Camera_Middleware/sensors/vd6g/vd6g.c **** }
 1998              		.loc 1 544 3 is_stmt 1 view .LVU563
 544:Lib/Camera_Middleware/sensors/vd6g/vd6g.c **** }
 1999              		.loc 1 544 3 is_stmt 0 view .LVU564
 2000              	.LBE63:
 2001              	.LBE65:
 559:Lib/Camera_Middleware/sensors/vd6g/vd6g.c ****   case VD6G_TOP_DIE_FAST_BOOT:
 2002              		.loc 1 559 5 is_stmt 1 view .LVU565
 559:Lib/Camera_Middleware/sensors/vd6g/vd6g.c ****   case VD6G_TOP_DIE_FAST_BOOT:
 2003              		.loc 1 559 5 is_stmt 0 view .LVU566
 2004              	.LBE68:
 2005              	.LBE75:
 655:Lib/Camera_Middleware/sensors/vd6g/vd6g.c ****     return ret;
 2006              		.loc 1 655 3 is_stmt 1 view .LVU567
 2007              	.L93:
 658:Lib/Camera_Middleware/sensors/vd6g/vd6g.c ****   if (ret)
 2008              		.loc 1 658 3 view .LVU568
 2009              	.LBB76:
 2010              	.LBI76:
 570:Lib/Camera_Middleware/sensors/vd6g/vd6g.c **** {
 2011              		.loc 1 570 12 view .LVU569
 2012              	.LBB77:
 572:Lib/Camera_Middleware/sensors/vd6g/vd6g.c ****   uint8_t reg8;
 2013              		.loc 1 572 3 view .LVU570
 573:Lib/Camera_Middleware/sensors/vd6g/vd6g.c ****   int ret;
 2014              		.loc 1 573 3 view .LVU571
 574:Lib/Camera_Middleware/sensors/vd6g/vd6g.c **** 
 2015              		.loc 1 574 3 view .LVU572
 576:Lib/Camera_Middleware/sensors/vd6g/vd6g.c ****   VD6G_TraceError(ctx, ret);
 2016              		.loc 1 576 3 view .LVU573
 576:Lib/Camera_Middleware/sensors/vd6g/vd6g.c ****   VD6G_TraceError(ctx, ret);
 2017              		.loc 1 576 9 is_stmt 0 view .LVU574
ARM GAS  /tmp/ccWHsT5O.s 			page 65


 2018 0428 3246     		mov	r2, r6
 2019 042a 1A21     		movs	r1, #26
 2020 042c 2846     		mov	r0, r5
 2021 042e 6B68     		ldr	r3, [r5, #4]
 2022 0430 9847     		blx	r3
 2023              	.LVL175:
 577:Lib/Camera_Middleware/sensors/vd6g/vd6g.c **** 
 2024              		.loc 1 577 3 is_stmt 1 view .LVU575
 577:Lib/Camera_Middleware/sensors/vd6g/vd6g.c **** 
 2025              		.loc 1 577 3 view .LVU576
 2026 0432 0446     		mov	r4, r0
 2027 0434 20B1     		cbz	r0, .L121
 577:Lib/Camera_Middleware/sensors/vd6g/vd6g.c **** 
 2028              		.loc 1 577 3 discriminator 1 view .LVU577
 2029 0436 40F24123 		movw	r3, #577
 2030 043a 674A     		ldr	r2, .L193+8
 2031 043c 0090     		str	r0, [sp]
 2032 043e 32E6     		b	.L184
 2033              	.L121:
 577:Lib/Camera_Middleware/sensors/vd6g/vd6g.c **** 
 2034              		.loc 1 577 3 discriminator 6 view .LVU578
 577:Lib/Camera_Middleware/sensors/vd6g/vd6g.c **** 
 2035              		.loc 1 577 3 discriminator 8 view .LVU579
 579:Lib/Camera_Middleware/sensors/vd6g/vd6g.c ****     ctx->bayer = VD6G_BAYER_NONE;
 2036              		.loc 1 579 3 view .LVU580
 2037 0440 9DF80C30 		ldrb	r3, [sp, #12]	@ zero_extendqisi2
 579:Lib/Camera_Middleware/sensors/vd6g/vd6g.c ****     ctx->bayer = VD6G_BAYER_NONE;
 2038              		.loc 1 579 6 is_stmt 0 view .LVU581
 2039 0444 13F00103 		ands	r3, r3, #1
 2040 0448 08D0     		beq	.L122
 584:Lib/Camera_Middleware/sensors/vd6g/vd6g.c ****   case VD6G_MIRROR_FLIP_NONE:
 2041              		.loc 1 584 3 is_stmt 1 view .LVU582
 584:Lib/Camera_Middleware/sensors/vd6g/vd6g.c ****   case VD6G_MIRROR_FLIP_NONE:
 2042              		.loc 1 584 31 is_stmt 0 view .LVU583
 2043 044a 95F83C20 		ldrb	r2, [r5, #60]	@ zero_extendqisi2
 584:Lib/Camera_Middleware/sensors/vd6g/vd6g.c ****   case VD6G_MIRROR_FLIP_NONE:
 2044              		.loc 1 584 3 view .LVU584
 2045 044e 032A     		cmp	r2, #3
 2046 0450 1BD8     		bhi	.L123
 2047 0452 DFE802F0 		tbb	[pc, r2]
 2048              	.L125:
 2049 0456 1F       		.byte	(.L143-.L125)/2
 2050 0457 02       		.byte	(.L127-.L125)/2
 2051 0458 03       		.byte	(.L122-.L125)/2
 2052 0459 18       		.byte	(.L124-.L125)/2
 2053              		.p2align 1
 2054              	.L127:
 2055 045a 0423     		movs	r3, #4
 2056              	.LVL176:
 2057              	.L122:
 584:Lib/Camera_Middleware/sensors/vd6g/vd6g.c ****   case VD6G_MIRROR_FLIP_NONE:
 2058              		.loc 1 584 3 view .LVU585
 2059 045c 40F26747 		movw	r7, #1127
 2060              	.LBE77:
 2061              	.LBE76:
 2062              	.LBB81:
 2063              	.LBB82:
ARM GAS  /tmp/ccWHsT5O.s 			page 66


 626:Lib/Camera_Middleware/sensors/vd6g/vd6g.c ****     ret = ctx->write8(ctx, VD6G_REG_GPIO_x_CTRL(i), drv_ctx->config_save.gpio_ctrl[i]);
 2064              		.loc 1 626 17 discriminator 1 view .LVU586
 2065 0460 40F26F49 		movw	r9, #1135
 2066              	.LBE82:
 2067              	.LBE81:
 2068              	.LBB86:
 2069              	.LBB78:
 592:Lib/Camera_Middleware/sensors/vd6g/vd6g.c ****     break;
 2070              		.loc 1 592 16 view .LVU587
 2071 0464 85F82830 		strb	r3, [r5, #40]
 2072 0468 05F15B08 		add	r8, r5, #91
 2073              	.L129:
 2074              	.LVL177:
 592:Lib/Camera_Middleware/sensors/vd6g/vd6g.c ****     break;
 2075              		.loc 1 592 16 view .LVU588
 2076              	.LBE78:
 2077              	.LBE86:
 2078              	.LBB87:
 2079              	.LBB83:
 627:Lib/Camera_Middleware/sensors/vd6g/vd6g.c ****     VD6G_TraceError(ctx, ret);
 2080              		.loc 1 627 5 is_stmt 1 view .LVU589
 627:Lib/Camera_Middleware/sensors/vd6g/vd6g.c ****     VD6G_TraceError(ctx, ret);
 2081              		.loc 1 627 11 is_stmt 0 view .LVU590
 2082 046c 3946     		mov	r1, r7
 2083 046e 2846     		mov	r0, r5
 2084 0470 2B69     		ldr	r3, [r5, #16]
 2085 0472 18F8012F 		ldrb	r2, [r8, #1]!	@ zero_extendqisi2
 2086              	.LVL178:
 627:Lib/Camera_Middleware/sensors/vd6g/vd6g.c ****     VD6G_TraceError(ctx, ret);
 2087              		.loc 1 627 11 view .LVU591
 2088 0476 9847     		blx	r3
 2089              	.LVL179:
 628:Lib/Camera_Middleware/sensors/vd6g/vd6g.c ****   }
 2090              		.loc 1 628 5 is_stmt 1 view .LVU592
 628:Lib/Camera_Middleware/sensors/vd6g/vd6g.c ****   }
 2091              		.loc 1 628 5 view .LVU593
 2092 0478 0446     		mov	r4, r0
 2093 047a 68B1     		cbz	r0, .L128
 628:Lib/Camera_Middleware/sensors/vd6g/vd6g.c ****   }
 2094              		.loc 1 628 5 discriminator 1 view .LVU594
 2095 047c 4FF41D73 		mov	r3, #628
 2096 0480 564A     		ldr	r2, .L193+12
 2097 0482 0090     		str	r0, [sp]
 2098 0484 0FE6     		b	.L184
 2099              	.LVL180:
 2100              	.L124:
 628:Lib/Camera_Middleware/sensors/vd6g/vd6g.c ****   }
 2101              		.loc 1 628 5 is_stmt 0 discriminator 1 view .LVU595
 2102              	.LBE83:
 2103              	.LBE87:
 2104              	.LBB88:
 2105              	.LBB79:
 595:Lib/Camera_Middleware/sensors/vd6g/vd6g.c ****     break;
 2106              		.loc 1 595 5 is_stmt 1 view .LVU596
 596:Lib/Camera_Middleware/sensors/vd6g/vd6g.c ****   default:
 2107              		.loc 1 596 5 view .LVU597
 596:Lib/Camera_Middleware/sensors/vd6g/vd6g.c ****   default:
ARM GAS  /tmp/ccWHsT5O.s 			page 67


 2108              		.loc 1 596 5 is_stmt 0 view .LVU598
 2109              	.LBE79:
 2110              	.LBE88:
 659:Lib/Camera_Middleware/sensors/vd6g/vd6g.c ****     return ret;
 2111              		.loc 1 659 3 is_stmt 1 view .LVU599
 2112              	.LBB89:
 2113              	.LBB84:
 626:Lib/Camera_Middleware/sensors/vd6g/vd6g.c ****     ret = ctx->write8(ctx, VD6G_REG_GPIO_x_CTRL(i), drv_ctx->config_save.gpio_ctrl[i]);
 2114              		.loc 1 626 17 discriminator 1 view .LVU600
 2115              	.LBE84:
 2116              	.LBE89:
 2117              	.LBB90:
 2118              	.LBB80:
 594:Lib/Camera_Middleware/sensors/vd6g/vd6g.c ****     ctx->bayer = VD6G_BAYER_GBRG;
 2119              		.loc 1 594 3 is_stmt 0 view .LVU601
 2120 0486 1346     		mov	r3, r2
 2121 0488 E8E7     		b	.L122
 2122              	.LVL181:
 2123              	.L123:
 598:Lib/Camera_Middleware/sensors/vd6g/vd6g.c ****   }
 2124              		.loc 1 598 5 is_stmt 1 view .LVU602
 2125 048a 40F25621 		movw	r1, #598
 2126 048e 544B     		ldr	r3, .L193+16
 2127 0490 514A     		ldr	r2, .L193+8
 2128 0492 49E6     		b	.L186
 2129              	.L143:
 584:Lib/Camera_Middleware/sensors/vd6g/vd6g.c ****   case VD6G_MIRROR_FLIP_NONE:
 2130              		.loc 1 584 3 is_stmt 0 view .LVU603
 2131 0494 0223     		movs	r3, #2
 2132 0496 E1E7     		b	.L122
 2133              	.LVL182:
 2134              	.L128:
 584:Lib/Camera_Middleware/sensors/vd6g/vd6g.c ****   case VD6G_MIRROR_FLIP_NONE:
 2135              		.loc 1 584 3 view .LVU604
 2136              	.LBE80:
 2137              	.LBE90:
 2138              	.LBB91:
 2139              	.LBB85:
 628:Lib/Camera_Middleware/sensors/vd6g/vd6g.c ****   }
 2140              		.loc 1 628 5 is_stmt 1 discriminator 6 view .LVU605
 628:Lib/Camera_Middleware/sensors/vd6g/vd6g.c ****   }
 2141              		.loc 1 628 5 discriminator 8 view .LVU606
 626:Lib/Camera_Middleware/sensors/vd6g/vd6g.c ****     ret = ctx->write8(ctx, VD6G_REG_GPIO_x_CTRL(i), drv_ctx->config_save.gpio_ctrl[i]);
 2142              		.loc 1 626 34 discriminator 2 view .LVU607
 626:Lib/Camera_Middleware/sensors/vd6g/vd6g.c ****     ret = ctx->write8(ctx, VD6G_REG_GPIO_x_CTRL(i), drv_ctx->config_save.gpio_ctrl[i]);
 2143              		.loc 1 626 17 discriminator 1 view .LVU608
 2144 0498 0137     		adds	r7, r7, #1
 2145 049a BFB2     		uxth	r7, r7
 2146 049c 4F45     		cmp	r7, r9
 2147 049e E5D1     		bne	.L129
 2148              	.LVL183:
 626:Lib/Camera_Middleware/sensors/vd6g/vd6g.c ****     ret = ctx->write8(ctx, VD6G_REG_GPIO_x_CTRL(i), drv_ctx->config_save.gpio_ctrl[i]);
 2149              		.loc 1 626 17 is_stmt 0 discriminator 1 view .LVU609
 2150              	.LBE85:
 2151              	.LBE91:
 2152              	.LBE96:
 2153              	.LBE126:
ARM GAS  /tmp/ccWHsT5O.s 			page 68


1081:Lib/Camera_Middleware/sensors/vd6g/vd6g.c ****     return ret;
 2154              		.loc 1 1081 3 is_stmt 1 view .LVU610
1084:Lib/Camera_Middleware/sensors/vd6g/vd6g.c ****   if (ret)
 2155              		.loc 1 1084 3 view .LVU611
 2156              	.LBB127:
 2157              	.LBI98:
 957:Lib/Camera_Middleware/sensors/vd6g/vd6g.c **** {
 2158              		.loc 1 957 12 view .LVU612
 2159              	.LBB120:
 959:Lib/Camera_Middleware/sensors/vd6g/vd6g.c **** 
 2160              		.loc 1 959 3 view .LVU613
 961:Lib/Camera_Middleware/sensors/vd6g/vd6g.c ****   if (ret)
 2161              		.loc 1 961 3 view .LVU614
 2162              	.LBB114:
 2163              	.LBI104:
 696:Lib/Camera_Middleware/sensors/vd6g/vd6g.c **** {
 2164              		.loc 1 696 12 view .LVU615
 2165              	.LBB112:
 698:Lib/Camera_Middleware/sensors/vd6g/vd6g.c ****   uint8_t pll_prediv;
 2166              		.loc 1 698 3 view .LVU616
 699:Lib/Camera_Middleware/sensors/vd6g/vd6g.c ****   uint8_t pll_mult;
 2167              		.loc 1 699 3 view .LVU617
 700:Lib/Camera_Middleware/sensors/vd6g/vd6g.c ****   int ret;
 2168              		.loc 1 700 3 view .LVU618
 701:Lib/Camera_Middleware/sensors/vd6g/vd6g.c **** 
 2169              		.loc 1 701 3 view .LVU619
 703:Lib/Camera_Middleware/sensors/vd6g/vd6g.c ****   if (ret)
 2170              		.loc 1 703 3 view .LVU620
 703:Lib/Camera_Middleware/sensors/vd6g/vd6g.c ****   if (ret)
 2171              		.loc 1 703 9 is_stmt 0 view .LVU621
 2172 04a0 2B6B     		ldr	r3, [r5, #48]
 2173              	.LVL184:
 2174              	.LBB110:
 2175              	.LBI106:
 668:Lib/Camera_Middleware/sensors/vd6g/vd6g.c **** {
 2176              		.loc 1 668 12 is_stmt 1 view .LVU622
 2177              	.LBB108:
 670:Lib/Camera_Middleware/sensors/vd6g/vd6g.c ****   int i;
 2178              		.loc 1 670 3 view .LVU623
 670:Lib/Camera_Middleware/sensors/vd6g/vd6g.c ****   int i;
 2179              		.loc 1 670 22 is_stmt 0 view .LVU624
 2180 04a2 504A     		ldr	r2, .L193+20
 2181 04a4 07CA     		ldm	r2, {r0, r1, r2}
 2182 04a6 86E80700 		stm	r6, {r0, r1, r2}
 671:Lib/Camera_Middleware/sensors/vd6g/vd6g.c **** 
 2183              		.loc 1 671 3 is_stmt 1 view .LVU625
 673:Lib/Camera_Middleware/sensors/vd6g/vd6g.c ****       ext_clock > 27 * M_HZ) {
 2184              		.loc 1 673 3 view .LVU626
 673:Lib/Camera_Middleware/sensors/vd6g/vd6g.c ****       ext_clock > 27 * M_HZ) {
 2185              		.loc 1 673 6 is_stmt 0 view .LVU627
 2186 04aa 4F48     		ldr	r0, .L193+24
 673:Lib/Camera_Middleware/sensors/vd6g/vd6g.c ****       ext_clock > 27 * M_HZ) {
 2187              		.loc 1 673 28 view .LVU628
 2188 04ac A3F5B702 		sub	r2, r3, #5996544
 2189 04b0 A2F55862 		sub	r2, r2, #3456
 673:Lib/Camera_Middleware/sensors/vd6g/vd6g.c ****       ext_clock > 27 * M_HZ) {
 2190              		.loc 1 673 6 view .LVU629
ARM GAS  /tmp/ccWHsT5O.s 			page 69


 2191 04b4 8242     		cmp	r2, r0
 2192 04b6 3146     		mov	r1, r6
 2193 04b8 30D8     		bhi	.L179
 682:Lib/Camera_Middleware/sensors/vd6g/vd6g.c ****       break;
 2194              		.loc 1 682 8 view .LVU630
 2195 04ba 4C4A     		ldr	r2, .L193+28
 2196              	.L132:
 2197              	.LVL185:
 681:Lib/Camera_Middleware/sensors/vd6g/vd6g.c ****     if (ext_clock / *pll_prediv < 12 * M_HZ)
 2198              		.loc 1 681 5 is_stmt 1 view .LVU631
 681:Lib/Camera_Middleware/sensors/vd6g/vd6g.c ****     if (ext_clock / *pll_prediv < 12 * M_HZ)
 2199              		.loc 1 681 26 is_stmt 0 view .LVU632
 2200 04bc 51F8040B 		ldr	r0, [r1], #4
 2201              	.LVL186:
 682:Lib/Camera_Middleware/sensors/vd6g/vd6g.c ****       break;
 2202              		.loc 1 682 5 is_stmt 1 view .LVU633
 2203 04c0 5FFA80F8 		uxtb	r8, r0
 682:Lib/Camera_Middleware/sensors/vd6g/vd6g.c ****       break;
 2204              		.loc 1 682 19 is_stmt 0 view .LVU634
 2205 04c4 B3FBF8F0 		udiv	r0, r3, r8
 2206              	.LVL187:
 682:Lib/Camera_Middleware/sensors/vd6g/vd6g.c ****       break;
 2207              		.loc 1 682 8 view .LVU635
 2208 04c8 9042     		cmp	r0, r2
 2209 04ca 02D3     		bcc	.L131
 680:Lib/Camera_Middleware/sensors/vd6g/vd6g.c ****     *pll_prediv = predivs[i];
 2210              		.loc 1 680 41 is_stmt 1 discriminator 2 view .LVU636
 2211 04cc 0134     		adds	r4, r4, #1
 2212              	.LVL188:
 680:Lib/Camera_Middleware/sensors/vd6g/vd6g.c ****     *pll_prediv = predivs[i];
 2213              		.loc 1 680 17 discriminator 1 view .LVU637
 2214 04ce 032C     		cmp	r4, #3
 2215 04d0 F4D1     		bne	.L132
 2216              	.L131:
 687:Lib/Camera_Middleware/sensors/vd6g/vd6g.c **** 
 2217              		.loc 1 687 3 view .LVU638
 687:Lib/Camera_Middleware/sensors/vd6g/vd6g.c **** 
 2218              		.loc 1 687 46 is_stmt 0 view .LVU639
 2219 04d2 474A     		ldr	r2, .L193+32
 687:Lib/Camera_Middleware/sensors/vd6g/vd6g.c **** 
 2220              		.loc 1 687 58 view .LVU640
 2221 04d4 5F08     		lsrs	r7, r3, #1
 687:Lib/Camera_Middleware/sensors/vd6g/vd6g.c **** 
 2222              		.loc 1 687 46 view .LVU641
 2223 04d6 02FB0877 		mla	r7, r2, r8, r7
 687:Lib/Camera_Middleware/sensors/vd6g/vd6g.c **** 
 2224              		.loc 1 687 63 view .LVU642
 2225 04da B7FBF3F7 		udiv	r7, r7, r3
 2226              	.LVL189:
 689:Lib/Camera_Middleware/sensors/vd6g/vd6g.c ****   VD6G_dbg(ctx, 0, "PLL prediv = %d\n", *pll_prediv);
 2227              		.loc 1 689 3 is_stmt 1 view .LVU643
 2228 04de 0021     		movs	r1, #0
 2229 04e0 2846     		mov	r0, r5
 2230 04e2 444A     		ldr	r2, .L193+36
 2231 04e4 FFF7FEFF 		bl	VD6G_dbg.constprop.0
 2232              	.LVL190:
 690:Lib/Camera_Middleware/sensors/vd6g/vd6g.c ****   VD6G_dbg(ctx, 0, "PLL mult = %d\n", *pll_mult);
ARM GAS  /tmp/ccWHsT5O.s 			page 70


 2233              		.loc 1 690 3 view .LVU644
 691:Lib/Camera_Middleware/sensors/vd6g/vd6g.c **** 
 2234              		.loc 1 691 3 is_stmt 0 view .LVU645
 2235 04e8 FFB2     		uxtb	r7, r7
 690:Lib/Camera_Middleware/sensors/vd6g/vd6g.c ****   VD6G_dbg(ctx, 0, "PLL mult = %d\n", *pll_mult);
 2236              		.loc 1 690 3 view .LVU646
 2237 04ea 4346     		mov	r3, r8
 2238 04ec 0021     		movs	r1, #0
 2239 04ee 2846     		mov	r0, r5
 2240 04f0 414A     		ldr	r2, .L193+40
 2241 04f2 FFF7FEFF 		bl	VD6G_dbg.constprop.0
 2242              	.LVL191:
 691:Lib/Camera_Middleware/sensors/vd6g/vd6g.c **** 
 2243              		.loc 1 691 3 is_stmt 1 view .LVU647
 2244 04f6 3B46     		mov	r3, r7
 2245 04f8 0021     		movs	r1, #0
 2246 04fa 2846     		mov	r0, r5
 2247 04fc 3F4A     		ldr	r2, .L193+44
 2248 04fe FFF7FEFF 		bl	VD6G_dbg.constprop.0
 2249              	.LVL192:
 693:Lib/Camera_Middleware/sensors/vd6g/vd6g.c **** }
 2250              		.loc 1 693 3 view .LVU648
 693:Lib/Camera_Middleware/sensors/vd6g/vd6g.c **** }
 2251              		.loc 1 693 3 is_stmt 0 view .LVU649
 2252              	.LBE108:
 2253              	.LBE110:
 704:Lib/Camera_Middleware/sensors/vd6g/vd6g.c ****     return ret;
 2254              		.loc 1 704 3 is_stmt 1 view .LVU650
 707:Lib/Camera_Middleware/sensors/vd6g/vd6g.c ****   VD6G_TraceError(ctx, ret);
 2255              		.loc 1 707 3 view .LVU651
 707:Lib/Camera_Middleware/sensors/vd6g/vd6g.c ****   VD6G_TraceError(ctx, ret);
 2256              		.loc 1 707 9 is_stmt 0 view .LVU652
 2257 0502 4FF40871 		mov	r1, #544
 2258 0506 2846     		mov	r0, r5
 2259 0508 AB69     		ldr	r3, [r5, #24]
 2260 050a 2A6B     		ldr	r2, [r5, #48]
 2261 050c 9847     		blx	r3
 2262              	.LVL193:
 708:Lib/Camera_Middleware/sensors/vd6g/vd6g.c **** 
 2263              		.loc 1 708 3 is_stmt 1 view .LVU653
 708:Lib/Camera_Middleware/sensors/vd6g/vd6g.c **** 
 2264              		.loc 1 708 3 view .LVU654
 2265 050e 0446     		mov	r4, r0
 2266 0510 30B1     		cbz	r0, .L133
 708:Lib/Camera_Middleware/sensors/vd6g/vd6g.c **** 
 2267              		.loc 1 708 3 discriminator 1 view .LVU655
 2268 0512 4FF43173 		mov	r3, #708
 2269 0516 0090     		str	r0, [sp]
 2270              	.L188:
 718:Lib/Camera_Middleware/sensors/vd6g/vd6g.c ****   }
 2271              		.loc 1 718 5 is_stmt 0 discriminator 1 view .LVU656
 2272 0518 394A     		ldr	r2, .L193+48
 2273 051a C4E5     		b	.L184
 2274              	.LVL194:
 2275              	.L179:
 2276              	.LBB111:
 2277              	.LBB109:
ARM GAS  /tmp/ccWHsT5O.s 			page 71


 675:Lib/Camera_Middleware/sensors/vd6g/vd6g.c ****     return -1;
 2278              		.loc 1 675 5 is_stmt 1 view .LVU657
 2279 051c 3949     		ldr	r1, .L193+52
 2280 051e D8E5     		b	.L183
 2281              	.LVL195:
 2282              	.L133:
 675:Lib/Camera_Middleware/sensors/vd6g/vd6g.c ****     return -1;
 2283              		.loc 1 675 5 is_stmt 0 view .LVU658
 2284              	.LBE109:
 2285              	.LBE111:
 708:Lib/Camera_Middleware/sensors/vd6g/vd6g.c **** 
 2286              		.loc 1 708 3 is_stmt 1 discriminator 6 view .LVU659
 708:Lib/Camera_Middleware/sensors/vd6g/vd6g.c **** 
 2287              		.loc 1 708 3 discriminator 8 view .LVU660
 710:Lib/Camera_Middleware/sensors/vd6g/vd6g.c ****   VD6G_TraceError(ctx, ret);
 2288              		.loc 1 710 3 view .LVU661
 710:Lib/Camera_Middleware/sensors/vd6g/vd6g.c ****   VD6G_TraceError(ctx, ret);
 2289              		.loc 1 710 9 is_stmt 0 view .LVU662
 2290 0520 4246     		mov	r2, r8
 2291 0522 4FF40971 		mov	r1, #548
 2292 0526 2846     		mov	r0, r5
 2293              	.LVL196:
 710:Lib/Camera_Middleware/sensors/vd6g/vd6g.c ****   VD6G_TraceError(ctx, ret);
 2294              		.loc 1 710 9 view .LVU663
 2295 0528 2B69     		ldr	r3, [r5, #16]
 2296 052a 9847     		blx	r3
 2297              	.LVL197:
 711:Lib/Camera_Middleware/sensors/vd6g/vd6g.c **** 
 2298              		.loc 1 711 3 is_stmt 1 view .LVU664
 711:Lib/Camera_Middleware/sensors/vd6g/vd6g.c **** 
 2299              		.loc 1 711 3 view .LVU665
 2300 052c 0446     		mov	r4, r0
 2301 052e 58B9     		cbnz	r0, .L134
 711:Lib/Camera_Middleware/sensors/vd6g/vd6g.c **** 
 2302              		.loc 1 711 3 discriminator 3 view .LVU666
 711:Lib/Camera_Middleware/sensors/vd6g/vd6g.c **** 
 2303              		.loc 1 711 3 discriminator 6 view .LVU667
 711:Lib/Camera_Middleware/sensors/vd6g/vd6g.c **** 
 2304              		.loc 1 711 3 discriminator 8 view .LVU668
 713:Lib/Camera_Middleware/sensors/vd6g/vd6g.c ****   VD6G_TraceError(ctx, ret);
 2305              		.loc 1 713 3 view .LVU669
 713:Lib/Camera_Middleware/sensors/vd6g/vd6g.c ****   VD6G_TraceError(ctx, ret);
 2306              		.loc 1 713 9 is_stmt 0 view .LVU670
 2307 0530 3A46     		mov	r2, r7
 2308 0532 40F22621 		movw	r1, #550
 2309 0536 2846     		mov	r0, r5
 2310              	.LVL198:
 713:Lib/Camera_Middleware/sensors/vd6g/vd6g.c ****   VD6G_TraceError(ctx, ret);
 2311              		.loc 1 713 9 view .LVU671
 2312 0538 2B69     		ldr	r3, [r5, #16]
 2313 053a 9847     		blx	r3
 2314              	.LVL199:
 714:Lib/Camera_Middleware/sensors/vd6g/vd6g.c **** 
 2315              		.loc 1 714 3 is_stmt 1 view .LVU672
 714:Lib/Camera_Middleware/sensors/vd6g/vd6g.c **** 
 2316              		.loc 1 714 3 view .LVU673
 2317 053c 0446     		mov	r4, r0
ARM GAS  /tmp/ccWHsT5O.s 			page 72


 2318 053e 38B1     		cbz	r0, .L180
 714:Lib/Camera_Middleware/sensors/vd6g/vd6g.c **** 
 2319              		.loc 1 714 3 discriminator 1 view .LVU674
 2320 0540 40F2CA23 		movw	r3, #714
 2321 0544 0090     		str	r0, [sp]
 2322 0546 E7E7     		b	.L188
 2323              	.L134:
 711:Lib/Camera_Middleware/sensors/vd6g/vd6g.c **** 
 2324              		.loc 1 711 3 discriminator 1 view .LVU675
 2325 0548 40F2C723 		movw	r3, #711
 2326 054c 0090     		str	r0, [sp]
 2327 054e E3E7     		b	.L188
 2328              	.L180:
 714:Lib/Camera_Middleware/sensors/vd6g/vd6g.c **** 
 2329              		.loc 1 714 3 discriminator 3 view .LVU676
 714:Lib/Camera_Middleware/sensors/vd6g/vd6g.c **** 
 2330              		.loc 1 714 3 discriminator 6 view .LVU677
 714:Lib/Camera_Middleware/sensors/vd6g/vd6g.c **** 
 2331              		.loc 1 714 3 discriminator 8 view .LVU678
 716:Lib/Camera_Middleware/sensors/vd6g/vd6g.c ****     ret = ctx->write16(ctx, VD6G_LINE_LENGTH, drv_ctx->config_save.line_len);
 2332              		.loc 1 716 3 view .LVU679
 716:Lib/Camera_Middleware/sensors/vd6g/vd6g.c ****     ret = ctx->write16(ctx, VD6G_LINE_LENGTH, drv_ctx->config_save.line_len);
 2333              		.loc 1 716 27 is_stmt 0 view .LVU680
 2334 0550 2A6C     		ldr	r2, [r5, #64]
 716:Lib/Camera_Middleware/sensors/vd6g/vd6g.c ****     ret = ctx->write16(ctx, VD6G_LINE_LENGTH, drv_ctx->config_save.line_len);
 2335              		.loc 1 716 6 view .LVU681
 2336 0552 62B9     		cbnz	r2, .L137
 2337              	.L138:
 2338              	.LVL200:
 716:Lib/Camera_Middleware/sensors/vd6g/vd6g.c ****     ret = ctx->write16(ctx, VD6G_LINE_LENGTH, drv_ctx->config_save.line_len);
 2339              		.loc 1 716 6 view .LVU682
 2340              	.LBE112:
 2341              	.LBE114:
 965:Lib/Camera_Middleware/sensors/vd6g/vd6g.c ****   if (ret)
 2342              		.loc 1 965 3 is_stmt 1 view .LVU683
 2343              	.LBB115:
 2344              	.LBI100:
 824:Lib/Camera_Middleware/sensors/vd6g/vd6g.c **** {
 2345              		.loc 1 824 12 view .LVU684
 2346              	.LBB102:
 826:Lib/Camera_Middleware/sensors/vd6g/vd6g.c ****   uint16_t frame_length;
 2347              		.loc 1 826 3 view .LVU685
 827:Lib/Camera_Middleware/sensors/vd6g/vd6g.c ****   uint16_t line_length;
 2348              		.loc 1 827 3 view .LVU686
 828:Lib/Camera_Middleware/sensors/vd6g/vd6g.c ****   int ret;
 2349              		.loc 1 828 3 view .LVU687
 829:Lib/Camera_Middleware/sensors/vd6g/vd6g.c **** 
 2350              		.loc 1 829 3 view .LVU688
 831:Lib/Camera_Middleware/sensors/vd6g/vd6g.c ****   VD6G_TraceError(ctx, ret);
 2351              		.loc 1 831 3 view .LVU689
 831:Lib/Camera_Middleware/sensors/vd6g/vd6g.c ****   VD6G_TraceError(ctx, ret);
 2352              		.loc 1 831 9 is_stmt 0 view .LVU690
 2353 0554 3246     		mov	r2, r6
 2354 0556 4FF44071 		mov	r1, #768
 2355 055a 2846     		mov	r0, r5
 2356 055c AB68     		ldr	r3, [r5, #8]
 2357 055e 9847     		blx	r3
ARM GAS  /tmp/ccWHsT5O.s 			page 73


 2358              	.LVL201:
 832:Lib/Camera_Middleware/sensors/vd6g/vd6g.c ****   VD6G_dbg(ctx, 0, "Line len = %d\n", line_length);
 2359              		.loc 1 832 3 is_stmt 1 view .LVU691
 832:Lib/Camera_Middleware/sensors/vd6g/vd6g.c ****   VD6G_dbg(ctx, 0, "Line len = %d\n", line_length);
 2360              		.loc 1 832 3 view .LVU692
 2361 0560 0446     		mov	r4, r0
 2362 0562 88B1     		cbz	r0, .L139
 832:Lib/Camera_Middleware/sensors/vd6g/vd6g.c ****   VD6G_dbg(ctx, 0, "Line len = %d\n", line_length);
 2363              		.loc 1 832 3 discriminator 1 view .LVU693
 2364 0564 4FF45073 		mov	r3, #832
 2365 0568 0090     		str	r0, [sp]
 2366              	.L185:
 838:Lib/Camera_Middleware/sensors/vd6g/vd6g.c **** 
 2367              		.loc 1 838 3 is_stmt 0 discriminator 1 view .LVU694
 2368 056a 274A     		ldr	r2, .L193+56
 2369 056c 9BE5     		b	.L184
 2370              	.LVL202:
 2371              	.L137:
 838:Lib/Camera_Middleware/sensors/vd6g/vd6g.c **** 
 2372              		.loc 1 838 3 discriminator 1 view .LVU695
 2373              	.LBE102:
 2374              	.LBE115:
 2375              	.LBB116:
 2376              	.LBB113:
 717:Lib/Camera_Middleware/sensors/vd6g/vd6g.c ****     VD6G_TraceError(ctx, ret);
 2377              		.loc 1 717 5 is_stmt 1 view .LVU696
 717:Lib/Camera_Middleware/sensors/vd6g/vd6g.c ****     VD6G_TraceError(ctx, ret);
 2378              		.loc 1 717 11 is_stmt 0 view .LVU697
 2379 056e 4FF44071 		mov	r1, #768
 2380 0572 2846     		mov	r0, r5
 2381              	.LVL203:
 717:Lib/Camera_Middleware/sensors/vd6g/vd6g.c ****     VD6G_TraceError(ctx, ret);
 2382              		.loc 1 717 11 view .LVU698
 2383 0574 6B69     		ldr	r3, [r5, #20]
 2384 0576 92B2     		uxth	r2, r2
 2385 0578 9847     		blx	r3
 2386              	.LVL204:
 718:Lib/Camera_Middleware/sensors/vd6g/vd6g.c ****   }
 2387              		.loc 1 718 5 is_stmt 1 view .LVU699
 718:Lib/Camera_Middleware/sensors/vd6g/vd6g.c ****   }
 2388              		.loc 1 718 5 view .LVU700
 2389 057a 0446     		mov	r4, r0
 2390 057c 0028     		cmp	r0, #0
 2391 057e E9D0     		beq	.L138
 718:Lib/Camera_Middleware/sensors/vd6g/vd6g.c ****   }
 2392              		.loc 1 718 5 discriminator 1 view .LVU701
 2393 0580 40F2CE23 		movw	r3, #718
 2394 0584 0090     		str	r0, [sp]
 2395 0586 C7E7     		b	.L188
 2396              	.LVL205:
 2397              	.L139:
 718:Lib/Camera_Middleware/sensors/vd6g/vd6g.c ****   }
 2398              		.loc 1 718 5 is_stmt 0 discriminator 1 view .LVU702
 2399              	.LBE113:
 2400              	.LBE116:
 2401              	.LBB117:
 2402              	.LBB103:
ARM GAS  /tmp/ccWHsT5O.s 			page 74


 832:Lib/Camera_Middleware/sensors/vd6g/vd6g.c ****   VD6G_dbg(ctx, 0, "Line len = %d\n", line_length);
 2403              		.loc 1 832 3 is_stmt 1 discriminator 6 view .LVU703
 832:Lib/Camera_Middleware/sensors/vd6g/vd6g.c ****   VD6G_dbg(ctx, 0, "Line len = %d\n", line_length);
 2404              		.loc 1 832 3 discriminator 8 view .LVU704
 833:Lib/Camera_Middleware/sensors/vd6g/vd6g.c **** 
 2405              		.loc 1 833 3 view .LVU705
 2406 0588 0146     		mov	r1, r0
 2407 058a BDF80C30 		ldrh	r3, [sp, #12]
 2408 058e 2846     		mov	r0, r5
 2409              	.LVL206:
 833:Lib/Camera_Middleware/sensors/vd6g/vd6g.c **** 
 2410              		.loc 1 833 3 is_stmt 0 view .LVU706
 2411 0590 1E4A     		ldr	r2, .L193+60
 2412 0592 FFF7FEFF 		bl	VD6G_dbg.constprop.0
 2413              	.LVL207:
 835:Lib/Camera_Middleware/sensors/vd6g/vd6g.c ****   VD6G_dbg(ctx, 0, "Set frame_length to %d to reach %d fps\n", frame_length, drv_ctx->config_save.f
 2414              		.loc 1 835 3 is_stmt 1 view .LVU707
 835:Lib/Camera_Middleware/sensors/vd6g/vd6g.c ****   VD6G_dbg(ctx, 0, "Set frame_length to %d to reach %d fps\n", frame_length, drv_ctx->config_save.f
 2415              		.loc 1 835 72 is_stmt 0 view .LVU708
 2416 0596 AA6B     		ldr	r2, [r5, #56]
 835:Lib/Camera_Middleware/sensors/vd6g/vd6g.c ****   VD6G_dbg(ctx, 0, "Set frame_length to %d to reach %d fps\n", frame_length, drv_ctx->config_save.f
 2417              		.loc 1 835 50 view .LVU709
 2418 0598 BDF80C30 		ldrh	r3, [sp, #12]
 835:Lib/Camera_Middleware/sensors/vd6g/vd6g.c ****   VD6G_dbg(ctx, 0, "Set frame_length to %d to reach %d fps\n", frame_length, drv_ctx->config_save.f
 2419              		.loc 1 835 35 view .LVU710
 2420 059c 1C4E     		ldr	r6, .L193+64
 835:Lib/Camera_Middleware/sensors/vd6g/vd6g.c ****   VD6G_dbg(ctx, 0, "Set frame_length to %d to reach %d fps\n", frame_length, drv_ctx->config_save.f
 2421              		.loc 1 835 50 view .LVU711
 2422 059e 5343     		muls	r3, r2, r3
 835:Lib/Camera_Middleware/sensors/vd6g/vd6g.c ****   VD6G_dbg(ctx, 0, "Set frame_length to %d to reach %d fps\n", frame_length, drv_ctx->config_save.f
 2423              		.loc 1 835 35 view .LVU712
 2424 05a0 96FBF3F6 		sdiv	r6, r6, r3
 2425              	.LVL208:
 836:Lib/Camera_Middleware/sensors/vd6g/vd6g.c ****   ret = ctx->write16(ctx, VD6G_FRAME_LENGTH, frame_length);
 2426              		.loc 1 836 3 is_stmt 1 view .LVU713
 2427 05a4 2146     		mov	r1, r4
 2428 05a6 2846     		mov	r0, r5
 2429 05a8 0092     		str	r2, [sp]
 2430 05aa B3B2     		uxth	r3, r6
 2431 05ac 194A     		ldr	r2, .L193+68
 2432 05ae FFF7FEFF 		bl	VD6G_dbg.constprop.0
 2433              	.LVL209:
 837:Lib/Camera_Middleware/sensors/vd6g/vd6g.c ****   VD6G_TraceError(ctx, ret);
 2434              		.loc 1 837 3 view .LVU714
 837:Lib/Camera_Middleware/sensors/vd6g/vd6g.c ****   VD6G_TraceError(ctx, ret);
 2435              		.loc 1 837 9 is_stmt 0 view .LVU715
 2436 05b2 4FF48B61 		mov	r1, #1112
 2437 05b6 2846     		mov	r0, r5
 2438 05b8 6B69     		ldr	r3, [r5, #20]
 2439 05ba B2B2     		uxth	r2, r6
 2440 05bc 9847     		blx	r3
 2441              	.LVL210:
 838:Lib/Camera_Middleware/sensors/vd6g/vd6g.c **** 
 2442              		.loc 1 838 3 is_stmt 1 view .LVU716
 838:Lib/Camera_Middleware/sensors/vd6g/vd6g.c **** 
 2443              		.loc 1 838 3 view .LVU717
 2444 05be 0446     		mov	r4, r0
ARM GAS  /tmp/ccWHsT5O.s 			page 75


 2445 05c0 0028     		cmp	r0, #0
 2446 05c2 3FF49FAD 		beq	.L69
 838:Lib/Camera_Middleware/sensors/vd6g/vd6g.c **** 
 2447              		.loc 1 838 3 discriminator 1 view .LVU718
 2448 05c6 40F24633 		movw	r3, #838
 2449 05ca 0090     		str	r0, [sp]
 2450 05cc CDE7     		b	.L185
 2451              	.L194:
 2452 05ce 00BF     		.align	2
 2453              	.L193:
 2454 05d0 CF000000 		.word	.LC17
 2455 05d4 08010000 		.word	.LC18
 2456 05d8 00000000 		.word	__func__.21
 2457 05dc 00000000 		.word	__func__.20
 2458 05e0 B3000000 		.word	.LC15
 2459 05e4 00000000 		.word	.LANCHOR0
 2460 05e8 406F4001 		.word	21000000
 2461 05ec 001BB700 		.word	12000000
 2462 05f0 0011EC2F 		.word	804000000
 2463 05f4 3B010000 		.word	.LC20
 2464 05f8 4E010000 		.word	.LC21
 2465 05fc 5F010000 		.word	.LC22
 2466 0600 00000000 		.word	__func__.19
 2467 0604 1D010000 		.word	.LC19
 2468 0608 00000000 		.word	__func__.18
 2469 060c 6E010000 		.word	.LC23
 2470 0610 009D9509 		.word	160800000
 2471 0614 7D010000 		.word	.LC24
 2472              	.LBE103:
 2473              	.LBE117:
 2474              	.LBE120:
 2475              	.LBE127:
 2476              		.cfi_endproc
 2477              	.LFE35:
 2479              		.section	.text.VD6G_DeInit,"ax",%progbits
 2480              		.align	1
 2481              		.global	VD6G_DeInit
 2482              		.syntax unified
 2483              		.thumb
 2484              		.thumb_func
 2486              	VD6G_DeInit:
 2487              	.LVL211:
 2488              	.LFB36:
1090:Lib/Camera_Middleware/sensors/vd6g/vd6g.c **** 
1091:Lib/Camera_Middleware/sensors/vd6g/vd6g.c **** int VD6G_DeInit(VD6G_Ctx_t *ctx)
1092:Lib/Camera_Middleware/sensors/vd6g/vd6g.c **** {
 2489              		.loc 1 1092 1 view -0
 2490              		.cfi_startproc
 2491              		@ args = 0, pretend = 0, frame = 0
 2492              		@ frame_needed = 0, uses_anonymous_args = 0
1093:Lib/Camera_Middleware/sensors/vd6g/vd6g.c ****   struct drv_vd6g_ctx *drv_ctx = &ctx->ctx;
 2493              		.loc 1 1093 3 view .LVU720
1094:Lib/Camera_Middleware/sensors/vd6g/vd6g.c **** 
1095:Lib/Camera_Middleware/sensors/vd6g/vd6g.c ****   if (drv_ctx->is_streaming)
 2494              		.loc 1 1095 3 view .LVU721
1092:Lib/Camera_Middleware/sensors/vd6g/vd6g.c ****   struct drv_vd6g_ctx *drv_ctx = &ctx->ctx;
 2495              		.loc 1 1092 1 is_stmt 0 view .LVU722
ARM GAS  /tmp/ccWHsT5O.s 			page 76


 2496 0000 38B5     		push	{r3, r4, r5, lr}
 2497              		.cfi_def_cfa_offset 16
 2498              		.cfi_offset 3, -16
 2499              		.cfi_offset 4, -12
 2500              		.cfi_offset 5, -8
 2501              		.cfi_offset 14, -4
 2502              		.loc 1 1095 14 view .LVU723
 2503 0002 C56A     		ldr	r5, [r0, #44]
1092:Lib/Camera_Middleware/sensors/vd6g/vd6g.c ****   struct drv_vd6g_ctx *drv_ctx = &ctx->ctx;
 2504              		.loc 1 1092 1 view .LVU724
 2505 0004 0446     		mov	r4, r0
 2506              		.loc 1 1095 6 view .LVU725
 2507 0006 45B9     		cbnz	r5, .L197
1096:Lib/Camera_Middleware/sensors/vd6g/vd6g.c ****     return -1;
1097:Lib/Camera_Middleware/sensors/vd6g/vd6g.c **** 
1098:Lib/Camera_Middleware/sensors/vd6g/vd6g.c ****   ctx->shutdown_pin(ctx, 0);
 2508              		.loc 1 1098 3 is_stmt 1 view .LVU726
 2509 0008 0368     		ldr	r3, [r0]
 2510 000a 2946     		mov	r1, r5
 2511 000c 9847     		blx	r3
 2512              	.LVL212:
1099:Lib/Camera_Middleware/sensors/vd6g/vd6g.c ****   ctx->delay(ctx, 10);
 2513              		.loc 1 1099 3 view .LVU727
 2514 000e 0A21     		movs	r1, #10
 2515 0010 2046     		mov	r0, r4
 2516 0012 236A     		ldr	r3, [r4, #32]
 2517 0014 9847     		blx	r3
 2518              	.LVL213:
1100:Lib/Camera_Middleware/sensors/vd6g/vd6g.c **** 
1101:Lib/Camera_Middleware/sensors/vd6g/vd6g.c ****   return 0;
 2519              		.loc 1 1101 3 view .LVU728
 2520              	.L195:
1102:Lib/Camera_Middleware/sensors/vd6g/vd6g.c **** }
 2521              		.loc 1 1102 1 is_stmt 0 view .LVU729
 2522 0016 2846     		mov	r0, r5
 2523 0018 38BD     		pop	{r3, r4, r5, pc}
 2524              	.LVL214:
 2525              	.L197:
1096:Lib/Camera_Middleware/sensors/vd6g/vd6g.c **** 
 2526              		.loc 1 1096 12 view .LVU730
 2527 001a 4FF0FF35 		mov	r5, #-1
 2528 001e FAE7     		b	.L195
 2529              		.cfi_endproc
 2530              	.LFE36:
 2532              		.section	.rodata.VD6G_Start.str1.1,"aMS",%progbits,1
 2533              	.LC25:
 2534 0000 53747265 		.ascii	"Streaming is on\012\000"
 2534      616D696E 
 2534      67206973 
 2534      206F6E0A 
 2534      00
 2535              		.section	.text.VD6G_Start,"ax",%progbits
 2536              		.align	1
 2537              		.global	VD6G_Start
 2538              		.syntax unified
 2539              		.thumb
 2540              		.thumb_func
ARM GAS  /tmp/ccWHsT5O.s 			page 77


 2542              	VD6G_Start:
 2543              	.LVL215:
 2544              	.LFB37:
1103:Lib/Camera_Middleware/sensors/vd6g/vd6g.c **** 
1104:Lib/Camera_Middleware/sensors/vd6g/vd6g.c **** int VD6G_Start(VD6G_Ctx_t *ctx)
1105:Lib/Camera_Middleware/sensors/vd6g/vd6g.c **** {
 2545              		.loc 1 1105 1 is_stmt 1 view -0
 2546              		.cfi_startproc
 2547              		@ args = 0, pretend = 0, frame = 0
 2548              		@ frame_needed = 0, uses_anonymous_args = 0
1106:Lib/Camera_Middleware/sensors/vd6g/vd6g.c ****   struct drv_vd6g_ctx *drv_ctx = &ctx->ctx;
 2549              		.loc 1 1106 3 view .LVU732
1107:Lib/Camera_Middleware/sensors/vd6g/vd6g.c ****   int ret;
 2550              		.loc 1 1107 3 view .LVU733
1108:Lib/Camera_Middleware/sensors/vd6g/vd6g.c **** 
1109:Lib/Camera_Middleware/sensors/vd6g/vd6g.c ****   ret = VD6G_Setup(ctx);
 2551              		.loc 1 1109 3 view .LVU734
 2552              	.LBB148:
 2553              	.LBI148:
 972:Lib/Camera_Middleware/sensors/vd6g/vd6g.c **** {
 2554              		.loc 1 972 12 view .LVU735
 2555              	.LBB149:
 974:Lib/Camera_Middleware/sensors/vd6g/vd6g.c **** 
 2556              		.loc 1 974 3 view .LVU736
 976:Lib/Camera_Middleware/sensors/vd6g/vd6g.c ****   if (ret)
 2557              		.loc 1 976 3 view .LVU737
 2558              	.LBB150:
 2559              	.LBI150:
 724:Lib/Camera_Middleware/sensors/vd6g/vd6g.c **** {
 2560              		.loc 1 724 12 view .LVU738
 2561              	.LBB151:
 726:Lib/Camera_Middleware/sensors/vd6g/vd6g.c ****   uint16_t oif_ctrl;
 2562              		.loc 1 726 3 view .LVU739
 727:Lib/Camera_Middleware/sensors/vd6g/vd6g.c ****   int ret;
 2563              		.loc 1 727 3 view .LVU740
 728:Lib/Camera_Middleware/sensors/vd6g/vd6g.c **** 
 2564              		.loc 1 728 3 view .LVU741
 730:Lib/Camera_Middleware/sensors/vd6g/vd6g.c ****     return -1;
 2565              		.loc 1 730 3 view .LVU742
 730:Lib/Camera_Middleware/sensors/vd6g/vd6g.c ****     return -1;
 2566              		.loc 1 730 33 is_stmt 0 view .LVU743
 2567 0000 836C     		ldr	r3, [r0, #72]
 2568              	.LBE151:
 2569              	.LBE150:
 2570              	.LBE149:
 2571              	.LBE148:
1105:Lib/Camera_Middleware/sensors/vd6g/vd6g.c ****   struct drv_vd6g_ctx *drv_ctx = &ctx->ctx;
 2572              		.loc 1 1105 1 view .LVU744
 2573 0002 73B5     		push	{r0, r1, r4, r5, r6, lr}
 2574              		.cfi_def_cfa_offset 24
 2575              		.cfi_offset 4, -16
 2576              		.cfi_offset 5, -12
 2577              		.cfi_offset 6, -8
 2578              		.cfi_offset 14, -4
 2579              	.LBB178:
 2580              	.LBB175:
 2581              	.LBB156:
ARM GAS  /tmp/ccWHsT5O.s 			page 78


 2582              	.LBB152:
 730:Lib/Camera_Middleware/sensors/vd6g/vd6g.c ****     return -1;
 2583              		.loc 1 730 33 view .LVU745
 2584 0004 013B     		subs	r3, r3, #1
 730:Lib/Camera_Middleware/sensors/vd6g/vd6g.c ****     return -1;
 2585              		.loc 1 730 6 view .LVU746
 2586 0006 012B     		cmp	r3, #1
 2587              	.LBE152:
 2588              	.LBE156:
 2589              	.LBE175:
 2590              	.LBE178:
1105:Lib/Camera_Middleware/sensors/vd6g/vd6g.c ****   struct drv_vd6g_ctx *drv_ctx = &ctx->ctx;
 2591              		.loc 1 1105 1 view .LVU747
 2592 0008 0546     		mov	r5, r0
 2593              	.LBB179:
 2594              	.LBB176:
 2595              	.LBB157:
 2596              	.LBB153:
 730:Lib/Camera_Middleware/sensors/vd6g/vd6g.c ****     return -1;
 2597              		.loc 1 730 6 view .LVU748
 2598 000a 04D9     		bls	.L199
 2599              	.LVL216:
 2600              	.L208:
 730:Lib/Camera_Middleware/sensors/vd6g/vd6g.c ****     return -1;
 2601              		.loc 1 730 6 view .LVU749
 2602              	.LBE153:
 2603              	.LBE157:
 978:Lib/Camera_Middleware/sensors/vd6g/vd6g.c **** 
 2604              		.loc 1 978 12 view .LVU750
 2605 000c 4FF0FF34 		mov	r4, #-1
 2606              	.LVL217:
 2607              	.L198:
 978:Lib/Camera_Middleware/sensors/vd6g/vd6g.c **** 
 2608              		.loc 1 978 12 view .LVU751
 2609              	.LBE176:
 2610              	.LBE179:
1110:Lib/Camera_Middleware/sensors/vd6g/vd6g.c ****   if (ret)
1111:Lib/Camera_Middleware/sensors/vd6g/vd6g.c ****     return ret;
1112:Lib/Camera_Middleware/sensors/vd6g/vd6g.c **** 
1113:Lib/Camera_Middleware/sensors/vd6g/vd6g.c ****   ret = VD6G_StartStreaming(ctx);
1114:Lib/Camera_Middleware/sensors/vd6g/vd6g.c ****   if (ret)
1115:Lib/Camera_Middleware/sensors/vd6g/vd6g.c ****     return ret;
1116:Lib/Camera_Middleware/sensors/vd6g/vd6g.c ****   drv_ctx->is_streaming = 1;
1117:Lib/Camera_Middleware/sensors/vd6g/vd6g.c **** 
1118:Lib/Camera_Middleware/sensors/vd6g/vd6g.c ****   return 0;
1119:Lib/Camera_Middleware/sensors/vd6g/vd6g.c **** }
 2611              		.loc 1 1119 1 view .LVU752
 2612 0010 2046     		mov	r0, r4
 2613 0012 02B0     		add	sp, sp, #8
 2614              		.cfi_remember_state
 2615              		.cfi_def_cfa_offset 16
 2616              		@ sp needed
 2617 0014 70BD     		pop	{r4, r5, r6, pc}
 2618              	.LVL218:
 2619              	.L199:
 2620              		.cfi_restore_state
 2621              	.LBB180:
ARM GAS  /tmp/ccWHsT5O.s 			page 79


 2622              	.LBB177:
 2623              	.LBB158:
 2624              	.LBB154:
 733:Lib/Camera_Middleware/sensors/vd6g/vd6g.c ****   out_itf->data_lane0_swap_enable = !!out_itf->data_lane0_swap_enable;
 2625              		.loc 1 733 3 is_stmt 1 view .LVU753
 733:Lib/Camera_Middleware/sensors/vd6g/vd6g.c ****   out_itf->data_lane0_swap_enable = !!out_itf->data_lane0_swap_enable;
 2626              		.loc 1 733 37 is_stmt 0 view .LVU754
 2627 0016 C36C     		ldr	r3, [r0, #76]
 739:Lib/Camera_Middleware/sensors/vd6g/vd6g.c ****   VD6G_TraceError(ctx, ret);
 2628              		.loc 1 739 9 view .LVU755
 2629 0018 0822     		movs	r2, #8
 733:Lib/Camera_Middleware/sensors/vd6g/vd6g.c ****   out_itf->data_lane0_swap_enable = !!out_itf->data_lane0_swap_enable;
 2630              		.loc 1 733 37 view .LVU756
 2631 001a 003B     		subs	r3, r3, #0
 2632 001c 18BF     		it	ne
 2633 001e 0123     		movne	r3, #1
 733:Lib/Camera_Middleware/sensors/vd6g/vd6g.c ****   out_itf->data_lane0_swap_enable = !!out_itf->data_lane0_swap_enable;
 2634              		.loc 1 733 35 view .LVU757
 2635 0020 C364     		str	r3, [r0, #76]
 734:Lib/Camera_Middleware/sensors/vd6g/vd6g.c ****   out_itf->data_lane1_swap_enable = !!out_itf->data_lane1_swap_enable;
 2636              		.loc 1 734 3 is_stmt 1 view .LVU758
 734:Lib/Camera_Middleware/sensors/vd6g/vd6g.c ****   out_itf->data_lane1_swap_enable = !!out_itf->data_lane1_swap_enable;
 2637              		.loc 1 734 37 is_stmt 0 view .LVU759
 2638 0022 036D     		ldr	r3, [r0, #80]
 739:Lib/Camera_Middleware/sensors/vd6g/vd6g.c ****   VD6G_TraceError(ctx, ret);
 2639              		.loc 1 739 9 view .LVU760
 2640 0024 40F20A31 		movw	r1, #778
 734:Lib/Camera_Middleware/sensors/vd6g/vd6g.c ****   out_itf->data_lane1_swap_enable = !!out_itf->data_lane1_swap_enable;
 2641              		.loc 1 734 37 view .LVU761
 2642 0028 003B     		subs	r3, r3, #0
 2643 002a 18BF     		it	ne
 2644 002c 0123     		movne	r3, #1
 734:Lib/Camera_Middleware/sensors/vd6g/vd6g.c ****   out_itf->data_lane1_swap_enable = !!out_itf->data_lane1_swap_enable;
 2645              		.loc 1 734 35 view .LVU762
 2646 002e 0365     		str	r3, [r0, #80]
 735:Lib/Camera_Middleware/sensors/vd6g/vd6g.c ****   out_itf->data_lanes_mapping_swap_enable = !!out_itf->data_lanes_mapping_swap_enable;
 2647              		.loc 1 735 3 is_stmt 1 view .LVU763
 735:Lib/Camera_Middleware/sensors/vd6g/vd6g.c ****   out_itf->data_lanes_mapping_swap_enable = !!out_itf->data_lanes_mapping_swap_enable;
 2648              		.loc 1 735 37 is_stmt 0 view .LVU764
 2649 0030 436D     		ldr	r3, [r0, #84]
 2650 0032 003B     		subs	r3, r3, #0
 2651 0034 18BF     		it	ne
 2652 0036 0123     		movne	r3, #1
 735:Lib/Camera_Middleware/sensors/vd6g/vd6g.c ****   out_itf->data_lanes_mapping_swap_enable = !!out_itf->data_lanes_mapping_swap_enable;
 2653              		.loc 1 735 35 view .LVU765
 2654 0038 4365     		str	r3, [r0, #84]
 736:Lib/Camera_Middleware/sensors/vd6g/vd6g.c **** 
 2655              		.loc 1 736 3 is_stmt 1 view .LVU766
 736:Lib/Camera_Middleware/sensors/vd6g/vd6g.c **** 
 2656              		.loc 1 736 45 is_stmt 0 view .LVU767
 2657 003a 836D     		ldr	r3, [r0, #88]
 2658 003c 003B     		subs	r3, r3, #0
 2659 003e 18BF     		it	ne
 2660 0040 0123     		movne	r3, #1
 736:Lib/Camera_Middleware/sensors/vd6g/vd6g.c **** 
 2661              		.loc 1 736 43 view .LVU768
 2662 0042 8365     		str	r3, [r0, #88]
ARM GAS  /tmp/ccWHsT5O.s 			page 80


 739:Lib/Camera_Middleware/sensors/vd6g/vd6g.c ****   VD6G_TraceError(ctx, ret);
 2663              		.loc 1 739 3 is_stmt 1 view .LVU769
 739:Lib/Camera_Middleware/sensors/vd6g/vd6g.c ****   VD6G_TraceError(ctx, ret);
 2664              		.loc 1 739 9 is_stmt 0 view .LVU770
 2665 0044 0369     		ldr	r3, [r0, #16]
 2666 0046 9847     		blx	r3
 2667              	.LVL219:
 740:Lib/Camera_Middleware/sensors/vd6g/vd6g.c **** 
 2668              		.loc 1 740 3 is_stmt 1 view .LVU771
 740:Lib/Camera_Middleware/sensors/vd6g/vd6g.c **** 
 2669              		.loc 1 740 3 view .LVU772
 2670 0048 0446     		mov	r4, r0
 2671 004a E8B9     		cbnz	r0, .L201
 740:Lib/Camera_Middleware/sensors/vd6g/vd6g.c **** 
 2672              		.loc 1 740 3 discriminator 6 view .LVU773
 740:Lib/Camera_Middleware/sensors/vd6g/vd6g.c **** 
 2673              		.loc 1 740 3 discriminator 8 view .LVU774
 743:Lib/Camera_Middleware/sensors/vd6g/vd6g.c ****              !out_itf->data_lanes_mapping_swap_enable << 7 |
 2674              		.loc 1 743 3 view .LVU775
 743:Lib/Camera_Middleware/sensors/vd6g/vd6g.c ****              !out_itf->data_lanes_mapping_swap_enable << 7 |
 2675              		.loc 1 743 51 is_stmt 0 view .LVU776
 2676 004c D5E91503 		ldrd	r0, r3, [r5, #84]
 2677              	.LVL220:
 744:Lib/Camera_Middleware/sensors/vd6g/vd6g.c ****              out_itf->data_lane0_swap_enable << 6 |
 2678              		.loc 1 744 60 view .LVU777
 2679 0050 2A6D     		ldr	r2, [r5, #80]
 747:Lib/Camera_Middleware/sensors/vd6g/vd6g.c ****              out_itf->datalane_nb << 0;
 2680              		.loc 1 747 51 view .LVU778
 2681 0052 A96C     		ldr	r1, [r5, #72]
 744:Lib/Camera_Middleware/sensors/vd6g/vd6g.c ****              out_itf->data_lane0_swap_enable << 6 |
 2682              		.loc 1 744 60 view .LVU779
 2683 0054 9201     		lsls	r2, r2, #6
 747:Lib/Camera_Middleware/sensors/vd6g/vd6g.c ****              out_itf->datalane_nb << 0;
 2684              		.loc 1 747 51 view .LVU780
 2685 0056 42EA4022 		orr	r2, r2, r0, lsl #9
 2686 005a 0A43     		orrs	r2, r2, r1
 2687 005c 42EA0312 		orr	r2, r2, r3, lsl #4
 743:Lib/Camera_Middleware/sensors/vd6g/vd6g.c ****              !out_itf->data_lanes_mapping_swap_enable << 7 |
 2688              		.loc 1 743 51 view .LVU781
 2689 0060 B3FA83F3 		clz	r3, r3
 746:Lib/Camera_Middleware/sensors/vd6g/vd6g.c ****              out_itf->clock_lane_swap_enable << 3 |
 2690              		.loc 1 746 59 view .LVU782
 2691 0064 E96C     		ldr	r1, [r5, #76]
 743:Lib/Camera_Middleware/sensors/vd6g/vd6g.c ****              !out_itf->data_lanes_mapping_swap_enable << 7 |
 2692              		.loc 1 743 51 view .LVU783
 2693 0066 5B09     		lsrs	r3, r3, #5
 747:Lib/Camera_Middleware/sensors/vd6g/vd6g.c ****              out_itf->datalane_nb << 0;
 2694              		.loc 1 747 51 view .LVU784
 2695 0068 42EAC102 		orr	r2, r2, r1, lsl #3
 2696 006c 42EAC312 		orr	r2, r2, r3, lsl #7
 749:Lib/Camera_Middleware/sensors/vd6g/vd6g.c ****   VD6G_TraceError(ctx, ret);
 2697              		.loc 1 749 9 view .LVU785
 2698 0070 4FF44371 		mov	r1, #780
 2699 0074 2846     		mov	r0, r5
 2700 0076 6B69     		ldr	r3, [r5, #20]
 2701 0078 92B2     		uxth	r2, r2
 2702 007a 9847     		blx	r3
ARM GAS  /tmp/ccWHsT5O.s 			page 81


 2703              	.LVL221:
 750:Lib/Camera_Middleware/sensors/vd6g/vd6g.c **** 
 2704              		.loc 1 750 3 is_stmt 1 view .LVU786
 750:Lib/Camera_Middleware/sensors/vd6g/vd6g.c **** 
 2705              		.loc 1 750 3 view .LVU787
 2706 007c 0446     		mov	r4, r0
 2707 007e 78B1     		cbz	r0, .L233
 750:Lib/Camera_Middleware/sensors/vd6g/vd6g.c **** 
 2708              		.loc 1 750 3 discriminator 1 view .LVU788
 2709 0080 40F2EE23 		movw	r3, #750
 2710 0084 0090     		str	r0, [sp]
