ARM GAS  /tmp/ccWHsT5O.s 			page 1


   1              		.arch armv8.1-m.main
   2              		.fpu fpv5-d16
   3              		.arch_extension dsp
   4              		.arch_extension fp
   5              		.arch_extension fp.dp
   6              		.arch_extension mve
   7              		.arch_extension mve.fp
   8              		.eabi_attribute 5, "cortex-m55"
   9              		.eabi_attribute 28, 1
  10              		.eabi_attribute 20, 1
  11              		.eabi_attribute 21, 1
  12              		.eabi_attribute 23, 3
  13              		.eabi_attribute 24, 1
  14              		.eabi_attribute 25, 1
  15              		.eabi_attribute 26, 1
  16              		.eabi_attribute 30, 4
  17              		.eabi_attribute 34, 1
  18              		.eabi_attribute 38, 1
  19              		.eabi_attribute 18, 4
  20              		.file	"vd6g.c"
  21              		.text
  22              	.Ltext0:
  23              		.cfi_sections	.debug_frame
  24              		.file 1 "Lib/Camera_Middleware/sensors/vd6g/vd6g.c"
  25              		.section	.text.VD6G_error,"ax",%progbits
  26              		.align	1
  27              		.syntax unified
  28              		.thumb
  29              		.thumb_func
  31              	VD6G_error:
  32              	.LVL0:
  33              	.LFB3:
   1:Lib/Camera_Middleware/sensors/vd6g/vd6g.c **** /**
   2:Lib/Camera_Middleware/sensors/vd6g/vd6g.c ****   ******************************************************************************
   3:Lib/Camera_Middleware/sensors/vd6g/vd6g.c ****   * @file    vd6g.c
   4:Lib/Camera_Middleware/sensors/vd6g/vd6g.c ****   * @author  MDG Application Team
   5:Lib/Camera_Middleware/sensors/vd6g/vd6g.c ****   ******************************************************************************
   6:Lib/Camera_Middleware/sensors/vd6g/vd6g.c ****   * @attention
   7:Lib/Camera_Middleware/sensors/vd6g/vd6g.c ****   *
   8:Lib/Camera_Middleware/sensors/vd6g/vd6g.c ****   * Copyright (c) 2024 STMicroelectronics.
   9:Lib/Camera_Middleware/sensors/vd6g/vd6g.c ****   * All rights reserved.
  10:Lib/Camera_Middleware/sensors/vd6g/vd6g.c ****   *
  11:Lib/Camera_Middleware/sensors/vd6g/vd6g.c ****   * This software is licensed under terms that can be found in the LICENSE file
  12:Lib/Camera_Middleware/sensors/vd6g/vd6g.c ****   * in the root directory of this software component.
  13:Lib/Camera_Middleware/sensors/vd6g/vd6g.c ****   * If no LICENSE file comes with this software, it is provided AS-IS.
  14:Lib/Camera_Middleware/sensors/vd6g/vd6g.c ****   *
  15:Lib/Camera_Middleware/sensors/vd6g/vd6g.c ****   ******************************************************************************
  16:Lib/Camera_Middleware/sensors/vd6g/vd6g.c ****   */
  17:Lib/Camera_Middleware/sensors/vd6g/vd6g.c **** 
  18:Lib/Camera_Middleware/sensors/vd6g/vd6g.c **** #include "vd6g.h"
  19:Lib/Camera_Middleware/sensors/vd6g/vd6g.c **** 
  20:Lib/Camera_Middleware/sensors/vd6g/vd6g.c **** #include <assert.h>
  21:Lib/Camera_Middleware/sensors/vd6g/vd6g.c **** #include <stddef.h>
  22:Lib/Camera_Middleware/sensors/vd6g/vd6g.c **** 
  23:Lib/Camera_Middleware/sensors/vd6g/vd6g.c **** #define ARRAY_SIZE(a) (sizeof(a)/sizeof(a[0]))
  24:Lib/Camera_Middleware/sensors/vd6g/vd6g.c **** #include "vd6g_patch.c"
  25:Lib/Camera_Middleware/sensors/vd6g/vd6g.c **** #include "vd6g_vtpatch.c"
ARM GAS  /tmp/ccWHsT5O.s 			page 2


  26:Lib/Camera_Middleware/sensors/vd6g/vd6g.c **** 
  27:Lib/Camera_Middleware/sensors/vd6g/vd6g.c **** #define VD6G_REG_MODEL_ID                    0x0000
  28:Lib/Camera_Middleware/sensors/vd6g/vd6g.c ****   #define VD6G_MODEL_ID                      0x5603
  29:Lib/Camera_Middleware/sensors/vd6g/vd6g.c **** #define VD6G_REG_REVISION                    0x0002
  30:Lib/Camera_Middleware/sensors/vd6g/vd6g.c ****   #define VD6G_TOP_DIE_SLOW_BOOT             0x020
  31:Lib/Camera_Middleware/sensors/vd6g/vd6g.c ****   #define VD6G_TOP_DIE_FAST_BOOT             0x031
  32:Lib/Camera_Middleware/sensors/vd6g/vd6g.c **** #define VD6G_REG_ROM_REVISION                0x0014
  33:Lib/Camera_Middleware/sensors/vd6g/vd6g.c **** #define VD6G_REG_UI_REVISION                 0x0018
  34:Lib/Camera_Middleware/sensors/vd6g/vd6g.c **** #define VD6G_ERROR_CODE                      0x001c
  35:Lib/Camera_Middleware/sensors/vd6g/vd6g.c **** #define VD6G_REG_OPTICAL_REVISION            0x001a
  36:Lib/Camera_Middleware/sensors/vd6g/vd6g.c **** #define VD6G_REG_FWPATCH_REVISION            0x001e
  37:Lib/Camera_Middleware/sensors/vd6g/vd6g.c **** #define VD6G_REG_VTIMING_RD_REVISION         0x0020
  38:Lib/Camera_Middleware/sensors/vd6g/vd6g.c **** #define VD6G_REG_VTIMING_GR_REVISION         0x0024
  39:Lib/Camera_Middleware/sensors/vd6g/vd6g.c **** #define VD6G_REG_VTIMING_GT_REVISION         0x0026
  40:Lib/Camera_Middleware/sensors/vd6g/vd6g.c **** #define VD6G_REG_SYSTEM_FSM                  0x0028
  41:Lib/Camera_Middleware/sensors/vd6g/vd6g.c ****   #define VD6G_SYSTEM_FSM_READY_TO_BOOT      0x01
  42:Lib/Camera_Middleware/sensors/vd6g/vd6g.c ****   #define VD6G_SYSTEM_FSM_SW_STBY            0x02
  43:Lib/Camera_Middleware/sensors/vd6g/vd6g.c ****   #define VD6G_SYSTEM_FSM_STREAMING          0x03
  44:Lib/Camera_Middleware/sensors/vd6g/vd6g.c **** #define VD6G_REG_BOOT                        0x0200
  45:Lib/Camera_Middleware/sensors/vd6g/vd6g.c ****   #define VD6G_CMD_ACK                       0
  46:Lib/Camera_Middleware/sensors/vd6g/vd6g.c ****   #define VD6G_CMD_BOOT                      1
  47:Lib/Camera_Middleware/sensors/vd6g/vd6g.c ****   #define VD6G_CMD_PATCH_SETUP               2
  48:Lib/Camera_Middleware/sensors/vd6g/vd6g.c **** #define VD6G_REG_STBY                        0x0201
  49:Lib/Camera_Middleware/sensors/vd6g/vd6g.c ****   #define VD6G_CMD_START_STREAM              1
  50:Lib/Camera_Middleware/sensors/vd6g/vd6g.c **** #define VD6G_REG_STREAMING                   0x0202
  51:Lib/Camera_Middleware/sensors/vd6g/vd6g.c ****   #define VD6G_CMD_STOP_STREAM               1
  52:Lib/Camera_Middleware/sensors/vd6g/vd6g.c **** #define VD6G_REG_VTPATCHING                  0x0203
  53:Lib/Camera_Middleware/sensors/vd6g/vd6g.c ****   #define VD6G_CMD_START_VTRAM_UPDATE        1
  54:Lib/Camera_Middleware/sensors/vd6g/vd6g.c ****   #define VD6G_CMD_END_VTRAM_UPDATE          2
  55:Lib/Camera_Middleware/sensors/vd6g/vd6g.c **** #define VD6G_REG_EXT_CLOCK                   0x0220
  56:Lib/Camera_Middleware/sensors/vd6g/vd6g.c **** #define VD6G_REG_CLK_PLL_PREDIV              0x0224
  57:Lib/Camera_Middleware/sensors/vd6g/vd6g.c **** #define VD6G_REG_CLK_SYS_PLL_MULT            0x0226
  58:Lib/Camera_Middleware/sensors/vd6g/vd6g.c **** #define VD6G_LINE_LENGTH                     0x0300
  59:Lib/Camera_Middleware/sensors/vd6g/vd6g.c **** #define VD6G_REG_ORIENTATION                 0x0302
  60:Lib/Camera_Middleware/sensors/vd6g/vd6g.c **** #define VD6G_REG_FORMAT_CTRL                 0x030a
  61:Lib/Camera_Middleware/sensors/vd6g/vd6g.c **** #define VD6G_REG_OIF_CTRL                    0x030c
  62:Lib/Camera_Middleware/sensors/vd6g/vd6g.c **** #define VD6G_REG_OIF_IMG_CTRL                0x030f
  63:Lib/Camera_Middleware/sensors/vd6g/vd6g.c **** #define VD6G_REG_OIF_CSI_BITRATE             0x0312
  64:Lib/Camera_Middleware/sensors/vd6g/vd6g.c **** #define VD6G_REG_DUSTER_CTRL                 0x0318
  65:Lib/Camera_Middleware/sensors/vd6g/vd6g.c ****   #define VD6G_DUSTER_CTRL_DISABLE           0
  66:Lib/Camera_Middleware/sensors/vd6g/vd6g.c **** #define VD6G_REG_DARKCAL_CTRL                0x0340
  67:Lib/Camera_Middleware/sensors/vd6g/vd6g.c ****   #define VD6G_DARKCAL_CTRL_DISABLE          0
  68:Lib/Camera_Middleware/sensors/vd6g/vd6g.c ****   #define VD6G_DARKCAL_CTRL_ENABLE           1
  69:Lib/Camera_Middleware/sensors/vd6g/vd6g.c ****   #define VD6G_DARKCAL_CTRL_DISABLE_DARKAVG  2
  70:Lib/Camera_Middleware/sensors/vd6g/vd6g.c **** #define VD6G_REG_PATGEN_CTRL                 0x0400
  71:Lib/Camera_Middleware/sensors/vd6g/vd6g.c ****   #define VD6G_PATGEN_CTRL_DISABLE           0x0000
  72:Lib/Camera_Middleware/sensors/vd6g/vd6g.c ****   #define VD6G_PATGEN_CTRL_SOLID_COLOR       0x0011
  73:Lib/Camera_Middleware/sensors/vd6g/vd6g.c ****   #define VD6G_PATGEN_CTRL_VER_COLOR_BAR     0x0021
  74:Lib/Camera_Middleware/sensors/vd6g/vd6g.c ****   #define VD6G_PATGEN_CTRL_HOR_GRAY          0x0101
  75:Lib/Camera_Middleware/sensors/vd6g/vd6g.c ****   #define VD6G_PATGEN_CTRL_VER_GRAY          0x0111
  76:Lib/Camera_Middleware/sensors/vd6g/vd6g.c ****   #define VD6G_PATGEN_CTRL_DIAG_GRAY         0x0121
  77:Lib/Camera_Middleware/sensors/vd6g/vd6g.c ****   #define VD6G_PATGEN_CTRL_PSN               0x0131
  78:Lib/Camera_Middleware/sensors/vd6g/vd6g.c **** #define VD6G_REG_AE_COMPILER_CONTROL         0x0430
  79:Lib/Camera_Middleware/sensors/vd6g/vd6g.c ****   #define AE_COMP_CTRL_GAIN_PRIO             0
  80:Lib/Camera_Middleware/sensors/vd6g/vd6g.c ****   #define AE_COMP_CTRL_FLICKER_50_HZ         1
  81:Lib/Camera_Middleware/sensors/vd6g/vd6g.c ****   #define AE_COMP_CTRL_FLICKER_60_HZ         3
  82:Lib/Camera_Middleware/sensors/vd6g/vd6g.c **** #define VD6G_REG_AE_TARGET_PERCENTAGE        0x043c
ARM GAS  /tmp/ccWHsT5O.s 			page 3


  83:Lib/Camera_Middleware/sensors/vd6g/vd6g.c **** #define VD6G_REG_EXP_MODE                    0x044c
  84:Lib/Camera_Middleware/sensors/vd6g/vd6g.c ****   #define VD6G_EXP_AUTO                      0
  85:Lib/Camera_Middleware/sensors/vd6g/vd6g.c ****   #define VD6G_EXP_FREEZE                    1
  86:Lib/Camera_Middleware/sensors/vd6g/vd6g.c ****   #define VD6G_EXP_MANUAL                    2
  87:Lib/Camera_Middleware/sensors/vd6g/vd6g.c **** #define VD6G_REG_MANUAL_ANALOG_GAIN          0x044d
  88:Lib/Camera_Middleware/sensors/vd6g/vd6g.c **** #define VD6G_REG_MANUAL_COARSE_EXP           0x044e
  89:Lib/Camera_Middleware/sensors/vd6g/vd6g.c **** #define VD6G_REG_MANUAL_CH0_DIGITAL_GAIN     0x0450
  90:Lib/Camera_Middleware/sensors/vd6g/vd6g.c **** #define VD6G_REG_MANUAL_CH1_DIGITAL_GAIN     0x0452
  91:Lib/Camera_Middleware/sensors/vd6g/vd6g.c **** #define VD6G_REG_MANUAL_CH2_DIGITAL_GAIN     0x0454
  92:Lib/Camera_Middleware/sensors/vd6g/vd6g.c **** #define VD6G_REG_MANUAL_CH3_DIGITAL_GAIN     0x0456
  93:Lib/Camera_Middleware/sensors/vd6g/vd6g.c **** #define VD6G_FRAME_LENGTH                    0x0458
  94:Lib/Camera_Middleware/sensors/vd6g/vd6g.c **** #define VD6G_REG_OUT_ROI_X_START             0x045e
  95:Lib/Camera_Middleware/sensors/vd6g/vd6g.c **** #define VD6G_REG_OUT_ROI_X_END               0x0460
  96:Lib/Camera_Middleware/sensors/vd6g/vd6g.c **** #define VD6G_REG_OUT_ROI_Y_START             0x0462
  97:Lib/Camera_Middleware/sensors/vd6g/vd6g.c **** #define VD6G_REG_OUT_ROI_Y_END               0x0464
  98:Lib/Camera_Middleware/sensors/vd6g/vd6g.c **** #define VD6G_REG_GPIO_x_CTRL(_i_)            (0x0467 + _i_)
  99:Lib/Camera_Middleware/sensors/vd6g/vd6g.c ****   #define VD6G_REG_GPIO_INPUT                1
 100:Lib/Camera_Middleware/sensors/vd6g/vd6g.c **** #define VD6G_REG_READOUT_CTRL                0x047e
 101:Lib/Camera_Middleware/sensors/vd6g/vd6g.c **** #define VD6G_REG_EXP_COARSE_INTG_MARGIN      0x0946
 102:Lib/Camera_Middleware/sensors/vd6g/vd6g.c ****   #define VD6G_MIN_EXP_COARSE_INTG_MARGIN    68
 103:Lib/Camera_Middleware/sensors/vd6g/vd6g.c ****   #define VD6G_MIN_MANUAL_EXP_COARSE         21
 104:Lib/Camera_Middleware/sensors/vd6g/vd6g.c ****   #define VD6G_MAX_MANUAL_EXP_COARSE_OFFSET  7
 105:Lib/Camera_Middleware/sensors/vd6g/vd6g.c **** #define VD6G_DPHYTX_CTRL                     0x0956
 106:Lib/Camera_Middleware/sensors/vd6g/vd6g.c ****   #define DBG_CONT_MODE_DISABLED             0x0c
 107:Lib/Camera_Middleware/sensors/vd6g/vd6g.c ****   #define DBG_CONT_MODE_ENABLED              0x1c
 108:Lib/Camera_Middleware/sensors/vd6g/vd6g.c **** #define VD6G_REG_MAX_DG                      0x095E
 109:Lib/Camera_Middleware/sensors/vd6g/vd6g.c **** #define VD6G_REG_MAX_AG_CODED                0x0960
 110:Lib/Camera_Middleware/sensors/vd6g/vd6g.c ****   #define VD6G_REG_MAX_AG_CODED_MASK         0x001f
 111:Lib/Camera_Middleware/sensors/vd6g/vd6g.c **** #define VD6G_REG_MIN_DG                      0x097C
 112:Lib/Camera_Middleware/sensors/vd6g/vd6g.c **** #define VD6G_REG_MIN_AG_CODED                0x097E
 113:Lib/Camera_Middleware/sensors/vd6g/vd6g.c ****   #define VD6G_REG_MIN_AG_CODED_MASK         0x001f
 114:Lib/Camera_Middleware/sensors/vd6g/vd6g.c **** 
 115:Lib/Camera_Middleware/sensors/vd6g/vd6g.c **** #define VD6G_TARGET_PLL                      804000000UL
 116:Lib/Camera_Middleware/sensors/vd6g/vd6g.c **** 
 117:Lib/Camera_Middleware/sensors/vd6g/vd6g.c **** #define M_HZ                                 (1000 * 1000)
 118:Lib/Camera_Middleware/sensors/vd6g/vd6g.c **** #define VD6G_PIXEL_CLOCK                     160800000
 119:Lib/Camera_Middleware/sensors/vd6g/vd6g.c **** 
 120:Lib/Camera_Middleware/sensors/vd6g/vd6g.c **** #define CHECK_RANGE(x, min, max)             (((x) >= (min) && (x) <= (max)) ? 0 : -1)
 121:Lib/Camera_Middleware/sensors/vd6g/vd6g.c **** #define CEIL(num)                            ((num) == (int)(num) ? (int)(num) : (num) > 0 ? (int)(
 122:Lib/Camera_Middleware/sensors/vd6g/vd6g.c **** 
 123:Lib/Camera_Middleware/sensors/vd6g/vd6g.c **** enum vdg_bin_mode {
 124:Lib/Camera_Middleware/sensors/vd6g/vd6g.c ****   VD6G_BIN_MODE_NORMAL,
 125:Lib/Camera_Middleware/sensors/vd6g/vd6g.c ****   VD6G_BIN_MODE_DIGITAL_X2,
 126:Lib/Camera_Middleware/sensors/vd6g/vd6g.c ****   VD6G_BIN_MODE_DIGITAL_X4,
 127:Lib/Camera_Middleware/sensors/vd6g/vd6g.c **** };
 128:Lib/Camera_Middleware/sensors/vd6g/vd6g.c **** 
 129:Lib/Camera_Middleware/sensors/vd6g/vd6g.c **** struct vdg_rect {
 130:Lib/Camera_Middleware/sensors/vd6g/vd6g.c ****   int32_t left;
 131:Lib/Camera_Middleware/sensors/vd6g/vd6g.c ****   int32_t top;
 132:Lib/Camera_Middleware/sensors/vd6g/vd6g.c ****   uint32_t width;
 133:Lib/Camera_Middleware/sensors/vd6g/vd6g.c ****   uint32_t height;
 134:Lib/Camera_Middleware/sensors/vd6g/vd6g.c **** };
 135:Lib/Camera_Middleware/sensors/vd6g/vd6g.c **** 
 136:Lib/Camera_Middleware/sensors/vd6g/vd6g.c **** struct vdg_mode {
 137:Lib/Camera_Middleware/sensors/vd6g/vd6g.c ****   uint32_t width;
 138:Lib/Camera_Middleware/sensors/vd6g/vd6g.c ****   uint32_t height;
 139:Lib/Camera_Middleware/sensors/vd6g/vd6g.c ****   enum vdg_bin_mode bin_mode;
ARM GAS  /tmp/ccWHsT5O.s 			page 4


 140:Lib/Camera_Middleware/sensors/vd6g/vd6g.c ****   struct vdg_rect crop;
 141:Lib/Camera_Middleware/sensors/vd6g/vd6g.c **** };
 142:Lib/Camera_Middleware/sensors/vd6g/vd6g.c **** 
 143:Lib/Camera_Middleware/sensors/vd6g/vd6g.c **** static const struct vdg_mode vdg_supported_modes[] = {
 144:Lib/Camera_Middleware/sensors/vd6g/vd6g.c ****   {
 145:Lib/Camera_Middleware/sensors/vd6g/vd6g.c ****     .width = VD6G_MAX_WIDTH,
 146:Lib/Camera_Middleware/sensors/vd6g/vd6g.c ****     .height = VD6G_MAX_HEIGHT,
 147:Lib/Camera_Middleware/sensors/vd6g/vd6g.c ****     .bin_mode = VD6G_BIN_MODE_NORMAL,
 148:Lib/Camera_Middleware/sensors/vd6g/vd6g.c ****     .crop = {
 149:Lib/Camera_Middleware/sensors/vd6g/vd6g.c ****       .left = 2,
 150:Lib/Camera_Middleware/sensors/vd6g/vd6g.c ****       .top = 0,
 151:Lib/Camera_Middleware/sensors/vd6g/vd6g.c ****       .width = VD6G_MAX_WIDTH,
 152:Lib/Camera_Middleware/sensors/vd6g/vd6g.c ****       .height = VD6G_MAX_HEIGHT,
 153:Lib/Camera_Middleware/sensors/vd6g/vd6g.c ****     },
 154:Lib/Camera_Middleware/sensors/vd6g/vd6g.c ****   },
 155:Lib/Camera_Middleware/sensors/vd6g/vd6g.c ****   {
 156:Lib/Camera_Middleware/sensors/vd6g/vd6g.c ****     .width = 1024,
 157:Lib/Camera_Middleware/sensors/vd6g/vd6g.c ****     .height = 1280,
 158:Lib/Camera_Middleware/sensors/vd6g/vd6g.c ****     .bin_mode = VD6G_BIN_MODE_NORMAL,
 159:Lib/Camera_Middleware/sensors/vd6g/vd6g.c ****     .crop = {
 160:Lib/Camera_Middleware/sensors/vd6g/vd6g.c ****       .left = 50,
 161:Lib/Camera_Middleware/sensors/vd6g/vd6g.c ****       .top = 42,
 162:Lib/Camera_Middleware/sensors/vd6g/vd6g.c ****       .width = 1024,
 163:Lib/Camera_Middleware/sensors/vd6g/vd6g.c ****       .height = 1280,
 164:Lib/Camera_Middleware/sensors/vd6g/vd6g.c ****     },
 165:Lib/Camera_Middleware/sensors/vd6g/vd6g.c ****   },
 166:Lib/Camera_Middleware/sensors/vd6g/vd6g.c ****   {
 167:Lib/Camera_Middleware/sensors/vd6g/vd6g.c ****     .width = 1024,
 168:Lib/Camera_Middleware/sensors/vd6g/vd6g.c ****     .height = 768,
 169:Lib/Camera_Middleware/sensors/vd6g/vd6g.c ****     .bin_mode = VD6G_BIN_MODE_NORMAL,
 170:Lib/Camera_Middleware/sensors/vd6g/vd6g.c ****     .crop = {
 171:Lib/Camera_Middleware/sensors/vd6g/vd6g.c ****       .left = 50,
 172:Lib/Camera_Middleware/sensors/vd6g/vd6g.c ****       .top = 298,
 173:Lib/Camera_Middleware/sensors/vd6g/vd6g.c ****       .width = 1024,
 174:Lib/Camera_Middleware/sensors/vd6g/vd6g.c ****       .height = 768,
 175:Lib/Camera_Middleware/sensors/vd6g/vd6g.c ****     },
 176:Lib/Camera_Middleware/sensors/vd6g/vd6g.c ****   },
 177:Lib/Camera_Middleware/sensors/vd6g/vd6g.c ****   {
 178:Lib/Camera_Middleware/sensors/vd6g/vd6g.c ****     .width = 768,
 179:Lib/Camera_Middleware/sensors/vd6g/vd6g.c ****     .height = 1024,
 180:Lib/Camera_Middleware/sensors/vd6g/vd6g.c ****     .bin_mode = VD6G_BIN_MODE_NORMAL,
 181:Lib/Camera_Middleware/sensors/vd6g/vd6g.c ****     .crop = {
 182:Lib/Camera_Middleware/sensors/vd6g/vd6g.c ****       .left = 178,
 183:Lib/Camera_Middleware/sensors/vd6g/vd6g.c ****       .top = 170,
 184:Lib/Camera_Middleware/sensors/vd6g/vd6g.c ****       .width = 768,
 185:Lib/Camera_Middleware/sensors/vd6g/vd6g.c ****       .height = 1024,
 186:Lib/Camera_Middleware/sensors/vd6g/vd6g.c ****     },
 187:Lib/Camera_Middleware/sensors/vd6g/vd6g.c ****   },
 188:Lib/Camera_Middleware/sensors/vd6g/vd6g.c ****   {
 189:Lib/Camera_Middleware/sensors/vd6g/vd6g.c ****     .width = 720,
 190:Lib/Camera_Middleware/sensors/vd6g/vd6g.c ****     .height = 1280,
 191:Lib/Camera_Middleware/sensors/vd6g/vd6g.c ****     .bin_mode = VD6G_BIN_MODE_NORMAL,
 192:Lib/Camera_Middleware/sensors/vd6g/vd6g.c ****     .crop = {
 193:Lib/Camera_Middleware/sensors/vd6g/vd6g.c ****       .left = 202,
 194:Lib/Camera_Middleware/sensors/vd6g/vd6g.c ****       .top = 42,
 195:Lib/Camera_Middleware/sensors/vd6g/vd6g.c ****       .width = 720,
 196:Lib/Camera_Middleware/sensors/vd6g/vd6g.c ****       .height = 1280,
ARM GAS  /tmp/ccWHsT5O.s 			page 5


 197:Lib/Camera_Middleware/sensors/vd6g/vd6g.c ****     },
 198:Lib/Camera_Middleware/sensors/vd6g/vd6g.c ****   },
 199:Lib/Camera_Middleware/sensors/vd6g/vd6g.c ****   {
 200:Lib/Camera_Middleware/sensors/vd6g/vd6g.c ****     .width = 640,
 201:Lib/Camera_Middleware/sensors/vd6g/vd6g.c ****     .height = 480,
 202:Lib/Camera_Middleware/sensors/vd6g/vd6g.c ****     .bin_mode = VD6G_BIN_MODE_NORMAL,
 203:Lib/Camera_Middleware/sensors/vd6g/vd6g.c ****     .crop = {
 204:Lib/Camera_Middleware/sensors/vd6g/vd6g.c ****       .left = 242,
 205:Lib/Camera_Middleware/sensors/vd6g/vd6g.c ****       .top = 442,
 206:Lib/Camera_Middleware/sensors/vd6g/vd6g.c ****       .width = 640,
 207:Lib/Camera_Middleware/sensors/vd6g/vd6g.c ****       .height = 480,
 208:Lib/Camera_Middleware/sensors/vd6g/vd6g.c ****     },
 209:Lib/Camera_Middleware/sensors/vd6g/vd6g.c ****   },
 210:Lib/Camera_Middleware/sensors/vd6g/vd6g.c ****   {
 211:Lib/Camera_Middleware/sensors/vd6g/vd6g.c ****     .width = 480,
 212:Lib/Camera_Middleware/sensors/vd6g/vd6g.c ****     .height = 640,
 213:Lib/Camera_Middleware/sensors/vd6g/vd6g.c ****     .bin_mode = VD6G_BIN_MODE_DIGITAL_X2,
 214:Lib/Camera_Middleware/sensors/vd6g/vd6g.c ****     .crop = {
 215:Lib/Camera_Middleware/sensors/vd6g/vd6g.c ****       .left = 82,
 216:Lib/Camera_Middleware/sensors/vd6g/vd6g.c ****       .top = 42,
 217:Lib/Camera_Middleware/sensors/vd6g/vd6g.c ****       .width = 960,
 218:Lib/Camera_Middleware/sensors/vd6g/vd6g.c ****       .height = 1280,
 219:Lib/Camera_Middleware/sensors/vd6g/vd6g.c ****     },
 220:Lib/Camera_Middleware/sensors/vd6g/vd6g.c ****   },
 221:Lib/Camera_Middleware/sensors/vd6g/vd6g.c ****   {
 222:Lib/Camera_Middleware/sensors/vd6g/vd6g.c ****     .width = 320,
 223:Lib/Camera_Middleware/sensors/vd6g/vd6g.c ****     .height = 240,
 224:Lib/Camera_Middleware/sensors/vd6g/vd6g.c ****     .bin_mode = VD6G_BIN_MODE_DIGITAL_X2,
 225:Lib/Camera_Middleware/sensors/vd6g/vd6g.c ****     .crop = {
 226:Lib/Camera_Middleware/sensors/vd6g/vd6g.c ****       .left = 242,
 227:Lib/Camera_Middleware/sensors/vd6g/vd6g.c ****       .top = 442,
 228:Lib/Camera_Middleware/sensors/vd6g/vd6g.c ****       .width = 640,
 229:Lib/Camera_Middleware/sensors/vd6g/vd6g.c ****       .height = 480,
 230:Lib/Camera_Middleware/sensors/vd6g/vd6g.c ****     },
 231:Lib/Camera_Middleware/sensors/vd6g/vd6g.c ****   },
 232:Lib/Camera_Middleware/sensors/vd6g/vd6g.c ****   {
 233:Lib/Camera_Middleware/sensors/vd6g/vd6g.c ****     .width = VD6G_MAX_WIDTH,
 234:Lib/Camera_Middleware/sensors/vd6g/vd6g.c ****     .height = 720,
 235:Lib/Camera_Middleware/sensors/vd6g/vd6g.c ****     .bin_mode = VD6G_BIN_MODE_NORMAL,
 236:Lib/Camera_Middleware/sensors/vd6g/vd6g.c ****     .crop = {
 237:Lib/Camera_Middleware/sensors/vd6g/vd6g.c ****       .left = 2,
 238:Lib/Camera_Middleware/sensors/vd6g/vd6g.c ****       .top = 322,
 239:Lib/Camera_Middleware/sensors/vd6g/vd6g.c ****       .width = VD6G_MAX_WIDTH,
 240:Lib/Camera_Middleware/sensors/vd6g/vd6g.c ****       .height = 720,
 241:Lib/Camera_Middleware/sensors/vd6g/vd6g.c ****     },
 242:Lib/Camera_Middleware/sensors/vd6g/vd6g.c ****   },
 243:Lib/Camera_Middleware/sensors/vd6g/vd6g.c **** };
 244:Lib/Camera_Middleware/sensors/vd6g/vd6g.c **** 
 245:Lib/Camera_Middleware/sensors/vd6g/vd6g.c **** #define VD6G_TraceError(_ctx_,_ret_) do { \
 246:Lib/Camera_Middleware/sensors/vd6g/vd6g.c ****   if (_ret_) VD6G_error(_ctx_, "Error on %s:%d : %d\n", __func__, __LINE__, _ret_); \
 247:Lib/Camera_Middleware/sensors/vd6g/vd6g.c ****   if (_ret_) display_error(_ctx_); \
 248:Lib/Camera_Middleware/sensors/vd6g/vd6g.c ****   if (_ret_) return _ret_; \
 249:Lib/Camera_Middleware/sensors/vd6g/vd6g.c **** } while(0)
 250:Lib/Camera_Middleware/sensors/vd6g/vd6g.c **** 
 251:Lib/Camera_Middleware/sensors/vd6g/vd6g.c **** static void VD6G_dbg(VD6G_Ctx_t *ctx, int lvl, const char *format, ...)
 252:Lib/Camera_Middleware/sensors/vd6g/vd6g.c **** {
 253:Lib/Camera_Middleware/sensors/vd6g/vd6g.c ****   va_list ap;
ARM GAS  /tmp/ccWHsT5O.s 			page 6


 254:Lib/Camera_Middleware/sensors/vd6g/vd6g.c **** 
 255:Lib/Camera_Middleware/sensors/vd6g/vd6g.c ****   if (!ctx->log)
 256:Lib/Camera_Middleware/sensors/vd6g/vd6g.c ****     return ;
 257:Lib/Camera_Middleware/sensors/vd6g/vd6g.c **** 
 258:Lib/Camera_Middleware/sensors/vd6g/vd6g.c ****   va_start(ap, format);
 259:Lib/Camera_Middleware/sensors/vd6g/vd6g.c ****   ctx->log(ctx, VD6G_LVL_DBG(lvl), format, ap);
 260:Lib/Camera_Middleware/sensors/vd6g/vd6g.c ****   va_end(ap);
 261:Lib/Camera_Middleware/sensors/vd6g/vd6g.c **** }
 262:Lib/Camera_Middleware/sensors/vd6g/vd6g.c **** 
 263:Lib/Camera_Middleware/sensors/vd6g/vd6g.c **** static void VD6G_notice(VD6G_Ctx_t *ctx, const char *format, ...)
 264:Lib/Camera_Middleware/sensors/vd6g/vd6g.c **** {
 265:Lib/Camera_Middleware/sensors/vd6g/vd6g.c ****   va_list ap;
 266:Lib/Camera_Middleware/sensors/vd6g/vd6g.c **** 
 267:Lib/Camera_Middleware/sensors/vd6g/vd6g.c ****   if (!ctx->log)
 268:Lib/Camera_Middleware/sensors/vd6g/vd6g.c ****     return ;
 269:Lib/Camera_Middleware/sensors/vd6g/vd6g.c **** 
 270:Lib/Camera_Middleware/sensors/vd6g/vd6g.c ****   va_start(ap, format);
 271:Lib/Camera_Middleware/sensors/vd6g/vd6g.c ****   ctx->log(ctx, VD6G_LVL_NOTICE, format, ap);
 272:Lib/Camera_Middleware/sensors/vd6g/vd6g.c ****   va_end(ap);
 273:Lib/Camera_Middleware/sensors/vd6g/vd6g.c **** }
 274:Lib/Camera_Middleware/sensors/vd6g/vd6g.c **** 
 275:Lib/Camera_Middleware/sensors/vd6g/vd6g.c **** static void VD6G_warn(VD6G_Ctx_t *ctx, const char *format, ...)
 276:Lib/Camera_Middleware/sensors/vd6g/vd6g.c **** {
 277:Lib/Camera_Middleware/sensors/vd6g/vd6g.c ****   va_list ap;
 278:Lib/Camera_Middleware/sensors/vd6g/vd6g.c **** 
 279:Lib/Camera_Middleware/sensors/vd6g/vd6g.c ****   if (!ctx->log)
 280:Lib/Camera_Middleware/sensors/vd6g/vd6g.c ****     return ;
 281:Lib/Camera_Middleware/sensors/vd6g/vd6g.c **** 
 282:Lib/Camera_Middleware/sensors/vd6g/vd6g.c ****   va_start(ap, format);
 283:Lib/Camera_Middleware/sensors/vd6g/vd6g.c ****   ctx->log(ctx, VD6G_LVL_WARNING, format, ap);
 284:Lib/Camera_Middleware/sensors/vd6g/vd6g.c ****   va_end(ap);
 285:Lib/Camera_Middleware/sensors/vd6g/vd6g.c **** }
 286:Lib/Camera_Middleware/sensors/vd6g/vd6g.c **** 
 287:Lib/Camera_Middleware/sensors/vd6g/vd6g.c **** static void VD6G_error(VD6G_Ctx_t *ctx, const char *format, ...)
 288:Lib/Camera_Middleware/sensors/vd6g/vd6g.c **** {
  34              		.loc 1 288 1 view -0
  35              		.cfi_startproc
  36              		@ args = 4, pretend = 12, frame = 8
  37              		@ frame_needed = 0, uses_anonymous_args = 1
 289:Lib/Camera_Middleware/sensors/vd6g/vd6g.c ****   va_list ap;
  38              		.loc 1 289 3 view .LVU1
 290:Lib/Camera_Middleware/sensors/vd6g/vd6g.c **** 
 291:Lib/Camera_Middleware/sensors/vd6g/vd6g.c ****   if (!ctx->log)
  39              		.loc 1 291 3 view .LVU2
 288:Lib/Camera_Middleware/sensors/vd6g/vd6g.c ****   va_list ap;
  40              		.loc 1 288 1 is_stmt 0 view .LVU3
  41 0000 0EB4     		push	{r1, r2, r3}
  42              		.cfi_def_cfa_offset 12
  43              		.cfi_offset 1, -12
  44              		.cfi_offset 2, -8
  45              		.cfi_offset 3, -4
  46 0002 17B5     		push	{r0, r1, r2, r4, lr}
  47              		.cfi_def_cfa_offset 32
  48              		.cfi_offset 4, -20
  49              		.cfi_offset 14, -16
  50              		.loc 1 291 6 view .LVU4
  51 0004 446A     		ldr	r4, [r0, #36]
ARM GAS  /tmp/ccWHsT5O.s 			page 7


  52 0006 24B1     		cbz	r4, .L1
 292:Lib/Camera_Middleware/sensors/vd6g/vd6g.c ****     return ;
 293:Lib/Camera_Middleware/sensors/vd6g/vd6g.c **** 
 294:Lib/Camera_Middleware/sensors/vd6g/vd6g.c ****   va_start(ap, format);
  53              		.loc 1 294 3 is_stmt 1 view .LVU5
  54 0008 06AB     		add	r3, sp, #24
 295:Lib/Camera_Middleware/sensors/vd6g/vd6g.c ****   ctx->log(ctx, VD6G_LVL_ERROR, format, ap);
  55              		.loc 1 295 3 is_stmt 0 view .LVU6
  56 000a 0021     		movs	r1, #0
  57 000c 059A     		ldr	r2, [sp, #20]
 294:Lib/Camera_Middleware/sensors/vd6g/vd6g.c ****   ctx->log(ctx, VD6G_LVL_ERROR, format, ap);
  58              		.loc 1 294 3 view .LVU7
  59 000e 0193     		str	r3, [sp, #4]
  60              		.loc 1 295 3 is_stmt 1 view .LVU8
  61 0010 A047     		blx	r4
  62              	.LVL1:
 296:Lib/Camera_Middleware/sensors/vd6g/vd6g.c ****   va_end(ap);
  63              		.loc 1 296 3 view .LVU9
  64              	.L1:
 297:Lib/Camera_Middleware/sensors/vd6g/vd6g.c **** }
  65              		.loc 1 297 1 is_stmt 0 view .LVU10
  66 0012 03B0     		add	sp, sp, #12
  67              		.cfi_def_cfa_offset 20
  68              		@ sp needed
  69 0014 BDE81040 		pop	{r4, lr}
  70              		.cfi_restore 14
  71              		.cfi_restore 4
  72              		.cfi_def_cfa_offset 12
  73 0018 03B0     		add	sp, sp, #12
  74              		.cfi_restore 3
  75              		.cfi_restore 2
  76              		.cfi_restore 1
  77              		.cfi_def_cfa_offset 0
  78 001a 7047     		bx	lr
  79              		.cfi_endproc
  80              	.LFE3:
  82              		.section	.text.VD6G_notice,"ax",%progbits
  83              		.align	1
  84              		.syntax unified
  85              		.thumb
  86              		.thumb_func
  88              	VD6G_notice:
  89              	.LVL2:
  90              	.LFB1:
 264:Lib/Camera_Middleware/sensors/vd6g/vd6g.c ****   va_list ap;
  91              		.loc 1 264 1 is_stmt 1 view -0
  92              		.cfi_startproc
  93              		@ args = 4, pretend = 12, frame = 8
  94              		@ frame_needed = 0, uses_anonymous_args = 1
 265:Lib/Camera_Middleware/sensors/vd6g/vd6g.c **** 
  95              		.loc 1 265 3 view .LVU12
 267:Lib/Camera_Middleware/sensors/vd6g/vd6g.c ****     return ;
  96              		.loc 1 267 3 view .LVU13
 264:Lib/Camera_Middleware/sensors/vd6g/vd6g.c ****   va_list ap;
  97              		.loc 1 264 1 is_stmt 0 view .LVU14
  98 0000 0EB4     		push	{r1, r2, r3}
  99              		.cfi_def_cfa_offset 12
ARM GAS  /tmp/ccWHsT5O.s 			page 8


 100              		.cfi_offset 1, -12
 101              		.cfi_offset 2, -8
 102              		.cfi_offset 3, -4
 103 0002 17B5     		push	{r0, r1, r2, r4, lr}
 104              		.cfi_def_cfa_offset 32
 105              		.cfi_offset 4, -20
 106              		.cfi_offset 14, -16
 267:Lib/Camera_Middleware/sensors/vd6g/vd6g.c ****     return ;
 107              		.loc 1 267 6 view .LVU15
 108 0004 446A     		ldr	r4, [r0, #36]
 109 0006 24B1     		cbz	r4, .L6
 270:Lib/Camera_Middleware/sensors/vd6g/vd6g.c ****   ctx->log(ctx, VD6G_LVL_NOTICE, format, ap);
 110              		.loc 1 270 3 is_stmt 1 view .LVU16
 111 0008 06AB     		add	r3, sp, #24
 271:Lib/Camera_Middleware/sensors/vd6g/vd6g.c ****   va_end(ap);
 112              		.loc 1 271 3 is_stmt 0 view .LVU17
 113 000a 0221     		movs	r1, #2
 114 000c 059A     		ldr	r2, [sp, #20]
 270:Lib/Camera_Middleware/sensors/vd6g/vd6g.c ****   ctx->log(ctx, VD6G_LVL_NOTICE, format, ap);
 115              		.loc 1 270 3 view .LVU18
 116 000e 0193     		str	r3, [sp, #4]
 271:Lib/Camera_Middleware/sensors/vd6g/vd6g.c ****   va_end(ap);
 117              		.loc 1 271 3 is_stmt 1 view .LVU19
 118 0010 A047     		blx	r4
 119              	.LVL3:
 272:Lib/Camera_Middleware/sensors/vd6g/vd6g.c **** }
 120              		.loc 1 272 3 view .LVU20
 121              	.L6:
 273:Lib/Camera_Middleware/sensors/vd6g/vd6g.c **** 
 122              		.loc 1 273 1 is_stmt 0 view .LVU21
 123 0012 03B0     		add	sp, sp, #12
 124              		.cfi_def_cfa_offset 20
 125              		@ sp needed
 126 0014 BDE81040 		pop	{r4, lr}
 127              		.cfi_restore 14
 128              		.cfi_restore 4
 129              		.cfi_def_cfa_offset 12
 130 0018 03B0     		add	sp, sp, #12
 131              		.cfi_restore 3
 132              		.cfi_restore 2
 133              		.cfi_restore 1
 134              		.cfi_def_cfa_offset 0
 135 001a 7047     		bx	lr
 136              		.cfi_endproc
 137              	.LFE1:
 139              		.section	.rodata.display_error.str1.1,"aMS",%progbits,1
 140              	.LC1:
 141 0000 72657420 		.ascii	"ret == 0\000"
 141      3D3D2030 
 141      00
 142              	.LC2:
 143 0009 4C69622F 		.ascii	"Lib/Camera_Middleware/sensors/vd6g/vd6g.c\000"
 143      43616D65 
 143      72615F4D 
 143      6964646C 
 143      65776172 
 144              	.LC3:
ARM GAS  /tmp/ccWHsT5O.s 			page 9


 145 0033 4552524F 		.ascii	"ERROR_CODE : 0x%04x\012\000"
 145      525F434F 
 145      4445203A 
 145      20307825 
 145      3034780A 
 146              		.section	.text.display_error,"ax",%progbits
 147              		.align	1
 148              		.syntax unified
 149              		.thumb
 150              		.thumb_func
 152              	display_error:
 153              	.LVL4:
 154              	.LFB4:
 298:Lib/Camera_Middleware/sensors/vd6g/vd6g.c **** 
 299:Lib/Camera_Middleware/sensors/vd6g/vd6g.c **** static void display_error(VD6G_Ctx_t *ctx)
 300:Lib/Camera_Middleware/sensors/vd6g/vd6g.c **** {
 155              		.loc 1 300 1 is_stmt 1 view -0
 156              		.cfi_startproc
 157              		@ args = 0, pretend = 0, frame = 8
 158              		@ frame_needed = 0, uses_anonymous_args = 0
 301:Lib/Camera_Middleware/sensors/vd6g/vd6g.c ****   uint16_t reg16;
 159              		.loc 1 301 3 view .LVU23
 302:Lib/Camera_Middleware/sensors/vd6g/vd6g.c ****   int ret;
 160              		.loc 1 302 3 view .LVU24
 303:Lib/Camera_Middleware/sensors/vd6g/vd6g.c **** 
 304:Lib/Camera_Middleware/sensors/vd6g/vd6g.c ****   ret = ctx->read16(ctx, VD6G_ERROR_CODE, &reg16);
 161              		.loc 1 304 3 view .LVU25
 300:Lib/Camera_Middleware/sensors/vd6g/vd6g.c ****   uint16_t reg16;
 162              		.loc 1 300 1 is_stmt 0 view .LVU26
 163 0000 13B5     		push	{r0, r1, r4, lr}
 164              		.cfi_def_cfa_offset 16
 165              		.cfi_offset 4, -8
 166              		.cfi_offset 14, -4
 167              		.loc 1 304 9 view .LVU27
 168 0002 8368     		ldr	r3, [r0, #8]
 169 0004 1C21     		movs	r1, #28
 170 0006 0DF10602 		add	r2, sp, #6
 300:Lib/Camera_Middleware/sensors/vd6g/vd6g.c ****   uint16_t reg16;
 171              		.loc 1 300 1 view .LVU28
 172 000a 0446     		mov	r4, r0
 173              		.loc 1 304 9 view .LVU29
 174 000c 9847     		blx	r3
 175              	.LVL5:
 305:Lib/Camera_Middleware/sensors/vd6g/vd6g.c ****   assert(ret == 0);
 176              		.loc 1 305 3 is_stmt 1 view .LVU30
 177 000e 30B1     		cbz	r0, .L12
 178              	.LBB4:
 179              	.LBI4:
 299:Lib/Camera_Middleware/sensors/vd6g/vd6g.c **** {
 180              		.loc 1 299 13 view .LVU31
 181              	.LVL6:
 182              	.LBB5:
 183              		.loc 1 305 3 is_stmt 0 discriminator 1 view .LVU32
 184 0010 40F23111 		movw	r1, #305
 185 0014 064B     		ldr	r3, .L13
 186 0016 074A     		ldr	r2, .L13+4
 187 0018 0748     		ldr	r0, .L13+8
ARM GAS  /tmp/ccWHsT5O.s 			page 10


 188              	.LVL7:
 189              		.loc 1 305 3 discriminator 1 view .LVU33
 190 001a FFF7FEFF 		bl	__assert_func
 191              	.LVL8:
 192              	.L12:
 193              		.loc 1 305 3 discriminator 1 view .LVU34
 194              	.LBE5:
 195              	.LBE4:
 306:Lib/Camera_Middleware/sensors/vd6g/vd6g.c ****   VD6G_error(ctx, "ERROR_CODE : 0x%04x\n", reg16);
 196              		.loc 1 306 3 is_stmt 1 view .LVU35
 197 001e 2046     		mov	r0, r4
 198              	.LVL9:
 199              		.loc 1 306 3 is_stmt 0 view .LVU36
 200 0020 BDF80620 		ldrh	r2, [sp, #6]
 201 0024 0549     		ldr	r1, .L13+12
 202 0026 FFF7FEFF 		bl	VD6G_error
 203              	.LVL10:
 307:Lib/Camera_Middleware/sensors/vd6g/vd6g.c **** }
 204              		.loc 1 307 1 view .LVU37
 205 002a 02B0     		add	sp, sp, #8
 206              		.cfi_def_cfa_offset 8
 207              		@ sp needed
 208 002c 10BD     		pop	{r4, pc}
 209              	.LVL11:
 210              	.L14:
 211              		.loc 1 307 1 view .LVU38
 212 002e 00BF     		.align	2
 213              	.L13:
 214 0030 00000000 		.word	.LC1
 215 0034 00000000 		.word	__func__.29
 216 0038 09000000 		.word	.LC2
 217 003c 33000000 		.word	.LC3
 218              		.cfi_endproc
 219              	.LFE4:
 221              		.section	.rodata.VD6G_PollReg8.str1.1,"aMS",%progbits,1
 222              	.LC4:
 223 0000 4572726F 		.ascii	"Error on %s:%d : %d\012\000"
 223      72206F6E 
 223      2025733A 
 223      2564203A 
 223      2025640A 
 224              		.section	.text.VD6G_PollReg8,"ax",%progbits
 225              		.align	1
 226              		.syntax unified
 227              		.thumb
 228              		.thumb_func
 230              	VD6G_PollReg8:
 231              	.LVL12:
 232              	.LFB5:
 308:Lib/Camera_Middleware/sensors/vd6g/vd6g.c **** 
 309:Lib/Camera_Middleware/sensors/vd6g/vd6g.c **** static int VD6G_PollReg8(VD6G_Ctx_t *ctx, uint16_t addr, uint8_t poll_val)
 310:Lib/Camera_Middleware/sensors/vd6g/vd6g.c **** {
 233              		.loc 1 310 1 is_stmt 1 view -0
 234              		.cfi_startproc
 235              		@ args = 0, pretend = 0, frame = 8
 236              		@ frame_needed = 0, uses_anonymous_args = 0
 311:Lib/Camera_Middleware/sensors/vd6g/vd6g.c ****   const unsigned int loop_delay_ms = 10;
ARM GAS  /tmp/ccWHsT5O.s 			page 11


 237              		.loc 1 311 3 view .LVU40
 312:Lib/Camera_Middleware/sensors/vd6g/vd6g.c ****   const unsigned int timeout_ms = 500;
 238              		.loc 1 312 3 view .LVU41
 313:Lib/Camera_Middleware/sensors/vd6g/vd6g.c ****   int loop_nb = timeout_ms / loop_delay_ms;
 239              		.loc 1 313 3 view .LVU42
 314:Lib/Camera_Middleware/sensors/vd6g/vd6g.c ****   uint8_t val;
 240              		.loc 1 314 3 view .LVU43
 315:Lib/Camera_Middleware/sensors/vd6g/vd6g.c ****   int ret;
 241              		.loc 1 315 3 view .LVU44
 316:Lib/Camera_Middleware/sensors/vd6g/vd6g.c **** 
 317:Lib/Camera_Middleware/sensors/vd6g/vd6g.c ****   while (--loop_nb) {
 242              		.loc 1 317 3 view .LVU45
 243              		.loc 1 317 10 view .LVU46
 310:Lib/Camera_Middleware/sensors/vd6g/vd6g.c ****   const unsigned int loop_delay_ms = 10;
 244              		.loc 1 310 1 is_stmt 0 view .LVU47
 245 0000 2DE9FF41 		push	{r0, r1, r2, r3, r4, r5, r6, r7, r8, lr}
 246              		.cfi_def_cfa_offset 40
 247              		.cfi_offset 4, -24
 248              		.cfi_offset 5, -20
 249              		.cfi_offset 6, -16
 250              		.cfi_offset 7, -12
 251              		.cfi_offset 8, -8
 252              		.cfi_offset 14, -4
 310:Lib/Camera_Middleware/sensors/vd6g/vd6g.c ****   const unsigned int loop_delay_ms = 10;
 253              		.loc 1 310 1 view .LVU48
 254 0004 0446     		mov	r4, r0
 255 0006 0F46     		mov	r7, r1
 256 0008 9046     		mov	r8, r2
 257 000a 3126     		movs	r6, #49
 258              	.LVL13:
 259              	.L19:
 318:Lib/Camera_Middleware/sensors/vd6g/vd6g.c ****     ret = ctx->read8(ctx, addr, &val);
 260              		.loc 1 318 5 is_stmt 1 view .LVU49
 261              		.loc 1 318 11 is_stmt 0 view .LVU50
 262 000c 3946     		mov	r1, r7
 263 000e 2046     		mov	r0, r4
 264 0010 6368     		ldr	r3, [r4, #4]
 265 0012 0DF10F02 		add	r2, sp, #15
 266 0016 9847     		blx	r3
 267              	.LVL14:
 319:Lib/Camera_Middleware/sensors/vd6g/vd6g.c ****     VD6G_TraceError(ctx, ret);
 268              		.loc 1 319 5 is_stmt 1 view .LVU51
 269              		.loc 1 319 5 view .LVU52
 270 0018 0546     		mov	r5, r0
 271 001a 38B9     		cbnz	r0, .L16
 272              		.loc 1 319 5 discriminator 6 view .LVU53
 273              		.loc 1 319 5 discriminator 8 view .LVU54
 320:Lib/Camera_Middleware/sensors/vd6g/vd6g.c ****     if (val == poll_val)
 274              		.loc 1 320 5 view .LVU55
 275              		.loc 1 320 8 is_stmt 0 view .LVU56
 276 001c 9DF80F30 		ldrb	r3, [sp, #15]	@ zero_extendqisi2
 277 0020 4345     		cmp	r3, r8
 278 0022 0FD1     		bne	.L21
 279              	.LVL15:
 280              	.L15:
 321:Lib/Camera_Middleware/sensors/vd6g/vd6g.c ****       return 0;
 322:Lib/Camera_Middleware/sensors/vd6g/vd6g.c ****     ctx->delay(ctx, loop_delay_ms);
ARM GAS  /tmp/ccWHsT5O.s 			page 12


 323:Lib/Camera_Middleware/sensors/vd6g/vd6g.c ****   }
 324:Lib/Camera_Middleware/sensors/vd6g/vd6g.c **** 
 325:Lib/Camera_Middleware/sensors/vd6g/vd6g.c ****   return -1;
 326:Lib/Camera_Middleware/sensors/vd6g/vd6g.c **** }
 281              		.loc 1 326 1 view .LVU57
 282 0024 2846     		mov	r0, r5
 283 0026 04B0     		add	sp, sp, #16
 284              		.cfi_remember_state
 285              		.cfi_def_cfa_offset 24
 286              		@ sp needed
 287 0028 BDE8F081 		pop	{r4, r5, r6, r7, r8, pc}
 288              	.LVL16:
 289              	.L16:
 290              		.cfi_restore_state
 319:Lib/Camera_Middleware/sensors/vd6g/vd6g.c ****     if (val == poll_val)
 291              		.loc 1 319 5 is_stmt 1 discriminator 1 view .LVU58
 292 002c 0090     		str	r0, [sp]
 293 002e 40F23F13 		movw	r3, #319
 294 0032 2046     		mov	r0, r4
 295              	.LVL17:
 319:Lib/Camera_Middleware/sensors/vd6g/vd6g.c ****     if (val == poll_val)
 296              		.loc 1 319 5 is_stmt 0 discriminator 1 view .LVU59
 297 0034 084A     		ldr	r2, .L22
 298 0036 0949     		ldr	r1, .L22+4
 299 0038 FFF7FEFF 		bl	VD6G_error
 300              	.LVL18:
 319:Lib/Camera_Middleware/sensors/vd6g/vd6g.c ****     if (val == poll_val)
 301              		.loc 1 319 5 is_stmt 1 discriminator 3 view .LVU60
 319:Lib/Camera_Middleware/sensors/vd6g/vd6g.c ****     if (val == poll_val)
 302              		.loc 1 319 5 discriminator 4 view .LVU61
 303 003c 2046     		mov	r0, r4
 304 003e FFF7FEFF 		bl	display_error
 305              	.LVL19:
 319:Lib/Camera_Middleware/sensors/vd6g/vd6g.c ****     if (val == poll_val)
 306              		.loc 1 319 5 discriminator 6 view .LVU62
 307 0042 EFE7     		b	.L15
 308              	.LVL20:
 309              	.L21:
 322:Lib/Camera_Middleware/sensors/vd6g/vd6g.c ****   }
 310              		.loc 1 322 5 view .LVU63
 311 0044 0A21     		movs	r1, #10
 312 0046 2046     		mov	r0, r4
 313              	.LVL21:
 322:Lib/Camera_Middleware/sensors/vd6g/vd6g.c ****   }
 314              		.loc 1 322 5 is_stmt 0 view .LVU64
 315 0048 236A     		ldr	r3, [r4, #32]
 316 004a 9847     		blx	r3
 317              	.LVL22:
 317:Lib/Camera_Middleware/sensors/vd6g/vd6g.c ****     ret = ctx->read8(ctx, addr, &val);
 318              		.loc 1 317 10 is_stmt 1 view .LVU65
 317:Lib/Camera_Middleware/sensors/vd6g/vd6g.c ****     ret = ctx->read8(ctx, addr, &val);
 319              		.loc 1 317 10 is_stmt 0 view .LVU66
 320 004c 013E     		subs	r6, r6, #1
 321              	.LVL23:
 317:Lib/Camera_Middleware/sensors/vd6g/vd6g.c ****     ret = ctx->read8(ctx, addr, &val);
 322              		.loc 1 317 10 view .LVU67
 323 004e DDD1     		bne	.L19
ARM GAS  /tmp/ccWHsT5O.s 			page 13


 325:Lib/Camera_Middleware/sensors/vd6g/vd6g.c **** }
 324              		.loc 1 325 10 view .LVU68
 325 0050 4FF0FF35 		mov	r5, #-1
 326              	.LVL24:
 325:Lib/Camera_Middleware/sensors/vd6g/vd6g.c **** }
 327              		.loc 1 325 10 view .LVU69
 328 0054 E6E7     		b	.L15
 329              	.L23:
 330 0056 00BF     		.align	2
 331              	.L22:
 332 0058 00000000 		.word	__func__.30
 333 005c 00000000 		.word	.LC4
 334              		.cfi_endproc
 335              	.LFE5:
 337              		.section	.text.VD6G_SetExposureModeInternal,"ax",%progbits
 338              		.align	1
 339              		.syntax unified
 340              		.thumb
 341              		.thumb_func
 343              	VD6G_SetExposureModeInternal:
 344              	.LVL25:
 345              	.LFB17:
 327:Lib/Camera_Middleware/sensors/vd6g/vd6g.c **** 
 328:Lib/Camera_Middleware/sensors/vd6g/vd6g.c **** static int VD6G_GetLineTimeInUs(VD6G_Ctx_t *ctx, uint32_t *line_time_in_us)
 329:Lib/Camera_Middleware/sensors/vd6g/vd6g.c **** {
 330:Lib/Camera_Middleware/sensors/vd6g/vd6g.c ****   uint16_t line_len;
 331:Lib/Camera_Middleware/sensors/vd6g/vd6g.c ****   int ret;
 332:Lib/Camera_Middleware/sensors/vd6g/vd6g.c **** 
 333:Lib/Camera_Middleware/sensors/vd6g/vd6g.c ****   ret = ctx->read16(ctx, VD6G_LINE_LENGTH, &line_len);
 334:Lib/Camera_Middleware/sensors/vd6g/vd6g.c ****   VD6G_TraceError(ctx, ret);
 335:Lib/Camera_Middleware/sensors/vd6g/vd6g.c **** 
 336:Lib/Camera_Middleware/sensors/vd6g/vd6g.c ****   /* compute line_time_in_us */
 337:Lib/Camera_Middleware/sensors/vd6g/vd6g.c ****   *line_time_in_us = ((uint64_t)line_len * 1000000) / VD6G_PIXEL_CLOCK;
 338:Lib/Camera_Middleware/sensors/vd6g/vd6g.c **** 
 339:Lib/Camera_Middleware/sensors/vd6g/vd6g.c ****   return 0;
 340:Lib/Camera_Middleware/sensors/vd6g/vd6g.c **** }
 341:Lib/Camera_Middleware/sensors/vd6g/vd6g.c **** 
 342:Lib/Camera_Middleware/sensors/vd6g/vd6g.c **** static int VD6G_IsStreaming(VD6G_Ctx_t *ctx)
 343:Lib/Camera_Middleware/sensors/vd6g/vd6g.c **** {
 344:Lib/Camera_Middleware/sensors/vd6g/vd6g.c ****   uint8_t state;
 345:Lib/Camera_Middleware/sensors/vd6g/vd6g.c ****   int ret;
 346:Lib/Camera_Middleware/sensors/vd6g/vd6g.c **** 
 347:Lib/Camera_Middleware/sensors/vd6g/vd6g.c ****   ret = ctx->read8(ctx, VD6G_REG_SYSTEM_FSM, &state);
 348:Lib/Camera_Middleware/sensors/vd6g/vd6g.c ****   VD6G_TraceError(ctx, ret);
 349:Lib/Camera_Middleware/sensors/vd6g/vd6g.c **** 
 350:Lib/Camera_Middleware/sensors/vd6g/vd6g.c ****   return state == VD6G_SYSTEM_FSM_STREAMING;
 351:Lib/Camera_Middleware/sensors/vd6g/vd6g.c **** }
 352:Lib/Camera_Middleware/sensors/vd6g/vd6g.c **** 
 353:Lib/Camera_Middleware/sensors/vd6g/vd6g.c **** static int VD6G_WaitState(VD6G_Ctx_t *ctx, int state)
 354:Lib/Camera_Middleware/sensors/vd6g/vd6g.c **** {
 355:Lib/Camera_Middleware/sensors/vd6g/vd6g.c ****   int ret = VD6G_PollReg8(ctx, VD6G_REG_SYSTEM_FSM, state);
 356:Lib/Camera_Middleware/sensors/vd6g/vd6g.c **** 
 357:Lib/Camera_Middleware/sensors/vd6g/vd6g.c ****   if (ret)
 358:Lib/Camera_Middleware/sensors/vd6g/vd6g.c ****     VD6G_warn(ctx, "Unable to reach state %d\n", state);
 359:Lib/Camera_Middleware/sensors/vd6g/vd6g.c ****   else
 360:Lib/Camera_Middleware/sensors/vd6g/vd6g.c ****     VD6G_dbg(ctx, 0, "reach state %d\n", state);
 361:Lib/Camera_Middleware/sensors/vd6g/vd6g.c **** 
ARM GAS  /tmp/ccWHsT5O.s 			page 14


 362:Lib/Camera_Middleware/sensors/vd6g/vd6g.c ****   return ret;
 363:Lib/Camera_Middleware/sensors/vd6g/vd6g.c **** }
 364:Lib/Camera_Middleware/sensors/vd6g/vd6g.c **** 
 365:Lib/Camera_Middleware/sensors/vd6g/vd6g.c **** static int VD6G_GetTopDie(VD6G_Ctx_t *ctx, uint8_t *top_die)
 366:Lib/Camera_Middleware/sensors/vd6g/vd6g.c **** {
 367:Lib/Camera_Middleware/sensors/vd6g/vd6g.c ****   uint16_t reg16;
 368:Lib/Camera_Middleware/sensors/vd6g/vd6g.c ****   int ret;
 369:Lib/Camera_Middleware/sensors/vd6g/vd6g.c **** 
 370:Lib/Camera_Middleware/sensors/vd6g/vd6g.c ****   ret = ctx->read16(ctx, VD6G_REG_REVISION, &reg16);
 371:Lib/Camera_Middleware/sensors/vd6g/vd6g.c ****   VD6G_TraceError(ctx, ret);
 372:Lib/Camera_Middleware/sensors/vd6g/vd6g.c ****   VD6G_dbg(ctx, 0, "revision = 0x%04x\n", reg16);
 373:Lib/Camera_Middleware/sensors/vd6g/vd6g.c ****   *top_die = reg16 >> 8;
 374:Lib/Camera_Middleware/sensors/vd6g/vd6g.c **** 
 375:Lib/Camera_Middleware/sensors/vd6g/vd6g.c ****   return 0;
 376:Lib/Camera_Middleware/sensors/vd6g/vd6g.c **** }
 377:Lib/Camera_Middleware/sensors/vd6g/vd6g.c **** 
 378:Lib/Camera_Middleware/sensors/vd6g/vd6g.c **** static int VD6G_CheckModelId(VD6G_Ctx_t *ctx)
 379:Lib/Camera_Middleware/sensors/vd6g/vd6g.c **** {
 380:Lib/Camera_Middleware/sensors/vd6g/vd6g.c ****   uint8_t top_die;
 381:Lib/Camera_Middleware/sensors/vd6g/vd6g.c ****   uint16_t reg16;
 382:Lib/Camera_Middleware/sensors/vd6g/vd6g.c ****   int ret;
 383:Lib/Camera_Middleware/sensors/vd6g/vd6g.c **** 
 384:Lib/Camera_Middleware/sensors/vd6g/vd6g.c ****   ret = ctx->read16(ctx, VD6G_REG_MODEL_ID, &reg16);
 385:Lib/Camera_Middleware/sensors/vd6g/vd6g.c ****   VD6G_TraceError(ctx, ret);
 386:Lib/Camera_Middleware/sensors/vd6g/vd6g.c ****   VD6G_dbg(ctx, 0, "model_id = 0x%04x\n", reg16);
 387:Lib/Camera_Middleware/sensors/vd6g/vd6g.c ****   if (reg16 != VD6G_MODEL_ID) {
 388:Lib/Camera_Middleware/sensors/vd6g/vd6g.c ****     VD6G_error(ctx, "Bad model id expected 0x%04x / got 0x%04x\n", VD6G_MODEL_ID, reg16);
 389:Lib/Camera_Middleware/sensors/vd6g/vd6g.c ****     return -1;
 390:Lib/Camera_Middleware/sensors/vd6g/vd6g.c ****   }
 391:Lib/Camera_Middleware/sensors/vd6g/vd6g.c **** 
 392:Lib/Camera_Middleware/sensors/vd6g/vd6g.c ****   ret = VD6G_GetTopDie(ctx, &top_die);
 393:Lib/Camera_Middleware/sensors/vd6g/vd6g.c ****   if (ret)
 394:Lib/Camera_Middleware/sensors/vd6g/vd6g.c ****     return ret;
 395:Lib/Camera_Middleware/sensors/vd6g/vd6g.c ****   if (top_die != VD6G_TOP_DIE_SLOW_BOOT && top_die != VD6G_TOP_DIE_FAST_BOOT) {
 396:Lib/Camera_Middleware/sensors/vd6g/vd6g.c ****     VD6G_error(ctx, "Unsupported revision\n");
 397:Lib/Camera_Middleware/sensors/vd6g/vd6g.c ****     return -1;
 398:Lib/Camera_Middleware/sensors/vd6g/vd6g.c ****   }
 399:Lib/Camera_Middleware/sensors/vd6g/vd6g.c **** 
 400:Lib/Camera_Middleware/sensors/vd6g/vd6g.c ****   ret = ctx->read16(ctx, VD6G_REG_ROM_REVISION, &reg16);
 401:Lib/Camera_Middleware/sensors/vd6g/vd6g.c ****   VD6G_TraceError(ctx, ret);
 402:Lib/Camera_Middleware/sensors/vd6g/vd6g.c ****   VD6G_dbg(ctx, 0, "rom = 0x%04x\n", reg16);
 403:Lib/Camera_Middleware/sensors/vd6g/vd6g.c **** 
 404:Lib/Camera_Middleware/sensors/vd6g/vd6g.c ****   return 0;
 405:Lib/Camera_Middleware/sensors/vd6g/vd6g.c **** }
 406:Lib/Camera_Middleware/sensors/vd6g/vd6g.c **** 
 407:Lib/Camera_Middleware/sensors/vd6g/vd6g.c **** static int VD6G_ApplyPatchSlowBoot(VD6G_Ctx_t *ctx)
 408:Lib/Camera_Middleware/sensors/vd6g/vd6g.c **** {
 409:Lib/Camera_Middleware/sensors/vd6g/vd6g.c ****   uint8_t patch_major;
 410:Lib/Camera_Middleware/sensors/vd6g/vd6g.c ****   uint8_t patch_minor;
 411:Lib/Camera_Middleware/sensors/vd6g/vd6g.c ****   uint16_t reg16;
 412:Lib/Camera_Middleware/sensors/vd6g/vd6g.c ****   int ret;
 413:Lib/Camera_Middleware/sensors/vd6g/vd6g.c **** 
 414:Lib/Camera_Middleware/sensors/vd6g/vd6g.c ****   patch_major = patch_cut2[3];
 415:Lib/Camera_Middleware/sensors/vd6g/vd6g.c ****   patch_minor = patch_cut2[2];
 416:Lib/Camera_Middleware/sensors/vd6g/vd6g.c **** 
 417:Lib/Camera_Middleware/sensors/vd6g/vd6g.c ****   ret = ctx->write_array(ctx, 0x2000, (uint8_t *) patch_cut2, sizeof(patch_cut2));
 418:Lib/Camera_Middleware/sensors/vd6g/vd6g.c ****   VD6G_TraceError(ctx, ret);
ARM GAS  /tmp/ccWHsT5O.s 			page 15


 419:Lib/Camera_Middleware/sensors/vd6g/vd6g.c **** 
 420:Lib/Camera_Middleware/sensors/vd6g/vd6g.c ****   ret = ctx->write8(ctx, VD6G_REG_BOOT, VD6G_CMD_PATCH_SETUP);
 421:Lib/Camera_Middleware/sensors/vd6g/vd6g.c ****   VD6G_TraceError(ctx, ret);
 422:Lib/Camera_Middleware/sensors/vd6g/vd6g.c **** 
 423:Lib/Camera_Middleware/sensors/vd6g/vd6g.c ****   ret = VD6G_PollReg8(ctx, VD6G_REG_BOOT, VD6G_CMD_ACK);
 424:Lib/Camera_Middleware/sensors/vd6g/vd6g.c ****   if (ret)
 425:Lib/Camera_Middleware/sensors/vd6g/vd6g.c ****     return ret;
 426:Lib/Camera_Middleware/sensors/vd6g/vd6g.c **** 
 427:Lib/Camera_Middleware/sensors/vd6g/vd6g.c ****   ret = ctx->read16(ctx, VD6G_REG_FWPATCH_REVISION, &reg16);
 428:Lib/Camera_Middleware/sensors/vd6g/vd6g.c ****   VD6G_TraceError(ctx, ret);
 429:Lib/Camera_Middleware/sensors/vd6g/vd6g.c ****   VD6G_dbg(ctx, 0, "patch = 0x%04x\n", reg16);
 430:Lib/Camera_Middleware/sensors/vd6g/vd6g.c **** 
 431:Lib/Camera_Middleware/sensors/vd6g/vd6g.c ****   if (reg16 != (patch_major << 8) + patch_minor) {
 432:Lib/Camera_Middleware/sensors/vd6g/vd6g.c ****     VD6G_error(ctx, "bad patch version expected %d.%d got %d.%d\n", patch_major, patch_minor,
 433:Lib/Camera_Middleware/sensors/vd6g/vd6g.c ****                  reg16 >> 8, reg16 & 0xff);
 434:Lib/Camera_Middleware/sensors/vd6g/vd6g.c ****     return -1;
 435:Lib/Camera_Middleware/sensors/vd6g/vd6g.c ****   }
 436:Lib/Camera_Middleware/sensors/vd6g/vd6g.c ****   VD6G_notice(ctx, "patch %d.%d applied\n", reg16 >> 8, reg16 & 0xff);
 437:Lib/Camera_Middleware/sensors/vd6g/vd6g.c **** 
 438:Lib/Camera_Middleware/sensors/vd6g/vd6g.c ****   return 0;
 439:Lib/Camera_Middleware/sensors/vd6g/vd6g.c **** }
 440:Lib/Camera_Middleware/sensors/vd6g/vd6g.c **** 
 441:Lib/Camera_Middleware/sensors/vd6g/vd6g.c **** static int VD6G_ApplyPatch(VD6G_Ctx_t *ctx)
 442:Lib/Camera_Middleware/sensors/vd6g/vd6g.c **** {
 443:Lib/Camera_Middleware/sensors/vd6g/vd6g.c ****   uint8_t top_die;
 444:Lib/Camera_Middleware/sensors/vd6g/vd6g.c ****   int ret;
 445:Lib/Camera_Middleware/sensors/vd6g/vd6g.c **** 
 446:Lib/Camera_Middleware/sensors/vd6g/vd6g.c ****   ret = VD6G_GetTopDie(ctx, &top_die);
 447:Lib/Camera_Middleware/sensors/vd6g/vd6g.c ****   if (ret)
 448:Lib/Camera_Middleware/sensors/vd6g/vd6g.c ****     return ret;
 449:Lib/Camera_Middleware/sensors/vd6g/vd6g.c **** 
 450:Lib/Camera_Middleware/sensors/vd6g/vd6g.c ****   switch (top_die) {
 451:Lib/Camera_Middleware/sensors/vd6g/vd6g.c ****   case VD6G_TOP_DIE_SLOW_BOOT:
 452:Lib/Camera_Middleware/sensors/vd6g/vd6g.c ****     ret = VD6G_ApplyPatchSlowBoot(ctx);
 453:Lib/Camera_Middleware/sensors/vd6g/vd6g.c ****     break;
 454:Lib/Camera_Middleware/sensors/vd6g/vd6g.c ****   case VD6G_TOP_DIE_FAST_BOOT:
 455:Lib/Camera_Middleware/sensors/vd6g/vd6g.c ****     ret = 0;
 456:Lib/Camera_Middleware/sensors/vd6g/vd6g.c ****     break;
 457:Lib/Camera_Middleware/sensors/vd6g/vd6g.c ****   default:
 458:Lib/Camera_Middleware/sensors/vd6g/vd6g.c ****     assert(0);
 459:Lib/Camera_Middleware/sensors/vd6g/vd6g.c ****   }
 460:Lib/Camera_Middleware/sensors/vd6g/vd6g.c **** 
 461:Lib/Camera_Middleware/sensors/vd6g/vd6g.c ****   return ret;
 462:Lib/Camera_Middleware/sensors/vd6g/vd6g.c **** }
 463:Lib/Camera_Middleware/sensors/vd6g/vd6g.c **** 
 464:Lib/Camera_Middleware/sensors/vd6g/vd6g.c **** static int VD6G_BootMcu(VD6G_Ctx_t *ctx)
 465:Lib/Camera_Middleware/sensors/vd6g/vd6g.c **** {
 466:Lib/Camera_Middleware/sensors/vd6g/vd6g.c ****   int ret;
 467:Lib/Camera_Middleware/sensors/vd6g/vd6g.c **** 
 468:Lib/Camera_Middleware/sensors/vd6g/vd6g.c ****   ret = ctx->write8(ctx, VD6G_REG_BOOT, VD6G_CMD_BOOT);
 469:Lib/Camera_Middleware/sensors/vd6g/vd6g.c ****   VD6G_TraceError(ctx, ret);
 470:Lib/Camera_Middleware/sensors/vd6g/vd6g.c **** 
 471:Lib/Camera_Middleware/sensors/vd6g/vd6g.c ****   ret = VD6G_PollReg8(ctx, VD6G_REG_BOOT, VD6G_CMD_ACK);
 472:Lib/Camera_Middleware/sensors/vd6g/vd6g.c ****   if (ret)
 473:Lib/Camera_Middleware/sensors/vd6g/vd6g.c ****     return ret;
 474:Lib/Camera_Middleware/sensors/vd6g/vd6g.c **** 
 475:Lib/Camera_Middleware/sensors/vd6g/vd6g.c ****   ret = VD6G_WaitState(ctx, VD6G_SYSTEM_FSM_SW_STBY);
ARM GAS  /tmp/ccWHsT5O.s 			page 16


 476:Lib/Camera_Middleware/sensors/vd6g/vd6g.c ****   if (ret)
 477:Lib/Camera_Middleware/sensors/vd6g/vd6g.c ****     return ret;
 478:Lib/Camera_Middleware/sensors/vd6g/vd6g.c **** 
 479:Lib/Camera_Middleware/sensors/vd6g/vd6g.c ****   VD6G_notice(ctx, "sensor boot successfully\n");
 480:Lib/Camera_Middleware/sensors/vd6g/vd6g.c **** 
 481:Lib/Camera_Middleware/sensors/vd6g/vd6g.c ****   return 0;
 482:Lib/Camera_Middleware/sensors/vd6g/vd6g.c **** }
 483:Lib/Camera_Middleware/sensors/vd6g/vd6g.c **** 
 484:Lib/Camera_Middleware/sensors/vd6g/vd6g.c **** static int VD6G_ApplyVtPatchSlowBoot(VD6G_Ctx_t *ctx)
 485:Lib/Camera_Middleware/sensors/vd6g/vd6g.c **** {
 486:Lib/Camera_Middleware/sensors/vd6g/vd6g.c ****   uint8_t cur_vtpatch_rd_rev, cur_vtpatch_gr_rev, cur_vtpatch_gt_rev;
 487:Lib/Camera_Middleware/sensors/vd6g/vd6g.c ****   int vtpatch_offset = 0;
 488:Lib/Camera_Middleware/sensors/vd6g/vd6g.c ****   int ret;
 489:Lib/Camera_Middleware/sensors/vd6g/vd6g.c ****   int i;
 490:Lib/Camera_Middleware/sensors/vd6g/vd6g.c **** 
 491:Lib/Camera_Middleware/sensors/vd6g/vd6g.c ****   ret = ctx->write8(ctx, VD6G_REG_VTPATCHING, VD6G_CMD_START_VTRAM_UPDATE);
 492:Lib/Camera_Middleware/sensors/vd6g/vd6g.c ****   VD6G_TraceError(ctx, ret);
 493:Lib/Camera_Middleware/sensors/vd6g/vd6g.c **** 
 494:Lib/Camera_Middleware/sensors/vd6g/vd6g.c ****   ret = VD6G_PollReg8(ctx, VD6G_REG_VTPATCHING, VD6G_CMD_ACK);
 495:Lib/Camera_Middleware/sensors/vd6g/vd6g.c ****   if (ret)
 496:Lib/Camera_Middleware/sensors/vd6g/vd6g.c ****     return ret;
 497:Lib/Camera_Middleware/sensors/vd6g/vd6g.c **** 
 498:Lib/Camera_Middleware/sensors/vd6g/vd6g.c ****   ret = VD6G_WaitState(ctx, VD6G_SYSTEM_FSM_SW_STBY);
 499:Lib/Camera_Middleware/sensors/vd6g/vd6g.c ****   if (ret)
 500:Lib/Camera_Middleware/sensors/vd6g/vd6g.c ****     return ret;
 501:Lib/Camera_Middleware/sensors/vd6g/vd6g.c **** 
 502:Lib/Camera_Middleware/sensors/vd6g/vd6g.c ****   for (i = 0; i < vtpatch_area_nb; i++) {
 503:Lib/Camera_Middleware/sensors/vd6g/vd6g.c ****     ret = ctx->write_array(ctx, vtpatch_desc[i].offset, (uint8_t *) (vtpatch + vtpatch_offset),
 504:Lib/Camera_Middleware/sensors/vd6g/vd6g.c ****                            vtpatch_desc[i].size);
 505:Lib/Camera_Middleware/sensors/vd6g/vd6g.c ****     VD6G_TraceError(ctx, ret);
 506:Lib/Camera_Middleware/sensors/vd6g/vd6g.c ****     vtpatch_offset += vtpatch_desc[i].size;
 507:Lib/Camera_Middleware/sensors/vd6g/vd6g.c ****   }
 508:Lib/Camera_Middleware/sensors/vd6g/vd6g.c ****   ret = ctx->write8(ctx, 0xd9f8, VT_REVISION);
 509:Lib/Camera_Middleware/sensors/vd6g/vd6g.c ****   VD6G_TraceError(ctx, ret);
 510:Lib/Camera_Middleware/sensors/vd6g/vd6g.c ****   ret = ctx->write8(ctx, 0xaffc, VT_REVISION);
 511:Lib/Camera_Middleware/sensors/vd6g/vd6g.c ****   VD6G_TraceError(ctx, ret);
 512:Lib/Camera_Middleware/sensors/vd6g/vd6g.c ****   ret = ctx->write8(ctx, 0xbbb4, VT_REVISION);
 513:Lib/Camera_Middleware/sensors/vd6g/vd6g.c ****   VD6G_TraceError(ctx, ret);
 514:Lib/Camera_Middleware/sensors/vd6g/vd6g.c ****   ret = ctx->write8(ctx, 0xb898, VT_REVISION);
 515:Lib/Camera_Middleware/sensors/vd6g/vd6g.c ****   VD6G_TraceError(ctx, ret);
 516:Lib/Camera_Middleware/sensors/vd6g/vd6g.c **** 
 517:Lib/Camera_Middleware/sensors/vd6g/vd6g.c ****   ret = ctx->write8(ctx, VD6G_REG_VTPATCHING, VD6G_CMD_END_VTRAM_UPDATE);
 518:Lib/Camera_Middleware/sensors/vd6g/vd6g.c ****   VD6G_TraceError(ctx, ret);
 519:Lib/Camera_Middleware/sensors/vd6g/vd6g.c **** 
 520:Lib/Camera_Middleware/sensors/vd6g/vd6g.c ****   ret = VD6G_PollReg8(ctx, VD6G_REG_VTPATCHING, VD6G_CMD_ACK);
 521:Lib/Camera_Middleware/sensors/vd6g/vd6g.c ****   if (ret)
 522:Lib/Camera_Middleware/sensors/vd6g/vd6g.c ****     return ret;
 523:Lib/Camera_Middleware/sensors/vd6g/vd6g.c **** 
 524:Lib/Camera_Middleware/sensors/vd6g/vd6g.c ****   ret = VD6G_WaitState(ctx, VD6G_SYSTEM_FSM_SW_STBY);
 525:Lib/Camera_Middleware/sensors/vd6g/vd6g.c ****   if (ret)
 526:Lib/Camera_Middleware/sensors/vd6g/vd6g.c ****     return ret;
 527:Lib/Camera_Middleware/sensors/vd6g/vd6g.c **** 
 528:Lib/Camera_Middleware/sensors/vd6g/vd6g.c ****   ret = ctx->read8(ctx, VD6G_REG_VTIMING_RD_REVISION, &cur_vtpatch_rd_rev);
 529:Lib/Camera_Middleware/sensors/vd6g/vd6g.c ****   VD6G_TraceError(ctx, ret);
 530:Lib/Camera_Middleware/sensors/vd6g/vd6g.c ****   ret = ctx->read8(ctx, VD6G_REG_VTIMING_GR_REVISION, &cur_vtpatch_gr_rev);
 531:Lib/Camera_Middleware/sensors/vd6g/vd6g.c ****   VD6G_TraceError(ctx, ret);
 532:Lib/Camera_Middleware/sensors/vd6g/vd6g.c ****   ret = ctx->read8(ctx, VD6G_REG_VTIMING_GT_REVISION, &cur_vtpatch_gt_rev);
ARM GAS  /tmp/ccWHsT5O.s 			page 17


 533:Lib/Camera_Middleware/sensors/vd6g/vd6g.c ****   VD6G_TraceError(ctx, ret);
 534:Lib/Camera_Middleware/sensors/vd6g/vd6g.c **** 
 535:Lib/Camera_Middleware/sensors/vd6g/vd6g.c ****   if (cur_vtpatch_rd_rev != VT_REVISION ||
 536:Lib/Camera_Middleware/sensors/vd6g/vd6g.c ****       cur_vtpatch_gr_rev != VT_REVISION ||
 537:Lib/Camera_Middleware/sensors/vd6g/vd6g.c ****       cur_vtpatch_gt_rev != VT_REVISION) {
 538:Lib/Camera_Middleware/sensors/vd6g/vd6g.c ****     VD6G_error(ctx, "bad vtpatch version, expected %d got rd:%d, gr:%d gt:%d\n", VT_REVISION, cur_v
 539:Lib/Camera_Middleware/sensors/vd6g/vd6g.c ****                  cur_vtpatch_gr_rev, cur_vtpatch_gt_rev);
 540:Lib/Camera_Middleware/sensors/vd6g/vd6g.c ****     return -1;
 541:Lib/Camera_Middleware/sensors/vd6g/vd6g.c ****   }
 542:Lib/Camera_Middleware/sensors/vd6g/vd6g.c ****   VD6G_notice(ctx, "VT patch %d applied\n", VT_REVISION);
 543:Lib/Camera_Middleware/sensors/vd6g/vd6g.c **** 
 544:Lib/Camera_Middleware/sensors/vd6g/vd6g.c ****   return 0;
 545:Lib/Camera_Middleware/sensors/vd6g/vd6g.c **** }
 546:Lib/Camera_Middleware/sensors/vd6g/vd6g.c **** 
 547:Lib/Camera_Middleware/sensors/vd6g/vd6g.c **** static int VD6G_ApplyVtPatch(VD6G_Ctx_t *ctx)
 548:Lib/Camera_Middleware/sensors/vd6g/vd6g.c **** {
 549:Lib/Camera_Middleware/sensors/vd6g/vd6g.c ****   uint8_t top_die;
 550:Lib/Camera_Middleware/sensors/vd6g/vd6g.c ****   int ret;
 551:Lib/Camera_Middleware/sensors/vd6g/vd6g.c **** 
 552:Lib/Camera_Middleware/sensors/vd6g/vd6g.c ****   ret = VD6G_GetTopDie(ctx, &top_die);
 553:Lib/Camera_Middleware/sensors/vd6g/vd6g.c ****   if (ret)
 554:Lib/Camera_Middleware/sensors/vd6g/vd6g.c ****     return ret;
 555:Lib/Camera_Middleware/sensors/vd6g/vd6g.c **** 
 556:Lib/Camera_Middleware/sensors/vd6g/vd6g.c ****   switch (top_die) {
 557:Lib/Camera_Middleware/sensors/vd6g/vd6g.c ****   case VD6G_TOP_DIE_SLOW_BOOT:
 558:Lib/Camera_Middleware/sensors/vd6g/vd6g.c ****     ret = VD6G_ApplyVtPatchSlowBoot(ctx);
 559:Lib/Camera_Middleware/sensors/vd6g/vd6g.c ****     break;
 560:Lib/Camera_Middleware/sensors/vd6g/vd6g.c ****   case VD6G_TOP_DIE_FAST_BOOT:
 561:Lib/Camera_Middleware/sensors/vd6g/vd6g.c ****     ret = 0;
 562:Lib/Camera_Middleware/sensors/vd6g/vd6g.c ****     break;
 563:Lib/Camera_Middleware/sensors/vd6g/vd6g.c ****   default:
 564:Lib/Camera_Middleware/sensors/vd6g/vd6g.c ****     assert(0);
 565:Lib/Camera_Middleware/sensors/vd6g/vd6g.c ****   }
 566:Lib/Camera_Middleware/sensors/vd6g/vd6g.c **** 
 567:Lib/Camera_Middleware/sensors/vd6g/vd6g.c ****   return ret;
 568:Lib/Camera_Middleware/sensors/vd6g/vd6g.c **** }
 569:Lib/Camera_Middleware/sensors/vd6g/vd6g.c **** 
 570:Lib/Camera_Middleware/sensors/vd6g/vd6g.c **** static int VD6G_SetBayerType(VD6G_Ctx_t *ctx)
 571:Lib/Camera_Middleware/sensors/vd6g/vd6g.c **** {
 572:Lib/Camera_Middleware/sensors/vd6g/vd6g.c ****   struct drv_vd6g_ctx *drv_ctx = &ctx->ctx;
 573:Lib/Camera_Middleware/sensors/vd6g/vd6g.c ****   uint8_t reg8;
 574:Lib/Camera_Middleware/sensors/vd6g/vd6g.c ****   int ret;
 575:Lib/Camera_Middleware/sensors/vd6g/vd6g.c **** 
 576:Lib/Camera_Middleware/sensors/vd6g/vd6g.c ****   ret = ctx->read8(ctx, VD6G_REG_OPTICAL_REVISION, &reg8);
 577:Lib/Camera_Middleware/sensors/vd6g/vd6g.c ****   VD6G_TraceError(ctx, ret);
 578:Lib/Camera_Middleware/sensors/vd6g/vd6g.c **** 
 579:Lib/Camera_Middleware/sensors/vd6g/vd6g.c ****   if (!(reg8 & 1)) {
 580:Lib/Camera_Middleware/sensors/vd6g/vd6g.c ****     ctx->bayer = VD6G_BAYER_NONE;
 581:Lib/Camera_Middleware/sensors/vd6g/vd6g.c ****     return 0;
 582:Lib/Camera_Middleware/sensors/vd6g/vd6g.c ****   }
 583:Lib/Camera_Middleware/sensors/vd6g/vd6g.c **** 
 584:Lib/Camera_Middleware/sensors/vd6g/vd6g.c ****   switch (drv_ctx->config_save.flip_mirror_mode) {
 585:Lib/Camera_Middleware/sensors/vd6g/vd6g.c ****   case VD6G_MIRROR_FLIP_NONE:
 586:Lib/Camera_Middleware/sensors/vd6g/vd6g.c ****     ctx->bayer = VD6G_BAYER_GRBG;
 587:Lib/Camera_Middleware/sensors/vd6g/vd6g.c ****     break;
 588:Lib/Camera_Middleware/sensors/vd6g/vd6g.c ****   case VD6G_FLIP:
 589:Lib/Camera_Middleware/sensors/vd6g/vd6g.c ****     ctx->bayer = VD6G_BAYER_BGGR;
ARM GAS  /tmp/ccWHsT5O.s 			page 18


 590:Lib/Camera_Middleware/sensors/vd6g/vd6g.c ****     break;
 591:Lib/Camera_Middleware/sensors/vd6g/vd6g.c ****   case VD6G_MIRROR:
 592:Lib/Camera_Middleware/sensors/vd6g/vd6g.c ****     ctx->bayer = VD6G_BAYER_RGGB;
 593:Lib/Camera_Middleware/sensors/vd6g/vd6g.c ****     break;
 594:Lib/Camera_Middleware/sensors/vd6g/vd6g.c ****   case VD6G_MIRROR_FLIP:
 595:Lib/Camera_Middleware/sensors/vd6g/vd6g.c ****     ctx->bayer = VD6G_BAYER_GBRG;
 596:Lib/Camera_Middleware/sensors/vd6g/vd6g.c ****     break;
 597:Lib/Camera_Middleware/sensors/vd6g/vd6g.c ****   default:
 598:Lib/Camera_Middleware/sensors/vd6g/vd6g.c ****     assert(0);
 599:Lib/Camera_Middleware/sensors/vd6g/vd6g.c ****   }
 600:Lib/Camera_Middleware/sensors/vd6g/vd6g.c **** 
 601:Lib/Camera_Middleware/sensors/vd6g/vd6g.c ****   return 0;
 602:Lib/Camera_Middleware/sensors/vd6g/vd6g.c **** }
 603:Lib/Camera_Middleware/sensors/vd6g/vd6g.c **** 
 604:Lib/Camera_Middleware/sensors/vd6g/vd6g.c **** static int VD6G_SetExposureModeInternal(VD6G_Ctx_t *ctx, VD6G_ExposureMode_t mode)
 605:Lib/Camera_Middleware/sensors/vd6g/vd6g.c **** {
 346              		.loc 1 605 1 is_stmt 1 view -0
 347              		.cfi_startproc
 348              		@ args = 0, pretend = 0, frame = 0
 349              		@ frame_needed = 0, uses_anonymous_args = 0
 606:Lib/Camera_Middleware/sensors/vd6g/vd6g.c ****   int ret;
 350              		.loc 1 606 3 view .LVU71
 607:Lib/Camera_Middleware/sensors/vd6g/vd6g.c **** 
 608:Lib/Camera_Middleware/sensors/vd6g/vd6g.c ****   if ((mode != VD6G_EXPOSURE_AUTO) &&
 351              		.loc 1 608 3 view .LVU72
 352              		.loc 1 608 6 is_stmt 0 view .LVU73
 353 0000 0229     		cmp	r1, #2
 605:Lib/Camera_Middleware/sensors/vd6g/vd6g.c ****   int ret;
 354              		.loc 1 605 1 view .LVU74
 355 0002 37B5     		push	{r0, r1, r2, r4, r5, lr}
 356              		.cfi_def_cfa_offset 24
 357              		.cfi_offset 4, -12
 358              		.cfi_offset 5, -8
 359              		.cfi_offset 14, -4
 605:Lib/Camera_Middleware/sensors/vd6g/vd6g.c ****   int ret;
 360              		.loc 1 605 1 view .LVU75
 361 0004 0546     		mov	r5, r0
 362 0006 0A46     		mov	r2, r1
 363              		.loc 1 608 6 view .LVU76
 364 0008 13D8     		bhi	.L27
 609:Lib/Camera_Middleware/sensors/vd6g/vd6g.c ****       (mode != VD6G_EXPOSURE_FREEZE_AEALGO) &&
 610:Lib/Camera_Middleware/sensors/vd6g/vd6g.c ****       (mode != VD6G_EXPOSURE_MANUAL)) {
 611:Lib/Camera_Middleware/sensors/vd6g/vd6g.c ****     return -1;
 612:Lib/Camera_Middleware/sensors/vd6g/vd6g.c ****   }
 613:Lib/Camera_Middleware/sensors/vd6g/vd6g.c **** 
 614:Lib/Camera_Middleware/sensors/vd6g/vd6g.c ****   ret = ctx->write8(ctx, VD6G_REG_EXP_MODE, mode);
 365              		.loc 1 614 3 is_stmt 1 view .LVU77
 366              		.loc 1 614 9 is_stmt 0 view .LVU78
 367 000a 40F24C41 		movw	r1, #1100
 368              	.LVL26:
 369              		.loc 1 614 9 view .LVU79
 370 000e 0369     		ldr	r3, [r0, #16]
 371 0010 9847     		blx	r3
 372              	.LVL27:
 615:Lib/Camera_Middleware/sensors/vd6g/vd6g.c ****   VD6G_TraceError(ctx, ret);
 373              		.loc 1 615 3 is_stmt 1 view .LVU80
 374              		.loc 1 615 3 view .LVU81
ARM GAS  /tmp/ccWHsT5O.s 			page 19


 375 0012 0446     		mov	r4, r0
 376 0014 50B1     		cbz	r0, .L24
 377              		.loc 1 615 3 discriminator 1 view .LVU82
 378 0016 0090     		str	r0, [sp]
 379 0018 40F26723 		movw	r3, #615
 380 001c 2846     		mov	r0, r5
 381              	.LVL28:
 382              		.loc 1 615 3 is_stmt 0 discriminator 1 view .LVU83
 383 001e 064A     		ldr	r2, .L31
 384 0020 0649     		ldr	r1, .L31+4
 385 0022 FFF7FEFF 		bl	VD6G_error
 386              	.LVL29:
 387              		.loc 1 615 3 is_stmt 1 discriminator 3 view .LVU84
 388              		.loc 1 615 3 discriminator 4 view .LVU85
 389 0026 2846     		mov	r0, r5
 390 0028 FFF7FEFF 		bl	display_error
 391              	.LVL30:
 392              	.L24:
 616:Lib/Camera_Middleware/sensors/vd6g/vd6g.c **** 
 617:Lib/Camera_Middleware/sensors/vd6g/vd6g.c ****   return 0;
 618:Lib/Camera_Middleware/sensors/vd6g/vd6g.c **** }
 393              		.loc 1 618 1 is_stmt 0 view .LVU86
 394 002c 2046     		mov	r0, r4
 395 002e 03B0     		add	sp, sp, #12
 396              		.cfi_remember_state
 397              		.cfi_def_cfa_offset 12
 398              		@ sp needed
 399 0030 30BD     		pop	{r4, r5, pc}
 400              	.LVL31:
 401              	.L27:
 402              		.cfi_restore_state
 611:Lib/Camera_Middleware/sensors/vd6g/vd6g.c ****   }
 403              		.loc 1 611 12 view .LVU87
 404 0032 4FF0FF34 		mov	r4, #-1
 405 0036 F9E7     		b	.L24
 406              	.L32:
 407              		.align	2
 408              	.L31:
 409 0038 00000000 		.word	__func__.15
 410 003c 00000000 		.word	.LC4
 411              		.cfi_endproc
 412              	.LFE17:
 414              		.section	.text.VD6G_SetFlicker,"ax",%progbits
 415              		.align	1
 416              		.syntax unified
 417              		.thumb
 418              		.thumb_func
 420              	VD6G_SetFlicker:
 421              	.LVL32:
 422              	.LFB29:
 619:Lib/Camera_Middleware/sensors/vd6g/vd6g.c **** 
 620:Lib/Camera_Middleware/sensors/vd6g/vd6g.c **** static int VD6G_Gpios(VD6G_Ctx_t *ctx)
 621:Lib/Camera_Middleware/sensors/vd6g/vd6g.c **** {
 622:Lib/Camera_Middleware/sensors/vd6g/vd6g.c ****   struct drv_vd6g_ctx *drv_ctx = &ctx->ctx;
 623:Lib/Camera_Middleware/sensors/vd6g/vd6g.c ****   int ret;
 624:Lib/Camera_Middleware/sensors/vd6g/vd6g.c ****   int i;
 625:Lib/Camera_Middleware/sensors/vd6g/vd6g.c **** 
ARM GAS  /tmp/ccWHsT5O.s 			page 20


 626:Lib/Camera_Middleware/sensors/vd6g/vd6g.c ****   for (i = 0; i < VD6G_GPIO_NB; i++) {
 627:Lib/Camera_Middleware/sensors/vd6g/vd6g.c ****     ret = ctx->write8(ctx, VD6G_REG_GPIO_x_CTRL(i), drv_ctx->config_save.gpio_ctrl[i]);
 628:Lib/Camera_Middleware/sensors/vd6g/vd6g.c ****     VD6G_TraceError(ctx, ret);
 629:Lib/Camera_Middleware/sensors/vd6g/vd6g.c ****   }
 630:Lib/Camera_Middleware/sensors/vd6g/vd6g.c **** 
 631:Lib/Camera_Middleware/sensors/vd6g/vd6g.c ****   return 0;
 632:Lib/Camera_Middleware/sensors/vd6g/vd6g.c **** }
 633:Lib/Camera_Middleware/sensors/vd6g/vd6g.c **** 
 634:Lib/Camera_Middleware/sensors/vd6g/vd6g.c **** static int VD6G_Boot(VD6G_Ctx_t *ctx)
 635:Lib/Camera_Middleware/sensors/vd6g/vd6g.c **** {
 636:Lib/Camera_Middleware/sensors/vd6g/vd6g.c ****   int ret;
 637:Lib/Camera_Middleware/sensors/vd6g/vd6g.c **** 
 638:Lib/Camera_Middleware/sensors/vd6g/vd6g.c ****   ret = VD6G_WaitState(ctx, VD6G_SYSTEM_FSM_READY_TO_BOOT);
 639:Lib/Camera_Middleware/sensors/vd6g/vd6g.c ****   if (ret)
 640:Lib/Camera_Middleware/sensors/vd6g/vd6g.c ****     return ret;
 641:Lib/Camera_Middleware/sensors/vd6g/vd6g.c **** 
 642:Lib/Camera_Middleware/sensors/vd6g/vd6g.c ****   ret = VD6G_CheckModelId(ctx);
 643:Lib/Camera_Middleware/sensors/vd6g/vd6g.c ****   if (ret)
 644:Lib/Camera_Middleware/sensors/vd6g/vd6g.c ****     return ret;
 645:Lib/Camera_Middleware/sensors/vd6g/vd6g.c **** 
 646:Lib/Camera_Middleware/sensors/vd6g/vd6g.c ****   ret = VD6G_ApplyPatch(ctx);
 647:Lib/Camera_Middleware/sensors/vd6g/vd6g.c ****   if (ret)
 648:Lib/Camera_Middleware/sensors/vd6g/vd6g.c ****     return ret;
 649:Lib/Camera_Middleware/sensors/vd6g/vd6g.c **** 
 650:Lib/Camera_Middleware/sensors/vd6g/vd6g.c ****   ret = VD6G_BootMcu(ctx);
 651:Lib/Camera_Middleware/sensors/vd6g/vd6g.c ****   if (ret)
 652:Lib/Camera_Middleware/sensors/vd6g/vd6g.c ****     return ret;
 653:Lib/Camera_Middleware/sensors/vd6g/vd6g.c **** 
 654:Lib/Camera_Middleware/sensors/vd6g/vd6g.c ****   ret = VD6G_ApplyVtPatch(ctx);
 655:Lib/Camera_Middleware/sensors/vd6g/vd6g.c ****   if (ret)
 656:Lib/Camera_Middleware/sensors/vd6g/vd6g.c ****     return ret;
 657:Lib/Camera_Middleware/sensors/vd6g/vd6g.c **** 
 658:Lib/Camera_Middleware/sensors/vd6g/vd6g.c ****   ret = VD6G_SetBayerType(ctx);
 659:Lib/Camera_Middleware/sensors/vd6g/vd6g.c ****   if (ret)
 660:Lib/Camera_Middleware/sensors/vd6g/vd6g.c ****     return ret;
 661:Lib/Camera_Middleware/sensors/vd6g/vd6g.c **** 
 662:Lib/Camera_Middleware/sensors/vd6g/vd6g.c ****   ret = VD6G_Gpios(ctx);
 663:Lib/Camera_Middleware/sensors/vd6g/vd6g.c ****   if (ret)
 664:Lib/Camera_Middleware/sensors/vd6g/vd6g.c ****     return ret;
 665:Lib/Camera_Middleware/sensors/vd6g/vd6g.c ****   return 0;
 666:Lib/Camera_Middleware/sensors/vd6g/vd6g.c **** }
 667:Lib/Camera_Middleware/sensors/vd6g/vd6g.c **** 
 668:Lib/Camera_Middleware/sensors/vd6g/vd6g.c **** static int VD6G_ComputeClocks(VD6G_Ctx_t *ctx, uint32_t ext_clock, uint8_t *pll_prediv, uint8_t *pl
 669:Lib/Camera_Middleware/sensors/vd6g/vd6g.c **** {
 670:Lib/Camera_Middleware/sensors/vd6g/vd6g.c ****   const unsigned int predivs[] = { 1, 2, 4 };
 671:Lib/Camera_Middleware/sensors/vd6g/vd6g.c ****   int i;
 672:Lib/Camera_Middleware/sensors/vd6g/vd6g.c **** 
 673:Lib/Camera_Middleware/sensors/vd6g/vd6g.c ****   if (ext_clock < 6 * M_HZ ||
 674:Lib/Camera_Middleware/sensors/vd6g/vd6g.c ****       ext_clock > 27 * M_HZ) {
 675:Lib/Camera_Middleware/sensors/vd6g/vd6g.c ****     VD6G_error(ctx, "External clock out of rangen\n");
 676:Lib/Camera_Middleware/sensors/vd6g/vd6g.c ****     return -1;
 677:Lib/Camera_Middleware/sensors/vd6g/vd6g.c ****   }
 678:Lib/Camera_Middleware/sensors/vd6g/vd6g.c **** 
 679:Lib/Camera_Middleware/sensors/vd6g/vd6g.c ****   /* PLL input should be in [6Mhz-12Mhz[ */
 680:Lib/Camera_Middleware/sensors/vd6g/vd6g.c ****   for (i = 0; i < ARRAY_SIZE(predivs); i++) {
 681:Lib/Camera_Middleware/sensors/vd6g/vd6g.c ****     *pll_prediv = predivs[i];
 682:Lib/Camera_Middleware/sensors/vd6g/vd6g.c ****     if (ext_clock / *pll_prediv < 12 * M_HZ)
ARM GAS  /tmp/ccWHsT5O.s 			page 21


 683:Lib/Camera_Middleware/sensors/vd6g/vd6g.c ****       break;
 684:Lib/Camera_Middleware/sensors/vd6g/vd6g.c ****   }
 685:Lib/Camera_Middleware/sensors/vd6g/vd6g.c **** 
 686:Lib/Camera_Middleware/sensors/vd6g/vd6g.c ****   /* PLL output clock must be as close as possible to 804Mhz */
 687:Lib/Camera_Middleware/sensors/vd6g/vd6g.c ****   *pll_mult = (VD6G_TARGET_PLL * *pll_prediv + ext_clock / 2) / ext_clock;
 688:Lib/Camera_Middleware/sensors/vd6g/vd6g.c **** 
 689:Lib/Camera_Middleware/sensors/vd6g/vd6g.c ****   VD6G_dbg(ctx, 0, "Ext Clock = %d Hz\n", ext_clock);
 690:Lib/Camera_Middleware/sensors/vd6g/vd6g.c ****   VD6G_dbg(ctx, 0, "PLL prediv = %d\n", *pll_prediv);
 691:Lib/Camera_Middleware/sensors/vd6g/vd6g.c ****   VD6G_dbg(ctx, 0, "PLL mult = %d\n", *pll_mult);
 692:Lib/Camera_Middleware/sensors/vd6g/vd6g.c **** 
 693:Lib/Camera_Middleware/sensors/vd6g/vd6g.c ****   return 0;
 694:Lib/Camera_Middleware/sensors/vd6g/vd6g.c **** }
 695:Lib/Camera_Middleware/sensors/vd6g/vd6g.c **** 
 696:Lib/Camera_Middleware/sensors/vd6g/vd6g.c **** static int VD6G_SetupClocks(VD6G_Ctx_t *ctx)
 697:Lib/Camera_Middleware/sensors/vd6g/vd6g.c **** {
 698:Lib/Camera_Middleware/sensors/vd6g/vd6g.c ****   struct drv_vd6g_ctx *drv_ctx = &ctx->ctx;
 699:Lib/Camera_Middleware/sensors/vd6g/vd6g.c ****   uint8_t pll_prediv;
 700:Lib/Camera_Middleware/sensors/vd6g/vd6g.c ****   uint8_t pll_mult;
 701:Lib/Camera_Middleware/sensors/vd6g/vd6g.c ****   int ret;
 702:Lib/Camera_Middleware/sensors/vd6g/vd6g.c **** 
 703:Lib/Camera_Middleware/sensors/vd6g/vd6g.c ****   ret = VD6G_ComputeClocks(ctx, drv_ctx->config_save.ext_clock_freq_in_hz, &pll_prediv, &pll_mult);
 704:Lib/Camera_Middleware/sensors/vd6g/vd6g.c ****   if (ret)
 705:Lib/Camera_Middleware/sensors/vd6g/vd6g.c ****     return ret;
 706:Lib/Camera_Middleware/sensors/vd6g/vd6g.c **** 
 707:Lib/Camera_Middleware/sensors/vd6g/vd6g.c ****   ret = ctx->write32(ctx, VD6G_REG_EXT_CLOCK, drv_ctx->config_save.ext_clock_freq_in_hz);
 708:Lib/Camera_Middleware/sensors/vd6g/vd6g.c ****   VD6G_TraceError(ctx, ret);
 709:Lib/Camera_Middleware/sensors/vd6g/vd6g.c **** 
 710:Lib/Camera_Middleware/sensors/vd6g/vd6g.c ****   ret = ctx->write8(ctx, VD6G_REG_CLK_PLL_PREDIV, pll_prediv);
 711:Lib/Camera_Middleware/sensors/vd6g/vd6g.c ****   VD6G_TraceError(ctx, ret);
 712:Lib/Camera_Middleware/sensors/vd6g/vd6g.c **** 
 713:Lib/Camera_Middleware/sensors/vd6g/vd6g.c ****   ret = ctx->write8(ctx, VD6G_REG_CLK_SYS_PLL_MULT, pll_mult);
 714:Lib/Camera_Middleware/sensors/vd6g/vd6g.c ****   VD6G_TraceError(ctx, ret);
 715:Lib/Camera_Middleware/sensors/vd6g/vd6g.c **** 
 716:Lib/Camera_Middleware/sensors/vd6g/vd6g.c ****   if (drv_ctx->config_save.line_len) {
 717:Lib/Camera_Middleware/sensors/vd6g/vd6g.c ****     ret = ctx->write16(ctx, VD6G_LINE_LENGTH, drv_ctx->config_save.line_len);
 718:Lib/Camera_Middleware/sensors/vd6g/vd6g.c ****     VD6G_TraceError(ctx, ret);
 719:Lib/Camera_Middleware/sensors/vd6g/vd6g.c ****   }
 720:Lib/Camera_Middleware/sensors/vd6g/vd6g.c **** 
 721:Lib/Camera_Middleware/sensors/vd6g/vd6g.c ****   return 0;
 722:Lib/Camera_Middleware/sensors/vd6g/vd6g.c **** }
 723:Lib/Camera_Middleware/sensors/vd6g/vd6g.c **** 
 724:Lib/Camera_Middleware/sensors/vd6g/vd6g.c **** static int VD6G_SetupOutput(VD6G_Ctx_t *ctx)
 725:Lib/Camera_Middleware/sensors/vd6g/vd6g.c **** {
 726:Lib/Camera_Middleware/sensors/vd6g/vd6g.c ****   VD6G_OutItf_Config_t *out_itf = &ctx->ctx.config_save.out_itf;
 727:Lib/Camera_Middleware/sensors/vd6g/vd6g.c ****   uint16_t oif_ctrl;
 728:Lib/Camera_Middleware/sensors/vd6g/vd6g.c ****   int ret;
 729:Lib/Camera_Middleware/sensors/vd6g/vd6g.c **** 
 730:Lib/Camera_Middleware/sensors/vd6g/vd6g.c ****   if (out_itf->datalane_nb != 1 && out_itf->datalane_nb != 2)
 731:Lib/Camera_Middleware/sensors/vd6g/vd6g.c ****     return -1;
 732:Lib/Camera_Middleware/sensors/vd6g/vd6g.c ****   /* Be sure we got value 0 or 1 */
 733:Lib/Camera_Middleware/sensors/vd6g/vd6g.c ****   out_itf->clock_lane_swap_enable = !!out_itf->clock_lane_swap_enable;
 734:Lib/Camera_Middleware/sensors/vd6g/vd6g.c ****   out_itf->data_lane0_swap_enable = !!out_itf->data_lane0_swap_enable;
 735:Lib/Camera_Middleware/sensors/vd6g/vd6g.c ****   out_itf->data_lane1_swap_enable = !!out_itf->data_lane1_swap_enable;
 736:Lib/Camera_Middleware/sensors/vd6g/vd6g.c ****   out_itf->data_lanes_mapping_swap_enable = !!out_itf->data_lanes_mapping_swap_enable;
 737:Lib/Camera_Middleware/sensors/vd6g/vd6g.c **** 
 738:Lib/Camera_Middleware/sensors/vd6g/vd6g.c ****   /* raw8 */
 739:Lib/Camera_Middleware/sensors/vd6g/vd6g.c ****   ret = ctx->write8(ctx, VD6G_REG_FORMAT_CTRL, VD6G_COLOR_DEPTH_RAW8);
ARM GAS  /tmp/ccWHsT5O.s 			page 22


 740:Lib/Camera_Middleware/sensors/vd6g/vd6g.c ****   VD6G_TraceError(ctx, ret);
 741:Lib/Camera_Middleware/sensors/vd6g/vd6g.c **** 
 742:Lib/Camera_Middleware/sensors/vd6g/vd6g.c ****   /* csi lanes */
 743:Lib/Camera_Middleware/sensors/vd6g/vd6g.c ****   oif_ctrl = out_itf->data_lane1_swap_enable << 9 |
 744:Lib/Camera_Middleware/sensors/vd6g/vd6g.c ****              !out_itf->data_lanes_mapping_swap_enable << 7 |
 745:Lib/Camera_Middleware/sensors/vd6g/vd6g.c ****              out_itf->data_lane0_swap_enable << 6 |
 746:Lib/Camera_Middleware/sensors/vd6g/vd6g.c ****              out_itf->data_lanes_mapping_swap_enable << 4 |
 747:Lib/Camera_Middleware/sensors/vd6g/vd6g.c ****              out_itf->clock_lane_swap_enable << 3 |
 748:Lib/Camera_Middleware/sensors/vd6g/vd6g.c ****              out_itf->datalane_nb << 0;
 749:Lib/Camera_Middleware/sensors/vd6g/vd6g.c ****   ret = ctx->write16(ctx, VD6G_REG_OIF_CTRL, oif_ctrl);
 750:Lib/Camera_Middleware/sensors/vd6g/vd6g.c ****   VD6G_TraceError(ctx, ret);
 751:Lib/Camera_Middleware/sensors/vd6g/vd6g.c **** 
 752:Lib/Camera_Middleware/sensors/vd6g/vd6g.c ****   /* csi speed */
 753:Lib/Camera_Middleware/sensors/vd6g/vd6g.c ****   ret = ctx->write16(ctx, VD6G_REG_OIF_CSI_BITRATE, 804);
 754:Lib/Camera_Middleware/sensors/vd6g/vd6g.c ****   VD6G_TraceError(ctx, ret);
 755:Lib/Camera_Middleware/sensors/vd6g/vd6g.c **** 
 756:Lib/Camera_Middleware/sensors/vd6g/vd6g.c ****   /* data type */
 757:Lib/Camera_Middleware/sensors/vd6g/vd6g.c ****   ret = ctx->write8(ctx, VD6G_REG_OIF_IMG_CTRL, 0x2a);
 758:Lib/Camera_Middleware/sensors/vd6g/vd6g.c ****   VD6G_TraceError(ctx, ret);
 759:Lib/Camera_Middleware/sensors/vd6g/vd6g.c **** 
 760:Lib/Camera_Middleware/sensors/vd6g/vd6g.c ****   return 0;
 761:Lib/Camera_Middleware/sensors/vd6g/vd6g.c **** }
 762:Lib/Camera_Middleware/sensors/vd6g/vd6g.c **** 
 763:Lib/Camera_Middleware/sensors/vd6g/vd6g.c **** static const struct vdg_mode *VD6G_Resolution2Mode(VD6G_Res_t resolution)
 764:Lib/Camera_Middleware/sensors/vd6g/vd6g.c **** {
 765:Lib/Camera_Middleware/sensors/vd6g/vd6g.c ****   switch (resolution) {
 766:Lib/Camera_Middleware/sensors/vd6g/vd6g.c ****   case VD6G_RES_QVGA_320_240:
 767:Lib/Camera_Middleware/sensors/vd6g/vd6g.c ****     return &vdg_supported_modes[7];
 768:Lib/Camera_Middleware/sensors/vd6g/vd6g.c ****     break;
 769:Lib/Camera_Middleware/sensors/vd6g/vd6g.c ****   case VD6G_RES_VGA_640_480:
 770:Lib/Camera_Middleware/sensors/vd6g/vd6g.c ****     return &vdg_supported_modes[5];
 771:Lib/Camera_Middleware/sensors/vd6g/vd6g.c ****     break;
 772:Lib/Camera_Middleware/sensors/vd6g/vd6g.c ****   case VD6G_RES_VGA_PORTRAIT_480_640:
 773:Lib/Camera_Middleware/sensors/vd6g/vd6g.c ****     return &vdg_supported_modes[6];
 774:Lib/Camera_Middleware/sensors/vd6g/vd6g.c ****     break;
 775:Lib/Camera_Middleware/sensors/vd6g/vd6g.c ****   case VD6G_RES_XGA_1024_768:
 776:Lib/Camera_Middleware/sensors/vd6g/vd6g.c ****     return &vdg_supported_modes[2];
 777:Lib/Camera_Middleware/sensors/vd6g/vd6g.c ****     break;
 778:Lib/Camera_Middleware/sensors/vd6g/vd6g.c ****   case VD6G_RES_XGA_PORTRAIT_768_1024:
 779:Lib/Camera_Middleware/sensors/vd6g/vd6g.c ****     return &vdg_supported_modes[3];
 780:Lib/Camera_Middleware/sensors/vd6g/vd6g.c ****     break;
 781:Lib/Camera_Middleware/sensors/vd6g/vd6g.c ****   case VD6G_RES_720P_PORTRAIT_720_1280:
 782:Lib/Camera_Middleware/sensors/vd6g/vd6g.c ****     return &vdg_supported_modes[4];
 783:Lib/Camera_Middleware/sensors/vd6g/vd6g.c ****     break;
 784:Lib/Camera_Middleware/sensors/vd6g/vd6g.c ****   case VD6G_RES_SXGA_PORTRAIT_1024_1280:
 785:Lib/Camera_Middleware/sensors/vd6g/vd6g.c ****     return &vdg_supported_modes[1];
 786:Lib/Camera_Middleware/sensors/vd6g/vd6g.c ****     break;
 787:Lib/Camera_Middleware/sensors/vd6g/vd6g.c ****   case VD6G_RES_PORTRAIT_1120_720:
 788:Lib/Camera_Middleware/sensors/vd6g/vd6g.c ****     return &vdg_supported_modes[8];
 789:Lib/Camera_Middleware/sensors/vd6g/vd6g.c ****     break;
 790:Lib/Camera_Middleware/sensors/vd6g/vd6g.c ****   case VD6G_RES_FULL_1120_1364:
 791:Lib/Camera_Middleware/sensors/vd6g/vd6g.c ****     return &vdg_supported_modes[0];
 792:Lib/Camera_Middleware/sensors/vd6g/vd6g.c ****     break;
 793:Lib/Camera_Middleware/sensors/vd6g/vd6g.c ****   default:
 794:Lib/Camera_Middleware/sensors/vd6g/vd6g.c ****     return NULL;
 795:Lib/Camera_Middleware/sensors/vd6g/vd6g.c ****   }
 796:Lib/Camera_Middleware/sensors/vd6g/vd6g.c **** }
ARM GAS  /tmp/ccWHsT5O.s 			page 23


 797:Lib/Camera_Middleware/sensors/vd6g/vd6g.c **** 
 798:Lib/Camera_Middleware/sensors/vd6g/vd6g.c **** static int VD6G_SetupSize(VD6G_Ctx_t *ctx)
 799:Lib/Camera_Middleware/sensors/vd6g/vd6g.c **** {
 800:Lib/Camera_Middleware/sensors/vd6g/vd6g.c ****   struct drv_vd6g_ctx *drv_ctx = &ctx->ctx;
 801:Lib/Camera_Middleware/sensors/vd6g/vd6g.c ****   const struct vdg_mode *mode;
 802:Lib/Camera_Middleware/sensors/vd6g/vd6g.c ****   int ret;
 803:Lib/Camera_Middleware/sensors/vd6g/vd6g.c **** 
 804:Lib/Camera_Middleware/sensors/vd6g/vd6g.c ****   mode = VD6G_Resolution2Mode(drv_ctx->config_save.resolution);
 805:Lib/Camera_Middleware/sensors/vd6g/vd6g.c ****   if (!mode)
 806:Lib/Camera_Middleware/sensors/vd6g/vd6g.c ****     return -1;
 807:Lib/Camera_Middleware/sensors/vd6g/vd6g.c **** 
 808:Lib/Camera_Middleware/sensors/vd6g/vd6g.c ****   ret = ctx->write8(ctx, VD6G_REG_READOUT_CTRL, mode->bin_mode);
 809:Lib/Camera_Middleware/sensors/vd6g/vd6g.c ****   VD6G_TraceError(ctx, ret);
 810:Lib/Camera_Middleware/sensors/vd6g/vd6g.c **** 
 811:Lib/Camera_Middleware/sensors/vd6g/vd6g.c ****   ret = ctx->write16(ctx, VD6G_REG_OUT_ROI_X_START, mode->crop.left);
 812:Lib/Camera_Middleware/sensors/vd6g/vd6g.c ****   VD6G_TraceError(ctx, ret);
 813:Lib/Camera_Middleware/sensors/vd6g/vd6g.c ****   ret = ctx->write16(ctx, VD6G_REG_OUT_ROI_X_END, mode->crop.left + mode->crop.width - 1);
 814:Lib/Camera_Middleware/sensors/vd6g/vd6g.c ****   VD6G_TraceError(ctx, ret);
 815:Lib/Camera_Middleware/sensors/vd6g/vd6g.c **** 
 816:Lib/Camera_Middleware/sensors/vd6g/vd6g.c ****   ret = ctx->write16(ctx, VD6G_REG_OUT_ROI_Y_START, mode->crop.top);
 817:Lib/Camera_Middleware/sensors/vd6g/vd6g.c ****   VD6G_TraceError(ctx, ret);
 818:Lib/Camera_Middleware/sensors/vd6g/vd6g.c ****   ret = ctx->write16(ctx, VD6G_REG_OUT_ROI_Y_END, mode->crop.top + mode->crop.height - 1);
 819:Lib/Camera_Middleware/sensors/vd6g/vd6g.c ****   VD6G_TraceError(ctx, ret);
 820:Lib/Camera_Middleware/sensors/vd6g/vd6g.c **** 
 821:Lib/Camera_Middleware/sensors/vd6g/vd6g.c ****   return 0;
 822:Lib/Camera_Middleware/sensors/vd6g/vd6g.c **** }
 823:Lib/Camera_Middleware/sensors/vd6g/vd6g.c **** 
 824:Lib/Camera_Middleware/sensors/vd6g/vd6g.c **** static int VD6G_SetupFrameRate(VD6G_Ctx_t *ctx)
 825:Lib/Camera_Middleware/sensors/vd6g/vd6g.c **** {
 826:Lib/Camera_Middleware/sensors/vd6g/vd6g.c ****   struct drv_vd6g_ctx *drv_ctx = &ctx->ctx;
 827:Lib/Camera_Middleware/sensors/vd6g/vd6g.c ****   uint16_t frame_length;
 828:Lib/Camera_Middleware/sensors/vd6g/vd6g.c ****   uint16_t line_length;
 829:Lib/Camera_Middleware/sensors/vd6g/vd6g.c ****   int ret;
 830:Lib/Camera_Middleware/sensors/vd6g/vd6g.c **** 
 831:Lib/Camera_Middleware/sensors/vd6g/vd6g.c ****   ret = ctx->read16(ctx, VD6G_LINE_LENGTH, &line_length);
 832:Lib/Camera_Middleware/sensors/vd6g/vd6g.c ****   VD6G_TraceError(ctx, ret);
 833:Lib/Camera_Middleware/sensors/vd6g/vd6g.c ****   VD6G_dbg(ctx, 0, "Line len = %d\n", line_length);
 834:Lib/Camera_Middleware/sensors/vd6g/vd6g.c **** 
 835:Lib/Camera_Middleware/sensors/vd6g/vd6g.c ****   frame_length = VD6G_PIXEL_CLOCK / (line_length * drv_ctx->config_save.frame_rate);
 836:Lib/Camera_Middleware/sensors/vd6g/vd6g.c ****   VD6G_dbg(ctx, 0, "Set frame_length to %d to reach %d fps\n", frame_length, drv_ctx->config_save.f
 837:Lib/Camera_Middleware/sensors/vd6g/vd6g.c ****   ret = ctx->write16(ctx, VD6G_FRAME_LENGTH, frame_length);
 838:Lib/Camera_Middleware/sensors/vd6g/vd6g.c ****   VD6G_TraceError(ctx, ret);
 839:Lib/Camera_Middleware/sensors/vd6g/vd6g.c **** 
 840:Lib/Camera_Middleware/sensors/vd6g/vd6g.c ****   return 0;
 841:Lib/Camera_Middleware/sensors/vd6g/vd6g.c **** }
 842:Lib/Camera_Middleware/sensors/vd6g/vd6g.c **** 
 843:Lib/Camera_Middleware/sensors/vd6g/vd6g.c **** static int VD6G_SetupExposure(VD6G_Ctx_t *ctx)
 844:Lib/Camera_Middleware/sensors/vd6g/vd6g.c **** {
 845:Lib/Camera_Middleware/sensors/vd6g/vd6g.c ****   struct drv_vd6g_ctx *drv_ctx = &ctx->ctx;
 846:Lib/Camera_Middleware/sensors/vd6g/vd6g.c **** 
 847:Lib/Camera_Middleware/sensors/vd6g/vd6g.c ****   return VD6G_SetExposureModeInternal(ctx, drv_ctx->config_save.exposure_mode);
 848:Lib/Camera_Middleware/sensors/vd6g/vd6g.c **** }
 849:Lib/Camera_Middleware/sensors/vd6g/vd6g.c **** 
 850:Lib/Camera_Middleware/sensors/vd6g/vd6g.c **** static int VD6G_SetupMirrorFlip(VD6G_Ctx_t *ctx)
 851:Lib/Camera_Middleware/sensors/vd6g/vd6g.c **** {
 852:Lib/Camera_Middleware/sensors/vd6g/vd6g.c ****   struct drv_vd6g_ctx *drv_ctx = &ctx->ctx;
 853:Lib/Camera_Middleware/sensors/vd6g/vd6g.c ****   uint8_t mode;
ARM GAS  /tmp/ccWHsT5O.s 			page 24


 854:Lib/Camera_Middleware/sensors/vd6g/vd6g.c ****   int ret;
 855:Lib/Camera_Middleware/sensors/vd6g/vd6g.c **** 
 856:Lib/Camera_Middleware/sensors/vd6g/vd6g.c ****   switch (drv_ctx->config_save.flip_mirror_mode) {
 857:Lib/Camera_Middleware/sensors/vd6g/vd6g.c ****   case VD6G_MIRROR_FLIP_NONE:
 858:Lib/Camera_Middleware/sensors/vd6g/vd6g.c ****     mode = 0;
 859:Lib/Camera_Middleware/sensors/vd6g/vd6g.c ****     break;
 860:Lib/Camera_Middleware/sensors/vd6g/vd6g.c ****   case VD6G_FLIP:
 861:Lib/Camera_Middleware/sensors/vd6g/vd6g.c ****     mode = 2;
 862:Lib/Camera_Middleware/sensors/vd6g/vd6g.c ****     break;
 863:Lib/Camera_Middleware/sensors/vd6g/vd6g.c ****   case VD6G_MIRROR:
 864:Lib/Camera_Middleware/sensors/vd6g/vd6g.c ****     mode = 1;
 865:Lib/Camera_Middleware/sensors/vd6g/vd6g.c ****     break;
 866:Lib/Camera_Middleware/sensors/vd6g/vd6g.c ****   case VD6G_MIRROR_FLIP:
 867:Lib/Camera_Middleware/sensors/vd6g/vd6g.c ****     mode = 3;
 868:Lib/Camera_Middleware/sensors/vd6g/vd6g.c ****     break;
 869:Lib/Camera_Middleware/sensors/vd6g/vd6g.c ****   default:
 870:Lib/Camera_Middleware/sensors/vd6g/vd6g.c ****     return -1;
 871:Lib/Camera_Middleware/sensors/vd6g/vd6g.c ****   }
 872:Lib/Camera_Middleware/sensors/vd6g/vd6g.c **** 
 873:Lib/Camera_Middleware/sensors/vd6g/vd6g.c ****   ret = ctx->write8(ctx, VD6G_REG_ORIENTATION, mode);
 874:Lib/Camera_Middleware/sensors/vd6g/vd6g.c ****   VD6G_TraceError(ctx, ret);
 875:Lib/Camera_Middleware/sensors/vd6g/vd6g.c **** 
 876:Lib/Camera_Middleware/sensors/vd6g/vd6g.c ****   return 0;
 877:Lib/Camera_Middleware/sensors/vd6g/vd6g.c **** }
 878:Lib/Camera_Middleware/sensors/vd6g/vd6g.c **** 
 879:Lib/Camera_Middleware/sensors/vd6g/vd6g.c **** static int VD6G_SetupPatGen(VD6G_Ctx_t *ctx)
 880:Lib/Camera_Middleware/sensors/vd6g/vd6g.c **** {
 881:Lib/Camera_Middleware/sensors/vd6g/vd6g.c ****   struct drv_vd6g_ctx *drv_ctx = &ctx->ctx;
 882:Lib/Camera_Middleware/sensors/vd6g/vd6g.c ****   uint16_t value = VD6G_PATGEN_CTRL_DISABLE;
 883:Lib/Camera_Middleware/sensors/vd6g/vd6g.c ****   int ret;
 884:Lib/Camera_Middleware/sensors/vd6g/vd6g.c **** 
 885:Lib/Camera_Middleware/sensors/vd6g/vd6g.c ****   switch (drv_ctx->config_save.patgen) {
 886:Lib/Camera_Middleware/sensors/vd6g/vd6g.c ****   case VD6G_PATGEN_DISABLE:
 887:Lib/Camera_Middleware/sensors/vd6g/vd6g.c ****     value = VD6G_PATGEN_CTRL_DISABLE;
 888:Lib/Camera_Middleware/sensors/vd6g/vd6g.c ****     break;
 889:Lib/Camera_Middleware/sensors/vd6g/vd6g.c ****   case VD6G_PATGEN_SOLID_COLOR:
 890:Lib/Camera_Middleware/sensors/vd6g/vd6g.c ****     value = VD6G_PATGEN_CTRL_SOLID_COLOR ;
 891:Lib/Camera_Middleware/sensors/vd6g/vd6g.c ****     break;
 892:Lib/Camera_Middleware/sensors/vd6g/vd6g.c ****   case VD6G_PATGEN_VERTICAL_COLOR_BARS:
 893:Lib/Camera_Middleware/sensors/vd6g/vd6g.c ****     value = VD6G_PATGEN_CTRL_VER_COLOR_BAR;
 894:Lib/Camera_Middleware/sensors/vd6g/vd6g.c ****     break;
 895:Lib/Camera_Middleware/sensors/vd6g/vd6g.c ****   case VD6G_PATGEN_HORIZONTAL_GRAYSCALE:
 896:Lib/Camera_Middleware/sensors/vd6g/vd6g.c ****     value = VD6G_PATGEN_CTRL_HOR_GRAY;
 897:Lib/Camera_Middleware/sensors/vd6g/vd6g.c ****     break;
 898:Lib/Camera_Middleware/sensors/vd6g/vd6g.c ****   case VD6G_PATGEN_VERTICAL_GRAYSCALE:
 899:Lib/Camera_Middleware/sensors/vd6g/vd6g.c ****     value = VD6G_PATGEN_CTRL_VER_GRAY;
 900:Lib/Camera_Middleware/sensors/vd6g/vd6g.c ****     break;
 901:Lib/Camera_Middleware/sensors/vd6g/vd6g.c ****   case VD6G_PATGEN_DIAGONAL_GRAYSCALE:
 902:Lib/Camera_Middleware/sensors/vd6g/vd6g.c ****     value = VD6G_PATGEN_CTRL_DIAG_GRAY;
 903:Lib/Camera_Middleware/sensors/vd6g/vd6g.c ****     break;
 904:Lib/Camera_Middleware/sensors/vd6g/vd6g.c ****   case VD6G_PATGEN_PSEUDO_RANDOM:
 905:Lib/Camera_Middleware/sensors/vd6g/vd6g.c ****     value = VD6G_PATGEN_CTRL_PSN;
 906:Lib/Camera_Middleware/sensors/vd6g/vd6g.c ****     break;
 907:Lib/Camera_Middleware/sensors/vd6g/vd6g.c ****   default:
 908:Lib/Camera_Middleware/sensors/vd6g/vd6g.c ****     return -1;
 909:Lib/Camera_Middleware/sensors/vd6g/vd6g.c ****   }
 910:Lib/Camera_Middleware/sensors/vd6g/vd6g.c **** 
ARM GAS  /tmp/ccWHsT5O.s 			page 25


 911:Lib/Camera_Middleware/sensors/vd6g/vd6g.c ****   if (drv_ctx->config_save.patgen != VD6G_PATGEN_DISABLE)
 912:Lib/Camera_Middleware/sensors/vd6g/vd6g.c ****   {
 913:Lib/Camera_Middleware/sensors/vd6g/vd6g.c ****     ret = ctx->write8(ctx, VD6G_REG_DUSTER_CTRL, VD6G_DUSTER_CTRL_DISABLE);
 914:Lib/Camera_Middleware/sensors/vd6g/vd6g.c ****     VD6G_TraceError(ctx, ret);
 915:Lib/Camera_Middleware/sensors/vd6g/vd6g.c ****     ret = ctx->write8(ctx, VD6G_REG_DARKCAL_CTRL, VD6G_DARKCAL_CTRL_DISABLE_DARKAVG);
 916:Lib/Camera_Middleware/sensors/vd6g/vd6g.c ****     VD6G_TraceError(ctx, ret);
 917:Lib/Camera_Middleware/sensors/vd6g/vd6g.c ****   }
 918:Lib/Camera_Middleware/sensors/vd6g/vd6g.c **** 
 919:Lib/Camera_Middleware/sensors/vd6g/vd6g.c ****   ret = ctx->write16(ctx, VD6G_REG_PATGEN_CTRL, value);
 920:Lib/Camera_Middleware/sensors/vd6g/vd6g.c ****   VD6G_TraceError(ctx, ret);
 921:Lib/Camera_Middleware/sensors/vd6g/vd6g.c **** 
 922:Lib/Camera_Middleware/sensors/vd6g/vd6g.c ****   return 0;
 923:Lib/Camera_Middleware/sensors/vd6g/vd6g.c **** }
 924:Lib/Camera_Middleware/sensors/vd6g/vd6g.c **** 
 925:Lib/Camera_Middleware/sensors/vd6g/vd6g.c **** static int VD6G_SetFlicker(VD6G_Ctx_t *ctx, VD6G_Flicker_t flicker)
 926:Lib/Camera_Middleware/sensors/vd6g/vd6g.c **** {
 423              		.loc 1 926 1 is_stmt 1 view -0
 424              		.cfi_startproc
 425              		@ args = 0, pretend = 0, frame = 0
 426              		@ frame_needed = 0, uses_anonymous_args = 0
 927:Lib/Camera_Middleware/sensors/vd6g/vd6g.c ****   uint16_t mode;
 427              		.loc 1 927 3 view .LVU89
 928:Lib/Camera_Middleware/sensors/vd6g/vd6g.c ****   int ret;
 428              		.loc 1 928 3 view .LVU90
 929:Lib/Camera_Middleware/sensors/vd6g/vd6g.c **** 
 930:Lib/Camera_Middleware/sensors/vd6g/vd6g.c ****   switch (flicker) {
 429              		.loc 1 930 3 view .LVU91
 430 0000 0229     		cmp	r1, #2
 926:Lib/Camera_Middleware/sensors/vd6g/vd6g.c ****   uint16_t mode;
 431              		.loc 1 926 1 is_stmt 0 view .LVU92
 432 0002 37B5     		push	{r0, r1, r2, r4, r5, lr}
 433              		.cfi_def_cfa_offset 24
 434              		.cfi_offset 4, -12
 435              		.cfi_offset 5, -8
 436              		.cfi_offset 14, -4
 926:Lib/Camera_Middleware/sensors/vd6g/vd6g.c ****   uint16_t mode;
 437              		.loc 1 926 1 view .LVU93
 438 0004 0546     		mov	r5, r0
 439 0006 15D8     		bhi	.L36
 440              	.LVL33:
 931:Lib/Camera_Middleware/sensors/vd6g/vd6g.c ****   case VD6G_FLICKER_FREE_NONE:
 932:Lib/Camera_Middleware/sensors/vd6g/vd6g.c ****     mode = AE_COMP_CTRL_GAIN_PRIO;
 933:Lib/Camera_Middleware/sensors/vd6g/vd6g.c ****     break;
 934:Lib/Camera_Middleware/sensors/vd6g/vd6g.c ****   case VD6G_FLICKER_FREE_50HZ:
 935:Lib/Camera_Middleware/sensors/vd6g/vd6g.c ****     mode = AE_COMP_CTRL_FLICKER_50_HZ;
 936:Lib/Camera_Middleware/sensors/vd6g/vd6g.c ****     break;
 937:Lib/Camera_Middleware/sensors/vd6g/vd6g.c ****   case VD6G_FLICKER_FREE_60HZ:
 938:Lib/Camera_Middleware/sensors/vd6g/vd6g.c ****     mode = AE_COMP_CTRL_FLICKER_60_HZ;
 939:Lib/Camera_Middleware/sensors/vd6g/vd6g.c ****     break;
 940:Lib/Camera_Middleware/sensors/vd6g/vd6g.c ****   default:
 941:Lib/Camera_Middleware/sensors/vd6g/vd6g.c ****     return -1;
 942:Lib/Camera_Middleware/sensors/vd6g/vd6g.c ****   }
 943:Lib/Camera_Middleware/sensors/vd6g/vd6g.c **** 
 944:Lib/Camera_Middleware/sensors/vd6g/vd6g.c ****   ret = ctx->write16(ctx, VD6G_REG_AE_COMPILER_CONTROL, mode);
 441              		.loc 1 944 3 is_stmt 1 view .LVU94
 442              		.loc 1 944 9 is_stmt 0 view .LVU95
 443 0008 0C4A     		ldr	r2, .L40
ARM GAS  /tmp/ccWHsT5O.s 			page 26


 444 000a 4369     		ldr	r3, [r0, #20]
 445 000c 525C     		ldrb	r2, [r2, r1]	@ zero_extendqisi2
 446 000e 4FF48661 		mov	r1, #1072
 447              	.LVL34:
 448              		.loc 1 944 9 view .LVU96
 449 0012 9847     		blx	r3
 450              	.LVL35:
 945:Lib/Camera_Middleware/sensors/vd6g/vd6g.c ****   VD6G_TraceError(ctx, ret);
 451              		.loc 1 945 3 is_stmt 1 view .LVU97
 452              		.loc 1 945 3 view .LVU98
 453 0014 0446     		mov	r4, r0
 454 0016 50B1     		cbz	r0, .L33
 455              		.loc 1 945 3 discriminator 1 view .LVU99
 456 0018 0090     		str	r0, [sp]
 457 001a 40F2B133 		movw	r3, #945
 458 001e 2846     		mov	r0, r5
 459              	.LVL36:
 460              		.loc 1 945 3 is_stmt 0 discriminator 1 view .LVU100
 461 0020 074A     		ldr	r2, .L40+4
 462 0022 0849     		ldr	r1, .L40+8
 463 0024 FFF7FEFF 		bl	VD6G_error
 464              	.LVL37:
 465              		.loc 1 945 3 is_stmt 1 discriminator 3 view .LVU101
 466              		.loc 1 945 3 discriminator 4 view .LVU102
 467 0028 2846     		mov	r0, r5
 468 002a FFF7FEFF 		bl	display_error
 469              	.LVL38:
 470              	.L33:
 946:Lib/Camera_Middleware/sensors/vd6g/vd6g.c **** 
 947:Lib/Camera_Middleware/sensors/vd6g/vd6g.c ****   return 0;
 948:Lib/Camera_Middleware/sensors/vd6g/vd6g.c **** }
 471              		.loc 1 948 1 is_stmt 0 view .LVU103
 472 002e 2046     		mov	r0, r4
 473 0030 03B0     		add	sp, sp, #12
 474              		.cfi_remember_state
 475              		.cfi_def_cfa_offset 12
 476              		@ sp needed
 477 0032 30BD     		pop	{r4, r5, pc}
 478              	.LVL39:
 479              	.L36:
 480              		.cfi_restore_state
 941:Lib/Camera_Middleware/sensors/vd6g/vd6g.c ****   }
 481              		.loc 1 941 12 view .LVU104
 482 0034 4FF0FF34 		mov	r4, #-1
 483 0038 F9E7     		b	.L33
 484              	.L41:
 485 003a 00BF     		.align	2
 486              	.L40:
 487 003c 00000000 		.word	CSWTCH.85
 488 0040 00000000 		.word	__func__.12
 489 0044 00000000 		.word	.LC4
 490              		.cfi_endproc
 491              	.LFE29:
 493              		.global	__aeabi_uldivmod
 494              		.global	__aeabi_ldivmod
 495              		.section	.text.VD6G_GetLineTimeInUs,"ax",%progbits
 496              		.align	1
ARM GAS  /tmp/ccWHsT5O.s 			page 27


 497              		.syntax unified
 498              		.thumb
 499              		.thumb_func
 501              	VD6G_GetLineTimeInUs:
 502              	.LVL40:
 503              	.LFB6:
 329:Lib/Camera_Middleware/sensors/vd6g/vd6g.c ****   uint16_t line_len;
 504              		.loc 1 329 1 is_stmt 1 view -0
 505              		.cfi_startproc
 506              		@ args = 0, pretend = 0, frame = 8
 507              		@ frame_needed = 0, uses_anonymous_args = 0
 330:Lib/Camera_Middleware/sensors/vd6g/vd6g.c ****   int ret;
 508              		.loc 1 330 3 view .LVU106
 331:Lib/Camera_Middleware/sensors/vd6g/vd6g.c **** 
 509              		.loc 1 331 3 view .LVU107
 333:Lib/Camera_Middleware/sensors/vd6g/vd6g.c ****   VD6G_TraceError(ctx, ret);
 510              		.loc 1 333 3 view .LVU108
 329:Lib/Camera_Middleware/sensors/vd6g/vd6g.c ****   uint16_t line_len;
 511              		.loc 1 329 1 is_stmt 0 view .LVU109
 512 0000 7FB5     		push	{r0, r1, r2, r3, r4, r5, r6, lr}
 513              		.cfi_def_cfa_offset 32
 514              		.cfi_offset 4, -16
 515              		.cfi_offset 5, -12
 516              		.cfi_offset 6, -8
 517              		.cfi_offset 14, -4
 329:Lib/Camera_Middleware/sensors/vd6g/vd6g.c ****   uint16_t line_len;
 518              		.loc 1 329 1 view .LVU110
 519 0002 0E46     		mov	r6, r1
 333:Lib/Camera_Middleware/sensors/vd6g/vd6g.c ****   VD6G_TraceError(ctx, ret);
 520              		.loc 1 333 9 view .LVU111
 521 0004 8368     		ldr	r3, [r0, #8]
 522 0006 4FF44071 		mov	r1, #768
 523              	.LVL41:
 333:Lib/Camera_Middleware/sensors/vd6g/vd6g.c ****   VD6G_TraceError(ctx, ret);
 524              		.loc 1 333 9 view .LVU112
 525 000a 0DF10E02 		add	r2, sp, #14
 329:Lib/Camera_Middleware/sensors/vd6g/vd6g.c ****   uint16_t line_len;
 526              		.loc 1 329 1 view .LVU113
 527 000e 0546     		mov	r5, r0
 333:Lib/Camera_Middleware/sensors/vd6g/vd6g.c ****   VD6G_TraceError(ctx, ret);
 528              		.loc 1 333 9 view .LVU114
 529 0010 9847     		blx	r3
 530              	.LVL42:
 334:Lib/Camera_Middleware/sensors/vd6g/vd6g.c **** 
 531              		.loc 1 334 3 is_stmt 1 view .LVU115
 334:Lib/Camera_Middleware/sensors/vd6g/vd6g.c **** 
 532              		.loc 1 334 3 view .LVU116
 533 0012 0446     		mov	r4, r0
 534 0014 68B9     		cbnz	r0, .L43
 334:Lib/Camera_Middleware/sensors/vd6g/vd6g.c **** 
 535              		.loc 1 334 3 discriminator 6 view .LVU117
 334:Lib/Camera_Middleware/sensors/vd6g/vd6g.c **** 
 536              		.loc 1 334 3 discriminator 8 view .LVU118
 337:Lib/Camera_Middleware/sensors/vd6g/vd6g.c **** 
 537              		.loc 1 337 3 view .LVU119
 337:Lib/Camera_Middleware/sensors/vd6g/vd6g.c **** 
 538              		.loc 1 337 53 is_stmt 0 view .LVU120
ARM GAS  /tmp/ccWHsT5O.s 			page 28


 539 0016 11A3     		adr	r3, .L45+12
 540 0018 D3E90023 		ldrd	r2, [r3]
 337:Lib/Camera_Middleware/sensors/vd6g/vd6g.c **** 
 541              		.loc 1 337 23 view .LVU121
 542 001c BDF80E00 		ldrh	r0, [sp, #14]
 543              	.LVL43:
 337:Lib/Camera_Middleware/sensors/vd6g/vd6g.c **** 
 544              		.loc 1 337 42 view .LVU122
 545 0020 0B49     		ldr	r1, .L45
 337:Lib/Camera_Middleware/sensors/vd6g/vd6g.c **** 
 546              		.loc 1 337 53 view .LVU123
 547 0022 A0FB0101 		umull	r0, r1, r0, r1
 548 0026 FFF7FEFF 		bl	__aeabi_uldivmod
 549              	.LVL44:
 337:Lib/Camera_Middleware/sensors/vd6g/vd6g.c **** 
 550              		.loc 1 337 20 view .LVU124
 551 002a 3060     		str	r0, [r6]
 339:Lib/Camera_Middleware/sensors/vd6g/vd6g.c **** }
 552              		.loc 1 339 3 is_stmt 1 view .LVU125
 553              	.L42:
 340:Lib/Camera_Middleware/sensors/vd6g/vd6g.c **** 
 554              		.loc 1 340 1 is_stmt 0 view .LVU126
 555 002c 2046     		mov	r0, r4
 556 002e 04B0     		add	sp, sp, #16
 557              		.cfi_remember_state
 558              		.cfi_def_cfa_offset 16
 559              		@ sp needed
 560 0030 70BD     		pop	{r4, r5, r6, pc}
 561              	.LVL45:
 562              	.L43:
 563              		.cfi_restore_state
 334:Lib/Camera_Middleware/sensors/vd6g/vd6g.c **** 
 564              		.loc 1 334 3 is_stmt 1 discriminator 1 view .LVU127
 565 0032 0090     		str	r0, [sp]
 566 0034 4FF4A773 		mov	r3, #334
 567 0038 2846     		mov	r0, r5
 568              	.LVL46:
 334:Lib/Camera_Middleware/sensors/vd6g/vd6g.c **** 
 569              		.loc 1 334 3 is_stmt 0 discriminator 1 view .LVU128
 570 003a 064A     		ldr	r2, .L45+4
 571 003c 0649     		ldr	r1, .L45+8
 572 003e FFF7FEFF 		bl	VD6G_error
 573              	.LVL47:
 334:Lib/Camera_Middleware/sensors/vd6g/vd6g.c **** 
 574              		.loc 1 334 3 is_stmt 1 discriminator 3 view .LVU129
 334:Lib/Camera_Middleware/sensors/vd6g/vd6g.c **** 
 575              		.loc 1 334 3 discriminator 4 view .LVU130
 576 0042 2846     		mov	r0, r5
 577 0044 FFF7FEFF 		bl	display_error
 578              	.LVL48:
 334:Lib/Camera_Middleware/sensors/vd6g/vd6g.c **** 
 579              		.loc 1 334 3 discriminator 6 view .LVU131
 580 0048 F0E7     		b	.L42
 581              	.L46:
 582 004a 00BFAFF3 		.align	3
 582      0080
 583              	.L45:
ARM GAS  /tmp/ccWHsT5O.s 			page 29


 584 0050 40420F00 		.word	1000000
 585 0054 00000000 		.word	__func__.1
 586 0058 00000000 		.word	.LC4
 587 005c 009D9509 		.word	160800000
 588 0060 00000000 		.word	0
 589              		.cfi_endproc
 590              	.LFE6:
 592              		.section	.rodata.VD6G_warn.constprop.0.str1.1,"aMS",%progbits,1
 593              	.LC5:
 594 0000 556E6162 		.ascii	"Unable to reach state %d\012\000"
 594      6C652074 
 594      6F207265 
 594      61636820 
 594      73746174 
 595              		.section	.text.VD6G_warn.constprop.0,"ax",%progbits
 596              		.align	1
 597              		.syntax unified
 598              		.thumb
 599              		.thumb_func
 601              	VD6G_warn.constprop.0:
 602              	.LVL49:
 603              	.LFB53:
 275:Lib/Camera_Middleware/sensors/vd6g/vd6g.c **** {
 604              		.loc 1 275 13 view -0
 605              		.cfi_startproc
 606              		@ args = 4, pretend = 12, frame = 8
 607              		@ frame_needed = 0, uses_anonymous_args = 1
 277:Lib/Camera_Middleware/sensors/vd6g/vd6g.c **** 
 608              		.loc 1 277 3 view .LVU133
 279:Lib/Camera_Middleware/sensors/vd6g/vd6g.c ****     return ;
 609              		.loc 1 279 3 view .LVU134
 275:Lib/Camera_Middleware/sensors/vd6g/vd6g.c **** {
 610              		.loc 1 275 13 is_stmt 0 view .LVU135
 611 0000 0EB4     		push	{r1, r2, r3}
 612              		.cfi_def_cfa_offset 12
 613              		.cfi_offset 1, -12
 614              		.cfi_offset 2, -8
 615              		.cfi_offset 3, -4
 616 0002 17B5     		push	{r0, r1, r2, r4, lr}
 617              		.cfi_def_cfa_offset 32
 618              		.cfi_offset 4, -20
 619              		.cfi_offset 14, -16
 279:Lib/Camera_Middleware/sensors/vd6g/vd6g.c ****     return ;
 620              		.loc 1 279 6 view .LVU136
 621 0004 446A     		ldr	r4, [r0, #36]
 622 0006 24B1     		cbz	r4, .L47
 282:Lib/Camera_Middleware/sensors/vd6g/vd6g.c ****   ctx->log(ctx, VD6G_LVL_WARNING, format, ap);
 623              		.loc 1 282 3 is_stmt 1 view .LVU137
 624 0008 06AB     		add	r3, sp, #24
 283:Lib/Camera_Middleware/sensors/vd6g/vd6g.c ****   va_end(ap);
 625              		.loc 1 283 3 is_stmt 0 view .LVU138
 626 000a 0121     		movs	r1, #1
 627 000c 034A     		ldr	r2, .L52
 282:Lib/Camera_Middleware/sensors/vd6g/vd6g.c ****   ctx->log(ctx, VD6G_LVL_WARNING, format, ap);
 628              		.loc 1 282 3 view .LVU139
 629 000e 0193     		str	r3, [sp, #4]
 283:Lib/Camera_Middleware/sensors/vd6g/vd6g.c ****   va_end(ap);
ARM GAS  /tmp/ccWHsT5O.s 			page 30


 630              		.loc 1 283 3 is_stmt 1 view .LVU140
 631 0010 A047     		blx	r4
 632              	.LVL50:
 284:Lib/Camera_Middleware/sensors/vd6g/vd6g.c **** }
 633              		.loc 1 284 3 view .LVU141
 634              	.L47:
 285:Lib/Camera_Middleware/sensors/vd6g/vd6g.c **** 
 635              		.loc 1 285 1 is_stmt 0 view .LVU142
 636 0012 03B0     		add	sp, sp, #12
 637              		.cfi_def_cfa_offset 20
 638              		@ sp needed
 639 0014 BDE81040 		pop	{r4, lr}
 640              		.cfi_restore 14
 641              		.cfi_restore 4
 642              		.cfi_def_cfa_offset 12
 643 0018 03B0     		add	sp, sp, #12
 644              		.cfi_restore 3
 645              		.cfi_restore 2
 646              		.cfi_restore 1
 647              		.cfi_def_cfa_offset 0
 648 001a 7047     		bx	lr
 649              	.L53:
 650              		.align	2
 651              	.L52:
 652 001c 00000000 		.word	.LC5
 653              		.cfi_endproc
 654              	.LFE53:
 656              		.section	.text.VD6G_dbg.constprop.0,"ax",%progbits
 657              		.align	1
 658              		.syntax unified
 659              		.thumb
 660              		.thumb_func
 662              	VD6G_dbg.constprop.0:
 663              	.LVL51:
 664              	.LFB54:
 251:Lib/Camera_Middleware/sensors/vd6g/vd6g.c **** {
 665              		.loc 1 251 13 is_stmt 1 view -0
 666              		.cfi_startproc
 667              		@ args = 4, pretend = 8, frame = 8
 668              		@ frame_needed = 0, uses_anonymous_args = 1
 253:Lib/Camera_Middleware/sensors/vd6g/vd6g.c **** 
 669              		.loc 1 253 3 view .LVU144
 255:Lib/Camera_Middleware/sensors/vd6g/vd6g.c ****     return ;
 670              		.loc 1 255 3 view .LVU145
 251:Lib/Camera_Middleware/sensors/vd6g/vd6g.c **** {
 671              		.loc 1 251 13 is_stmt 0 view .LVU146
 672 0000 0CB4     		push	{r2, r3}
 673              		.cfi_def_cfa_offset 8
 674              		.cfi_offset 2, -8
 675              		.cfi_offset 3, -4
 676 0002 13B5     		push	{r0, r1, r4, lr}
 677              		.cfi_def_cfa_offset 24
 678              		.cfi_offset 4, -16
 679              		.cfi_offset 14, -12
 255:Lib/Camera_Middleware/sensors/vd6g/vd6g.c ****     return ;
 680              		.loc 1 255 6 view .LVU147
 681 0004 446A     		ldr	r4, [r0, #36]
ARM GAS  /tmp/ccWHsT5O.s 			page 31


 682 0006 24B1     		cbz	r4, .L54
 258:Lib/Camera_Middleware/sensors/vd6g/vd6g.c ****   ctx->log(ctx, VD6G_LVL_DBG(lvl), format, ap);
 683              		.loc 1 258 3 is_stmt 1 view .LVU148
 684 0008 05AB     		add	r3, sp, #20
 259:Lib/Camera_Middleware/sensors/vd6g/vd6g.c ****   va_end(ap);
 685              		.loc 1 259 3 is_stmt 0 view .LVU149
 686 000a 0321     		movs	r1, #3
 687              	.LVL52:
 259:Lib/Camera_Middleware/sensors/vd6g/vd6g.c ****   va_end(ap);
 688              		.loc 1 259 3 view .LVU150
 689 000c 049A     		ldr	r2, [sp, #16]
 258:Lib/Camera_Middleware/sensors/vd6g/vd6g.c ****   ctx->log(ctx, VD6G_LVL_DBG(lvl), format, ap);
 690              		.loc 1 258 3 view .LVU151
 691 000e 0193     		str	r3, [sp, #4]
 259:Lib/Camera_Middleware/sensors/vd6g/vd6g.c ****   va_end(ap);
 692              		.loc 1 259 3 is_stmt 1 view .LVU152
 693 0010 A047     		blx	r4
 694              	.LVL53:
 260:Lib/Camera_Middleware/sensors/vd6g/vd6g.c **** }
 695              		.loc 1 260 3 view .LVU153
 696              	.L54:
 261:Lib/Camera_Middleware/sensors/vd6g/vd6g.c **** 
 697              		.loc 1 261 1 is_stmt 0 view .LVU154
 698 0012 02B0     		add	sp, sp, #8
 699              		.cfi_def_cfa_offset 16
 700              		@ sp needed
 701 0014 BDE81040 		pop	{r4, lr}
 702              		.cfi_restore 14
 703              		.cfi_restore 4
 704              		.cfi_def_cfa_offset 8
 705 0018 02B0     		add	sp, sp, #8
 706              		.cfi_restore 3
 707              		.cfi_restore 2
 708              		.cfi_def_cfa_offset 0
 709 001a 7047     		bx	lr
 710              		.cfi_endproc
 711              	.LFE54:
 713              		.section	.rodata.VD6G_GetTopDie.str1.1,"aMS",%progbits,1
 714              	.LC6:
 715 0000 72657669 		.ascii	"revision = 0x%04x\012\000"
 715      73696F6E 
 715      203D2030 
 715      78253034 
 715      780A00
 716              		.section	.text.VD6G_GetTopDie,"ax",%progbits
 717              		.align	1
 718              		.syntax unified
 719              		.thumb
 720              		.thumb_func
 722              	VD6G_GetTopDie:
 723              	.LVL54:
 724              	.LFB9:
 366:Lib/Camera_Middleware/sensors/vd6g/vd6g.c ****   uint16_t reg16;
 725              		.loc 1 366 1 is_stmt 1 view -0
 726              		.cfi_startproc
 727              		@ args = 0, pretend = 0, frame = 8
 728              		@ frame_needed = 0, uses_anonymous_args = 0
ARM GAS  /tmp/ccWHsT5O.s 			page 32


 367:Lib/Camera_Middleware/sensors/vd6g/vd6g.c ****   int ret;
 729              		.loc 1 367 3 view .LVU156
 368:Lib/Camera_Middleware/sensors/vd6g/vd6g.c **** 
 730              		.loc 1 368 3 view .LVU157
 370:Lib/Camera_Middleware/sensors/vd6g/vd6g.c ****   VD6G_TraceError(ctx, ret);
 731              		.loc 1 370 3 view .LVU158
 366:Lib/Camera_Middleware/sensors/vd6g/vd6g.c ****   uint16_t reg16;
 732              		.loc 1 366 1 is_stmt 0 view .LVU159
 733 0000 7FB5     		push	{r0, r1, r2, r3, r4, r5, r6, lr}
 734              		.cfi_def_cfa_offset 32
 735              		.cfi_offset 4, -16
 736              		.cfi_offset 5, -12
 737              		.cfi_offset 6, -8
 738              		.cfi_offset 14, -4
 366:Lib/Camera_Middleware/sensors/vd6g/vd6g.c ****   uint16_t reg16;
 739              		.loc 1 366 1 view .LVU160
 740 0002 0E46     		mov	r6, r1
 370:Lib/Camera_Middleware/sensors/vd6g/vd6g.c ****   VD6G_TraceError(ctx, ret);
 741              		.loc 1 370 9 view .LVU161
 742 0004 8368     		ldr	r3, [r0, #8]
 743 0006 0221     		movs	r1, #2
 744              	.LVL55:
 370:Lib/Camera_Middleware/sensors/vd6g/vd6g.c ****   VD6G_TraceError(ctx, ret);
 745              		.loc 1 370 9 view .LVU162
 746 0008 0DF10E02 		add	r2, sp, #14
 366:Lib/Camera_Middleware/sensors/vd6g/vd6g.c ****   uint16_t reg16;
 747              		.loc 1 366 1 view .LVU163
 748 000c 0546     		mov	r5, r0
 370:Lib/Camera_Middleware/sensors/vd6g/vd6g.c ****   VD6G_TraceError(ctx, ret);
 749              		.loc 1 370 9 view .LVU164
 750 000e 9847     		blx	r3
 751              	.LVL56:
 371:Lib/Camera_Middleware/sensors/vd6g/vd6g.c ****   VD6G_dbg(ctx, 0, "revision = 0x%04x\n", reg16);
 752              		.loc 1 371 3 is_stmt 1 view .LVU165
 371:Lib/Camera_Middleware/sensors/vd6g/vd6g.c ****   VD6G_dbg(ctx, 0, "revision = 0x%04x\n", reg16);
 753              		.loc 1 371 3 view .LVU166
 754 0010 0446     		mov	r4, r0
 755 0012 68B9     		cbnz	r0, .L60
 371:Lib/Camera_Middleware/sensors/vd6g/vd6g.c ****   VD6G_dbg(ctx, 0, "revision = 0x%04x\n", reg16);
 756              		.loc 1 371 3 discriminator 6 view .LVU167
 371:Lib/Camera_Middleware/sensors/vd6g/vd6g.c ****   VD6G_dbg(ctx, 0, "revision = 0x%04x\n", reg16);
 757              		.loc 1 371 3 discriminator 8 view .LVU168
 372:Lib/Camera_Middleware/sensors/vd6g/vd6g.c ****   *top_die = reg16 >> 8;
 758              		.loc 1 372 3 view .LVU169
 759 0014 0146     		mov	r1, r0
 760 0016 BDF80E30 		ldrh	r3, [sp, #14]
 761 001a 2846     		mov	r0, r5
 762              	.LVL57:
 372:Lib/Camera_Middleware/sensors/vd6g/vd6g.c ****   *top_die = reg16 >> 8;
 763              		.loc 1 372 3 is_stmt 0 view .LVU170
 764 001c 0A4A     		ldr	r2, .L62
 765 001e FFF7FEFF 		bl	VD6G_dbg.constprop.0
 766              	.LVL58:
 373:Lib/Camera_Middleware/sensors/vd6g/vd6g.c **** 
 767              		.loc 1 373 3 is_stmt 1 view .LVU171
 373:Lib/Camera_Middleware/sensors/vd6g/vd6g.c **** 
 768              		.loc 1 373 12 is_stmt 0 view .LVU172
ARM GAS  /tmp/ccWHsT5O.s 			page 33


 769 0022 BDF80E30 		ldrh	r3, [sp, #14]
 770 0026 1B0A     		lsrs	r3, r3, #8
 771 0028 3370     		strb	r3, [r6]
 375:Lib/Camera_Middleware/sensors/vd6g/vd6g.c **** }
 772              		.loc 1 375 3 is_stmt 1 view .LVU173
 773              	.L59:
 376:Lib/Camera_Middleware/sensors/vd6g/vd6g.c **** 
 774              		.loc 1 376 1 is_stmt 0 view .LVU174
 775 002a 2046     		mov	r0, r4
 776 002c 04B0     		add	sp, sp, #16
 777              		.cfi_remember_state
 778              		.cfi_def_cfa_offset 16
 779              		@ sp needed
 780 002e 70BD     		pop	{r4, r5, r6, pc}
 781              	.LVL59:
 782              	.L60:
 783              		.cfi_restore_state
 371:Lib/Camera_Middleware/sensors/vd6g/vd6g.c ****   VD6G_dbg(ctx, 0, "revision = 0x%04x\n", reg16);
 784              		.loc 1 371 3 is_stmt 1 discriminator 1 view .LVU175
 785 0030 0090     		str	r0, [sp]
 786 0032 40F27313 		movw	r3, #371
 787 0036 2846     		mov	r0, r5
 788              	.LVL60:
 371:Lib/Camera_Middleware/sensors/vd6g/vd6g.c ****   VD6G_dbg(ctx, 0, "revision = 0x%04x\n", reg16);
 789              		.loc 1 371 3 is_stmt 0 discriminator 1 view .LVU176
 790 0038 044A     		ldr	r2, .L62+4
 791 003a 0549     		ldr	r1, .L62+8
 792 003c FFF7FEFF 		bl	VD6G_error
 793              	.LVL61:
 371:Lib/Camera_Middleware/sensors/vd6g/vd6g.c ****   VD6G_dbg(ctx, 0, "revision = 0x%04x\n", reg16);
 794              		.loc 1 371 3 is_stmt 1 discriminator 3 view .LVU177
 371:Lib/Camera_Middleware/sensors/vd6g/vd6g.c ****   VD6G_dbg(ctx, 0, "revision = 0x%04x\n", reg16);
 795              		.loc 1 371 3 discriminator 4 view .LVU178
 796 0040 2846     		mov	r0, r5
 797 0042 FFF7FEFF 		bl	display_error
 798              	.LVL62:
 371:Lib/Camera_Middleware/sensors/vd6g/vd6g.c ****   VD6G_dbg(ctx, 0, "revision = 0x%04x\n", reg16);
 799              		.loc 1 371 3 discriminator 6 view .LVU179
 800 0046 F0E7     		b	.L59
 801              	.L63:
 802              		.align	2
 803              	.L62:
 804 0048 00000000 		.word	.LC6
 805 004c 00000000 		.word	__func__.27
 806 0050 00000000 		.word	.LC4
 807              		.cfi_endproc
 808              	.LFE9:
 810              		.section	.rodata.VD6G_WaitState.str1.1,"aMS",%progbits,1
 811              	.LC7:
 812 0000 72656163 		.ascii	"reach state %d\012\000"
 812      68207374 
 812      61746520 
 812      25640A00 
 813              		.section	.text.VD6G_WaitState,"ax",%progbits
 814              		.align	1
 815              		.syntax unified
 816              		.thumb
ARM GAS  /tmp/ccWHsT5O.s 			page 34


 817              		.thumb_func
 819              	VD6G_WaitState:
 820              	.LVL63:
 821              	.LFB8:
 354:Lib/Camera_Middleware/sensors/vd6g/vd6g.c ****   int ret = VD6G_PollReg8(ctx, VD6G_REG_SYSTEM_FSM, state);
 822              		.loc 1 354 1 view -0
 823              		.cfi_startproc
 824              		@ args = 0, pretend = 0, frame = 0
 825              		@ frame_needed = 0, uses_anonymous_args = 0
 355:Lib/Camera_Middleware/sensors/vd6g/vd6g.c **** 
 826              		.loc 1 355 3 view .LVU181
 354:Lib/Camera_Middleware/sensors/vd6g/vd6g.c ****   int ret = VD6G_PollReg8(ctx, VD6G_REG_SYSTEM_FSM, state);
 827              		.loc 1 354 1 is_stmt 0 view .LVU182
 828 0000 70B5     		push	{r4, r5, r6, lr}
 829              		.cfi_def_cfa_offset 16
 830              		.cfi_offset 4, -16
 831              		.cfi_offset 5, -12
 832              		.cfi_offset 6, -8
 833              		.cfi_offset 14, -4
 355:Lib/Camera_Middleware/sensors/vd6g/vd6g.c **** 
 834              		.loc 1 355 13 view .LVU183
 835 0002 CAB2     		uxtb	r2, r1
 354:Lib/Camera_Middleware/sensors/vd6g/vd6g.c ****   int ret = VD6G_PollReg8(ctx, VD6G_REG_SYSTEM_FSM, state);
 836              		.loc 1 354 1 view .LVU184
 837 0004 0D46     		mov	r5, r1
 355:Lib/Camera_Middleware/sensors/vd6g/vd6g.c **** 
 838              		.loc 1 355 13 view .LVU185
 839 0006 2821     		movs	r1, #40
 840              	.LVL64:
 354:Lib/Camera_Middleware/sensors/vd6g/vd6g.c ****   int ret = VD6G_PollReg8(ctx, VD6G_REG_SYSTEM_FSM, state);
 841              		.loc 1 354 1 view .LVU186
 842 0008 0646     		mov	r6, r0
 355:Lib/Camera_Middleware/sensors/vd6g/vd6g.c **** 
 843              		.loc 1 355 13 view .LVU187
 844 000a FFF7FEFF 		bl	VD6G_PollReg8
 845              	.LVL65:
 357:Lib/Camera_Middleware/sensors/vd6g/vd6g.c ****     VD6G_warn(ctx, "Unable to reach state %d\n", state);
 846              		.loc 1 357 3 is_stmt 1 view .LVU188
 357:Lib/Camera_Middleware/sensors/vd6g/vd6g.c ****     VD6G_warn(ctx, "Unable to reach state %d\n", state);
 847              		.loc 1 357 6 is_stmt 0 view .LVU189
 848 000e 0446     		mov	r4, r0
 849 0010 30B1     		cbz	r0, .L65
 358:Lib/Camera_Middleware/sensors/vd6g/vd6g.c ****   else
 850              		.loc 1 358 5 is_stmt 1 view .LVU190
 851 0012 2A46     		mov	r2, r5
 852 0014 3046     		mov	r0, r6
 853              	.LVL66:
 358:Lib/Camera_Middleware/sensors/vd6g/vd6g.c ****   else
 854              		.loc 1 358 5 is_stmt 0 view .LVU191
 855 0016 0649     		ldr	r1, .L67
 856 0018 FFF7FEFF 		bl	VD6G_warn.constprop.0
 857              	.LVL67:
 858              	.L64:
 363:Lib/Camera_Middleware/sensors/vd6g/vd6g.c **** 
 859              		.loc 1 363 1 view .LVU192
 860 001c 2046     		mov	r0, r4
 861 001e 70BD     		pop	{r4, r5, r6, pc}
ARM GAS  /tmp/ccWHsT5O.s 			page 35


 862              	.LVL68:
 863              	.L65:
 864              	.LBB8:
 865              	.LBI8:
 353:Lib/Camera_Middleware/sensors/vd6g/vd6g.c **** {
 866              		.loc 1 353 12 is_stmt 1 view .LVU193
 867              	.LBB9:
 360:Lib/Camera_Middleware/sensors/vd6g/vd6g.c **** 
 868              		.loc 1 360 5 view .LVU194
 869 0020 0146     		mov	r1, r0
 870 0022 2B46     		mov	r3, r5
 871 0024 3046     		mov	r0, r6
 872              	.LVL69:
 360:Lib/Camera_Middleware/sensors/vd6g/vd6g.c **** 
 873              		.loc 1 360 5 is_stmt 0 view .LVU195
 874 0026 034A     		ldr	r2, .L67+4
 875 0028 FFF7FEFF 		bl	VD6G_dbg.constprop.0
 876              	.LVL70:
 360:Lib/Camera_Middleware/sensors/vd6g/vd6g.c **** 
 877              		.loc 1 360 5 view .LVU196
 878              	.LBE9:
 879              	.LBE8:
 362:Lib/Camera_Middleware/sensors/vd6g/vd6g.c **** }
 880              		.loc 1 362 3 is_stmt 1 view .LVU197
 362:Lib/Camera_Middleware/sensors/vd6g/vd6g.c **** }
 881              		.loc 1 362 10 is_stmt 0 view .LVU198
 882 002c F6E7     		b	.L64
 883              	.L68:
 884 002e 00BF     		.align	2
 885              	.L67:
 886 0030 00000000 		.word	.LC5
 887 0034 00000000 		.word	.LC7
 888              		.cfi_endproc
 889              	.LFE8:
 891              		.section	.rodata.VD6G_Init.str1.1,"aMS",%progbits,1
 892              	.LC8:
 893 0000 6D6F6465 		.ascii	"model_id = 0x%04x\012\000"
 893      6C5F6964 
 893      203D2030 
 893      78253034 
 893      780A00
 894              	.LC9:
 895 0013 42616420 		.ascii	"Bad model id expected 0x%04x / got 0x%04x\012\000"
 895      6D6F6465 
 895      6C206964 
 895      20657870 
 895      65637465 
 896              	.LC10:
 897 003e 556E7375 		.ascii	"Unsupported revision\012\000"
 897      70706F72 
 897      74656420 
 897      72657669 
 897      73696F6E 
 898              	.LC11:
 899 0054 726F6D20 		.ascii	"rom = 0x%04x\012\000"
 899      3D203078 
 899      25303478 
ARM GAS  /tmp/ccWHsT5O.s 			page 36


 899      0A00
 900              	.LC12:
 901 0062 70617463 		.ascii	"patch = 0x%04x\012\000"
 901      68203D20 
 901      30782530 
 901      34780A00 
 902              	.LC13:
 903 0072 62616420 		.ascii	"bad patch version expected %d.%d got %d.%d\012\000"
 903      70617463 
 903      68207665 
 903      7273696F 
 903      6E206578 
 904              	.LC14:
 905 009e 70617463 		.ascii	"patch %d.%d applied\012\000"
 905      68202564 
 905      2E256420 
 905      6170706C 
 905      6965640A 
 906              	.LC15:
 907 00b3 3000     		.ascii	"0\000"
 908              	.LC16:
 909 00b5 73656E73 		.ascii	"sensor boot successfully\012\000"
 909      6F722062 
 909      6F6F7420 
 909      73756363 
 909      65737366 
 910              	.LC17:
 911 00cf 62616420 		.ascii	"bad vtpatch version, expected %d got rd:%d, gr:%d g"
 911      76747061 
 911      74636820 
 911      76657273 
 911      696F6E2C 
 912 0102 743A2564 		.ascii	"t:%d\012\000"
 912      0A00
 913              	.LC18:
 914 0108 56542070 		.ascii	"VT patch %d applied\012\000"
 914      61746368 
 914      20256420 
 914      6170706C 
 914      6965640A 
 915              	.LC19:
 916 011d 45787465 		.ascii	"External clock out of rangen\012\000"
 916      726E616C 
 916      20636C6F 
 916      636B206F 
 916      7574206F 
 917              	.LC20:
 918 013b 45787420 		.ascii	"Ext Clock = %d Hz\012\000"
 918      436C6F63 
 918      6B203D20 
 918      25642048 
 918      7A0A00
 919              	.LC21:
 920 014e 504C4C20 		.ascii	"PLL prediv = %d\012\000"
 920      70726564 
 920      6976203D 
 920      2025640A 
ARM GAS  /tmp/ccWHsT5O.s 			page 37


 920      00
 921              	.LC22:
 922 015f 504C4C20 		.ascii	"PLL mult = %d\012\000"
 922      6D756C74 
 922      203D2025 
 922      640A00
 923              	.LC23:
 924 016e 4C696E65 		.ascii	"Line len = %d\012\000"
 924      206C656E 
 924      203D2025 
 924      640A00
 925              	.LC24:
 926 017d 53657420 		.ascii	"Set frame_length to %d to reach %d fps\012\000"
 926      6672616D 
 926      655F6C65 
 926      6E677468 
 926      20746F20 
 927              		.section	.text.VD6G_Init,"ax",%progbits
 928              		.align	1
 929              		.global	VD6G_Init
 930              		.syntax unified
 931              		.thumb
 932              		.thumb_func
 934              	VD6G_Init:
 935              	.LVL71:
 936              	.LFB35:
 949:Lib/Camera_Middleware/sensors/vd6g/vd6g.c **** 
 950:Lib/Camera_Middleware/sensors/vd6g/vd6g.c **** static int VD6G_Flicker(VD6G_Ctx_t *ctx)
 951:Lib/Camera_Middleware/sensors/vd6g/vd6g.c **** {
 952:Lib/Camera_Middleware/sensors/vd6g/vd6g.c ****   struct drv_vd6g_ctx *drv_ctx = &ctx->ctx;
 953:Lib/Camera_Middleware/sensors/vd6g/vd6g.c **** 
 954:Lib/Camera_Middleware/sensors/vd6g/vd6g.c ****   return VD6G_SetFlicker(ctx, drv_ctx->config_save.flicker);
 955:Lib/Camera_Middleware/sensors/vd6g/vd6g.c **** }
 956:Lib/Camera_Middleware/sensors/vd6g/vd6g.c **** 
 957:Lib/Camera_Middleware/sensors/vd6g/vd6g.c **** static int VD6G_SetupEarly(VD6G_Ctx_t *ctx)
 958:Lib/Camera_Middleware/sensors/vd6g/vd6g.c **** {
 959:Lib/Camera_Middleware/sensors/vd6g/vd6g.c ****   int ret;
 960:Lib/Camera_Middleware/sensors/vd6g/vd6g.c **** 
 961:Lib/Camera_Middleware/sensors/vd6g/vd6g.c ****   ret = VD6G_SetupClocks(ctx);
 962:Lib/Camera_Middleware/sensors/vd6g/vd6g.c ****   if (ret)
 963:Lib/Camera_Middleware/sensors/vd6g/vd6g.c ****     return ret;
 964:Lib/Camera_Middleware/sensors/vd6g/vd6g.c **** 
 965:Lib/Camera_Middleware/sensors/vd6g/vd6g.c ****   ret = VD6G_SetupFrameRate(ctx);
 966:Lib/Camera_Middleware/sensors/vd6g/vd6g.c ****   if (ret)
 967:Lib/Camera_Middleware/sensors/vd6g/vd6g.c ****     return ret;
 968:Lib/Camera_Middleware/sensors/vd6g/vd6g.c **** 
 969:Lib/Camera_Middleware/sensors/vd6g/vd6g.c ****   return 0;
 970:Lib/Camera_Middleware/sensors/vd6g/vd6g.c **** }
 971:Lib/Camera_Middleware/sensors/vd6g/vd6g.c **** 
 972:Lib/Camera_Middleware/sensors/vd6g/vd6g.c **** static int VD6G_Setup(VD6G_Ctx_t *ctx)
 973:Lib/Camera_Middleware/sensors/vd6g/vd6g.c **** {
 974:Lib/Camera_Middleware/sensors/vd6g/vd6g.c ****   int ret;
 975:Lib/Camera_Middleware/sensors/vd6g/vd6g.c **** 
 976:Lib/Camera_Middleware/sensors/vd6g/vd6g.c ****   ret = VD6G_SetupOutput(ctx);
 977:Lib/Camera_Middleware/sensors/vd6g/vd6g.c ****   if (ret)
 978:Lib/Camera_Middleware/sensors/vd6g/vd6g.c ****     return ret;
 979:Lib/Camera_Middleware/sensors/vd6g/vd6g.c **** 
ARM GAS  /tmp/ccWHsT5O.s 			page 38


 980:Lib/Camera_Middleware/sensors/vd6g/vd6g.c ****   ret = VD6G_SetupSize(ctx);
 981:Lib/Camera_Middleware/sensors/vd6g/vd6g.c ****   if (ret)
 982:Lib/Camera_Middleware/sensors/vd6g/vd6g.c ****     return ret;
 983:Lib/Camera_Middleware/sensors/vd6g/vd6g.c **** 
 984:Lib/Camera_Middleware/sensors/vd6g/vd6g.c ****   ret = VD6G_SetupExposure(ctx);
 985:Lib/Camera_Middleware/sensors/vd6g/vd6g.c ****   if (ret)
 986:Lib/Camera_Middleware/sensors/vd6g/vd6g.c ****     return ret;
 987:Lib/Camera_Middleware/sensors/vd6g/vd6g.c **** 
 988:Lib/Camera_Middleware/sensors/vd6g/vd6g.c ****   ret = VD6G_SetupMirrorFlip(ctx);
 989:Lib/Camera_Middleware/sensors/vd6g/vd6g.c ****   if (ret)
 990:Lib/Camera_Middleware/sensors/vd6g/vd6g.c ****     return ret;
 991:Lib/Camera_Middleware/sensors/vd6g/vd6g.c **** 
 992:Lib/Camera_Middleware/sensors/vd6g/vd6g.c ****   ret = VD6G_SetupPatGen(ctx);
 993:Lib/Camera_Middleware/sensors/vd6g/vd6g.c ****   if (ret)
 994:Lib/Camera_Middleware/sensors/vd6g/vd6g.c ****     return ret;
 995:Lib/Camera_Middleware/sensors/vd6g/vd6g.c **** 
 996:Lib/Camera_Middleware/sensors/vd6g/vd6g.c ****   ret = VD6G_Flicker(ctx);
 997:Lib/Camera_Middleware/sensors/vd6g/vd6g.c ****   if (ret)
 998:Lib/Camera_Middleware/sensors/vd6g/vd6g.c ****     return ret;
 999:Lib/Camera_Middleware/sensors/vd6g/vd6g.c **** 
1000:Lib/Camera_Middleware/sensors/vd6g/vd6g.c ****   return 0;
1001:Lib/Camera_Middleware/sensors/vd6g/vd6g.c **** }
1002:Lib/Camera_Middleware/sensors/vd6g/vd6g.c **** 
1003:Lib/Camera_Middleware/sensors/vd6g/vd6g.c **** static int VD6G_StartStreaming(VD6G_Ctx_t *ctx)
1004:Lib/Camera_Middleware/sensors/vd6g/vd6g.c **** {
1005:Lib/Camera_Middleware/sensors/vd6g/vd6g.c ****   int ret;
1006:Lib/Camera_Middleware/sensors/vd6g/vd6g.c **** 
1007:Lib/Camera_Middleware/sensors/vd6g/vd6g.c ****   ret = ctx->write8(ctx, VD6G_REG_STBY, VD6G_CMD_START_STREAM);
1008:Lib/Camera_Middleware/sensors/vd6g/vd6g.c ****   VD6G_TraceError(ctx, ret);
1009:Lib/Camera_Middleware/sensors/vd6g/vd6g.c **** 
1010:Lib/Camera_Middleware/sensors/vd6g/vd6g.c ****   ret = VD6G_PollReg8(ctx, VD6G_REG_STBY, VD6G_CMD_ACK);
1011:Lib/Camera_Middleware/sensors/vd6g/vd6g.c ****   if (ret)
1012:Lib/Camera_Middleware/sensors/vd6g/vd6g.c ****     return ret;
1013:Lib/Camera_Middleware/sensors/vd6g/vd6g.c **** 
1014:Lib/Camera_Middleware/sensors/vd6g/vd6g.c ****   ret = VD6G_WaitState(ctx, VD6G_SYSTEM_FSM_STREAMING);
1015:Lib/Camera_Middleware/sensors/vd6g/vd6g.c ****   if (ret)
1016:Lib/Camera_Middleware/sensors/vd6g/vd6g.c ****     return ret;
1017:Lib/Camera_Middleware/sensors/vd6g/vd6g.c **** 
1018:Lib/Camera_Middleware/sensors/vd6g/vd6g.c ****   VD6G_notice(ctx, "Streaming is on\n");
1019:Lib/Camera_Middleware/sensors/vd6g/vd6g.c **** 
1020:Lib/Camera_Middleware/sensors/vd6g/vd6g.c ****   return 0;
1021:Lib/Camera_Middleware/sensors/vd6g/vd6g.c **** }
1022:Lib/Camera_Middleware/sensors/vd6g/vd6g.c **** 
1023:Lib/Camera_Middleware/sensors/vd6g/vd6g.c **** static int VD6G_StopStreaming(VD6G_Ctx_t *ctx)
1024:Lib/Camera_Middleware/sensors/vd6g/vd6g.c **** {
1025:Lib/Camera_Middleware/sensors/vd6g/vd6g.c ****   int ret;
1026:Lib/Camera_Middleware/sensors/vd6g/vd6g.c **** 
1027:Lib/Camera_Middleware/sensors/vd6g/vd6g.c ****   ret = ctx->write8(ctx, VD6G_REG_STREAMING, VD6G_CMD_STOP_STREAM);
1028:Lib/Camera_Middleware/sensors/vd6g/vd6g.c ****   VD6G_TraceError(ctx, ret);
1029:Lib/Camera_Middleware/sensors/vd6g/vd6g.c **** 
1030:Lib/Camera_Middleware/sensors/vd6g/vd6g.c ****   ret = VD6G_PollReg8(ctx, VD6G_REG_STREAMING, VD6G_CMD_ACK);
1031:Lib/Camera_Middleware/sensors/vd6g/vd6g.c ****   if (ret)
1032:Lib/Camera_Middleware/sensors/vd6g/vd6g.c ****     return ret;
1033:Lib/Camera_Middleware/sensors/vd6g/vd6g.c **** 
1034:Lib/Camera_Middleware/sensors/vd6g/vd6g.c ****   ret = VD6G_WaitState(ctx, VD6G_SYSTEM_FSM_SW_STBY);
1035:Lib/Camera_Middleware/sensors/vd6g/vd6g.c ****   if (ret)
1036:Lib/Camera_Middleware/sensors/vd6g/vd6g.c ****     return ret;
ARM GAS  /tmp/ccWHsT5O.s 			page 39


1037:Lib/Camera_Middleware/sensors/vd6g/vd6g.c **** 
1038:Lib/Camera_Middleware/sensors/vd6g/vd6g.c ****   VD6G_notice(ctx, "Streaming is off\n");
1039:Lib/Camera_Middleware/sensors/vd6g/vd6g.c **** 
1040:Lib/Camera_Middleware/sensors/vd6g/vd6g.c ****   return 0;
1041:Lib/Camera_Middleware/sensors/vd6g/vd6g.c **** }
1042:Lib/Camera_Middleware/sensors/vd6g/vd6g.c **** 
1043:Lib/Camera_Middleware/sensors/vd6g/vd6g.c **** int VD6G_Init(VD6G_Ctx_t *ctx, VD6G_Config_t *config)
1044:Lib/Camera_Middleware/sensors/vd6g/vd6g.c **** {
 937              		.loc 1 1044 1 is_stmt 1 view -0
 938              		.cfi_startproc
 939              		@ args = 0, pretend = 0, frame = 16
 940              		@ frame_needed = 0, uses_anonymous_args = 0
1045:Lib/Camera_Middleware/sensors/vd6g/vd6g.c ****   struct drv_vd6g_ctx *drv_ctx = &ctx->ctx;
 941              		.loc 1 1045 3 view .LVU200
1046:Lib/Camera_Middleware/sensors/vd6g/vd6g.c ****   int ret;
 942              		.loc 1 1046 3 view .LVU201
1047:Lib/Camera_Middleware/sensors/vd6g/vd6g.c **** 
1048:Lib/Camera_Middleware/sensors/vd6g/vd6g.c ****   if (config->frame_rate < VD6G_MIN_FPS)
 943              		.loc 1 1048 3 view .LVU202
1044:Lib/Camera_Middleware/sensors/vd6g/vd6g.c ****   struct drv_vd6g_ctx *drv_ctx = &ctx->ctx;
 944              		.loc 1 1044 1 is_stmt 0 view .LVU203
 945 0000 2DE9F04F 		push	{r4, r5, r6, r7, r8, r9, r10, fp, lr}
 946              		.cfi_def_cfa_offset 36
 947              		.cfi_offset 4, -36
 948              		.cfi_offset 5, -32
 949              		.cfi_offset 6, -28
 950              		.cfi_offset 7, -24
 951              		.cfi_offset 8, -20
 952              		.cfi_offset 9, -16
 953              		.cfi_offset 10, -12
 954              		.cfi_offset 11, -8
 955              		.cfi_offset 14, -4
 956              		.loc 1 1048 6 view .LVU204
 957 0004 8B68     		ldr	r3, [r1, #8]
1044:Lib/Camera_Middleware/sensors/vd6g/vd6g.c ****   struct drv_vd6g_ctx *drv_ctx = &ctx->ctx;
 958              		.loc 1 1044 1 view .LVU205
 959 0006 0546     		mov	r5, r0
 960              		.loc 1 1048 6 view .LVU206
 961 0008 013B     		subs	r3, r3, #1
 962 000a 572B     		cmp	r3, #87
1044:Lib/Camera_Middleware/sensors/vd6g/vd6g.c ****   struct drv_vd6g_ctx *drv_ctx = &ctx->ctx;
 963              		.loc 1 1044 1 view .LVU207
 964 000c 0C46     		mov	r4, r1
 965 000e 87B0     		sub	sp, sp, #28
 966              		.cfi_def_cfa_offset 64
 967              		.loc 1 1048 6 view .LVU208
 968 0010 42D8     		bhi	.L70
1049:Lib/Camera_Middleware/sensors/vd6g/vd6g.c ****     return -1;
1050:Lib/Camera_Middleware/sensors/vd6g/vd6g.c ****   if (config->frame_rate > VD6G_MAX_FPS)
 969              		.loc 1 1050 3 is_stmt 1 view .LVU209
1051:Lib/Camera_Middleware/sensors/vd6g/vd6g.c ****     return -1;
1052:Lib/Camera_Middleware/sensors/vd6g/vd6g.c **** 
1053:Lib/Camera_Middleware/sensors/vd6g/vd6g.c ****   if ((config->resolution != VD6G_RES_QVGA_320_240) &&
 970              		.loc 1 1053 3 view .LVU210
 971              		.loc 1 1053 6 is_stmt 0 view .LVU211
 972 0012 0B79     		ldrb	r3, [r1, #4]	@ zero_extendqisi2
 973 0014 082B     		cmp	r3, #8
ARM GAS  /tmp/ccWHsT5O.s 			page 40


 974 0016 3FD8     		bhi	.L70
1054:Lib/Camera_Middleware/sensors/vd6g/vd6g.c ****       (config->resolution != VD6G_RES_VGA_640_480) &&
1055:Lib/Camera_Middleware/sensors/vd6g/vd6g.c ****       (config->resolution != VD6G_RES_VGA_PORTRAIT_480_640) &&
1056:Lib/Camera_Middleware/sensors/vd6g/vd6g.c ****       (config->resolution != VD6G_RES_XGA_1024_768) &&
1057:Lib/Camera_Middleware/sensors/vd6g/vd6g.c ****       (config->resolution != VD6G_RES_XGA_PORTRAIT_768_1024) &&
1058:Lib/Camera_Middleware/sensors/vd6g/vd6g.c ****       (config->resolution != VD6G_RES_720P_PORTRAIT_720_1280) &&
1059:Lib/Camera_Middleware/sensors/vd6g/vd6g.c ****       (config->resolution != VD6G_RES_SXGA_PORTRAIT_1024_1280) &&
1060:Lib/Camera_Middleware/sensors/vd6g/vd6g.c ****       (config->resolution != VD6G_RES_PORTRAIT_1120_720) &&
1061:Lib/Camera_Middleware/sensors/vd6g/vd6g.c ****       (config->resolution != VD6G_RES_FULL_1120_1364)) {
1062:Lib/Camera_Middleware/sensors/vd6g/vd6g.c ****     return -1;
1063:Lib/Camera_Middleware/sensors/vd6g/vd6g.c ****   }
1064:Lib/Camera_Middleware/sensors/vd6g/vd6g.c **** 
1065:Lib/Camera_Middleware/sensors/vd6g/vd6g.c ****   if ((config->flip_mirror_mode != VD6G_MIRROR_FLIP_NONE) &&
 975              		.loc 1 1065 3 is_stmt 1 view .LVU212
 976              		.loc 1 1065 6 is_stmt 0 view .LVU213
 977 0018 0B7B     		ldrb	r3, [r1, #12]	@ zero_extendqisi2
 978 001a 032B     		cmp	r3, #3
 979 001c 3CD8     		bhi	.L70
1066:Lib/Camera_Middleware/sensors/vd6g/vd6g.c ****       (config->flip_mirror_mode != VD6G_FLIP) &&
1067:Lib/Camera_Middleware/sensors/vd6g/vd6g.c ****       (config->flip_mirror_mode != VD6G_MIRROR) &&
1068:Lib/Camera_Middleware/sensors/vd6g/vd6g.c ****       (config->flip_mirror_mode != VD6G_MIRROR_FLIP)) {
1069:Lib/Camera_Middleware/sensors/vd6g/vd6g.c ****     return -1;
1070:Lib/Camera_Middleware/sensors/vd6g/vd6g.c ****   }
1071:Lib/Camera_Middleware/sensors/vd6g/vd6g.c **** 
1072:Lib/Camera_Middleware/sensors/vd6g/vd6g.c ****   ctx->shutdown_pin(ctx, 0);
 980              		.loc 1 1072 3 is_stmt 1 view .LVU214
 981 001e 0368     		ldr	r3, [r0]
 982 0020 0021     		movs	r1, #0
 983              	.LVL72:
 984              		.loc 1 1072 3 is_stmt 0 view .LVU215
 985 0022 9847     		blx	r3
 986              	.LVL73:
1073:Lib/Camera_Middleware/sensors/vd6g/vd6g.c ****   ctx->delay(ctx, 10);
 987              		.loc 1 1073 3 is_stmt 1 view .LVU216
 988 0024 0A21     		movs	r1, #10
 989 0026 2846     		mov	r0, r5
 990 0028 2B6A     		ldr	r3, [r5, #32]
 991 002a 9847     		blx	r3
 992              	.LVL74:
1074:Lib/Camera_Middleware/sensors/vd6g/vd6g.c ****   ctx->shutdown_pin(ctx, 1);
 993              		.loc 1 1074 3 view .LVU217
 994 002c 0121     		movs	r1, #1
 995 002e 2846     		mov	r0, r5
 996 0030 2B68     		ldr	r3, [r5]
 997 0032 9847     		blx	r3
 998              	.LVL75:
1075:Lib/Camera_Middleware/sensors/vd6g/vd6g.c ****   ctx->delay(ctx, 10);
 999              		.loc 1 1075 3 view .LVU218
1076:Lib/Camera_Middleware/sensors/vd6g/vd6g.c **** 
1077:Lib/Camera_Middleware/sensors/vd6g/vd6g.c ****   drv_ctx->config_save = *config;
 1000              		.loc 1 1077 24 is_stmt 0 view .LVU219
 1001 0034 05F13006 		add	r6, r5, #48
1075:Lib/Camera_Middleware/sensors/vd6g/vd6g.c ****   ctx->delay(ctx, 10);
 1002              		.loc 1 1075 3 view .LVU220
 1003 0038 0A21     		movs	r1, #10
 1004 003a 2846     		mov	r0, r5
 1005 003c 2B6A     		ldr	r3, [r5, #32]
ARM GAS  /tmp/ccWHsT5O.s 			page 41


 1006 003e 9847     		blx	r3
 1007              	.LVL76:
 1008              		.loc 1 1077 3 is_stmt 1 view .LVU221
 1009              		.loc 1 1077 24 is_stmt 0 view .LVU222
 1010 0040 0FCC     		ldmia	r4!, {r0, r1, r2, r3}
 1011              	.LVL77:
 1012              		.loc 1 1077 24 view .LVU223
 1013 0042 0FC6     		stmia	r6!, {r0, r1, r2, r3}
 1014 0044 0FCC     		ldmia	r4!, {r0, r1, r2, r3}
 1015              	.LVL78:
 1016              		.loc 1 1077 24 view .LVU224
 1017 0046 0FC6     		stmia	r6!, {r0, r1, r2, r3}
 1018 0048 0FCC     		ldmia	r4!, {r0, r1, r2, r3}
 1019              	.LVL79:
 1020              		.loc 1 1077 24 view .LVU225
 1021 004a 0FC6     		stmia	r6!, {r0, r1, r2, r3}
1078:Lib/Camera_Middleware/sensors/vd6g/vd6g.c ****   drv_ctx->is_streaming = 0;
 1022              		.loc 1 1078 25 view .LVU226
 1023 004c 0023     		movs	r3, #0
1077:Lib/Camera_Middleware/sensors/vd6g/vd6g.c ****   drv_ctx->is_streaming = 0;
 1024              		.loc 1 1077 24 view .LVU227
 1025 004e 94E80300 		ldm	r4, {r0, r1}
 1026 0052 86E80300 		stm	r6, {r0, r1}
 1027              		.loc 1 1078 3 is_stmt 1 view .LVU228
 1028              	.LBB36:
 1029              	.LBB37:
 638:Lib/Camera_Middleware/sensors/vd6g/vd6g.c ****   if (ret)
 1030              		.loc 1 638 9 is_stmt 0 view .LVU229
 1031 0056 0121     		movs	r1, #1
 1032 0058 2846     		mov	r0, r5
 1033              	.LBE37:
 1034              	.LBE36:
 1035              		.loc 1 1078 25 view .LVU230
 1036 005a EB62     		str	r3, [r5, #44]
1079:Lib/Camera_Middleware/sensors/vd6g/vd6g.c **** 
1080:Lib/Camera_Middleware/sensors/vd6g/vd6g.c ****   ret = VD6G_Boot(ctx);
 1037              		.loc 1 1080 3 is_stmt 1 view .LVU231
 1038              	.LVL80:
 1039              	.LBB97:
 1040              	.LBI36:
 634:Lib/Camera_Middleware/sensors/vd6g/vd6g.c **** {
 1041              		.loc 1 634 12 view .LVU232
 1042              	.LBB92:
 636:Lib/Camera_Middleware/sensors/vd6g/vd6g.c **** 
 1043              		.loc 1 636 3 view .LVU233
 638:Lib/Camera_Middleware/sensors/vd6g/vd6g.c ****   if (ret)
 1044              		.loc 1 638 3 view .LVU234
 638:Lib/Camera_Middleware/sensors/vd6g/vd6g.c ****   if (ret)
 1045              		.loc 1 638 9 is_stmt 0 view .LVU235
 1046 005c FFF7FEFF 		bl	VD6G_WaitState
 1047              	.LVL81:
 639:Lib/Camera_Middleware/sensors/vd6g/vd6g.c ****     return ret;
 1048              		.loc 1 639 3 is_stmt 1 view .LVU236
 639:Lib/Camera_Middleware/sensors/vd6g/vd6g.c ****     return ret;
 1049              		.loc 1 639 6 is_stmt 0 view .LVU237
 1050 0060 0446     		mov	r4, r0
 1051              	.LVL82:
ARM GAS  /tmp/ccWHsT5O.s 			page 42


 639:Lib/Camera_Middleware/sensors/vd6g/vd6g.c ****     return ret;
 1052              		.loc 1 639 6 view .LVU238
 1053 0062 0028     		cmp	r0, #0
 1054 0064 4ED1     		bne	.L69
 642:Lib/Camera_Middleware/sensors/vd6g/vd6g.c ****   if (ret)
 1055              		.loc 1 642 3 is_stmt 1 view .LVU239
 1056              	.LVL83:
 1057              	.LBB38:
 1058              	.LBI38:
 378:Lib/Camera_Middleware/sensors/vd6g/vd6g.c **** {
 1059              		.loc 1 378 12 view .LVU240
 1060              	.LBB39:
 380:Lib/Camera_Middleware/sensors/vd6g/vd6g.c ****   uint16_t reg16;
 1061              		.loc 1 380 3 view .LVU241
 381:Lib/Camera_Middleware/sensors/vd6g/vd6g.c ****   int ret;
 1062              		.loc 1 381 3 view .LVU242
 382:Lib/Camera_Middleware/sensors/vd6g/vd6g.c **** 
 1063              		.loc 1 382 3 view .LVU243
 384:Lib/Camera_Middleware/sensors/vd6g/vd6g.c ****   VD6G_TraceError(ctx, ret);
 1064              		.loc 1 384 3 view .LVU244
 384:Lib/Camera_Middleware/sensors/vd6g/vd6g.c ****   VD6G_TraceError(ctx, ret);
 1065              		.loc 1 384 9 is_stmt 0 view .LVU245
 1066 0066 03AE     		add	r6, sp, #12
 1067 0068 0146     		mov	r1, r0
 1068 006a 3246     		mov	r2, r6
 1069 006c 2846     		mov	r0, r5
 1070              	.LVL84:
 384:Lib/Camera_Middleware/sensors/vd6g/vd6g.c ****   VD6G_TraceError(ctx, ret);
 1071              		.loc 1 384 9 view .LVU246
 1072 006e AB68     		ldr	r3, [r5, #8]
 1073 0070 9847     		blx	r3
 1074              	.LVL85:
 385:Lib/Camera_Middleware/sensors/vd6g/vd6g.c ****   VD6G_dbg(ctx, 0, "model_id = 0x%04x\n", reg16);
 1075              		.loc 1 385 3 is_stmt 1 view .LVU247
 385:Lib/Camera_Middleware/sensors/vd6g/vd6g.c ****   VD6G_dbg(ctx, 0, "model_id = 0x%04x\n", reg16);
 1076              		.loc 1 385 3 view .LVU248
 1077 0072 0446     		mov	r4, r0
 1078              	.LVL86:
 385:Lib/Camera_Middleware/sensors/vd6g/vd6g.c ****   VD6G_dbg(ctx, 0, "model_id = 0x%04x\n", reg16);
 1079              		.loc 1 385 3 is_stmt 0 view .LVU249
 1080 0074 98B9     		cbnz	r0, .L72
 385:Lib/Camera_Middleware/sensors/vd6g/vd6g.c ****   VD6G_dbg(ctx, 0, "model_id = 0x%04x\n", reg16);
 1081              		.loc 1 385 3 is_stmt 1 discriminator 6 view .LVU250
 385:Lib/Camera_Middleware/sensors/vd6g/vd6g.c ****   VD6G_dbg(ctx, 0, "model_id = 0x%04x\n", reg16);
 1082              		.loc 1 385 3 discriminator 8 view .LVU251
 386:Lib/Camera_Middleware/sensors/vd6g/vd6g.c ****   if (reg16 != VD6G_MODEL_ID) {
 1083              		.loc 1 386 3 view .LVU252
 1084 0076 0146     		mov	r1, r0
 1085 0078 BDF80C30 		ldrh	r3, [sp, #12]
 1086 007c B04A     		ldr	r2, .L191
 1087 007e 2846     		mov	r0, r5
 1088              	.LVL87:
 386:Lib/Camera_Middleware/sensors/vd6g/vd6g.c ****   if (reg16 != VD6G_MODEL_ID) {
 1089              		.loc 1 386 3 is_stmt 0 view .LVU253
 1090 0080 FFF7FEFF 		bl	VD6G_dbg.constprop.0
 1091              	.LVL88:
 387:Lib/Camera_Middleware/sensors/vd6g/vd6g.c ****     VD6G_error(ctx, "Bad model id expected 0x%04x / got 0x%04x\n", VD6G_MODEL_ID, reg16);
ARM GAS  /tmp/ccWHsT5O.s 			page 43


 1092              		.loc 1 387 3 is_stmt 1 view .LVU254
 387:Lib/Camera_Middleware/sensors/vd6g/vd6g.c ****     VD6G_error(ctx, "Bad model id expected 0x%04x / got 0x%04x\n", VD6G_MODEL_ID, reg16);
 1093              		.loc 1 387 6 is_stmt 0 view .LVU255
 1094 0084 45F20362 		movw	r2, #22019
 387:Lib/Camera_Middleware/sensors/vd6g/vd6g.c ****     VD6G_error(ctx, "Bad model id expected 0x%04x / got 0x%04x\n", VD6G_MODEL_ID, reg16);
 1095              		.loc 1 387 13 view .LVU256
 1096 0088 BDF80C30 		ldrh	r3, [sp, #12]
 387:Lib/Camera_Middleware/sensors/vd6g/vd6g.c ****     VD6G_error(ctx, "Bad model id expected 0x%04x / got 0x%04x\n", VD6G_MODEL_ID, reg16);
 1097              		.loc 1 387 6 view .LVU257
 1098 008c 9342     		cmp	r3, r2
 1099 008e 12D0     		beq	.L165
 388:Lib/Camera_Middleware/sensors/vd6g/vd6g.c ****     return -1;
 1100              		.loc 1 388 5 is_stmt 1 view .LVU258
 1101 0090 2846     		mov	r0, r5
 1102 0092 AC49     		ldr	r1, .L191+4
 1103 0094 FFF7FEFF 		bl	VD6G_error
 1104              	.LVL89:
 389:Lib/Camera_Middleware/sensors/vd6g/vd6g.c ****   }
 1105              		.loc 1 389 5 view .LVU259
 389:Lib/Camera_Middleware/sensors/vd6g/vd6g.c ****   }
 1106              		.loc 1 389 5 is_stmt 0 view .LVU260
 1107              	.LBE39:
 1108              	.LBE38:
 643:Lib/Camera_Middleware/sensors/vd6g/vd6g.c ****     return ret;
 1109              		.loc 1 643 3 is_stmt 1 view .LVU261
 1110              	.L70:
 643:Lib/Camera_Middleware/sensors/vd6g/vd6g.c ****     return ret;
 1111              		.loc 1 643 3 is_stmt 0 view .LVU262
 1112              	.LBE92:
 1113              	.LBE97:
 1114              	.LBB98:
 1115              	.LBB99:
 963:Lib/Camera_Middleware/sensors/vd6g/vd6g.c **** 
 1116              		.loc 1 963 12 view .LVU263
 1117 0098 4FF0FF34 		mov	r4, #-1
 1118 009c 32E0     		b	.L69
 1119              	.LVL90:
 1120              	.L72:
 963:Lib/Camera_Middleware/sensors/vd6g/vd6g.c **** 
 1121              		.loc 1 963 12 view .LVU264
 1122              	.LBE99:
 1123              	.LBE98:
 1124              	.LBB121:
 1125              	.LBB93:
 1126              	.LBB44:
 1127              	.LBB40:
 385:Lib/Camera_Middleware/sensors/vd6g/vd6g.c ****   VD6G_dbg(ctx, 0, "model_id = 0x%04x\n", reg16);
 1128              		.loc 1 385 3 is_stmt 1 discriminator 1 view .LVU265
 1129 009e 40F28113 		movw	r3, #385
 1130 00a2 0090     		str	r0, [sp]
 1131              	.L187:
 401:Lib/Camera_Middleware/sensors/vd6g/vd6g.c ****   VD6G_dbg(ctx, 0, "rom = 0x%04x\n", reg16);
 1132              		.loc 1 401 3 is_stmt 0 discriminator 1 view .LVU266
 1133 00a4 A84A     		ldr	r2, .L191+8
 1134              	.LVL91:
 1135              	.L184:
 401:Lib/Camera_Middleware/sensors/vd6g/vd6g.c ****   VD6G_dbg(ctx, 0, "rom = 0x%04x\n", reg16);
ARM GAS  /tmp/ccWHsT5O.s 			page 44


 1136              		.loc 1 401 3 discriminator 1 view .LVU267
 1137              	.LBE40:
 1138              	.LBE44:
 1139              	.LBE93:
 1140              	.LBE121:
 1141              	.LBB122:
 1142              	.LBB118:
 1143              	.LBB100:
 1144              	.LBB101:
 838:Lib/Camera_Middleware/sensors/vd6g/vd6g.c **** 
 1145              		.loc 1 838 3 discriminator 1 view .LVU268
 1146 00a6 2846     		mov	r0, r5
 1147 00a8 A849     		ldr	r1, .L191+12
 1148 00aa FFF7FEFF 		bl	VD6G_error
 1149              	.LVL92:
 838:Lib/Camera_Middleware/sensors/vd6g/vd6g.c **** 
 1150              		.loc 1 838 3 is_stmt 1 discriminator 3 view .LVU269
 838:Lib/Camera_Middleware/sensors/vd6g/vd6g.c **** 
 1151              		.loc 1 838 3 discriminator 4 view .LVU270
 1152 00ae 2846     		mov	r0, r5
 1153 00b0 FFF7FEFF 		bl	display_error
 1154              	.LVL93:
 838:Lib/Camera_Middleware/sensors/vd6g/vd6g.c **** 
 1155              		.loc 1 838 3 discriminator 6 view .LVU271
 838:Lib/Camera_Middleware/sensors/vd6g/vd6g.c **** 
 1156              		.loc 1 838 3 discriminator 7 view .LVU272
 838:Lib/Camera_Middleware/sensors/vd6g/vd6g.c **** 
 1157              		.loc 1 838 3 is_stmt 0 view .LVU273
 1158 00b4 26E0     		b	.L69
 1159              	.LVL94:
 1160              	.L165:
 838:Lib/Camera_Middleware/sensors/vd6g/vd6g.c **** 
 1161              		.loc 1 838 3 view .LVU274
 1162              	.LBE101:
 1163              	.LBE100:
 1164              	.LBE118:
 1165              	.LBE122:
 1166              	.LBB123:
 1167              	.LBB94:
 1168              	.LBB45:
 1169              	.LBB41:
 392:Lib/Camera_Middleware/sensors/vd6g/vd6g.c ****   if (ret)
 1170              		.loc 1 392 3 is_stmt 1 view .LVU275
 392:Lib/Camera_Middleware/sensors/vd6g/vd6g.c ****   if (ret)
 1171              		.loc 1 392 9 is_stmt 0 view .LVU276
 1172 00b6 2846     		mov	r0, r5
 1173 00b8 0DF10B01 		add	r1, sp, #11
 1174 00bc FFF7FEFF 		bl	VD6G_GetTopDie
 1175              	.LVL95:
 393:Lib/Camera_Middleware/sensors/vd6g/vd6g.c ****     return ret;
 1176              		.loc 1 393 3 is_stmt 1 view .LVU277
 393:Lib/Camera_Middleware/sensors/vd6g/vd6g.c ****     return ret;
 1177              		.loc 1 393 6 is_stmt 0 view .LVU278
 1178 00c0 0446     		mov	r4, r0
 1179 00c2 F8B9     		cbnz	r0, .L69
 395:Lib/Camera_Middleware/sensors/vd6g/vd6g.c ****     VD6G_error(ctx, "Unsupported revision\n");
 1180              		.loc 1 395 3 is_stmt 1 view .LVU279
ARM GAS  /tmp/ccWHsT5O.s 			page 45


 395:Lib/Camera_Middleware/sensors/vd6g/vd6g.c ****     VD6G_error(ctx, "Unsupported revision\n");
 1181              		.loc 1 395 15 is_stmt 0 view .LVU280
 1182 00c4 9DF80B30 		ldrb	r3, [sp, #11]	@ zero_extendqisi2
 395:Lib/Camera_Middleware/sensors/vd6g/vd6g.c ****     VD6G_error(ctx, "Unsupported revision\n");
 1183              		.loc 1 395 6 view .LVU281
 1184 00c8 202B     		cmp	r3, #32
 1185 00ca 06D0     		beq	.L76
 395:Lib/Camera_Middleware/sensors/vd6g/vd6g.c ****     VD6G_error(ctx, "Unsupported revision\n");
 1186              		.loc 1 395 41 discriminator 1 view .LVU282
 1187 00cc 312B     		cmp	r3, #49
 1188 00ce 04D0     		beq	.L76
 396:Lib/Camera_Middleware/sensors/vd6g/vd6g.c ****     return -1;
 1189              		.loc 1 396 5 is_stmt 1 view .LVU283
 1190 00d0 9F49     		ldr	r1, .L191+16
 1191              	.LVL96:
 1192              	.L183:
 396:Lib/Camera_Middleware/sensors/vd6g/vd6g.c ****     return -1;
 1193              		.loc 1 396 5 is_stmt 0 view .LVU284
 1194              	.LBE41:
 1195              	.LBE45:
 1196              	.LBE94:
 1197              	.LBE123:
 1198              	.LBB124:
 1199              	.LBB119:
 1200              	.LBB104:
 1201              	.LBB105:
 1202              	.LBB106:
 1203              	.LBB107:
 675:Lib/Camera_Middleware/sensors/vd6g/vd6g.c ****     return -1;
 1204              		.loc 1 675 5 view .LVU285
 1205 00d2 2846     		mov	r0, r5
 1206 00d4 FFF7FEFF 		bl	VD6G_error
 1207              	.LVL97:
 676:Lib/Camera_Middleware/sensors/vd6g/vd6g.c ****   }
 1208              		.loc 1 676 5 is_stmt 1 view .LVU286
 676:Lib/Camera_Middleware/sensors/vd6g/vd6g.c ****   }
 1209              		.loc 1 676 5 is_stmt 0 view .LVU287
 1210              	.LBE107:
 1211              	.LBE106:
 704:Lib/Camera_Middleware/sensors/vd6g/vd6g.c ****     return ret;
 1212              		.loc 1 704 3 is_stmt 1 view .LVU288
 1213 00d8 DEE7     		b	.L70
 1214              	.LVL98:
 1215              	.L76:
 704:Lib/Camera_Middleware/sensors/vd6g/vd6g.c ****     return ret;
 1216              		.loc 1 704 3 is_stmt 0 view .LVU289
 1217              	.LBE105:
 1218              	.LBE104:
 1219              	.LBE119:
 1220              	.LBE124:
 1221              	.LBB125:
 1222              	.LBB95:
 1223              	.LBB46:
 1224              	.LBB42:
 400:Lib/Camera_Middleware/sensors/vd6g/vd6g.c ****   VD6G_TraceError(ctx, ret);
 1225              		.loc 1 400 3 is_stmt 1 view .LVU290
 400:Lib/Camera_Middleware/sensors/vd6g/vd6g.c ****   VD6G_TraceError(ctx, ret);
ARM GAS  /tmp/ccWHsT5O.s 			page 46


 1226              		.loc 1 400 9 is_stmt 0 view .LVU291
 1227 00da 3246     		mov	r2, r6
 1228 00dc 1421     		movs	r1, #20
 1229 00de 2846     		mov	r0, r5
 1230              	.LVL99:
 400:Lib/Camera_Middleware/sensors/vd6g/vd6g.c ****   VD6G_TraceError(ctx, ret);
 1231              		.loc 1 400 9 view .LVU292
 1232 00e0 AB68     		ldr	r3, [r5, #8]
 1233 00e2 9847     		blx	r3
 1234              	.LVL100:
 401:Lib/Camera_Middleware/sensors/vd6g/vd6g.c ****   VD6G_dbg(ctx, 0, "rom = 0x%04x\n", reg16);
 1235              		.loc 1 401 3 is_stmt 1 view .LVU293
 401:Lib/Camera_Middleware/sensors/vd6g/vd6g.c ****   VD6G_dbg(ctx, 0, "rom = 0x%04x\n", reg16);
 1236              		.loc 1 401 3 view .LVU294
 1237 00e4 0446     		mov	r4, r0
 1238 00e6 88B9     		cbnz	r0, .L77
 401:Lib/Camera_Middleware/sensors/vd6g/vd6g.c ****   VD6G_dbg(ctx, 0, "rom = 0x%04x\n", reg16);
 1239              		.loc 1 401 3 discriminator 3 view .LVU295
 401:Lib/Camera_Middleware/sensors/vd6g/vd6g.c ****   VD6G_dbg(ctx, 0, "rom = 0x%04x\n", reg16);
 1240              		.loc 1 401 3 discriminator 6 view .LVU296
 401:Lib/Camera_Middleware/sensors/vd6g/vd6g.c ****   VD6G_dbg(ctx, 0, "rom = 0x%04x\n", reg16);
 1241              		.loc 1 401 3 discriminator 8 view .LVU297
 402:Lib/Camera_Middleware/sensors/vd6g/vd6g.c **** 
 1242              		.loc 1 402 3 view .LVU298
 1243 00e8 0146     		mov	r1, r0
 1244 00ea BDF80C30 		ldrh	r3, [sp, #12]
 1245 00ee 2846     		mov	r0, r5
 1246              	.LVL101:
 402:Lib/Camera_Middleware/sensors/vd6g/vd6g.c **** 
 1247              		.loc 1 402 3 is_stmt 0 view .LVU299
 1248 00f0 984A     		ldr	r2, .L191+20
 1249 00f2 FFF7FEFF 		bl	VD6G_dbg.constprop.0
 1250              	.LVL102:
 404:Lib/Camera_Middleware/sensors/vd6g/vd6g.c **** }
 1251              		.loc 1 404 3 is_stmt 1 view .LVU300
 404:Lib/Camera_Middleware/sensors/vd6g/vd6g.c **** }
 1252              		.loc 1 404 3 is_stmt 0 view .LVU301
 1253              	.LBE42:
 1254              	.LBE46:
 643:Lib/Camera_Middleware/sensors/vd6g/vd6g.c ****     return ret;
 1255              		.loc 1 643 3 is_stmt 1 view .LVU302
 646:Lib/Camera_Middleware/sensors/vd6g/vd6g.c ****   if (ret)
 1256              		.loc 1 646 3 view .LVU303
 1257              	.LBB47:
 1258              	.LBI47:
 441:Lib/Camera_Middleware/sensors/vd6g/vd6g.c **** {
 1259              		.loc 1 441 12 view .LVU304
 1260              	.LBB48:
 443:Lib/Camera_Middleware/sensors/vd6g/vd6g.c ****   int ret;
 1261              		.loc 1 443 3 view .LVU305
 444:Lib/Camera_Middleware/sensors/vd6g/vd6g.c **** 
 1262              		.loc 1 444 3 view .LVU306
 446:Lib/Camera_Middleware/sensors/vd6g/vd6g.c ****   if (ret)
 1263              		.loc 1 446 3 view .LVU307
 446:Lib/Camera_Middleware/sensors/vd6g/vd6g.c ****   if (ret)
 1264              		.loc 1 446 9 is_stmt 0 view .LVU308
 1265 00f6 2846     		mov	r0, r5
ARM GAS  /tmp/ccWHsT5O.s 			page 47


 1266 00f8 0DF10B01 		add	r1, sp, #11
 1267 00fc FFF7FEFF 		bl	VD6G_GetTopDie
 1268              	.LVL103:
 447:Lib/Camera_Middleware/sensors/vd6g/vd6g.c ****     return ret;
 1269              		.loc 1 447 3 is_stmt 1 view .LVU309
 447:Lib/Camera_Middleware/sensors/vd6g/vd6g.c ****     return ret;
 1270              		.loc 1 447 6 is_stmt 0 view .LVU310
 1271 0100 0446     		mov	r4, r0
 1272 0102 38B1     		cbz	r0, .L166
 1273              	.LVL104:
 1274              	.L69:
 447:Lib/Camera_Middleware/sensors/vd6g/vd6g.c ****     return ret;
 1275              		.loc 1 447 6 view .LVU311
 1276              	.LBE48:
 1277              	.LBE47:
 1278              	.LBE95:
 1279              	.LBE125:
1081:Lib/Camera_Middleware/sensors/vd6g/vd6g.c ****   if (ret)
1082:Lib/Camera_Middleware/sensors/vd6g/vd6g.c ****     return ret;
1083:Lib/Camera_Middleware/sensors/vd6g/vd6g.c **** 
1084:Lib/Camera_Middleware/sensors/vd6g/vd6g.c ****   ret = VD6G_SetupEarly(ctx);
1085:Lib/Camera_Middleware/sensors/vd6g/vd6g.c ****   if (ret)
1086:Lib/Camera_Middleware/sensors/vd6g/vd6g.c ****     return ret;
1087:Lib/Camera_Middleware/sensors/vd6g/vd6g.c **** 
1088:Lib/Camera_Middleware/sensors/vd6g/vd6g.c ****   return 0;
1089:Lib/Camera_Middleware/sensors/vd6g/vd6g.c **** }
 1280              		.loc 1 1089 1 view .LVU312
 1281 0104 2046     		mov	r0, r4
 1282 0106 07B0     		add	sp, sp, #28
 1283              		.cfi_remember_state
 1284              		.cfi_def_cfa_offset 36
 1285              		@ sp needed
 1286 0108 BDE8F08F 		pop	{r4, r5, r6, r7, r8, r9, r10, fp, pc}
 1287              	.LVL105:
 1288              	.L77:
 1289              		.cfi_restore_state
 1290              	.LBB126:
 1291              	.LBB96:
 1292              	.LBB56:
 1293              	.LBB43:
 401:Lib/Camera_Middleware/sensors/vd6g/vd6g.c ****   VD6G_dbg(ctx, 0, "rom = 0x%04x\n", reg16);
 1294              		.loc 1 401 3 is_stmt 1 discriminator 1 view .LVU313
 1295 010c 40F29113 		movw	r3, #401
 1296 0110 0090     		str	r0, [sp]
 1297 0112 C7E7     		b	.L187
 1298              	.LVL106:
 1299              	.L166:
 401:Lib/Camera_Middleware/sensors/vd6g/vd6g.c ****   VD6G_dbg(ctx, 0, "rom = 0x%04x\n", reg16);
 1300              		.loc 1 401 3 is_stmt 0 discriminator 1 view .LVU314
 1301              	.LBE43:
 1302              	.LBE56:
 1303              	.LBB57:
 1304              	.LBB53:
 450:Lib/Camera_Middleware/sensors/vd6g/vd6g.c ****   case VD6G_TOP_DIE_SLOW_BOOT:
 1305              		.loc 1 450 3 is_stmt 1 view .LVU315
 1306 0114 9DF80B30 		ldrb	r3, [sp, #11]	@ zero_extendqisi2
 1307 0118 202B     		cmp	r3, #32
ARM GAS  /tmp/ccWHsT5O.s 			page 48


 1308 011a 08D0     		beq	.L80
 1309 011c 312B     		cmp	r3, #49
 1310 011e 52D0     		beq	.L81
 458:Lib/Camera_Middleware/sensors/vd6g/vd6g.c ****   }
 1311              		.loc 1 458 5 view .LVU316
 1312 0120 4FF4E571 		mov	r1, #458
 1313 0124 8C4B     		ldr	r3, .L191+24
 1314 0126 8D4A     		ldr	r2, .L191+28
 1315              	.LVL107:
 1316              	.L186:
 458:Lib/Camera_Middleware/sensors/vd6g/vd6g.c ****   }
 1317              		.loc 1 458 5 is_stmt 0 view .LVU317
 1318              	.LBE53:
 1319              	.LBE57:
 1320              	.LBB58:
 1321              	.LBB59:
 564:Lib/Camera_Middleware/sensors/vd6g/vd6g.c ****   }
 1322              		.loc 1 564 5 view .LVU318
 1323 0128 8D48     		ldr	r0, .L191+32
 1324 012a FFF7FEFF 		bl	__assert_func
 1325              	.LVL108:
 1326              	.L80:
 564:Lib/Camera_Middleware/sensors/vd6g/vd6g.c ****   }
 1327              		.loc 1 564 5 view .LVU319
 1328              	.LBE59:
 1329              	.LBE58:
 1330              	.LBB69:
 1331              	.LBB54:
 452:Lib/Camera_Middleware/sensors/vd6g/vd6g.c ****     break;
 1332              		.loc 1 452 5 is_stmt 1 view .LVU320
 1333              	.LBB49:
 1334              	.LBI49:
 407:Lib/Camera_Middleware/sensors/vd6g/vd6g.c **** {
 1335              		.loc 1 407 12 view .LVU321
 1336              	.LBB50:
 409:Lib/Camera_Middleware/sensors/vd6g/vd6g.c ****   uint8_t patch_minor;
 1337              		.loc 1 409 3 view .LVU322
 410:Lib/Camera_Middleware/sensors/vd6g/vd6g.c ****   uint16_t reg16;
 1338              		.loc 1 410 3 view .LVU323
 411:Lib/Camera_Middleware/sensors/vd6g/vd6g.c ****   int ret;
 1339              		.loc 1 411 3 view .LVU324
 412:Lib/Camera_Middleware/sensors/vd6g/vd6g.c **** 
 1340              		.loc 1 412 3 view .LVU325
 414:Lib/Camera_Middleware/sensors/vd6g/vd6g.c ****   patch_minor = patch_cut2[2];
 1341              		.loc 1 414 3 view .LVU326
 415:Lib/Camera_Middleware/sensors/vd6g/vd6g.c **** 
 1342              		.loc 1 415 3 view .LVU327
 417:Lib/Camera_Middleware/sensors/vd6g/vd6g.c ****   VD6G_TraceError(ctx, ret);
 1343              		.loc 1 417 3 view .LVU328
 417:Lib/Camera_Middleware/sensors/vd6g/vd6g.c ****   VD6G_TraceError(ctx, ret);
 1344              		.loc 1 417 9 is_stmt 0 view .LVU329
 1345 012e EC69     		ldr	r4, [r5, #28]
 1346 0130 42F6F823 		movw	r3, #11000
 1347 0134 4FF40051 		mov	r1, #8192
 1348 0138 2846     		mov	r0, r5
 1349              	.LVL109:
 417:Lib/Camera_Middleware/sensors/vd6g/vd6g.c ****   VD6G_TraceError(ctx, ret);
ARM GAS  /tmp/ccWHsT5O.s 			page 49


 1350              		.loc 1 417 9 view .LVU330
 1351 013a 8A4A     		ldr	r2, .L191+36
 1352 013c A047     		blx	r4
 1353              	.LVL110:
 418:Lib/Camera_Middleware/sensors/vd6g/vd6g.c **** 
 1354              		.loc 1 418 3 is_stmt 1 view .LVU331
 418:Lib/Camera_Middleware/sensors/vd6g/vd6g.c **** 
 1355              		.loc 1 418 3 view .LVU332
 1356 013e 0446     		mov	r4, r0
 1357 0140 20B1     		cbz	r0, .L83
 418:Lib/Camera_Middleware/sensors/vd6g/vd6g.c **** 
 1358              		.loc 1 418 3 discriminator 1 view .LVU333
 1359 0142 4FF4D173 		mov	r3, #418
 1360 0146 0090     		str	r0, [sp]
 1361              	.L190:
 428:Lib/Camera_Middleware/sensors/vd6g/vd6g.c ****   VD6G_dbg(ctx, 0, "patch = 0x%04x\n", reg16);
 1362              		.loc 1 428 3 is_stmt 0 discriminator 1 view .LVU334
 1363 0148 874A     		ldr	r2, .L191+40
 1364 014a ACE7     		b	.L184
 1365              	.L83:
 418:Lib/Camera_Middleware/sensors/vd6g/vd6g.c **** 
 1366              		.loc 1 418 3 is_stmt 1 discriminator 6 view .LVU335
 418:Lib/Camera_Middleware/sensors/vd6g/vd6g.c **** 
 1367              		.loc 1 418 3 discriminator 8 view .LVU336
 420:Lib/Camera_Middleware/sensors/vd6g/vd6g.c ****   VD6G_TraceError(ctx, ret);
 1368              		.loc 1 420 3 view .LVU337
 420:Lib/Camera_Middleware/sensors/vd6g/vd6g.c ****   VD6G_TraceError(ctx, ret);
 1369              		.loc 1 420 9 is_stmt 0 view .LVU338
 1370 014c 0222     		movs	r2, #2
 1371 014e 4FF40071 		mov	r1, #512
 1372 0152 2846     		mov	r0, r5
 1373              	.LVL111:
 420:Lib/Camera_Middleware/sensors/vd6g/vd6g.c ****   VD6G_TraceError(ctx, ret);
 1374              		.loc 1 420 9 view .LVU339
 1375 0154 2B69     		ldr	r3, [r5, #16]
 1376 0156 9847     		blx	r3
 1377              	.LVL112:
 421:Lib/Camera_Middleware/sensors/vd6g/vd6g.c **** 
 1378              		.loc 1 421 3 is_stmt 1 view .LVU340
 421:Lib/Camera_Middleware/sensors/vd6g/vd6g.c **** 
 1379              		.loc 1 421 3 view .LVU341
 1380 0158 0446     		mov	r4, r0
 1381 015a 30BB     		cbnz	r0, .L84
 421:Lib/Camera_Middleware/sensors/vd6g/vd6g.c **** 
 1382              		.loc 1 421 3 discriminator 3 view .LVU342
 421:Lib/Camera_Middleware/sensors/vd6g/vd6g.c **** 
 1383              		.loc 1 421 3 discriminator 6 view .LVU343
 421:Lib/Camera_Middleware/sensors/vd6g/vd6g.c **** 
 1384              		.loc 1 421 3 discriminator 8 view .LVU344
 423:Lib/Camera_Middleware/sensors/vd6g/vd6g.c ****   if (ret)
 1385              		.loc 1 423 3 view .LVU345
 423:Lib/Camera_Middleware/sensors/vd6g/vd6g.c ****   if (ret)
 1386              		.loc 1 423 9 is_stmt 0 view .LVU346
 1387 015c 0246     		mov	r2, r0
 1388 015e 4FF40071 		mov	r1, #512
 1389 0162 2846     		mov	r0, r5
 1390              	.LVL113:
ARM GAS  /tmp/ccWHsT5O.s 			page 50


 423:Lib/Camera_Middleware/sensors/vd6g/vd6g.c ****   if (ret)
 1391              		.loc 1 423 9 view .LVU347
 1392 0164 FFF7FEFF 		bl	VD6G_PollReg8
 1393              	.LVL114:
 424:Lib/Camera_Middleware/sensors/vd6g/vd6g.c ****     return ret;
 1394              		.loc 1 424 3 is_stmt 1 view .LVU348
 424:Lib/Camera_Middleware/sensors/vd6g/vd6g.c ****     return ret;
 1395              		.loc 1 424 6 is_stmt 0 view .LVU349
 1396 0168 0446     		mov	r4, r0
 1397 016a 0028     		cmp	r0, #0
 1398 016c CAD1     		bne	.L69
 427:Lib/Camera_Middleware/sensors/vd6g/vd6g.c ****   VD6G_TraceError(ctx, ret);
 1399              		.loc 1 427 3 is_stmt 1 view .LVU350
 427:Lib/Camera_Middleware/sensors/vd6g/vd6g.c ****   VD6G_TraceError(ctx, ret);
 1400              		.loc 1 427 9 is_stmt 0 view .LVU351
 1401 016e 3246     		mov	r2, r6
 1402 0170 1E21     		movs	r1, #30
 1403 0172 2846     		mov	r0, r5
 1404              	.LVL115:
 427:Lib/Camera_Middleware/sensors/vd6g/vd6g.c ****   VD6G_TraceError(ctx, ret);
 1405              		.loc 1 427 9 view .LVU352
 1406 0174 AB68     		ldr	r3, [r5, #8]
 1407 0176 9847     		blx	r3
 1408              	.LVL116:
 428:Lib/Camera_Middleware/sensors/vd6g/vd6g.c ****   VD6G_dbg(ctx, 0, "patch = 0x%04x\n", reg16);
 1409              		.loc 1 428 3 is_stmt 1 view .LVU353
 428:Lib/Camera_Middleware/sensors/vd6g/vd6g.c ****   VD6G_dbg(ctx, 0, "patch = 0x%04x\n", reg16);
 1410              		.loc 1 428 3 view .LVU354
 1411 0178 0446     		mov	r4, r0
 1412 017a D0B9     		cbnz	r0, .L87
 428:Lib/Camera_Middleware/sensors/vd6g/vd6g.c ****   VD6G_dbg(ctx, 0, "patch = 0x%04x\n", reg16);
 1413              		.loc 1 428 3 discriminator 3 view .LVU355
 428:Lib/Camera_Middleware/sensors/vd6g/vd6g.c ****   VD6G_dbg(ctx, 0, "patch = 0x%04x\n", reg16);
 1414              		.loc 1 428 3 discriminator 6 view .LVU356
 428:Lib/Camera_Middleware/sensors/vd6g/vd6g.c ****   VD6G_dbg(ctx, 0, "patch = 0x%04x\n", reg16);
 1415              		.loc 1 428 3 discriminator 8 view .LVU357
 429:Lib/Camera_Middleware/sensors/vd6g/vd6g.c **** 
 1416              		.loc 1 429 3 view .LVU358
 1417 017c 0146     		mov	r1, r0
 1418 017e BDF80C30 		ldrh	r3, [sp, #12]
 1419 0182 2846     		mov	r0, r5
 1420              	.LVL117:
 429:Lib/Camera_Middleware/sensors/vd6g/vd6g.c **** 
 1421              		.loc 1 429 3 is_stmt 0 view .LVU359
 1422 0184 794A     		ldr	r2, .L191+44
 1423 0186 FFF7FEFF 		bl	VD6G_dbg.constprop.0
 1424              	.LVL118:
 431:Lib/Camera_Middleware/sensors/vd6g/vd6g.c ****     VD6G_error(ctx, "bad patch version expected %d.%d got %d.%d\n", patch_major, patch_minor,
 1425              		.loc 1 431 3 is_stmt 1 view .LVU360
 431:Lib/Camera_Middleware/sensors/vd6g/vd6g.c ****     VD6G_error(ctx, "bad patch version expected %d.%d got %d.%d\n", patch_major, patch_minor,
 1426              		.loc 1 431 13 is_stmt 0 view .LVU361
 1427 018a BDF80C30 		ldrh	r3, [sp, #12]
 431:Lib/Camera_Middleware/sensors/vd6g/vd6g.c ****     VD6G_error(ctx, "bad patch version expected %d.%d got %d.%d\n", patch_major, patch_minor,
 1428              		.loc 1 431 6 view .LVU362
 1429 018e B3F5077F 		cmp	r3, #540
 1430 0192 12D0     		beq	.L169
 432:Lib/Camera_Middleware/sensors/vd6g/vd6g.c ****                  reg16 >> 8, reg16 & 0xff);
ARM GAS  /tmp/ccWHsT5O.s 			page 51


 1431              		.loc 1 432 5 is_stmt 1 view .LVU363
 1432 0194 DAB2     		uxtb	r2, r3
 1433 0196 1B0A     		lsrs	r3, r3, #8
 1434 0198 0192     		str	r2, [sp, #4]
 1435 019a 0093     		str	r3, [sp]
 1436 019c 0222     		movs	r2, #2
 1437 019e 1C23     		movs	r3, #28
 1438 01a0 7349     		ldr	r1, .L191+48
 1439              	.LVL119:
 1440              	.L182:
 432:Lib/Camera_Middleware/sensors/vd6g/vd6g.c ****                  reg16 >> 8, reg16 & 0xff);
 1441              		.loc 1 432 5 is_stmt 0 view .LVU364
 1442              	.LBE50:
 1443              	.LBE49:
 1444              	.LBE54:
 1445              	.LBE69:
 1446              	.LBB70:
 1447              	.LBB66:
 1448              	.LBB60:
 1449              	.LBB61:
 538:Lib/Camera_Middleware/sensors/vd6g/vd6g.c ****                  cur_vtpatch_gr_rev, cur_vtpatch_gt_rev);
 1450              		.loc 1 538 5 view .LVU365
 1451 01a2 2846     		mov	r0, r5
 1452 01a4 FFF7FEFF 		bl	VD6G_error
 1453              	.LVL120:
 540:Lib/Camera_Middleware/sensors/vd6g/vd6g.c ****   }
 1454              		.loc 1 540 5 is_stmt 1 view .LVU366
 540:Lib/Camera_Middleware/sensors/vd6g/vd6g.c ****   }
 1455              		.loc 1 540 5 is_stmt 0 view .LVU367
 1456              	.LBE61:
 1457              	.LBE60:
 559:Lib/Camera_Middleware/sensors/vd6g/vd6g.c ****   case VD6G_TOP_DIE_FAST_BOOT:
 1458              		.loc 1 559 5 is_stmt 1 view .LVU368
 559:Lib/Camera_Middleware/sensors/vd6g/vd6g.c ****   case VD6G_TOP_DIE_FAST_BOOT:
 1459              		.loc 1 559 5 is_stmt 0 view .LVU369
 1460              	.LBE66:
 1461              	.LBE70:
 655:Lib/Camera_Middleware/sensors/vd6g/vd6g.c ****     return ret;
 1462              		.loc 1 655 3 is_stmt 1 view .LVU370
 1463 01a8 76E7     		b	.L70
 1464              	.LVL121:
 1465              	.L84:
 1466              	.LBB71:
 1467              	.LBB55:
 1468              	.LBB52:
 1469              	.LBB51:
 421:Lib/Camera_Middleware/sensors/vd6g/vd6g.c **** 
 1470              		.loc 1 421 3 discriminator 1 view .LVU371
 1471 01aa 40F2A513 		movw	r3, #421
 1472 01ae 0090     		str	r0, [sp]
 1473 01b0 CAE7     		b	.L190
 1474              	.L87:
 428:Lib/Camera_Middleware/sensors/vd6g/vd6g.c ****   VD6G_dbg(ctx, 0, "patch = 0x%04x\n", reg16);
 1475              		.loc 1 428 3 discriminator 1 view .LVU372
 1476 01b2 4FF4D673 		mov	r3, #428
 1477 01b6 0090     		str	r0, [sp]
 1478 01b8 C6E7     		b	.L190
ARM GAS  /tmp/ccWHsT5O.s 			page 52


 1479              	.LVL122:
 1480              	.L169:
 436:Lib/Camera_Middleware/sensors/vd6g/vd6g.c **** 
 1481              		.loc 1 436 3 view .LVU373
 1482 01ba 1C23     		movs	r3, #28
 1483 01bc 0222     		movs	r2, #2
 1484 01be 2846     		mov	r0, r5
 1485 01c0 6C49     		ldr	r1, .L191+52
 1486 01c2 FFF7FEFF 		bl	VD6G_notice
 1487              	.LVL123:
 438:Lib/Camera_Middleware/sensors/vd6g/vd6g.c **** }
 1488              		.loc 1 438 3 view .LVU374
 438:Lib/Camera_Middleware/sensors/vd6g/vd6g.c **** }
 1489              		.loc 1 438 3 is_stmt 0 view .LVU375
 1490              	.LBE51:
 1491              	.LBE52:
 453:Lib/Camera_Middleware/sensors/vd6g/vd6g.c ****   case VD6G_TOP_DIE_FAST_BOOT:
 1492              		.loc 1 453 5 is_stmt 1 view .LVU376
 453:Lib/Camera_Middleware/sensors/vd6g/vd6g.c ****   case VD6G_TOP_DIE_FAST_BOOT:
 1493              		.loc 1 453 5 is_stmt 0 view .LVU377
 1494              	.LBE55:
 1495              	.LBE71:
 647:Lib/Camera_Middleware/sensors/vd6g/vd6g.c ****     return ret;
 1496              		.loc 1 647 3 is_stmt 1 view .LVU378
 1497              	.L81:
 650:Lib/Camera_Middleware/sensors/vd6g/vd6g.c ****   if (ret)
 1498              		.loc 1 650 3 view .LVU379
 1499              	.LBB72:
 1500              	.LBI72:
 464:Lib/Camera_Middleware/sensors/vd6g/vd6g.c **** {
 1501              		.loc 1 464 12 view .LVU380
 1502              	.LBB73:
 466:Lib/Camera_Middleware/sensors/vd6g/vd6g.c **** 
 1503              		.loc 1 466 3 view .LVU381
 468:Lib/Camera_Middleware/sensors/vd6g/vd6g.c ****   VD6G_TraceError(ctx, ret);
 1504              		.loc 1 468 3 view .LVU382
 468:Lib/Camera_Middleware/sensors/vd6g/vd6g.c ****   VD6G_TraceError(ctx, ret);
 1505              		.loc 1 468 9 is_stmt 0 view .LVU383
 1506 01c6 0122     		movs	r2, #1
 1507 01c8 4FF40071 		mov	r1, #512
 1508 01cc 2846     		mov	r0, r5
 1509 01ce 2B69     		ldr	r3, [r5, #16]
 1510 01d0 9847     		blx	r3
 1511              	.LVL124:
 469:Lib/Camera_Middleware/sensors/vd6g/vd6g.c **** 
 1512              		.loc 1 469 3 is_stmt 1 view .LVU384
 469:Lib/Camera_Middleware/sensors/vd6g/vd6g.c **** 
 1513              		.loc 1 469 3 view .LVU385
 1514 01d2 0446     		mov	r4, r0
 1515 01d4 20B1     		cbz	r0, .L90
 469:Lib/Camera_Middleware/sensors/vd6g/vd6g.c **** 
 1516              		.loc 1 469 3 discriminator 1 view .LVU386
 1517 01d6 40F2D513 		movw	r3, #469
 1518 01da 674A     		ldr	r2, .L191+56
 1519 01dc 0090     		str	r0, [sp]
 1520 01de 62E7     		b	.L184
 1521              	.L90:
ARM GAS  /tmp/ccWHsT5O.s 			page 53


 469:Lib/Camera_Middleware/sensors/vd6g/vd6g.c **** 
 1522              		.loc 1 469 3 discriminator 6 view .LVU387
 469:Lib/Camera_Middleware/sensors/vd6g/vd6g.c **** 
 1523              		.loc 1 469 3 discriminator 8 view .LVU388
 471:Lib/Camera_Middleware/sensors/vd6g/vd6g.c ****   if (ret)
 1524              		.loc 1 471 3 view .LVU389
 471:Lib/Camera_Middleware/sensors/vd6g/vd6g.c ****   if (ret)
 1525              		.loc 1 471 9 is_stmt 0 view .LVU390
 1526 01e0 0246     		mov	r2, r0
 1527 01e2 4FF40071 		mov	r1, #512
 1528 01e6 2846     		mov	r0, r5
 1529              	.LVL125:
 471:Lib/Camera_Middleware/sensors/vd6g/vd6g.c ****   if (ret)
 1530              		.loc 1 471 9 view .LVU391
 1531 01e8 FFF7FEFF 		bl	VD6G_PollReg8
 1532              	.LVL126:
 472:Lib/Camera_Middleware/sensors/vd6g/vd6g.c ****     return ret;
 1533              		.loc 1 472 3 is_stmt 1 view .LVU392
 472:Lib/Camera_Middleware/sensors/vd6g/vd6g.c ****     return ret;
 1534              		.loc 1 472 6 is_stmt 0 view .LVU393
 1535 01ec 0446     		mov	r4, r0
 1536 01ee 0028     		cmp	r0, #0
 1537 01f0 88D1     		bne	.L69
 475:Lib/Camera_Middleware/sensors/vd6g/vd6g.c ****   if (ret)
 1538              		.loc 1 475 3 is_stmt 1 view .LVU394
 475:Lib/Camera_Middleware/sensors/vd6g/vd6g.c ****   if (ret)
 1539              		.loc 1 475 9 is_stmt 0 view .LVU395
 1540 01f2 0221     		movs	r1, #2
 1541 01f4 2846     		mov	r0, r5
 1542              	.LVL127:
 475:Lib/Camera_Middleware/sensors/vd6g/vd6g.c ****   if (ret)
 1543              		.loc 1 475 9 view .LVU396
 1544 01f6 FFF7FEFF 		bl	VD6G_WaitState
 1545              	.LVL128:
 476:Lib/Camera_Middleware/sensors/vd6g/vd6g.c ****     return ret;
 1546              		.loc 1 476 3 is_stmt 1 view .LVU397
 476:Lib/Camera_Middleware/sensors/vd6g/vd6g.c ****     return ret;
 1547              		.loc 1 476 6 is_stmt 0 view .LVU398
 1548 01fa 0446     		mov	r4, r0
 1549 01fc 0028     		cmp	r0, #0
 1550 01fe 81D1     		bne	.L69
 479:Lib/Camera_Middleware/sensors/vd6g/vd6g.c **** 
 1551              		.loc 1 479 3 is_stmt 1 view .LVU399
 1552 0200 2846     		mov	r0, r5
 1553              	.LVL129:
 479:Lib/Camera_Middleware/sensors/vd6g/vd6g.c **** 
 1554              		.loc 1 479 3 is_stmt 0 view .LVU400
 1555 0202 5E49     		ldr	r1, .L191+60
 1556 0204 FFF7FEFF 		bl	VD6G_notice
 1557              	.LVL130:
 481:Lib/Camera_Middleware/sensors/vd6g/vd6g.c **** }
 1558              		.loc 1 481 3 is_stmt 1 view .LVU401
 481:Lib/Camera_Middleware/sensors/vd6g/vd6g.c **** }
 1559              		.loc 1 481 3 is_stmt 0 view .LVU402
 1560              	.LBE73:
 1561              	.LBE72:
 651:Lib/Camera_Middleware/sensors/vd6g/vd6g.c ****     return ret;
ARM GAS  /tmp/ccWHsT5O.s 			page 54


 1562              		.loc 1 651 3 is_stmt 1 view .LVU403
 654:Lib/Camera_Middleware/sensors/vd6g/vd6g.c ****   if (ret)
 1563              		.loc 1 654 3 view .LVU404
 1564              	.LBB74:
 1565              	.LBI58:
 547:Lib/Camera_Middleware/sensors/vd6g/vd6g.c **** {
 1566              		.loc 1 547 12 view .LVU405
 1567              	.LBB67:
 549:Lib/Camera_Middleware/sensors/vd6g/vd6g.c ****   int ret;
 1568              		.loc 1 549 3 view .LVU406
 550:Lib/Camera_Middleware/sensors/vd6g/vd6g.c **** 
 1569              		.loc 1 550 3 view .LVU407
 552:Lib/Camera_Middleware/sensors/vd6g/vd6g.c ****   if (ret)
 1570              		.loc 1 552 3 view .LVU408
 552:Lib/Camera_Middleware/sensors/vd6g/vd6g.c ****   if (ret)
 1571              		.loc 1 552 9 is_stmt 0 view .LVU409
 1572 0208 2846     		mov	r0, r5
 1573 020a 0DF10901 		add	r1, sp, #9
 1574 020e FFF7FEFF 		bl	VD6G_GetTopDie
 1575              	.LVL131:
 553:Lib/Camera_Middleware/sensors/vd6g/vd6g.c ****     return ret;
 1576              		.loc 1 553 3 is_stmt 1 view .LVU410
 553:Lib/Camera_Middleware/sensors/vd6g/vd6g.c ****     return ret;
 1577              		.loc 1 553 6 is_stmt 0 view .LVU411
 1578 0212 0446     		mov	r4, r0
 1579 0214 0028     		cmp	r0, #0
 1580 0216 7FF475AF 		bne	.L69
 556:Lib/Camera_Middleware/sensors/vd6g/vd6g.c ****   case VD6G_TOP_DIE_SLOW_BOOT:
 1581              		.loc 1 556 3 is_stmt 1 view .LVU412
 1582 021a 9DF80930 		ldrb	r3, [sp, #9]	@ zero_extendqisi2
 1583 021e 202B     		cmp	r3, #32
 1584 0220 07D0     		beq	.L92
 1585 0222 312B     		cmp	r3, #49
 1586 0224 00F00081 		beq	.L93
 564:Lib/Camera_Middleware/sensors/vd6g/vd6g.c ****   }
 1587              		.loc 1 564 5 view .LVU413
 1588 0228 4FF40D71 		mov	r1, #564
 1589 022c 4A4B     		ldr	r3, .L191+24
 1590 022e 544A     		ldr	r2, .L191+64
 1591 0230 7AE7     		b	.L186
 1592              	.L92:
 558:Lib/Camera_Middleware/sensors/vd6g/vd6g.c ****     break;
 1593              		.loc 1 558 5 view .LVU414
 1594              	.LVL132:
 1595              	.LBB64:
 1596              	.LBI60:
 484:Lib/Camera_Middleware/sensors/vd6g/vd6g.c **** {
 1597              		.loc 1 484 12 view .LVU415
 1598              	.LBB62:
 486:Lib/Camera_Middleware/sensors/vd6g/vd6g.c ****   int vtpatch_offset = 0;
 1599              		.loc 1 486 3 view .LVU416
 487:Lib/Camera_Middleware/sensors/vd6g/vd6g.c ****   int ret;
 1600              		.loc 1 487 3 view .LVU417
 488:Lib/Camera_Middleware/sensors/vd6g/vd6g.c ****   int i;
 1601              		.loc 1 488 3 view .LVU418
 489:Lib/Camera_Middleware/sensors/vd6g/vd6g.c **** 
 1602              		.loc 1 489 3 view .LVU419
ARM GAS  /tmp/ccWHsT5O.s 			page 55


 491:Lib/Camera_Middleware/sensors/vd6g/vd6g.c ****   VD6G_TraceError(ctx, ret);
 1603              		.loc 1 491 3 view .LVU420
 491:Lib/Camera_Middleware/sensors/vd6g/vd6g.c ****   VD6G_TraceError(ctx, ret);
 1604              		.loc 1 491 9 is_stmt 0 view .LVU421
 1605 0232 0122     		movs	r2, #1
 1606 0234 40F20321 		movw	r1, #515
 1607 0238 2846     		mov	r0, r5
 1608              	.LVL133:
 491:Lib/Camera_Middleware/sensors/vd6g/vd6g.c ****   VD6G_TraceError(ctx, ret);
 1609              		.loc 1 491 9 view .LVU422
 1610 023a 2B69     		ldr	r3, [r5, #16]
 1611 023c 9847     		blx	r3
 1612              	.LVL134:
 492:Lib/Camera_Middleware/sensors/vd6g/vd6g.c **** 
 1613              		.loc 1 492 3 is_stmt 1 view .LVU423
 492:Lib/Camera_Middleware/sensors/vd6g/vd6g.c **** 
 1614              		.loc 1 492 3 view .LVU424
 1615 023e 0446     		mov	r4, r0
 1616              	.LVL135:
 492:Lib/Camera_Middleware/sensors/vd6g/vd6g.c **** 
 1617              		.loc 1 492 3 is_stmt 0 view .LVU425
 1618 0240 20B1     		cbz	r0, .L95
 492:Lib/Camera_Middleware/sensors/vd6g/vd6g.c **** 
 1619              		.loc 1 492 3 is_stmt 1 discriminator 1 view .LVU426
 1620 0242 4FF4F673 		mov	r3, #492
 1621 0246 0090     		str	r0, [sp]
 1622              	.LVL136:
 1623              	.L189:
 533:Lib/Camera_Middleware/sensors/vd6g/vd6g.c **** 
 1624              		.loc 1 533 3 is_stmt 0 discriminator 1 view .LVU427
 1625 0248 4E4A     		ldr	r2, .L191+68
 1626 024a 2CE7     		b	.L184
 1627              	.LVL137:
 1628              	.L95:
 492:Lib/Camera_Middleware/sensors/vd6g/vd6g.c **** 
 1629              		.loc 1 492 3 is_stmt 1 discriminator 6 view .LVU428
 492:Lib/Camera_Middleware/sensors/vd6g/vd6g.c **** 
 1630              		.loc 1 492 3 discriminator 8 view .LVU429
 494:Lib/Camera_Middleware/sensors/vd6g/vd6g.c ****   if (ret)
 1631              		.loc 1 494 3 view .LVU430
 494:Lib/Camera_Middleware/sensors/vd6g/vd6g.c ****   if (ret)
 1632              		.loc 1 494 9 is_stmt 0 view .LVU431
 1633 024c 0246     		mov	r2, r0
 1634 024e 40F20321 		movw	r1, #515
 1635 0252 2846     		mov	r0, r5
 1636              	.LVL138:
 494:Lib/Camera_Middleware/sensors/vd6g/vd6g.c ****   if (ret)
 1637              		.loc 1 494 9 view .LVU432
 1638 0254 FFF7FEFF 		bl	VD6G_PollReg8
 1639              	.LVL139:
 495:Lib/Camera_Middleware/sensors/vd6g/vd6g.c ****     return ret;
 1640              		.loc 1 495 3 is_stmt 1 view .LVU433
 495:Lib/Camera_Middleware/sensors/vd6g/vd6g.c ****     return ret;
 1641              		.loc 1 495 6 is_stmt 0 view .LVU434
 1642 0258 0446     		mov	r4, r0
 1643 025a 0028     		cmp	r0, #0
 1644 025c 7FF452AF 		bne	.L69
ARM GAS  /tmp/ccWHsT5O.s 			page 56


 498:Lib/Camera_Middleware/sensors/vd6g/vd6g.c ****   if (ret)
 1645              		.loc 1 498 3 is_stmt 1 view .LVU435
 498:Lib/Camera_Middleware/sensors/vd6g/vd6g.c ****   if (ret)
 1646              		.loc 1 498 9 is_stmt 0 view .LVU436
 1647 0260 0221     		movs	r1, #2
 1648 0262 2846     		mov	r0, r5
 1649              	.LVL140:
 498:Lib/Camera_Middleware/sensors/vd6g/vd6g.c ****   if (ret)
 1650              		.loc 1 498 9 view .LVU437
 1651 0264 FFF7FEFF 		bl	VD6G_WaitState
 1652              	.LVL141:
 499:Lib/Camera_Middleware/sensors/vd6g/vd6g.c ****     return ret;
 1653              		.loc 1 499 3 is_stmt 1 view .LVU438
 499:Lib/Camera_Middleware/sensors/vd6g/vd6g.c ****     return ret;
 1654              		.loc 1 499 6 is_stmt 0 view .LVU439
 1655 0268 0446     		mov	r4, r0
 1656 026a 0028     		cmp	r0, #0
 1657 026c 7FF44AAF 		bne	.L69
 502:Lib/Camera_Middleware/sensors/vd6g/vd6g.c ****     ret = ctx->write_array(ctx, vtpatch_desc[i].offset, (uint8_t *) (vtpatch + vtpatch_offset),
 1658              		.loc 1 502 10 view .LVU440
 1659 0270 8146     		mov	r9, r0
 1660 0272 DFF81481 		ldr	r8, .L191+72
 502:Lib/Camera_Middleware/sensors/vd6g/vd6g.c ****     ret = ctx->write_array(ctx, vtpatch_desc[i].offset, (uint8_t *) (vtpatch + vtpatch_offset),
 1661              		.loc 1 502 17 discriminator 1 view .LVU441
 1662 0276 DFF814A1 		ldr	r10, .L191+76
 503:Lib/Camera_Middleware/sensors/vd6g/vd6g.c ****                            vtpatch_desc[i].size);
 1663              		.loc 1 503 11 view .LVU442
 1664 027a DFF814B1 		ldr	fp, .L191+80
 1665              	.LVL142:
 1666              	.L98:
 502:Lib/Camera_Middleware/sensors/vd6g/vd6g.c ****     ret = ctx->write_array(ctx, vtpatch_desc[i].offset, (uint8_t *) (vtpatch + vtpatch_offset),
 1667              		.loc 1 502 17 is_stmt 1 discriminator 1 view .LVU443
 1668 027e DAF80030 		ldr	r3, [r10]
 1669 0282 9945     		cmp	r9, r3
 1670 0284 13DB     		blt	.L100
 508:Lib/Camera_Middleware/sensors/vd6g/vd6g.c ****   VD6G_TraceError(ctx, ret);
 1671              		.loc 1 508 3 view .LVU444
 508:Lib/Camera_Middleware/sensors/vd6g/vd6g.c ****   VD6G_TraceError(ctx, ret);
 1672              		.loc 1 508 9 is_stmt 0 view .LVU445
 1673 0286 1122     		movs	r2, #17
 1674 0288 4DF6F811 		movw	r1, #55800
 1675 028c 2846     		mov	r0, r5
 1676              	.LVL143:
 508:Lib/Camera_Middleware/sensors/vd6g/vd6g.c ****   VD6G_TraceError(ctx, ret);
 1677              		.loc 1 508 9 view .LVU446
 1678 028e 2B69     		ldr	r3, [r5, #16]
 1679 0290 9847     		blx	r3
 1680              	.LVL144:
 509:Lib/Camera_Middleware/sensors/vd6g/vd6g.c ****   ret = ctx->write8(ctx, 0xaffc, VT_REVISION);
 1681              		.loc 1 509 3 is_stmt 1 view .LVU447
 509:Lib/Camera_Middleware/sensors/vd6g/vd6g.c ****   ret = ctx->write8(ctx, 0xaffc, VT_REVISION);
 1682              		.loc 1 509 3 view .LVU448
 1683 0292 0446     		mov	r4, r0
 1684              	.LVL145:
 509:Lib/Camera_Middleware/sensors/vd6g/vd6g.c ****   ret = ctx->write8(ctx, 0xaffc, VT_REVISION);
 1685              		.loc 1 509 3 is_stmt 0 view .LVU449
 1686 0294 58BB     		cbnz	r0, .L101
ARM GAS  /tmp/ccWHsT5O.s 			page 57


 509:Lib/Camera_Middleware/sensors/vd6g/vd6g.c ****   ret = ctx->write8(ctx, 0xaffc, VT_REVISION);
 1687              		.loc 1 509 3 is_stmt 1 discriminator 3 view .LVU450
 509:Lib/Camera_Middleware/sensors/vd6g/vd6g.c ****   ret = ctx->write8(ctx, 0xaffc, VT_REVISION);
 1688              		.loc 1 509 3 discriminator 6 view .LVU451
 509:Lib/Camera_Middleware/sensors/vd6g/vd6g.c ****   ret = ctx->write8(ctx, 0xaffc, VT_REVISION);
 1689              		.loc 1 509 3 discriminator 8 view .LVU452
 510:Lib/Camera_Middleware/sensors/vd6g/vd6g.c ****   VD6G_TraceError(ctx, ret);
 1690              		.loc 1 510 3 view .LVU453
 510:Lib/Camera_Middleware/sensors/vd6g/vd6g.c ****   VD6G_TraceError(ctx, ret);
 1691              		.loc 1 510 9 is_stmt 0 view .LVU454
 1692 0296 1122     		movs	r2, #17
 1693 0298 4AF6FC71 		movw	r1, #45052
 1694 029c 2846     		mov	r0, r5
 1695              	.LVL146:
 510:Lib/Camera_Middleware/sensors/vd6g/vd6g.c ****   VD6G_TraceError(ctx, ret);
 1696              		.loc 1 510 9 view .LVU455
 1697 029e 2B69     		ldr	r3, [r5, #16]
 1698 02a0 9847     		blx	r3
 1699              	.LVL147:
 511:Lib/Camera_Middleware/sensors/vd6g/vd6g.c ****   ret = ctx->write8(ctx, 0xbbb4, VT_REVISION);
 1700              		.loc 1 511 3 is_stmt 1 view .LVU456
 511:Lib/Camera_Middleware/sensors/vd6g/vd6g.c ****   ret = ctx->write8(ctx, 0xbbb4, VT_REVISION);
 1701              		.loc 1 511 3 view .LVU457
 1702 02a2 0446     		mov	r4, r0
 1703 02a4 38B3     		cbz	r0, .L171
 511:Lib/Camera_Middleware/sensors/vd6g/vd6g.c ****   ret = ctx->write8(ctx, 0xbbb4, VT_REVISION);
 1704              		.loc 1 511 3 discriminator 1 view .LVU458
 1705 02a6 40F2FF13 		movw	r3, #511
 1706 02aa 0090     		str	r0, [sp]
 1707 02ac CCE7     		b	.L189
 1708              	.LVL148:
 1709              	.L100:
 503:Lib/Camera_Middleware/sensors/vd6g/vd6g.c ****                            vtpatch_desc[i].size);
 1710              		.loc 1 503 5 view .LVU459
 503:Lib/Camera_Middleware/sensors/vd6g/vd6g.c ****                            vtpatch_desc[i].size);
 1711              		.loc 1 503 11 is_stmt 0 view .LVU460
 1712 02ae EF69     		ldr	r7, [r5, #28]
 1713 02b0 D8F80430 		ldr	r3, [r8, #4]
 1714 02b4 B8F80010 		ldrh	r1, [r8]
 1715 02b8 2846     		mov	r0, r5
 1716              	.LVL149:
 503:Lib/Camera_Middleware/sensors/vd6g/vd6g.c ****                            vtpatch_desc[i].size);
 1717              		.loc 1 503 11 view .LVU461
 1718 02ba 0BEB0402 		add	r2, fp, r4
 1719 02be B847     		blx	r7
 1720              	.LVL150:
 505:Lib/Camera_Middleware/sensors/vd6g/vd6g.c ****     vtpatch_offset += vtpatch_desc[i].size;
 1721              		.loc 1 505 5 is_stmt 1 view .LVU462
 505:Lib/Camera_Middleware/sensors/vd6g/vd6g.c ****     vtpatch_offset += vtpatch_desc[i].size;
 1722              		.loc 1 505 5 view .LVU463
 1723 02c0 08F10808 		add	r8, r8, #8
 1724 02c4 0746     		mov	r7, r0
 1725 02c6 28B9     		cbnz	r0, .L99
 505:Lib/Camera_Middleware/sensors/vd6g/vd6g.c ****     vtpatch_offset += vtpatch_desc[i].size;
 1726              		.loc 1 505 5 discriminator 3 view .LVU464
 505:Lib/Camera_Middleware/sensors/vd6g/vd6g.c ****     vtpatch_offset += vtpatch_desc[i].size;
 1727              		.loc 1 505 5 discriminator 6 view .LVU465
ARM GAS  /tmp/ccWHsT5O.s 			page 58


 505:Lib/Camera_Middleware/sensors/vd6g/vd6g.c ****     vtpatch_offset += vtpatch_desc[i].size;
 1728              		.loc 1 505 5 discriminator 8 view .LVU466
 506:Lib/Camera_Middleware/sensors/vd6g/vd6g.c ****   }
 1729              		.loc 1 506 5 view .LVU467
 506:Lib/Camera_Middleware/sensors/vd6g/vd6g.c ****   }
 1730              		.loc 1 506 20 is_stmt 0 view .LVU468
 1731 02c8 58F8043C 		ldr	r3, [r8, #-4]
 502:Lib/Camera_Middleware/sensors/vd6g/vd6g.c ****     ret = ctx->write_array(ctx, vtpatch_desc[i].offset, (uint8_t *) (vtpatch + vtpatch_offset),
 1732              		.loc 1 502 37 discriminator 2 view .LVU469
 1733 02cc 09F10109 		add	r9, r9, #1
 1734              	.LVL151:
 506:Lib/Camera_Middleware/sensors/vd6g/vd6g.c ****   }
 1735              		.loc 1 506 20 view .LVU470
 1736 02d0 1C44     		add	r4, r4, r3
 1737              	.LVL152:
 502:Lib/Camera_Middleware/sensors/vd6g/vd6g.c ****     ret = ctx->write_array(ctx, vtpatch_desc[i].offset, (uint8_t *) (vtpatch + vtpatch_offset),
 1738              		.loc 1 502 37 is_stmt 1 discriminator 2 view .LVU471
 502:Lib/Camera_Middleware/sensors/vd6g/vd6g.c ****     ret = ctx->write_array(ctx, vtpatch_desc[i].offset, (uint8_t *) (vtpatch + vtpatch_offset),
 1739              		.loc 1 502 37 is_stmt 0 discriminator 2 view .LVU472
 1740 02d2 D4E7     		b	.L98
 1741              	.L99:
 505:Lib/Camera_Middleware/sensors/vd6g/vd6g.c ****     vtpatch_offset += vtpatch_desc[i].size;
 1742              		.loc 1 505 5 is_stmt 1 discriminator 1 view .LVU473
 1743 02d4 40F2F913 		movw	r3, #505
 1744 02d8 2A4A     		ldr	r2, .L191+68
 1745 02da 1C49     		ldr	r1, .L191+12
 1746 02dc 0090     		str	r0, [sp]
 1747 02de 2846     		mov	r0, r5
 1748              	.LVL153:
 505:Lib/Camera_Middleware/sensors/vd6g/vd6g.c ****     vtpatch_offset += vtpatch_desc[i].size;
 1749              		.loc 1 505 5 is_stmt 0 discriminator 1 view .LVU474
 1750 02e0 FFF7FEFF 		bl	VD6G_error
 1751              	.LVL154:
 505:Lib/Camera_Middleware/sensors/vd6g/vd6g.c ****     vtpatch_offset += vtpatch_desc[i].size;
 1752              		.loc 1 505 5 is_stmt 1 discriminator 3 view .LVU475
 505:Lib/Camera_Middleware/sensors/vd6g/vd6g.c ****     vtpatch_offset += vtpatch_desc[i].size;
 1753              		.loc 1 505 5 discriminator 4 view .LVU476
 1754 02e4 2846     		mov	r0, r5
 1755 02e6 FFF7FEFF 		bl	display_error
 1756              	.LVL155:
 505:Lib/Camera_Middleware/sensors/vd6g/vd6g.c ****     vtpatch_offset += vtpatch_desc[i].size;
 1757              		.loc 1 505 5 discriminator 6 view .LVU477
 505:Lib/Camera_Middleware/sensors/vd6g/vd6g.c ****     vtpatch_offset += vtpatch_desc[i].size;
 1758              		.loc 1 505 5 discriminator 7 view .LVU478
 505:Lib/Camera_Middleware/sensors/vd6g/vd6g.c ****     vtpatch_offset += vtpatch_desc[i].size;
 1759              		.loc 1 505 5 is_stmt 0 discriminator 7 view .LVU479
 1760              	.LBE62:
 1761              	.LBE64:
 559:Lib/Camera_Middleware/sensors/vd6g/vd6g.c ****   case VD6G_TOP_DIE_FAST_BOOT:
 1762              		.loc 1 559 5 is_stmt 1 view .LVU480
 559:Lib/Camera_Middleware/sensors/vd6g/vd6g.c ****   case VD6G_TOP_DIE_FAST_BOOT:
 1763              		.loc 1 559 5 is_stmt 0 view .LVU481
 1764              	.LBE67:
 1765              	.LBE74:
 655:Lib/Camera_Middleware/sensors/vd6g/vd6g.c ****     return ret;
 1766              		.loc 1 655 3 is_stmt 1 view .LVU482
 656:Lib/Camera_Middleware/sensors/vd6g/vd6g.c **** 
ARM GAS  /tmp/ccWHsT5O.s 			page 59


 1767              		.loc 1 656 12 is_stmt 0 view .LVU483
 1768 02ea 3C46     		mov	r4, r7
 1769 02ec 0AE7     		b	.L69
 1770              	.LVL156:
 1771              	.L101:
 1772              	.LBB75:
 1773              	.LBB68:
 1774              	.LBB65:
 1775              	.LBB63:
 509:Lib/Camera_Middleware/sensors/vd6g/vd6g.c ****   ret = ctx->write8(ctx, 0xaffc, VT_REVISION);
 1776              		.loc 1 509 3 is_stmt 1 discriminator 1 view .LVU484
 1777 02ee 40F2FD13 		movw	r3, #509
 1778 02f2 0090     		str	r0, [sp]
 1779 02f4 A8E7     		b	.L189
 1780              	.L171:
 511:Lib/Camera_Middleware/sensors/vd6g/vd6g.c ****   ret = ctx->write8(ctx, 0xbbb4, VT_REVISION);
 1781              		.loc 1 511 3 discriminator 3 view .LVU485
 511:Lib/Camera_Middleware/sensors/vd6g/vd6g.c ****   ret = ctx->write8(ctx, 0xbbb4, VT_REVISION);
 1782              		.loc 1 511 3 discriminator 6 view .LVU486
 511:Lib/Camera_Middleware/sensors/vd6g/vd6g.c ****   ret = ctx->write8(ctx, 0xbbb4, VT_REVISION);
 1783              		.loc 1 511 3 discriminator 8 view .LVU487
 512:Lib/Camera_Middleware/sensors/vd6g/vd6g.c ****   VD6G_TraceError(ctx, ret);
 1784              		.loc 1 512 3 view .LVU488
 512:Lib/Camera_Middleware/sensors/vd6g/vd6g.c ****   VD6G_TraceError(ctx, ret);
 1785              		.loc 1 512 9 is_stmt 0 view .LVU489
 1786 02f6 1122     		movs	r2, #17
 1787 02f8 4BF6B431 		movw	r1, #48052
 1788 02fc 2846     		mov	r0, r5
 1789              	.LVL157:
 512:Lib/Camera_Middleware/sensors/vd6g/vd6g.c ****   VD6G_TraceError(ctx, ret);
 1790              		.loc 1 512 9 view .LVU490
 1791 02fe 2B69     		ldr	r3, [r5, #16]
 1792 0300 9847     		blx	r3
 1793              	.LVL158:
 513:Lib/Camera_Middleware/sensors/vd6g/vd6g.c ****   ret = ctx->write8(ctx, 0xb898, VT_REVISION);
 1794              		.loc 1 513 3 is_stmt 1 view .LVU491
 513:Lib/Camera_Middleware/sensors/vd6g/vd6g.c ****   ret = ctx->write8(ctx, 0xb898, VT_REVISION);
 1795              		.loc 1 513 3 view .LVU492
 1796 0302 0446     		mov	r4, r0
 1797 0304 18B1     		cbz	r0, .L172
 513:Lib/Camera_Middleware/sensors/vd6g/vd6g.c ****   ret = ctx->write8(ctx, 0xb898, VT_REVISION);
 1798              		.loc 1 513 3 discriminator 1 view .LVU493
 1799 0306 40F20123 		movw	r3, #513
 1800 030a 0090     		str	r0, [sp]
 1801 030c 9CE7     		b	.L189
 1802              	.L172:
 513:Lib/Camera_Middleware/sensors/vd6g/vd6g.c ****   ret = ctx->write8(ctx, 0xb898, VT_REVISION);
 1803              		.loc 1 513 3 discriminator 3 view .LVU494
 513:Lib/Camera_Middleware/sensors/vd6g/vd6g.c ****   ret = ctx->write8(ctx, 0xb898, VT_REVISION);
 1804              		.loc 1 513 3 discriminator 6 view .LVU495
 513:Lib/Camera_Middleware/sensors/vd6g/vd6g.c ****   ret = ctx->write8(ctx, 0xb898, VT_REVISION);
 1805              		.loc 1 513 3 discriminator 8 view .LVU496
 514:Lib/Camera_Middleware/sensors/vd6g/vd6g.c ****   VD6G_TraceError(ctx, ret);
 1806              		.loc 1 514 3 view .LVU497
 514:Lib/Camera_Middleware/sensors/vd6g/vd6g.c ****   VD6G_TraceError(ctx, ret);
 1807              		.loc 1 514 9 is_stmt 0 view .LVU498
 1808 030e 1122     		movs	r2, #17
ARM GAS  /tmp/ccWHsT5O.s 			page 60


 1809 0310 4BF69801 		movw	r1, #47256
 1810 0314 2846     		mov	r0, r5
 1811              	.LVL159:
 514:Lib/Camera_Middleware/sensors/vd6g/vd6g.c ****   VD6G_TraceError(ctx, ret);
 1812              		.loc 1 514 9 view .LVU499
 1813 0316 2B69     		ldr	r3, [r5, #16]
 1814 0318 9847     		blx	r3
 1815              	.LVL160:
 515:Lib/Camera_Middleware/sensors/vd6g/vd6g.c **** 
 1816              		.loc 1 515 3 is_stmt 1 view .LVU500
 515:Lib/Camera_Middleware/sensors/vd6g/vd6g.c **** 
 1817              		.loc 1 515 3 view .LVU501
 1818 031a 0446     		mov	r4, r0
 1819 031c 18B1     		cbz	r0, .L173
 515:Lib/Camera_Middleware/sensors/vd6g/vd6g.c **** 
 1820              		.loc 1 515 3 discriminator 1 view .LVU502
 1821 031e 40F20323 		movw	r3, #515
 1822 0322 0090     		str	r0, [sp]
 1823 0324 90E7     		b	.L189
 1824              	.L173:
 515:Lib/Camera_Middleware/sensors/vd6g/vd6g.c **** 
 1825              		.loc 1 515 3 discriminator 3 view .LVU503
 515:Lib/Camera_Middleware/sensors/vd6g/vd6g.c **** 
 1826              		.loc 1 515 3 discriminator 6 view .LVU504
 515:Lib/Camera_Middleware/sensors/vd6g/vd6g.c **** 
 1827              		.loc 1 515 3 discriminator 8 view .LVU505
 517:Lib/Camera_Middleware/sensors/vd6g/vd6g.c ****   VD6G_TraceError(ctx, ret);
 1828              		.loc 1 517 3 view .LVU506
 517:Lib/Camera_Middleware/sensors/vd6g/vd6g.c ****   VD6G_TraceError(ctx, ret);
 1829              		.loc 1 517 9 is_stmt 0 view .LVU507
 1830 0326 0222     		movs	r2, #2
 1831 0328 40F20321 		movw	r1, #515
 1832 032c 2846     		mov	r0, r5
 1833              	.LVL161:
 517:Lib/Camera_Middleware/sensors/vd6g/vd6g.c ****   VD6G_TraceError(ctx, ret);
 1834              		.loc 1 517 9 view .LVU508
 1835 032e 2B69     		ldr	r3, [r5, #16]
 1836 0330 9847     		blx	r3
 1837              	.LVL162:
 518:Lib/Camera_Middleware/sensors/vd6g/vd6g.c **** 
 1838              		.loc 1 518 3 is_stmt 1 view .LVU509
 518:Lib/Camera_Middleware/sensors/vd6g/vd6g.c **** 
 1839              		.loc 1 518 3 view .LVU510
 1840 0332 0446     		mov	r4, r0
 1841 0334 70B3     		cbz	r0, .L174
 518:Lib/Camera_Middleware/sensors/vd6g/vd6g.c **** 
 1842              		.loc 1 518 3 discriminator 1 view .LVU511
 1843 0336 40F20623 		movw	r3, #518
 1844 033a 0090     		str	r0, [sp]
 1845 033c 84E7     		b	.L189
 1846              	.L192:
 1847 033e 00BF     		.align	2
 1848              	.L191:
 1849 0340 00000000 		.word	.LC8
 1850 0344 13000000 		.word	.LC9
 1851 0348 00000000 		.word	__func__.28
 1852 034c 00000000 		.word	.LC4
ARM GAS  /tmp/ccWHsT5O.s 			page 61


 1853 0350 3E000000 		.word	.LC10
 1854 0354 54000000 		.word	.LC11
 1855 0358 B3000000 		.word	.LC15
 1856 035c 00000000 		.word	__func__.26
 1857 0360 09000000 		.word	.LC2
 1858 0364 00000000 		.word	patch_cut2
 1859 0368 00000000 		.word	__func__.25
 1860 036c 62000000 		.word	.LC12
 1861 0370 72000000 		.word	.LC13
 1862 0374 9E000000 		.word	.LC14
 1863 0378 00000000 		.word	__func__.24
 1864 037c B5000000 		.word	.LC16
 1865 0380 00000000 		.word	__func__.23
 1866 0384 00000000 		.word	__func__.22
 1867 0388 00000000 		.word	vtpatch_desc
 1868 038c 00000000 		.word	vtpatch_area_nb
 1869 0390 00000000 		.word	vtpatch
 1870              	.L174:
 518:Lib/Camera_Middleware/sensors/vd6g/vd6g.c **** 
 1871              		.loc 1 518 3 discriminator 3 view .LVU512
 518:Lib/Camera_Middleware/sensors/vd6g/vd6g.c **** 
 1872              		.loc 1 518 3 discriminator 6 view .LVU513
 518:Lib/Camera_Middleware/sensors/vd6g/vd6g.c **** 
 1873              		.loc 1 518 3 discriminator 8 view .LVU514
 520:Lib/Camera_Middleware/sensors/vd6g/vd6g.c ****   if (ret)
 1874              		.loc 1 520 3 view .LVU515
 520:Lib/Camera_Middleware/sensors/vd6g/vd6g.c ****   if (ret)
 1875              		.loc 1 520 9 is_stmt 0 view .LVU516
 1876 0394 0246     		mov	r2, r0
 1877 0396 40F20321 		movw	r1, #515
 1878 039a 2846     		mov	r0, r5
 1879              	.LVL163:
 520:Lib/Camera_Middleware/sensors/vd6g/vd6g.c ****   if (ret)
 1880              		.loc 1 520 9 view .LVU517
 1881 039c FFF7FEFF 		bl	VD6G_PollReg8
 1882              	.LVL164:
 521:Lib/Camera_Middleware/sensors/vd6g/vd6g.c ****     return ret;
 1883              		.loc 1 521 3 is_stmt 1 view .LVU518
 521:Lib/Camera_Middleware/sensors/vd6g/vd6g.c ****     return ret;
 1884              		.loc 1 521 6 is_stmt 0 view .LVU519
 1885 03a0 0446     		mov	r4, r0
 1886 03a2 0028     		cmp	r0, #0
 1887 03a4 7FF4AEAE 		bne	.L69
 524:Lib/Camera_Middleware/sensors/vd6g/vd6g.c ****   if (ret)
 1888              		.loc 1 524 3 is_stmt 1 view .LVU520
 524:Lib/Camera_Middleware/sensors/vd6g/vd6g.c ****   if (ret)
 1889              		.loc 1 524 9 is_stmt 0 view .LVU521
 1890 03a8 0221     		movs	r1, #2
 1891 03aa 2846     		mov	r0, r5
 1892              	.LVL165:
 524:Lib/Camera_Middleware/sensors/vd6g/vd6g.c ****   if (ret)
 1893              		.loc 1 524 9 view .LVU522
 1894 03ac FFF7FEFF 		bl	VD6G_WaitState
 1895              	.LVL166:
 525:Lib/Camera_Middleware/sensors/vd6g/vd6g.c ****     return ret;
 1896              		.loc 1 525 3 is_stmt 1 view .LVU523
 525:Lib/Camera_Middleware/sensors/vd6g/vd6g.c ****     return ret;
ARM GAS  /tmp/ccWHsT5O.s 			page 62


 1897              		.loc 1 525 6 is_stmt 0 view .LVU524
 1898 03b0 0446     		mov	r4, r0
 1899 03b2 0028     		cmp	r0, #0
 1900 03b4 7FF4A6AE 		bne	.L69
 528:Lib/Camera_Middleware/sensors/vd6g/vd6g.c ****   VD6G_TraceError(ctx, ret);
 1901              		.loc 1 528 3 is_stmt 1 view .LVU525
 528:Lib/Camera_Middleware/sensors/vd6g/vd6g.c ****   VD6G_TraceError(ctx, ret);
 1902              		.loc 1 528 9 is_stmt 0 view .LVU526
 1903 03b8 2021     		movs	r1, #32
 1904 03ba 2846     		mov	r0, r5
 1905              	.LVL167:
 528:Lib/Camera_Middleware/sensors/vd6g/vd6g.c ****   VD6G_TraceError(ctx, ret);
 1906              		.loc 1 528 9 view .LVU527
 1907 03bc 6B68     		ldr	r3, [r5, #4]
 1908 03be 0DF10A02 		add	r2, sp, #10
 1909 03c2 9847     		blx	r3
 1910              	.LVL168:
 529:Lib/Camera_Middleware/sensors/vd6g/vd6g.c ****   ret = ctx->read8(ctx, VD6G_REG_VTIMING_GR_REVISION, &cur_vtpatch_gr_rev);
 1911              		.loc 1 529 3 is_stmt 1 view .LVU528
 529:Lib/Camera_Middleware/sensors/vd6g/vd6g.c ****   ret = ctx->read8(ctx, VD6G_REG_VTIMING_GR_REVISION, &cur_vtpatch_gr_rev);
 1912              		.loc 1 529 3 view .LVU529
 1913 03c4 0446     		mov	r4, r0
 1914 03c6 58B9     		cbnz	r0, .L113
 529:Lib/Camera_Middleware/sensors/vd6g/vd6g.c ****   ret = ctx->read8(ctx, VD6G_REG_VTIMING_GR_REVISION, &cur_vtpatch_gr_rev);
 1915              		.loc 1 529 3 discriminator 3 view .LVU530
 529:Lib/Camera_Middleware/sensors/vd6g/vd6g.c ****   ret = ctx->read8(ctx, VD6G_REG_VTIMING_GR_REVISION, &cur_vtpatch_gr_rev);
 1916              		.loc 1 529 3 discriminator 6 view .LVU531
 529:Lib/Camera_Middleware/sensors/vd6g/vd6g.c ****   ret = ctx->read8(ctx, VD6G_REG_VTIMING_GR_REVISION, &cur_vtpatch_gr_rev);
 1917              		.loc 1 529 3 discriminator 8 view .LVU532
 530:Lib/Camera_Middleware/sensors/vd6g/vd6g.c ****   VD6G_TraceError(ctx, ret);
 1918              		.loc 1 530 3 view .LVU533
 530:Lib/Camera_Middleware/sensors/vd6g/vd6g.c ****   VD6G_TraceError(ctx, ret);
 1919              		.loc 1 530 9 is_stmt 0 view .LVU534
 1920 03c8 2421     		movs	r1, #36
 1921 03ca 2846     		mov	r0, r5
 1922              	.LVL169:
 530:Lib/Camera_Middleware/sensors/vd6g/vd6g.c ****   VD6G_TraceError(ctx, ret);
 1923              		.loc 1 530 9 view .LVU535
 1924 03cc 6B68     		ldr	r3, [r5, #4]
 1925 03ce 0DF10B02 		add	r2, sp, #11
 1926 03d2 9847     		blx	r3
 1927              	.LVL170:
 531:Lib/Camera_Middleware/sensors/vd6g/vd6g.c ****   ret = ctx->read8(ctx, VD6G_REG_VTIMING_GT_REVISION, &cur_vtpatch_gt_rev);
 1928              		.loc 1 531 3 is_stmt 1 view .LVU536
 531:Lib/Camera_Middleware/sensors/vd6g/vd6g.c ****   ret = ctx->read8(ctx, VD6G_REG_VTIMING_GT_REVISION, &cur_vtpatch_gt_rev);
 1929              		.loc 1 531 3 view .LVU537
 1930 03d4 0446     		mov	r4, r0
 1931 03d6 38B1     		cbz	r0, .L176
 531:Lib/Camera_Middleware/sensors/vd6g/vd6g.c ****   ret = ctx->read8(ctx, VD6G_REG_VTIMING_GT_REVISION, &cur_vtpatch_gt_rev);
 1932              		.loc 1 531 3 discriminator 1 view .LVU538
 1933 03d8 40F21323 		movw	r3, #531
 1934 03dc 0090     		str	r0, [sp]
 1935 03de 33E7     		b	.L189
 1936              	.L113:
 529:Lib/Camera_Middleware/sensors/vd6g/vd6g.c ****   ret = ctx->read8(ctx, VD6G_REG_VTIMING_GR_REVISION, &cur_vtpatch_gr_rev);
 1937              		.loc 1 529 3 discriminator 1 view .LVU539
 1938 03e0 40F21123 		movw	r3, #529
ARM GAS  /tmp/ccWHsT5O.s 			page 63


 1939 03e4 0090     		str	r0, [sp]
 1940 03e6 2FE7     		b	.L189
 1941              	.L176:
 531:Lib/Camera_Middleware/sensors/vd6g/vd6g.c ****   ret = ctx->read8(ctx, VD6G_REG_VTIMING_GT_REVISION, &cur_vtpatch_gt_rev);
 1942              		.loc 1 531 3 discriminator 3 view .LVU540
 531:Lib/Camera_Middleware/sensors/vd6g/vd6g.c ****   ret = ctx->read8(ctx, VD6G_REG_VTIMING_GT_REVISION, &cur_vtpatch_gt_rev);
 1943              		.loc 1 531 3 discriminator 6 view .LVU541
 531:Lib/Camera_Middleware/sensors/vd6g/vd6g.c ****   ret = ctx->read8(ctx, VD6G_REG_VTIMING_GT_REVISION, &cur_vtpatch_gt_rev);
 1944              		.loc 1 531 3 discriminator 8 view .LVU542
 532:Lib/Camera_Middleware/sensors/vd6g/vd6g.c ****   VD6G_TraceError(ctx, ret);
 1945              		.loc 1 532 3 view .LVU543
 532:Lib/Camera_Middleware/sensors/vd6g/vd6g.c ****   VD6G_TraceError(ctx, ret);
 1946              		.loc 1 532 9 is_stmt 0 view .LVU544
 1947 03e8 3246     		mov	r2, r6
 1948 03ea 2621     		movs	r1, #38
 1949 03ec 2846     		mov	r0, r5
 1950              	.LVL171:
 532:Lib/Camera_Middleware/sensors/vd6g/vd6g.c ****   VD6G_TraceError(ctx, ret);
 1951              		.loc 1 532 9 view .LVU545
 1952 03ee 6B68     		ldr	r3, [r5, #4]
 1953 03f0 9847     		blx	r3
 1954              	.LVL172:
 533:Lib/Camera_Middleware/sensors/vd6g/vd6g.c **** 
 1955              		.loc 1 533 3 is_stmt 1 view .LVU546
 533:Lib/Camera_Middleware/sensors/vd6g/vd6g.c **** 
 1956              		.loc 1 533 3 view .LVU547
 1957 03f2 0446     		mov	r4, r0
 1958 03f4 18B1     		cbz	r0, .L177
 533:Lib/Camera_Middleware/sensors/vd6g/vd6g.c **** 
 1959              		.loc 1 533 3 discriminator 1 view .LVU548
 1960 03f6 40F21523 		movw	r3, #533
 1961 03fa 0090     		str	r0, [sp]
 1962 03fc 24E7     		b	.L189
 1963              	.L177:
 533:Lib/Camera_Middleware/sensors/vd6g/vd6g.c **** 
 1964              		.loc 1 533 3 discriminator 3 view .LVU549
 533:Lib/Camera_Middleware/sensors/vd6g/vd6g.c **** 
 1965              		.loc 1 533 3 discriminator 6 view .LVU550
 533:Lib/Camera_Middleware/sensors/vd6g/vd6g.c **** 
 1966              		.loc 1 533 3 discriminator 8 view .LVU551
 535:Lib/Camera_Middleware/sensors/vd6g/vd6g.c ****       cur_vtpatch_gr_rev != VT_REVISION ||
 1967              		.loc 1 535 3 view .LVU552
 535:Lib/Camera_Middleware/sensors/vd6g/vd6g.c ****       cur_vtpatch_gr_rev != VT_REVISION ||
 1968              		.loc 1 535 26 is_stmt 0 view .LVU553
 1969 03fe 9DF80A30 		ldrb	r3, [sp, #10]	@ zero_extendqisi2
 536:Lib/Camera_Middleware/sensors/vd6g/vd6g.c ****       cur_vtpatch_gt_rev != VT_REVISION) {
 1970              		.loc 1 536 26 view .LVU554
 1971 0402 9DF80B10 		ldrb	r1, [sp, #11]	@ zero_extendqisi2
 535:Lib/Camera_Middleware/sensors/vd6g/vd6g.c ****       cur_vtpatch_gr_rev != VT_REVISION ||
 1972              		.loc 1 535 6 view .LVU555
 1973 0406 112B     		cmp	r3, #17
 537:Lib/Camera_Middleware/sensors/vd6g/vd6g.c ****     VD6G_error(ctx, "bad vtpatch version, expected %d got rd:%d, gr:%d gt:%d\n", VT_REVISION, cur_v
 1974              		.loc 1 537 26 view .LVU556
 1975 0408 9DF80C20 		ldrb	r2, [sp, #12]	@ zero_extendqisi2
 535:Lib/Camera_Middleware/sensors/vd6g/vd6g.c ****       cur_vtpatch_gr_rev != VT_REVISION ||
 1976              		.loc 1 535 6 view .LVU557
 1977 040c 04D0     		beq	.L178
ARM GAS  /tmp/ccWHsT5O.s 			page 64


 1978              	.L118:
 538:Lib/Camera_Middleware/sensors/vd6g/vd6g.c ****                  cur_vtpatch_gr_rev, cur_vtpatch_gt_rev);
 1979              		.loc 1 538 5 is_stmt 1 view .LVU558
 1980 040e CDE90012 		strd	r1, r2, [sp]
 1981 0412 1122     		movs	r2, #17
 1982 0414 6E49     		ldr	r1, .L193
 1983 0416 C4E6     		b	.L182
 1984              	.L178:
 535:Lib/Camera_Middleware/sensors/vd6g/vd6g.c ****       cur_vtpatch_gr_rev != VT_REVISION ||
 1985              		.loc 1 535 41 is_stmt 0 discriminator 1 view .LVU559
 1986 0418 1129     		cmp	r1, #17
 1987 041a F8D1     		bne	.L118
 536:Lib/Camera_Middleware/sensors/vd6g/vd6g.c ****       cur_vtpatch_gt_rev != VT_REVISION) {
 1988              		.loc 1 536 41 view .LVU560
 1989 041c 112A     		cmp	r2, #17
 1990 041e F6D1     		bne	.L118
 542:Lib/Camera_Middleware/sensors/vd6g/vd6g.c **** 
 1991              		.loc 1 542 3 is_stmt 1 view .LVU561
 1992 0420 2846     		mov	r0, r5
 1993              	.LVL173:
 542:Lib/Camera_Middleware/sensors/vd6g/vd6g.c **** 
 1994              		.loc 1 542 3 is_stmt 0 view .LVU562
 1995 0422 6C49     		ldr	r1, .L193+4
 1996 0424 FFF7FEFF 		bl	VD6G_notice
 1997              	.LVL174:
 544:Lib/Camera_Middleware/sensors/vd6g/vd6g.c **** }
 1998              		.loc 1 544 3 is_stmt 1 view .LVU563
 544:Lib/Camera_Middleware/sensors/vd6g/vd6g.c **** }
 1999              		.loc 1 544 3 is_stmt 0 view .LVU564
 2000              	.LBE63:
 2001              	.LBE65:
 559:Lib/Camera_Middleware/sensors/vd6g/vd6g.c ****   case VD6G_TOP_DIE_FAST_BOOT:
 2002              		.loc 1 559 5 is_stmt 1 view .LVU565
 559:Lib/Camera_Middleware/sensors/vd6g/vd6g.c ****   case VD6G_TOP_DIE_FAST_BOOT:
 2003              		.loc 1 559 5 is_stmt 0 view .LVU566
 2004              	.LBE68:
 2005              	.LBE75:
 655:Lib/Camera_Middleware/sensors/vd6g/vd6g.c ****     return ret;
 2006              		.loc 1 655 3 is_stmt 1 view .LVU567
 2007              	.L93:
 658:Lib/Camera_Middleware/sensors/vd6g/vd6g.c ****   if (ret)
 2008              		.loc 1 658 3 view .LVU568
 2009              	.LBB76:
 2010              	.LBI76:
 570:Lib/Camera_Middleware/sensors/vd6g/vd6g.c **** {
 2011              		.loc 1 570 12 view .LVU569
 2012              	.LBB77:
 572:Lib/Camera_Middleware/sensors/vd6g/vd6g.c ****   uint8_t reg8;
 2013              		.loc 1 572 3 view .LVU570
 573:Lib/Camera_Middleware/sensors/vd6g/vd6g.c ****   int ret;
 2014              		.loc 1 573 3 view .LVU571
 574:Lib/Camera_Middleware/sensors/vd6g/vd6g.c **** 
 2015              		.loc 1 574 3 view .LVU572
 576:Lib/Camera_Middleware/sensors/vd6g/vd6g.c ****   VD6G_TraceError(ctx, ret);
 2016              		.loc 1 576 3 view .LVU573
 576:Lib/Camera_Middleware/sensors/vd6g/vd6g.c ****   VD6G_TraceError(ctx, ret);
 2017              		.loc 1 576 9 is_stmt 0 view .LVU574
ARM GAS  /tmp/ccWHsT5O.s 			page 65


 2018 0428 3246     		mov	r2, r6
 2019 042a 1A21     		movs	r1, #26
 2020 042c 2846     		mov	r0, r5
 2021 042e 6B68     		ldr	r3, [r5, #4]
 2022 0430 9847     		blx	r3
 2023              	.LVL175:
 577:Lib/Camera_Middleware/sensors/vd6g/vd6g.c **** 
 2024              		.loc 1 577 3 is_stmt 1 view .LVU575
 577:Lib/Camera_Middleware/sensors/vd6g/vd6g.c **** 
 2025              		.loc 1 577 3 view .LVU576
 2026 0432 0446     		mov	r4, r0
 2027 0434 20B1     		cbz	r0, .L121
 577:Lib/Camera_Middleware/sensors/vd6g/vd6g.c **** 
 2028              		.loc 1 577 3 discriminator 1 view .LVU577
 2029 0436 40F24123 		movw	r3, #577
 2030 043a 674A     		ldr	r2, .L193+8
 2031 043c 0090     		str	r0, [sp]
 2032 043e 32E6     		b	.L184
 2033              	.L121:
 577:Lib/Camera_Middleware/sensors/vd6g/vd6g.c **** 
 2034              		.loc 1 577 3 discriminator 6 view .LVU578
 577:Lib/Camera_Middleware/sensors/vd6g/vd6g.c **** 
 2035              		.loc 1 577 3 discriminator 8 view .LVU579
 579:Lib/Camera_Middleware/sensors/vd6g/vd6g.c ****     ctx->bayer = VD6G_BAYER_NONE;
 2036              		.loc 1 579 3 view .LVU580
 2037 0440 9DF80C30 		ldrb	r3, [sp, #12]	@ zero_extendqisi2
 579:Lib/Camera_Middleware/sensors/vd6g/vd6g.c ****     ctx->bayer = VD6G_BAYER_NONE;
 2038              		.loc 1 579 6 is_stmt 0 view .LVU581
 2039 0444 13F00103 		ands	r3, r3, #1
 2040 0448 08D0     		beq	.L122
 584:Lib/Camera_Middleware/sensors/vd6g/vd6g.c ****   case VD6G_MIRROR_FLIP_NONE:
 2041              		.loc 1 584 3 is_stmt 1 view .LVU582
 584:Lib/Camera_Middleware/sensors/vd6g/vd6g.c ****   case VD6G_MIRROR_FLIP_NONE:
 2042              		.loc 1 584 31 is_stmt 0 view .LVU583
 2043 044a 95F83C20 		ldrb	r2, [r5, #60]	@ zero_extendqisi2
 584:Lib/Camera_Middleware/sensors/vd6g/vd6g.c ****   case VD6G_MIRROR_FLIP_NONE:
 2044              		.loc 1 584 3 view .LVU584
 2045 044e 032A     		cmp	r2, #3
 2046 0450 1BD8     		bhi	.L123
 2047 0452 DFE802F0 		tbb	[pc, r2]
 2048              	.L125:
 2049 0456 1F       		.byte	(.L143-.L125)/2
 2050 0457 02       		.byte	(.L127-.L125)/2
 2051 0458 03       		.byte	(.L122-.L125)/2
 2052 0459 18       		.byte	(.L124-.L125)/2
 2053              		.p2align 1
 2054              	.L127:
 2055 045a 0423     		movs	r3, #4
 2056              	.LVL176:
 2057              	.L122:
 584:Lib/Camera_Middleware/sensors/vd6g/vd6g.c ****   case VD6G_MIRROR_FLIP_NONE:
 2058              		.loc 1 584 3 view .LVU585
 2059 045c 40F26747 		movw	r7, #1127
 2060              	.LBE77:
 2061              	.LBE76:
 2062              	.LBB81:
 2063              	.LBB82:
ARM GAS  /tmp/ccWHsT5O.s 			page 66


 626:Lib/Camera_Middleware/sensors/vd6g/vd6g.c ****     ret = ctx->write8(ctx, VD6G_REG_GPIO_x_CTRL(i), drv_ctx->config_save.gpio_ctrl[i]);
 2064              		.loc 1 626 17 discriminator 1 view .LVU586
 2065 0460 40F26F49 		movw	r9, #1135
 2066              	.LBE82:
 2067              	.LBE81:
 2068              	.LBB86:
 2069              	.LBB78:
 592:Lib/Camera_Middleware/sensors/vd6g/vd6g.c ****     break;
 2070              		.loc 1 592 16 view .LVU587
 2071 0464 85F82830 		strb	r3, [r5, #40]
 2072 0468 05F15B08 		add	r8, r5, #91
 2073              	.L129:
 2074              	.LVL177:
 592:Lib/Camera_Middleware/sensors/vd6g/vd6g.c ****     break;
 2075              		.loc 1 592 16 view .LVU588
 2076              	.LBE78:
 2077              	.LBE86:
 2078              	.LBB87:
 2079              	.LBB83:
 627:Lib/Camera_Middleware/sensors/vd6g/vd6g.c ****     VD6G_TraceError(ctx, ret);
 2080              		.loc 1 627 5 is_stmt 1 view .LVU589
 627:Lib/Camera_Middleware/sensors/vd6g/vd6g.c ****     VD6G_TraceError(ctx, ret);
 2081              		.loc 1 627 11 is_stmt 0 view .LVU590
 2082 046c 3946     		mov	r1, r7
 2083 046e 2846     		mov	r0, r5
 2084 0470 2B69     		ldr	r3, [r5, #16]
 2085 0472 18F8012F 		ldrb	r2, [r8, #1]!	@ zero_extendqisi2
 2086              	.LVL178:
 627:Lib/Camera_Middleware/sensors/vd6g/vd6g.c ****     VD6G_TraceError(ctx, ret);
 2087              		.loc 1 627 11 view .LVU591
 2088 0476 9847     		blx	r3
 2089              	.LVL179:
 628:Lib/Camera_Middleware/sensors/vd6g/vd6g.c ****   }
 2090              		.loc 1 628 5 is_stmt 1 view .LVU592
 628:Lib/Camera_Middleware/sensors/vd6g/vd6g.c ****   }
 2091              		.loc 1 628 5 view .LVU593
 2092 0478 0446     		mov	r4, r0
 2093 047a 68B1     		cbz	r0, .L128
 628:Lib/Camera_Middleware/sensors/vd6g/vd6g.c ****   }
 2094              		.loc 1 628 5 discriminator 1 view .LVU594
 2095 047c 4FF41D73 		mov	r3, #628
 2096 0480 564A     		ldr	r2, .L193+12
 2097 0482 0090     		str	r0, [sp]
 2098 0484 0FE6     		b	.L184
 2099              	.LVL180:
 2100              	.L124:
 628:Lib/Camera_Middleware/sensors/vd6g/vd6g.c ****   }
 2101              		.loc 1 628 5 is_stmt 0 discriminator 1 view .LVU595
 2102              	.LBE83:
 2103              	.LBE87:
 2104              	.LBB88:
 2105              	.LBB79:
 595:Lib/Camera_Middleware/sensors/vd6g/vd6g.c ****     break;
 2106              		.loc 1 595 5 is_stmt 1 view .LVU596
 596:Lib/Camera_Middleware/sensors/vd6g/vd6g.c ****   default:
 2107              		.loc 1 596 5 view .LVU597
 596:Lib/Camera_Middleware/sensors/vd6g/vd6g.c ****   default:
ARM GAS  /tmp/ccWHsT5O.s 			page 67


 2108              		.loc 1 596 5 is_stmt 0 view .LVU598
 2109              	.LBE79:
 2110              	.LBE88:
 659:Lib/Camera_Middleware/sensors/vd6g/vd6g.c ****     return ret;
 2111              		.loc 1 659 3 is_stmt 1 view .LVU599
 2112              	.LBB89:
 2113              	.LBB84:
 626:Lib/Camera_Middleware/sensors/vd6g/vd6g.c ****     ret = ctx->write8(ctx, VD6G_REG_GPIO_x_CTRL(i), drv_ctx->config_save.gpio_ctrl[i]);
 2114              		.loc 1 626 17 discriminator 1 view .LVU600
 2115              	.LBE84:
 2116              	.LBE89:
 2117              	.LBB90:
 2118              	.LBB80:
 594:Lib/Camera_Middleware/sensors/vd6g/vd6g.c ****     ctx->bayer = VD6G_BAYER_GBRG;
 2119              		.loc 1 594 3 is_stmt 0 view .LVU601
 2120 0486 1346     		mov	r3, r2
 2121 0488 E8E7     		b	.L122
 2122              	.LVL181:
 2123              	.L123:
 598:Lib/Camera_Middleware/sensors/vd6g/vd6g.c ****   }
 2124              		.loc 1 598 5 is_stmt 1 view .LVU602
 2125 048a 40F25621 		movw	r1, #598
 2126 048e 544B     		ldr	r3, .L193+16
 2127 0490 514A     		ldr	r2, .L193+8
 2128 0492 49E6     		b	.L186
 2129              	.L143:
 584:Lib/Camera_Middleware/sensors/vd6g/vd6g.c ****   case VD6G_MIRROR_FLIP_NONE:
 2130              		.loc 1 584 3 is_stmt 0 view .LVU603
 2131 0494 0223     		movs	r3, #2
 2132 0496 E1E7     		b	.L122
 2133              	.LVL182:
 2134              	.L128:
 584:Lib/Camera_Middleware/sensors/vd6g/vd6g.c ****   case VD6G_MIRROR_FLIP_NONE:
 2135              		.loc 1 584 3 view .LVU604
 2136              	.LBE80:
 2137              	.LBE90:
 2138              	.LBB91:
 2139              	.LBB85:
 628:Lib/Camera_Middleware/sensors/vd6g/vd6g.c ****   }
 2140              		.loc 1 628 5 is_stmt 1 discriminator 6 view .LVU605
 628:Lib/Camera_Middleware/sensors/vd6g/vd6g.c ****   }
 2141              		.loc 1 628 5 discriminator 8 view .LVU606
 626:Lib/Camera_Middleware/sensors/vd6g/vd6g.c ****     ret = ctx->write8(ctx, VD6G_REG_GPIO_x_CTRL(i), drv_ctx->config_save.gpio_ctrl[i]);
 2142              		.loc 1 626 34 discriminator 2 view .LVU607
 626:Lib/Camera_Middleware/sensors/vd6g/vd6g.c ****     ret = ctx->write8(ctx, VD6G_REG_GPIO_x_CTRL(i), drv_ctx->config_save.gpio_ctrl[i]);
 2143              		.loc 1 626 17 discriminator 1 view .LVU608
 2144 0498 0137     		adds	r7, r7, #1
 2145 049a BFB2     		uxth	r7, r7
 2146 049c 4F45     		cmp	r7, r9
 2147 049e E5D1     		bne	.L129
 2148              	.LVL183:
 626:Lib/Camera_Middleware/sensors/vd6g/vd6g.c ****     ret = ctx->write8(ctx, VD6G_REG_GPIO_x_CTRL(i), drv_ctx->config_save.gpio_ctrl[i]);
 2149              		.loc 1 626 17 is_stmt 0 discriminator 1 view .LVU609
 2150              	.LBE85:
 2151              	.LBE91:
 2152              	.LBE96:
 2153              	.LBE126:
ARM GAS  /tmp/ccWHsT5O.s 			page 68


1081:Lib/Camera_Middleware/sensors/vd6g/vd6g.c ****     return ret;
 2154              		.loc 1 1081 3 is_stmt 1 view .LVU610
1084:Lib/Camera_Middleware/sensors/vd6g/vd6g.c ****   if (ret)
 2155              		.loc 1 1084 3 view .LVU611
 2156              	.LBB127:
 2157              	.LBI98:
 957:Lib/Camera_Middleware/sensors/vd6g/vd6g.c **** {
 2158              		.loc 1 957 12 view .LVU612
 2159              	.LBB120:
 959:Lib/Camera_Middleware/sensors/vd6g/vd6g.c **** 
 2160              		.loc 1 959 3 view .LVU613
 961:Lib/Camera_Middleware/sensors/vd6g/vd6g.c ****   if (ret)
 2161              		.loc 1 961 3 view .LVU614
 2162              	.LBB114:
 2163              	.LBI104:
 696:Lib/Camera_Middleware/sensors/vd6g/vd6g.c **** {
 2164              		.loc 1 696 12 view .LVU615
 2165              	.LBB112:
 698:Lib/Camera_Middleware/sensors/vd6g/vd6g.c ****   uint8_t pll_prediv;
 2166              		.loc 1 698 3 view .LVU616
 699:Lib/Camera_Middleware/sensors/vd6g/vd6g.c ****   uint8_t pll_mult;
 2167              		.loc 1 699 3 view .LVU617
 700:Lib/Camera_Middleware/sensors/vd6g/vd6g.c ****   int ret;
 2168              		.loc 1 700 3 view .LVU618
 701:Lib/Camera_Middleware/sensors/vd6g/vd6g.c **** 
 2169              		.loc 1 701 3 view .LVU619
 703:Lib/Camera_Middleware/sensors/vd6g/vd6g.c ****   if (ret)
 2170              		.loc 1 703 3 view .LVU620
 703:Lib/Camera_Middleware/sensors/vd6g/vd6g.c ****   if (ret)
 2171              		.loc 1 703 9 is_stmt 0 view .LVU621
 2172 04a0 2B6B     		ldr	r3, [r5, #48]
 2173              	.LVL184:
 2174              	.LBB110:
 2175              	.LBI106:
 668:Lib/Camera_Middleware/sensors/vd6g/vd6g.c **** {
 2176              		.loc 1 668 12 is_stmt 1 view .LVU622
 2177              	.LBB108:
 670:Lib/Camera_Middleware/sensors/vd6g/vd6g.c ****   int i;
 2178              		.loc 1 670 3 view .LVU623
 670:Lib/Camera_Middleware/sensors/vd6g/vd6g.c ****   int i;
 2179              		.loc 1 670 22 is_stmt 0 view .LVU624
 2180 04a2 504A     		ldr	r2, .L193+20
 2181 04a4 07CA     		ldm	r2, {r0, r1, r2}
 2182 04a6 86E80700 		stm	r6, {r0, r1, r2}
 671:Lib/Camera_Middleware/sensors/vd6g/vd6g.c **** 
 2183              		.loc 1 671 3 is_stmt 1 view .LVU625
 673:Lib/Camera_Middleware/sensors/vd6g/vd6g.c ****       ext_clock > 27 * M_HZ) {
 2184              		.loc 1 673 3 view .LVU626
 673:Lib/Camera_Middleware/sensors/vd6g/vd6g.c ****       ext_clock > 27 * M_HZ) {
 2185              		.loc 1 673 6 is_stmt 0 view .LVU627
 2186 04aa 4F48     		ldr	r0, .L193+24
 673:Lib/Camera_Middleware/sensors/vd6g/vd6g.c ****       ext_clock > 27 * M_HZ) {
 2187              		.loc 1 673 28 view .LVU628
 2188 04ac A3F5B702 		sub	r2, r3, #5996544
 2189 04b0 A2F55862 		sub	r2, r2, #3456
 673:Lib/Camera_Middleware/sensors/vd6g/vd6g.c ****       ext_clock > 27 * M_HZ) {
 2190              		.loc 1 673 6 view .LVU629
ARM GAS  /tmp/ccWHsT5O.s 			page 69


 2191 04b4 8242     		cmp	r2, r0
 2192 04b6 3146     		mov	r1, r6
 2193 04b8 30D8     		bhi	.L179
 682:Lib/Camera_Middleware/sensors/vd6g/vd6g.c ****       break;
 2194              		.loc 1 682 8 view .LVU630
 2195 04ba 4C4A     		ldr	r2, .L193+28
 2196              	.L132:
 2197              	.LVL185:
 681:Lib/Camera_Middleware/sensors/vd6g/vd6g.c ****     if (ext_clock / *pll_prediv < 12 * M_HZ)
 2198              		.loc 1 681 5 is_stmt 1 view .LVU631
 681:Lib/Camera_Middleware/sensors/vd6g/vd6g.c ****     if (ext_clock / *pll_prediv < 12 * M_HZ)
 2199              		.loc 1 681 26 is_stmt 0 view .LVU632
 2200 04bc 51F8040B 		ldr	r0, [r1], #4
 2201              	.LVL186:
 682:Lib/Camera_Middleware/sensors/vd6g/vd6g.c ****       break;
 2202              		.loc 1 682 5 is_stmt 1 view .LVU633
 2203 04c0 5FFA80F8 		uxtb	r8, r0
 682:Lib/Camera_Middleware/sensors/vd6g/vd6g.c ****       break;
 2204              		.loc 1 682 19 is_stmt 0 view .LVU634
 2205 04c4 B3FBF8F0 		udiv	r0, r3, r8
 2206              	.LVL187:
 682:Lib/Camera_Middleware/sensors/vd6g/vd6g.c ****       break;
 2207              		.loc 1 682 8 view .LVU635
 2208 04c8 9042     		cmp	r0, r2
 2209 04ca 02D3     		bcc	.L131
 680:Lib/Camera_Middleware/sensors/vd6g/vd6g.c ****     *pll_prediv = predivs[i];
 2210              		.loc 1 680 41 is_stmt 1 discriminator 2 view .LVU636
 2211 04cc 0134     		adds	r4, r4, #1
 2212              	.LVL188:
 680:Lib/Camera_Middleware/sensors/vd6g/vd6g.c ****     *pll_prediv = predivs[i];
 2213              		.loc 1 680 17 discriminator 1 view .LVU637
 2214 04ce 032C     		cmp	r4, #3
 2215 04d0 F4D1     		bne	.L132
 2216              	.L131:
 687:Lib/Camera_Middleware/sensors/vd6g/vd6g.c **** 
 2217              		.loc 1 687 3 view .LVU638
 687:Lib/Camera_Middleware/sensors/vd6g/vd6g.c **** 
 2218              		.loc 1 687 46 is_stmt 0 view .LVU639
 2219 04d2 474A     		ldr	r2, .L193+32
 687:Lib/Camera_Middleware/sensors/vd6g/vd6g.c **** 
 2220              		.loc 1 687 58 view .LVU640
 2221 04d4 5F08     		lsrs	r7, r3, #1
 687:Lib/Camera_Middleware/sensors/vd6g/vd6g.c **** 
 2222              		.loc 1 687 46 view .LVU641
 2223 04d6 02FB0877 		mla	r7, r2, r8, r7
 687:Lib/Camera_Middleware/sensors/vd6g/vd6g.c **** 
 2224              		.loc 1 687 63 view .LVU642
 2225 04da B7FBF3F7 		udiv	r7, r7, r3
 2226              	.LVL189:
 689:Lib/Camera_Middleware/sensors/vd6g/vd6g.c ****   VD6G_dbg(ctx, 0, "PLL prediv = %d\n", *pll_prediv);
 2227              		.loc 1 689 3 is_stmt 1 view .LVU643
 2228 04de 0021     		movs	r1, #0
 2229 04e0 2846     		mov	r0, r5
 2230 04e2 444A     		ldr	r2, .L193+36
 2231 04e4 FFF7FEFF 		bl	VD6G_dbg.constprop.0
 2232              	.LVL190:
 690:Lib/Camera_Middleware/sensors/vd6g/vd6g.c ****   VD6G_dbg(ctx, 0, "PLL mult = %d\n", *pll_mult);
ARM GAS  /tmp/ccWHsT5O.s 			page 70


 2233              		.loc 1 690 3 view .LVU644
 691:Lib/Camera_Middleware/sensors/vd6g/vd6g.c **** 
 2234              		.loc 1 691 3 is_stmt 0 view .LVU645
 2235 04e8 FFB2     		uxtb	r7, r7
 690:Lib/Camera_Middleware/sensors/vd6g/vd6g.c ****   VD6G_dbg(ctx, 0, "PLL mult = %d\n", *pll_mult);
 2236              		.loc 1 690 3 view .LVU646
 2237 04ea 4346     		mov	r3, r8
 2238 04ec 0021     		movs	r1, #0
 2239 04ee 2846     		mov	r0, r5
 2240 04f0 414A     		ldr	r2, .L193+40
 2241 04f2 FFF7FEFF 		bl	VD6G_dbg.constprop.0
 2242              	.LVL191:
 691:Lib/Camera_Middleware/sensors/vd6g/vd6g.c **** 
 2243              		.loc 1 691 3 is_stmt 1 view .LVU647
 2244 04f6 3B46     		mov	r3, r7
 2245 04f8 0021     		movs	r1, #0
 2246 04fa 2846     		mov	r0, r5
 2247 04fc 3F4A     		ldr	r2, .L193+44
 2248 04fe FFF7FEFF 		bl	VD6G_dbg.constprop.0
 2249              	.LVL192:
 693:Lib/Camera_Middleware/sensors/vd6g/vd6g.c **** }
 2250              		.loc 1 693 3 view .LVU648
 693:Lib/Camera_Middleware/sensors/vd6g/vd6g.c **** }
 2251              		.loc 1 693 3 is_stmt 0 view .LVU649
 2252              	.LBE108:
 2253              	.LBE110:
 704:Lib/Camera_Middleware/sensors/vd6g/vd6g.c ****     return ret;
 2254              		.loc 1 704 3 is_stmt 1 view .LVU650
 707:Lib/Camera_Middleware/sensors/vd6g/vd6g.c ****   VD6G_TraceError(ctx, ret);
 2255              		.loc 1 707 3 view .LVU651
 707:Lib/Camera_Middleware/sensors/vd6g/vd6g.c ****   VD6G_TraceError(ctx, ret);
 2256              		.loc 1 707 9 is_stmt 0 view .LVU652
 2257 0502 4FF40871 		mov	r1, #544
 2258 0506 2846     		mov	r0, r5
 2259 0508 AB69     		ldr	r3, [r5, #24]
 2260 050a 2A6B     		ldr	r2, [r5, #48]
 2261 050c 9847     		blx	r3
 2262              	.LVL193:
 708:Lib/Camera_Middleware/sensors/vd6g/vd6g.c **** 
 2263              		.loc 1 708 3 is_stmt 1 view .LVU653
 708:Lib/Camera_Middleware/sensors/vd6g/vd6g.c **** 
 2264              		.loc 1 708 3 view .LVU654
 2265 050e 0446     		mov	r4, r0
 2266 0510 30B1     		cbz	r0, .L133
 708:Lib/Camera_Middleware/sensors/vd6g/vd6g.c **** 
 2267              		.loc 1 708 3 discriminator 1 view .LVU655
 2268 0512 4FF43173 		mov	r3, #708
 2269 0516 0090     		str	r0, [sp]
 2270              	.L188:
 718:Lib/Camera_Middleware/sensors/vd6g/vd6g.c ****   }
 2271              		.loc 1 718 5 is_stmt 0 discriminator 1 view .LVU656
 2272 0518 394A     		ldr	r2, .L193+48
 2273 051a C4E5     		b	.L184
 2274              	.LVL194:
 2275              	.L179:
 2276              	.LBB111:
 2277              	.LBB109:
ARM GAS  /tmp/ccWHsT5O.s 			page 71


 675:Lib/Camera_Middleware/sensors/vd6g/vd6g.c ****     return -1;
 2278              		.loc 1 675 5 is_stmt 1 view .LVU657
 2279 051c 3949     		ldr	r1, .L193+52
 2280 051e D8E5     		b	.L183
 2281              	.LVL195:
 2282              	.L133:
 675:Lib/Camera_Middleware/sensors/vd6g/vd6g.c ****     return -1;
 2283              		.loc 1 675 5 is_stmt 0 view .LVU658
 2284              	.LBE109:
 2285              	.LBE111:
 708:Lib/Camera_Middleware/sensors/vd6g/vd6g.c **** 
 2286              		.loc 1 708 3 is_stmt 1 discriminator 6 view .LVU659
 708:Lib/Camera_Middleware/sensors/vd6g/vd6g.c **** 
 2287              		.loc 1 708 3 discriminator 8 view .LVU660
 710:Lib/Camera_Middleware/sensors/vd6g/vd6g.c ****   VD6G_TraceError(ctx, ret);
 2288              		.loc 1 710 3 view .LVU661
 710:Lib/Camera_Middleware/sensors/vd6g/vd6g.c ****   VD6G_TraceError(ctx, ret);
 2289              		.loc 1 710 9 is_stmt 0 view .LVU662
 2290 0520 4246     		mov	r2, r8
 2291 0522 4FF40971 		mov	r1, #548
 2292 0526 2846     		mov	r0, r5
 2293              	.LVL196:
 710:Lib/Camera_Middleware/sensors/vd6g/vd6g.c ****   VD6G_TraceError(ctx, ret);
 2294              		.loc 1 710 9 view .LVU663
 2295 0528 2B69     		ldr	r3, [r5, #16]
 2296 052a 9847     		blx	r3
 2297              	.LVL197:
 711:Lib/Camera_Middleware/sensors/vd6g/vd6g.c **** 
 2298              		.loc 1 711 3 is_stmt 1 view .LVU664
 711:Lib/Camera_Middleware/sensors/vd6g/vd6g.c **** 
 2299              		.loc 1 711 3 view .LVU665
 2300 052c 0446     		mov	r4, r0
 2301 052e 58B9     		cbnz	r0, .L134
 711:Lib/Camera_Middleware/sensors/vd6g/vd6g.c **** 
 2302              		.loc 1 711 3 discriminator 3 view .LVU666
 711:Lib/Camera_Middleware/sensors/vd6g/vd6g.c **** 
 2303              		.loc 1 711 3 discriminator 6 view .LVU667
 711:Lib/Camera_Middleware/sensors/vd6g/vd6g.c **** 
 2304              		.loc 1 711 3 discriminator 8 view .LVU668
 713:Lib/Camera_Middleware/sensors/vd6g/vd6g.c ****   VD6G_TraceError(ctx, ret);
 2305              		.loc 1 713 3 view .LVU669
 713:Lib/Camera_Middleware/sensors/vd6g/vd6g.c ****   VD6G_TraceError(ctx, ret);
 2306              		.loc 1 713 9 is_stmt 0 view .LVU670
 2307 0530 3A46     		mov	r2, r7
 2308 0532 40F22621 		movw	r1, #550
 2309 0536 2846     		mov	r0, r5
 2310              	.LVL198:
 713:Lib/Camera_Middleware/sensors/vd6g/vd6g.c ****   VD6G_TraceError(ctx, ret);
 2311              		.loc 1 713 9 view .LVU671
 2312 0538 2B69     		ldr	r3, [r5, #16]
 2313 053a 9847     		blx	r3
 2314              	.LVL199:
 714:Lib/Camera_Middleware/sensors/vd6g/vd6g.c **** 
 2315              		.loc 1 714 3 is_stmt 1 view .LVU672
 714:Lib/Camera_Middleware/sensors/vd6g/vd6g.c **** 
 2316              		.loc 1 714 3 view .LVU673
 2317 053c 0446     		mov	r4, r0
ARM GAS  /tmp/ccWHsT5O.s 			page 72


 2318 053e 38B1     		cbz	r0, .L180
 714:Lib/Camera_Middleware/sensors/vd6g/vd6g.c **** 
 2319              		.loc 1 714 3 discriminator 1 view .LVU674
 2320 0540 40F2CA23 		movw	r3, #714
 2321 0544 0090     		str	r0, [sp]
 2322 0546 E7E7     		b	.L188
 2323              	.L134:
 711:Lib/Camera_Middleware/sensors/vd6g/vd6g.c **** 
 2324              		.loc 1 711 3 discriminator 1 view .LVU675
 2325 0548 40F2C723 		movw	r3, #711
 2326 054c 0090     		str	r0, [sp]
 2327 054e E3E7     		b	.L188
 2328              	.L180:
 714:Lib/Camera_Middleware/sensors/vd6g/vd6g.c **** 
 2329              		.loc 1 714 3 discriminator 3 view .LVU676
 714:Lib/Camera_Middleware/sensors/vd6g/vd6g.c **** 
 2330              		.loc 1 714 3 discriminator 6 view .LVU677
 714:Lib/Camera_Middleware/sensors/vd6g/vd6g.c **** 
 2331              		.loc 1 714 3 discriminator 8 view .LVU678
 716:Lib/Camera_Middleware/sensors/vd6g/vd6g.c ****     ret = ctx->write16(ctx, VD6G_LINE_LENGTH, drv_ctx->config_save.line_len);
 2332              		.loc 1 716 3 view .LVU679
 716:Lib/Camera_Middleware/sensors/vd6g/vd6g.c ****     ret = ctx->write16(ctx, VD6G_LINE_LENGTH, drv_ctx->config_save.line_len);
 2333              		.loc 1 716 27 is_stmt 0 view .LVU680
 2334 0550 2A6C     		ldr	r2, [r5, #64]
 716:Lib/Camera_Middleware/sensors/vd6g/vd6g.c ****     ret = ctx->write16(ctx, VD6G_LINE_LENGTH, drv_ctx->config_save.line_len);
 2335              		.loc 1 716 6 view .LVU681
 2336 0552 62B9     		cbnz	r2, .L137
 2337              	.L138:
 2338              	.LVL200:
 716:Lib/Camera_Middleware/sensors/vd6g/vd6g.c ****     ret = ctx->write16(ctx, VD6G_LINE_LENGTH, drv_ctx->config_save.line_len);
 2339              		.loc 1 716 6 view .LVU682
 2340              	.LBE112:
 2341              	.LBE114:
 965:Lib/Camera_Middleware/sensors/vd6g/vd6g.c ****   if (ret)
 2342              		.loc 1 965 3 is_stmt 1 view .LVU683
 2343              	.LBB115:
 2344              	.LBI100:
 824:Lib/Camera_Middleware/sensors/vd6g/vd6g.c **** {
 2345              		.loc 1 824 12 view .LVU684
 2346              	.LBB102:
 826:Lib/Camera_Middleware/sensors/vd6g/vd6g.c ****   uint16_t frame_length;
 2347              		.loc 1 826 3 view .LVU685
 827:Lib/Camera_Middleware/sensors/vd6g/vd6g.c ****   uint16_t line_length;
 2348              		.loc 1 827 3 view .LVU686
 828:Lib/Camera_Middleware/sensors/vd6g/vd6g.c ****   int ret;
 2349              		.loc 1 828 3 view .LVU687
 829:Lib/Camera_Middleware/sensors/vd6g/vd6g.c **** 
 2350              		.loc 1 829 3 view .LVU688
 831:Lib/Camera_Middleware/sensors/vd6g/vd6g.c ****   VD6G_TraceError(ctx, ret);
 2351              		.loc 1 831 3 view .LVU689
 831:Lib/Camera_Middleware/sensors/vd6g/vd6g.c ****   VD6G_TraceError(ctx, ret);
 2352              		.loc 1 831 9 is_stmt 0 view .LVU690
 2353 0554 3246     		mov	r2, r6
 2354 0556 4FF44071 		mov	r1, #768
 2355 055a 2846     		mov	r0, r5
 2356 055c AB68     		ldr	r3, [r5, #8]
 2357 055e 9847     		blx	r3
ARM GAS  /tmp/ccWHsT5O.s 			page 73


 2358              	.LVL201:
 832:Lib/Camera_Middleware/sensors/vd6g/vd6g.c ****   VD6G_dbg(ctx, 0, "Line len = %d\n", line_length);
 2359              		.loc 1 832 3 is_stmt 1 view .LVU691
 832:Lib/Camera_Middleware/sensors/vd6g/vd6g.c ****   VD6G_dbg(ctx, 0, "Line len = %d\n", line_length);
 2360              		.loc 1 832 3 view .LVU692
 2361 0560 0446     		mov	r4, r0
 2362 0562 88B1     		cbz	r0, .L139
 832:Lib/Camera_Middleware/sensors/vd6g/vd6g.c ****   VD6G_dbg(ctx, 0, "Line len = %d\n", line_length);
 2363              		.loc 1 832 3 discriminator 1 view .LVU693
 2364 0564 4FF45073 		mov	r3, #832
 2365 0568 0090     		str	r0, [sp]
 2366              	.L185:
 838:Lib/Camera_Middleware/sensors/vd6g/vd6g.c **** 
 2367              		.loc 1 838 3 is_stmt 0 discriminator 1 view .LVU694
 2368 056a 274A     		ldr	r2, .L193+56
 2369 056c 9BE5     		b	.L184
 2370              	.LVL202:
 2371              	.L137:
 838:Lib/Camera_Middleware/sensors/vd6g/vd6g.c **** 
 2372              		.loc 1 838 3 discriminator 1 view .LVU695
 2373              	.LBE102:
 2374              	.LBE115:
 2375              	.LBB116:
 2376              	.LBB113:
 717:Lib/Camera_Middleware/sensors/vd6g/vd6g.c ****     VD6G_TraceError(ctx, ret);
 2377              		.loc 1 717 5 is_stmt 1 view .LVU696
 717:Lib/Camera_Middleware/sensors/vd6g/vd6g.c ****     VD6G_TraceError(ctx, ret);
 2378              		.loc 1 717 11 is_stmt 0 view .LVU697
 2379 056e 4FF44071 		mov	r1, #768
 2380 0572 2846     		mov	r0, r5
 2381              	.LVL203:
 717:Lib/Camera_Middleware/sensors/vd6g/vd6g.c ****     VD6G_TraceError(ctx, ret);
 2382              		.loc 1 717 11 view .LVU698
 2383 0574 6B69     		ldr	r3, [r5, #20]
 2384 0576 92B2     		uxth	r2, r2
 2385 0578 9847     		blx	r3
 2386              	.LVL204:
 718:Lib/Camera_Middleware/sensors/vd6g/vd6g.c ****   }
 2387              		.loc 1 718 5 is_stmt 1 view .LVU699
 718:Lib/Camera_Middleware/sensors/vd6g/vd6g.c ****   }
 2388              		.loc 1 718 5 view .LVU700
 2389 057a 0446     		mov	r4, r0
 2390 057c 0028     		cmp	r0, #0
 2391 057e E9D0     		beq	.L138
 718:Lib/Camera_Middleware/sensors/vd6g/vd6g.c ****   }
 2392              		.loc 1 718 5 discriminator 1 view .LVU701
 2393 0580 40F2CE23 		movw	r3, #718
 2394 0584 0090     		str	r0, [sp]
 2395 0586 C7E7     		b	.L188
 2396              	.LVL205:
 2397              	.L139:
 718:Lib/Camera_Middleware/sensors/vd6g/vd6g.c ****   }
 2398              		.loc 1 718 5 is_stmt 0 discriminator 1 view .LVU702
 2399              	.LBE113:
 2400              	.LBE116:
 2401              	.LBB117:
 2402              	.LBB103:
ARM GAS  /tmp/ccWHsT5O.s 			page 74


 832:Lib/Camera_Middleware/sensors/vd6g/vd6g.c ****   VD6G_dbg(ctx, 0, "Line len = %d\n", line_length);
 2403              		.loc 1 832 3 is_stmt 1 discriminator 6 view .LVU703
 832:Lib/Camera_Middleware/sensors/vd6g/vd6g.c ****   VD6G_dbg(ctx, 0, "Line len = %d\n", line_length);
 2404              		.loc 1 832 3 discriminator 8 view .LVU704
 833:Lib/Camera_Middleware/sensors/vd6g/vd6g.c **** 
 2405              		.loc 1 833 3 view .LVU705
 2406 0588 0146     		mov	r1, r0
 2407 058a BDF80C30 		ldrh	r3, [sp, #12]
 2408 058e 2846     		mov	r0, r5
 2409              	.LVL206:
 833:Lib/Camera_Middleware/sensors/vd6g/vd6g.c **** 
 2410              		.loc 1 833 3 is_stmt 0 view .LVU706
 2411 0590 1E4A     		ldr	r2, .L193+60
 2412 0592 FFF7FEFF 		bl	VD6G_dbg.constprop.0
 2413              	.LVL207:
 835:Lib/Camera_Middleware/sensors/vd6g/vd6g.c ****   VD6G_dbg(ctx, 0, "Set frame_length to %d to reach %d fps\n", frame_length, drv_ctx->config_save.f
 2414              		.loc 1 835 3 is_stmt 1 view .LVU707
 835:Lib/Camera_Middleware/sensors/vd6g/vd6g.c ****   VD6G_dbg(ctx, 0, "Set frame_length to %d to reach %d fps\n", frame_length, drv_ctx->config_save.f
 2415              		.loc 1 835 72 is_stmt 0 view .LVU708
 2416 0596 AA6B     		ldr	r2, [r5, #56]
 835:Lib/Camera_Middleware/sensors/vd6g/vd6g.c ****   VD6G_dbg(ctx, 0, "Set frame_length to %d to reach %d fps\n", frame_length, drv_ctx->config_save.f
 2417              		.loc 1 835 50 view .LVU709
 2418 0598 BDF80C30 		ldrh	r3, [sp, #12]
 835:Lib/Camera_Middleware/sensors/vd6g/vd6g.c ****   VD6G_dbg(ctx, 0, "Set frame_length to %d to reach %d fps\n", frame_length, drv_ctx->config_save.f
 2419              		.loc 1 835 35 view .LVU710
 2420 059c 1C4E     		ldr	r6, .L193+64
 835:Lib/Camera_Middleware/sensors/vd6g/vd6g.c ****   VD6G_dbg(ctx, 0, "Set frame_length to %d to reach %d fps\n", frame_length, drv_ctx->config_save.f
 2421              		.loc 1 835 50 view .LVU711
 2422 059e 5343     		muls	r3, r2, r3
 835:Lib/Camera_Middleware/sensors/vd6g/vd6g.c ****   VD6G_dbg(ctx, 0, "Set frame_length to %d to reach %d fps\n", frame_length, drv_ctx->config_save.f
 2423              		.loc 1 835 35 view .LVU712
 2424 05a0 96FBF3F6 		sdiv	r6, r6, r3
 2425              	.LVL208:
 836:Lib/Camera_Middleware/sensors/vd6g/vd6g.c ****   ret = ctx->write16(ctx, VD6G_FRAME_LENGTH, frame_length);
 2426              		.loc 1 836 3 is_stmt 1 view .LVU713
 2427 05a4 2146     		mov	r1, r4
 2428 05a6 2846     		mov	r0, r5
 2429 05a8 0092     		str	r2, [sp]
 2430 05aa B3B2     		uxth	r3, r6
 2431 05ac 194A     		ldr	r2, .L193+68
 2432 05ae FFF7FEFF 		bl	VD6G_dbg.constprop.0
 2433              	.LVL209:
 837:Lib/Camera_Middleware/sensors/vd6g/vd6g.c ****   VD6G_TraceError(ctx, ret);
 2434              		.loc 1 837 3 view .LVU714
 837:Lib/Camera_Middleware/sensors/vd6g/vd6g.c ****   VD6G_TraceError(ctx, ret);
 2435              		.loc 1 837 9 is_stmt 0 view .LVU715
 2436 05b2 4FF48B61 		mov	r1, #1112
 2437 05b6 2846     		mov	r0, r5
 2438 05b8 6B69     		ldr	r3, [r5, #20]
 2439 05ba B2B2     		uxth	r2, r6
 2440 05bc 9847     		blx	r3
 2441              	.LVL210:
 838:Lib/Camera_Middleware/sensors/vd6g/vd6g.c **** 
 2442              		.loc 1 838 3 is_stmt 1 view .LVU716
 838:Lib/Camera_Middleware/sensors/vd6g/vd6g.c **** 
 2443              		.loc 1 838 3 view .LVU717
 2444 05be 0446     		mov	r4, r0
ARM GAS  /tmp/ccWHsT5O.s 			page 75


 2445 05c0 0028     		cmp	r0, #0
 2446 05c2 3FF49FAD 		beq	.L69
 838:Lib/Camera_Middleware/sensors/vd6g/vd6g.c **** 
 2447              		.loc 1 838 3 discriminator 1 view .LVU718
 2448 05c6 40F24633 		movw	r3, #838
 2449 05ca 0090     		str	r0, [sp]
 2450 05cc CDE7     		b	.L185
 2451              	.L194:
 2452 05ce 00BF     		.align	2
 2453              	.L193:
 2454 05d0 CF000000 		.word	.LC17
 2455 05d4 08010000 		.word	.LC18
 2456 05d8 00000000 		.word	__func__.21
 2457 05dc 00000000 		.word	__func__.20
 2458 05e0 B3000000 		.word	.LC15
 2459 05e4 00000000 		.word	.LANCHOR0
 2460 05e8 406F4001 		.word	21000000
 2461 05ec 001BB700 		.word	12000000
 2462 05f0 0011EC2F 		.word	804000000
 2463 05f4 3B010000 		.word	.LC20
 2464 05f8 4E010000 		.word	.LC21
 2465 05fc 5F010000 		.word	.LC22
 2466 0600 00000000 		.word	__func__.19
 2467 0604 1D010000 		.word	.LC19
 2468 0608 00000000 		.word	__func__.18
 2469 060c 6E010000 		.word	.LC23
 2470 0610 009D9509 		.word	160800000
 2471 0614 7D010000 		.word	.LC24
 2472              	.LBE103:
 2473              	.LBE117:
 2474              	.LBE120:
 2475              	.LBE127:
 2476              		.cfi_endproc
 2477              	.LFE35:
 2479              		.section	.text.VD6G_DeInit,"ax",%progbits
 2480              		.align	1
 2481              		.global	VD6G_DeInit
 2482              		.syntax unified
 2483              		.thumb
 2484              		.thumb_func
 2486              	VD6G_DeInit:
 2487              	.LVL211:
 2488              	.LFB36:
1090:Lib/Camera_Middleware/sensors/vd6g/vd6g.c **** 
1091:Lib/Camera_Middleware/sensors/vd6g/vd6g.c **** int VD6G_DeInit(VD6G_Ctx_t *ctx)
1092:Lib/Camera_Middleware/sensors/vd6g/vd6g.c **** {
 2489              		.loc 1 1092 1 view -0
 2490              		.cfi_startproc
 2491              		@ args = 0, pretend = 0, frame = 0
 2492              		@ frame_needed = 0, uses_anonymous_args = 0
1093:Lib/Camera_Middleware/sensors/vd6g/vd6g.c ****   struct drv_vd6g_ctx *drv_ctx = &ctx->ctx;
 2493              		.loc 1 1093 3 view .LVU720
1094:Lib/Camera_Middleware/sensors/vd6g/vd6g.c **** 
1095:Lib/Camera_Middleware/sensors/vd6g/vd6g.c ****   if (drv_ctx->is_streaming)
 2494              		.loc 1 1095 3 view .LVU721
1092:Lib/Camera_Middleware/sensors/vd6g/vd6g.c ****   struct drv_vd6g_ctx *drv_ctx = &ctx->ctx;
 2495              		.loc 1 1092 1 is_stmt 0 view .LVU722
ARM GAS  /tmp/ccWHsT5O.s 			page 76


 2496 0000 38B5     		push	{r3, r4, r5, lr}
 2497              		.cfi_def_cfa_offset 16
 2498              		.cfi_offset 3, -16
 2499              		.cfi_offset 4, -12
 2500              		.cfi_offset 5, -8
 2501              		.cfi_offset 14, -4
 2502              		.loc 1 1095 14 view .LVU723
 2503 0002 C56A     		ldr	r5, [r0, #44]
1092:Lib/Camera_Middleware/sensors/vd6g/vd6g.c ****   struct drv_vd6g_ctx *drv_ctx = &ctx->ctx;
 2504              		.loc 1 1092 1 view .LVU724
 2505 0004 0446     		mov	r4, r0
 2506              		.loc 1 1095 6 view .LVU725
 2507 0006 45B9     		cbnz	r5, .L197
1096:Lib/Camera_Middleware/sensors/vd6g/vd6g.c ****     return -1;
1097:Lib/Camera_Middleware/sensors/vd6g/vd6g.c **** 
1098:Lib/Camera_Middleware/sensors/vd6g/vd6g.c ****   ctx->shutdown_pin(ctx, 0);
 2508              		.loc 1 1098 3 is_stmt 1 view .LVU726
 2509 0008 0368     		ldr	r3, [r0]
 2510 000a 2946     		mov	r1, r5
 2511 000c 9847     		blx	r3
 2512              	.LVL212:
1099:Lib/Camera_Middleware/sensors/vd6g/vd6g.c ****   ctx->delay(ctx, 10);
 2513              		.loc 1 1099 3 view .LVU727
 2514 000e 0A21     		movs	r1, #10
 2515 0010 2046     		mov	r0, r4
 2516 0012 236A     		ldr	r3, [r4, #32]
 2517 0014 9847     		blx	r3
 2518              	.LVL213:
1100:Lib/Camera_Middleware/sensors/vd6g/vd6g.c **** 
1101:Lib/Camera_Middleware/sensors/vd6g/vd6g.c ****   return 0;
 2519              		.loc 1 1101 3 view .LVU728
 2520              	.L195:
1102:Lib/Camera_Middleware/sensors/vd6g/vd6g.c **** }
 2521              		.loc 1 1102 1 is_stmt 0 view .LVU729
 2522 0016 2846     		mov	r0, r5
 2523 0018 38BD     		pop	{r3, r4, r5, pc}
 2524              	.LVL214:
 2525              	.L197:
1096:Lib/Camera_Middleware/sensors/vd6g/vd6g.c **** 
 2526              		.loc 1 1096 12 view .LVU730
 2527 001a 4FF0FF35 		mov	r5, #-1
 2528 001e FAE7     		b	.L195
 2529              		.cfi_endproc
 2530              	.LFE36:
 2532              		.section	.rodata.VD6G_Start.str1.1,"aMS",%progbits,1
 2533              	.LC25:
 2534 0000 53747265 		.ascii	"Streaming is on\012\000"
 2534      616D696E 
 2534      67206973 
 2534      206F6E0A 
 2534      00
 2535              		.section	.text.VD6G_Start,"ax",%progbits
 2536              		.align	1
 2537              		.global	VD6G_Start
 2538              		.syntax unified
 2539              		.thumb
 2540              		.thumb_func
ARM GAS  /tmp/ccWHsT5O.s 			page 77


 2542              	VD6G_Start:
 2543              	.LVL215:
 2544              	.LFB37:
1103:Lib/Camera_Middleware/sensors/vd6g/vd6g.c **** 
1104:Lib/Camera_Middleware/sensors/vd6g/vd6g.c **** int VD6G_Start(VD6G_Ctx_t *ctx)
1105:Lib/Camera_Middleware/sensors/vd6g/vd6g.c **** {
 2545              		.loc 1 1105 1 is_stmt 1 view -0
 2546              		.cfi_startproc
 2547              		@ args = 0, pretend = 0, frame = 0
 2548              		@ frame_needed = 0, uses_anonymous_args = 0
1106:Lib/Camera_Middleware/sensors/vd6g/vd6g.c ****   struct drv_vd6g_ctx *drv_ctx = &ctx->ctx;
 2549              		.loc 1 1106 3 view .LVU732
1107:Lib/Camera_Middleware/sensors/vd6g/vd6g.c ****   int ret;
 2550              		.loc 1 1107 3 view .LVU733
1108:Lib/Camera_Middleware/sensors/vd6g/vd6g.c **** 
1109:Lib/Camera_Middleware/sensors/vd6g/vd6g.c ****   ret = VD6G_Setup(ctx);
 2551              		.loc 1 1109 3 view .LVU734
 2552              	.LBB148:
 2553              	.LBI148:
 972:Lib/Camera_Middleware/sensors/vd6g/vd6g.c **** {
 2554              		.loc 1 972 12 view .LVU735
 2555              	.LBB149:
 974:Lib/Camera_Middleware/sensors/vd6g/vd6g.c **** 
 2556              		.loc 1 974 3 view .LVU736
 976:Lib/Camera_Middleware/sensors/vd6g/vd6g.c ****   if (ret)
 2557              		.loc 1 976 3 view .LVU737
 2558              	.LBB150:
 2559              	.LBI150:
 724:Lib/Camera_Middleware/sensors/vd6g/vd6g.c **** {
 2560              		.loc 1 724 12 view .LVU738
 2561              	.LBB151:
 726:Lib/Camera_Middleware/sensors/vd6g/vd6g.c ****   uint16_t oif_ctrl;
 2562              		.loc 1 726 3 view .LVU739
 727:Lib/Camera_Middleware/sensors/vd6g/vd6g.c ****   int ret;
 2563              		.loc 1 727 3 view .LVU740
 728:Lib/Camera_Middleware/sensors/vd6g/vd6g.c **** 
 2564              		.loc 1 728 3 view .LVU741
 730:Lib/Camera_Middleware/sensors/vd6g/vd6g.c ****     return -1;
 2565              		.loc 1 730 3 view .LVU742
 730:Lib/Camera_Middleware/sensors/vd6g/vd6g.c ****     return -1;
 2566              		.loc 1 730 33 is_stmt 0 view .LVU743
 2567 0000 836C     		ldr	r3, [r0, #72]
 2568              	.LBE151:
 2569              	.LBE150:
 2570              	.LBE149:
 2571              	.LBE148:
1105:Lib/Camera_Middleware/sensors/vd6g/vd6g.c ****   struct drv_vd6g_ctx *drv_ctx = &ctx->ctx;
 2572              		.loc 1 1105 1 view .LVU744
 2573 0002 73B5     		push	{r0, r1, r4, r5, r6, lr}
 2574              		.cfi_def_cfa_offset 24
 2575              		.cfi_offset 4, -16
 2576              		.cfi_offset 5, -12
 2577              		.cfi_offset 6, -8
 2578              		.cfi_offset 14, -4
 2579              	.LBB178:
 2580              	.LBB175:
 2581              	.LBB156:
ARM GAS  /tmp/ccWHsT5O.s 			page 78


 2582              	.LBB152:
 730:Lib/Camera_Middleware/sensors/vd6g/vd6g.c ****     return -1;
 2583              		.loc 1 730 33 view .LVU745
 2584 0004 013B     		subs	r3, r3, #1
 730:Lib/Camera_Middleware/sensors/vd6g/vd6g.c ****     return -1;
 2585              		.loc 1 730 6 view .LVU746
 2586 0006 012B     		cmp	r3, #1
 2587              	.LBE152:
 2588              	.LBE156:
 2589              	.LBE175:
 2590              	.LBE178:
1105:Lib/Camera_Middleware/sensors/vd6g/vd6g.c ****   struct drv_vd6g_ctx *drv_ctx = &ctx->ctx;
 2591              		.loc 1 1105 1 view .LVU747
 2592 0008 0546     		mov	r5, r0
 2593              	.LBB179:
 2594              	.LBB176:
 2595              	.LBB157:
 2596              	.LBB153:
 730:Lib/Camera_Middleware/sensors/vd6g/vd6g.c ****     return -1;
 2597              		.loc 1 730 6 view .LVU748
 2598 000a 04D9     		bls	.L199
 2599              	.LVL216:
 2600              	.L208:
 730:Lib/Camera_Middleware/sensors/vd6g/vd6g.c ****     return -1;
 2601              		.loc 1 730 6 view .LVU749
 2602              	.LBE153:
 2603              	.LBE157:
 978:Lib/Camera_Middleware/sensors/vd6g/vd6g.c **** 
 2604              		.loc 1 978 12 view .LVU750
 2605 000c 4FF0FF34 		mov	r4, #-1
 2606              	.LVL217:
 2607              	.L198:
 978:Lib/Camera_Middleware/sensors/vd6g/vd6g.c **** 
 2608              		.loc 1 978 12 view .LVU751
 2609              	.LBE176:
 2610              	.LBE179:
1110:Lib/Camera_Middleware/sensors/vd6g/vd6g.c ****   if (ret)
1111:Lib/Camera_Middleware/sensors/vd6g/vd6g.c ****     return ret;
1112:Lib/Camera_Middleware/sensors/vd6g/vd6g.c **** 
1113:Lib/Camera_Middleware/sensors/vd6g/vd6g.c ****   ret = VD6G_StartStreaming(ctx);
1114:Lib/Camera_Middleware/sensors/vd6g/vd6g.c ****   if (ret)
1115:Lib/Camera_Middleware/sensors/vd6g/vd6g.c ****     return ret;
1116:Lib/Camera_Middleware/sensors/vd6g/vd6g.c ****   drv_ctx->is_streaming = 1;
1117:Lib/Camera_Middleware/sensors/vd6g/vd6g.c **** 
1118:Lib/Camera_Middleware/sensors/vd6g/vd6g.c ****   return 0;
1119:Lib/Camera_Middleware/sensors/vd6g/vd6g.c **** }
 2611              		.loc 1 1119 1 view .LVU752
 2612 0010 2046     		mov	r0, r4
 2613 0012 02B0     		add	sp, sp, #8
 2614              		.cfi_remember_state
 2615              		.cfi_def_cfa_offset 16
 2616              		@ sp needed
 2617 0014 70BD     		pop	{r4, r5, r6, pc}
 2618              	.LVL218:
 2619              	.L199:
 2620              		.cfi_restore_state
 2621              	.LBB180:
ARM GAS  /tmp/ccWHsT5O.s 			page 79


 2622              	.LBB177:
 2623              	.LBB158:
 2624              	.LBB154:
 733:Lib/Camera_Middleware/sensors/vd6g/vd6g.c ****   out_itf->data_lane0_swap_enable = !!out_itf->data_lane0_swap_enable;
 2625              		.loc 1 733 3 is_stmt 1 view .LVU753
 733:Lib/Camera_Middleware/sensors/vd6g/vd6g.c ****   out_itf->data_lane0_swap_enable = !!out_itf->data_lane0_swap_enable;
 2626              		.loc 1 733 37 is_stmt 0 view .LVU754
 2627 0016 C36C     		ldr	r3, [r0, #76]
 739:Lib/Camera_Middleware/sensors/vd6g/vd6g.c ****   VD6G_TraceError(ctx, ret);
 2628              		.loc 1 739 9 view .LVU755
 2629 0018 0822     		movs	r2, #8
 733:Lib/Camera_Middleware/sensors/vd6g/vd6g.c ****   out_itf->data_lane0_swap_enable = !!out_itf->data_lane0_swap_enable;
 2630              		.loc 1 733 37 view .LVU756
 2631 001a 003B     		subs	r3, r3, #0
 2632 001c 18BF     		it	ne
 2633 001e 0123     		movne	r3, #1
 733:Lib/Camera_Middleware/sensors/vd6g/vd6g.c ****   out_itf->data_lane0_swap_enable = !!out_itf->data_lane0_swap_enable;
 2634              		.loc 1 733 35 view .LVU757
 2635 0020 C364     		str	r3, [r0, #76]
 734:Lib/Camera_Middleware/sensors/vd6g/vd6g.c ****   out_itf->data_lane1_swap_enable = !!out_itf->data_lane1_swap_enable;
 2636              		.loc 1 734 3 is_stmt 1 view .LVU758
 734:Lib/Camera_Middleware/sensors/vd6g/vd6g.c ****   out_itf->data_lane1_swap_enable = !!out_itf->data_lane1_swap_enable;
 2637              		.loc 1 734 37 is_stmt 0 view .LVU759
 2638 0022 036D     		ldr	r3, [r0, #80]
 739:Lib/Camera_Middleware/sensors/vd6g/vd6g.c ****   VD6G_TraceError(ctx, ret);
 2639              		.loc 1 739 9 view .LVU760
 2640 0024 40F20A31 		movw	r1, #778
 734:Lib/Camera_Middleware/sensors/vd6g/vd6g.c ****   out_itf->data_lane1_swap_enable = !!out_itf->data_lane1_swap_enable;
 2641              		.loc 1 734 37 view .LVU761
 2642 0028 003B     		subs	r3, r3, #0
 2643 002a 18BF     		it	ne
 2644 002c 0123     		movne	r3, #1
 734:Lib/Camera_Middleware/sensors/vd6g/vd6g.c ****   out_itf->data_lane1_swap_enable = !!out_itf->data_lane1_swap_enable;
 2645              		.loc 1 734 35 view .LVU762
 2646 002e 0365     		str	r3, [r0, #80]
 735:Lib/Camera_Middleware/sensors/vd6g/vd6g.c ****   out_itf->data_lanes_mapping_swap_enable = !!out_itf->data_lanes_mapping_swap_enable;
 2647              		.loc 1 735 3 is_stmt 1 view .LVU763
 735:Lib/Camera_Middleware/sensors/vd6g/vd6g.c ****   out_itf->data_lanes_mapping_swap_enable = !!out_itf->data_lanes_mapping_swap_enable;
 2648              		.loc 1 735 37 is_stmt 0 view .LVU764
 2649 0030 436D     		ldr	r3, [r0, #84]
 2650 0032 003B     		subs	r3, r3, #0
 2651 0034 18BF     		it	ne
 2652 0036 0123     		movne	r3, #1
 735:Lib/Camera_Middleware/sensors/vd6g/vd6g.c ****   out_itf->data_lanes_mapping_swap_enable = !!out_itf->data_lanes_mapping_swap_enable;
 2653              		.loc 1 735 35 view .LVU765
 2654 0038 4365     		str	r3, [r0, #84]
 736:Lib/Camera_Middleware/sensors/vd6g/vd6g.c **** 
 2655              		.loc 1 736 3 is_stmt 1 view .LVU766
 736:Lib/Camera_Middleware/sensors/vd6g/vd6g.c **** 
 2656              		.loc 1 736 45 is_stmt 0 view .LVU767
 2657 003a 836D     		ldr	r3, [r0, #88]
 2658 003c 003B     		subs	r3, r3, #0
 2659 003e 18BF     		it	ne
 2660 0040 0123     		movne	r3, #1
 736:Lib/Camera_Middleware/sensors/vd6g/vd6g.c **** 
 2661              		.loc 1 736 43 view .LVU768
 2662 0042 8365     		str	r3, [r0, #88]
ARM GAS  /tmp/ccWHsT5O.s 			page 80


 739:Lib/Camera_Middleware/sensors/vd6g/vd6g.c ****   VD6G_TraceError(ctx, ret);
 2663              		.loc 1 739 3 is_stmt 1 view .LVU769
 739:Lib/Camera_Middleware/sensors/vd6g/vd6g.c ****   VD6G_TraceError(ctx, ret);
 2664              		.loc 1 739 9 is_stmt 0 view .LVU770
 2665 0044 0369     		ldr	r3, [r0, #16]
 2666 0046 9847     		blx	r3
 2667              	.LVL219:
 740:Lib/Camera_Middleware/sensors/vd6g/vd6g.c **** 
 2668              		.loc 1 740 3 is_stmt 1 view .LVU771
 740:Lib/Camera_Middleware/sensors/vd6g/vd6g.c **** 
 2669              		.loc 1 740 3 view .LVU772
 2670 0048 0446     		mov	r4, r0
 2671 004a E8B9     		cbnz	r0, .L201
 740:Lib/Camera_Middleware/sensors/vd6g/vd6g.c **** 
 2672              		.loc 1 740 3 discriminator 6 view .LVU773
 740:Lib/Camera_Middleware/sensors/vd6g/vd6g.c **** 
 2673              		.loc 1 740 3 discriminator 8 view .LVU774
 743:Lib/Camera_Middleware/sensors/vd6g/vd6g.c ****              !out_itf->data_lanes_mapping_swap_enable << 7 |
 2674              		.loc 1 743 3 view .LVU775
 743:Lib/Camera_Middleware/sensors/vd6g/vd6g.c ****              !out_itf->data_lanes_mapping_swap_enable << 7 |
 2675              		.loc 1 743 51 is_stmt 0 view .LVU776
 2676 004c D5E91503 		ldrd	r0, r3, [r5, #84]
 2677              	.LVL220:
 744:Lib/Camera_Middleware/sensors/vd6g/vd6g.c ****              out_itf->data_lane0_swap_enable << 6 |
 2678              		.loc 1 744 60 view .LVU777
 2679 0050 2A6D     		ldr	r2, [r5, #80]
 747:Lib/Camera_Middleware/sensors/vd6g/vd6g.c ****              out_itf->datalane_nb << 0;
 2680              		.loc 1 747 51 view .LVU778
 2681 0052 A96C     		ldr	r1, [r5, #72]
 744:Lib/Camera_Middleware/sensors/vd6g/vd6g.c ****              out_itf->data_lane0_swap_enable << 6 |
 2682              		.loc 1 744 60 view .LVU779
 2683 0054 9201     		lsls	r2, r2, #6
 747:Lib/Camera_Middleware/sensors/vd6g/vd6g.c ****              out_itf->datalane_nb << 0;
 2684              		.loc 1 747 51 view .LVU780
 2685 0056 42EA4022 		orr	r2, r2, r0, lsl #9
 2686 005a 0A43     		orrs	r2, r2, r1
 2687 005c 42EA0312 		orr	r2, r2, r3, lsl #4
 743:Lib/Camera_Middleware/sensors/vd6g/vd6g.c ****              !out_itf->data_lanes_mapping_swap_enable << 7 |
 2688              		.loc 1 743 51 view .LVU781
 2689 0060 B3FA83F3 		clz	r3, r3
 746:Lib/Camera_Middleware/sensors/vd6g/vd6g.c ****              out_itf->clock_lane_swap_enable << 3 |
 2690              		.loc 1 746 59 view .LVU782
 2691 0064 E96C     		ldr	r1, [r5, #76]
 743:Lib/Camera_Middleware/sensors/vd6g/vd6g.c ****              !out_itf->data_lanes_mapping_swap_enable << 7 |
 2692              		.loc 1 743 51 view .LVU783
 2693 0066 5B09     		lsrs	r3, r3, #5
 747:Lib/Camera_Middleware/sensors/vd6g/vd6g.c ****              out_itf->datalane_nb << 0;
 2694              		.loc 1 747 51 view .LVU784
 2695 0068 42EAC102 		orr	r2, r2, r1, lsl #3
 2696 006c 42EAC312 		orr	r2, r2, r3, lsl #7
 749:Lib/Camera_Middleware/sensors/vd6g/vd6g.c ****   VD6G_TraceError(ctx, ret);
 2697              		.loc 1 749 9 view .LVU785
 2698 0070 4FF44371 		mov	r1, #780
 2699 0074 2846     		mov	r0, r5
 2700 0076 6B69     		ldr	r3, [r5, #20]
 2701 0078 92B2     		uxth	r2, r2
 2702 007a 9847     		blx	r3
ARM GAS  /tmp/ccWHsT5O.s 			page 81


 2703              	.LVL221:
 750:Lib/Camera_Middleware/sensors/vd6g/vd6g.c **** 
 2704              		.loc 1 750 3 is_stmt 1 view .LVU786
 750:Lib/Camera_Middleware/sensors/vd6g/vd6g.c **** 
 2705              		.loc 1 750 3 view .LVU787
 2706 007c 0446     		mov	r4, r0
 2707 007e 78B1     		cbz	r0, .L233
 750:Lib/Camera_Middleware/sensors/vd6g/vd6g.c **** 
 2708              		.loc 1 750 3 discriminator 1 view .LVU788
 2709 0080 40F2EE23 		movw	r3, #750
 2710 0084 0090     		str	r0, [sp]
 2711 0086 02E0     		b	.L239
 2712              	.L201:
 740:Lib/Camera_Middleware/sensors/vd6g/vd6g.c **** 
 2713              		.loc 1 740 3 discriminator 1 view .LVU789
 2714 0088 4FF43973 		mov	r3, #740
 2715 008c 0090     		str	r0, [sp]
 2716              	.L239:
 750:Lib/Camera_Middleware/sensors/vd6g/vd6g.c **** 
 2717              		.loc 1 750 3 is_stmt 0 discriminator 1 view .LVU790
 2718 008e 744A     		ldr	r2, .L243
 2719              	.LVL222:
 2720              	.L240:
 750:Lib/Camera_Middleware/sensors/vd6g/vd6g.c **** 
 2721              		.loc 1 750 3 discriminator 1 view .LVU791
 2722 0090 2846     		mov	r0, r5
 2723 0092 7449     		ldr	r1, .L243+4
 2724 0094 FFF7FEFF 		bl	VD6G_error
 2725              	.LVL223:
 750:Lib/Camera_Middleware/sensors/vd6g/vd6g.c **** 
 2726              		.loc 1 750 3 is_stmt 1 discriminator 3 view .LVU792
 750:Lib/Camera_Middleware/sensors/vd6g/vd6g.c **** 
 2727              		.loc 1 750 3 discriminator 4 view .LVU793
 2728 0098 2846     		mov	r0, r5
 2729 009a FFF7FEFF 		bl	display_error
 2730              	.LVL224:
 750:Lib/Camera_Middleware/sensors/vd6g/vd6g.c **** 
 2731              		.loc 1 750 3 discriminator 6 view .LVU794
 750:Lib/Camera_Middleware/sensors/vd6g/vd6g.c **** 
 2732              		.loc 1 750 3 discriminator 7 view .LVU795
 750:Lib/Camera_Middleware/sensors/vd6g/vd6g.c **** 
 2733              		.loc 1 750 3 is_stmt 0 discriminator 7 view .LVU796
 2734              	.LBE154:
 2735              	.LBE158:
 977:Lib/Camera_Middleware/sensors/vd6g/vd6g.c ****     return ret;
 2736              		.loc 1 977 3 is_stmt 1 view .LVU797
 2737 009e B7E7     		b	.L198
 2738              	.LVL225:
 2739              	.L233:
 2740              	.LBB159:
 2741              	.LBB155:
 750:Lib/Camera_Middleware/sensors/vd6g/vd6g.c **** 
 2742              		.loc 1 750 3 discriminator 3 view .LVU798
 750:Lib/Camera_Middleware/sensors/vd6g/vd6g.c **** 
 2743              		.loc 1 750 3 discriminator 6 view .LVU799
 750:Lib/Camera_Middleware/sensors/vd6g/vd6g.c **** 
 2744              		.loc 1 750 3 discriminator 8 view .LVU800
ARM GAS  /tmp/ccWHsT5O.s 			page 82


 753:Lib/Camera_Middleware/sensors/vd6g/vd6g.c ****   VD6G_TraceError(ctx, ret);
 2745              		.loc 1 753 3 view .LVU801
 753:Lib/Camera_Middleware/sensors/vd6g/vd6g.c ****   VD6G_TraceError(ctx, ret);
 2746              		.loc 1 753 9 is_stmt 0 view .LVU802
 2747 00a0 4FF44972 		mov	r2, #804
 2748 00a4 40F21231 		movw	r1, #786
 2749 00a8 2846     		mov	r0, r5
 2750              	.LVL226:
 753:Lib/Camera_Middleware/sensors/vd6g/vd6g.c ****   VD6G_TraceError(ctx, ret);
 2751              		.loc 1 753 9 view .LVU803
 2752 00aa 6B69     		ldr	r3, [r5, #20]
 2753 00ac 9847     		blx	r3
 2754              	.LVL227:
 754:Lib/Camera_Middleware/sensors/vd6g/vd6g.c **** 
 2755              		.loc 1 754 3 is_stmt 1 view .LVU804
 754:Lib/Camera_Middleware/sensors/vd6g/vd6g.c **** 
 2756              		.loc 1 754 3 view .LVU805
 2757 00ae 0446     		mov	r4, r0
 2758 00b0 18B1     		cbz	r0, .L234
 754:Lib/Camera_Middleware/sensors/vd6g/vd6g.c **** 
 2759              		.loc 1 754 3 discriminator 1 view .LVU806
 2760 00b2 40F2F223 		movw	r3, #754
 2761 00b6 0090     		str	r0, [sp]
 2762 00b8 E9E7     		b	.L239
 2763              	.L234:
 754:Lib/Camera_Middleware/sensors/vd6g/vd6g.c **** 
 2764              		.loc 1 754 3 discriminator 3 view .LVU807
 754:Lib/Camera_Middleware/sensors/vd6g/vd6g.c **** 
 2765              		.loc 1 754 3 discriminator 6 view .LVU808
 754:Lib/Camera_Middleware/sensors/vd6g/vd6g.c **** 
 2766              		.loc 1 754 3 discriminator 8 view .LVU809
 757:Lib/Camera_Middleware/sensors/vd6g/vd6g.c ****   VD6G_TraceError(ctx, ret);
 2767              		.loc 1 757 3 view .LVU810
 757:Lib/Camera_Middleware/sensors/vd6g/vd6g.c ****   VD6G_TraceError(ctx, ret);
 2768              		.loc 1 757 9 is_stmt 0 view .LVU811
 2769 00ba 2A22     		movs	r2, #42
 2770 00bc 40F20F31 		movw	r1, #783
 2771 00c0 2846     		mov	r0, r5
 2772              	.LVL228:
 757:Lib/Camera_Middleware/sensors/vd6g/vd6g.c ****   VD6G_TraceError(ctx, ret);
 2773              		.loc 1 757 9 view .LVU812
 2774 00c2 2B69     		ldr	r3, [r5, #16]
 2775 00c4 9847     		blx	r3
 2776              	.LVL229:
 758:Lib/Camera_Middleware/sensors/vd6g/vd6g.c **** 
 2777              		.loc 1 758 3 is_stmt 1 view .LVU813
 758:Lib/Camera_Middleware/sensors/vd6g/vd6g.c **** 
 2778              		.loc 1 758 3 view .LVU814
 2779 00c6 0446     		mov	r4, r0
 2780 00c8 18B1     		cbz	r0, .L235
 758:Lib/Camera_Middleware/sensors/vd6g/vd6g.c **** 
 2781              		.loc 1 758 3 discriminator 1 view .LVU815
 2782 00ca 40F2F623 		movw	r3, #758
 2783 00ce 0090     		str	r0, [sp]
 2784 00d0 DDE7     		b	.L239
 2785              	.L235:
 2786              	.LVL230:
ARM GAS  /tmp/ccWHsT5O.s 			page 83


 758:Lib/Camera_Middleware/sensors/vd6g/vd6g.c **** 
 2787              		.loc 1 758 3 is_stmt 0 discriminator 1 view .LVU816
 2788              	.LBE155:
 2789              	.LBE159:
 977:Lib/Camera_Middleware/sensors/vd6g/vd6g.c ****     return ret;
 2790              		.loc 1 977 3 is_stmt 1 view .LVU817
 980:Lib/Camera_Middleware/sensors/vd6g/vd6g.c ****   if (ret)
 2791              		.loc 1 980 3 view .LVU818
 2792              	.LBB160:
 2793              	.LBI160:
 798:Lib/Camera_Middleware/sensors/vd6g/vd6g.c **** {
 2794              		.loc 1 798 12 view .LVU819
 2795              	.LBB161:
 800:Lib/Camera_Middleware/sensors/vd6g/vd6g.c ****   const struct vdg_mode *mode;
 2796              		.loc 1 800 3 view .LVU820
 801:Lib/Camera_Middleware/sensors/vd6g/vd6g.c ****   int ret;
 2797              		.loc 1 801 3 view .LVU821
 802:Lib/Camera_Middleware/sensors/vd6g/vd6g.c **** 
 2798              		.loc 1 802 3 view .LVU822
 804:Lib/Camera_Middleware/sensors/vd6g/vd6g.c ****   if (!mode)
 2799              		.loc 1 804 3 view .LVU823
 804:Lib/Camera_Middleware/sensors/vd6g/vd6g.c ****   if (!mode)
 2800              		.loc 1 804 10 is_stmt 0 view .LVU824
 2801 00d2 95F83430 		ldrb	r3, [r5, #52]	@ zero_extendqisi2
 2802              	.LVL231:
 2803              	.LBB162:
 2804              	.LBI162:
 763:Lib/Camera_Middleware/sensors/vd6g/vd6g.c **** {
 2805              		.loc 1 763 31 is_stmt 1 view .LVU825
 765:Lib/Camera_Middleware/sensors/vd6g/vd6g.c ****   case VD6G_RES_QVGA_320_240:
 2806              		.loc 1 765 3 view .LVU826
 2807 00d6 082B     		cmp	r3, #8
 2808 00d8 98D8     		bhi	.L208
 2809 00da 634A     		ldr	r2, .L243+8
 2810 00dc 52F82360 		ldr	r6, [r2, r3, lsl #2]
 2811              	.LVL232:
 765:Lib/Camera_Middleware/sensors/vd6g/vd6g.c ****   case VD6G_RES_QVGA_320_240:
 2812              		.loc 1 765 3 is_stmt 0 view .LVU827
 2813              	.LBE162:
 805:Lib/Camera_Middleware/sensors/vd6g/vd6g.c ****     return -1;
 2814              		.loc 1 805 3 is_stmt 1 view .LVU828
 805:Lib/Camera_Middleware/sensors/vd6g/vd6g.c ****     return -1;
 2815              		.loc 1 805 6 is_stmt 0 view .LVU829
 2816 00e0 002E     		cmp	r6, #0
 2817 00e2 93D0     		beq	.L208
 808:Lib/Camera_Middleware/sensors/vd6g/vd6g.c ****   VD6G_TraceError(ctx, ret);
 2818              		.loc 1 808 3 is_stmt 1 view .LVU830
 808:Lib/Camera_Middleware/sensors/vd6g/vd6g.c ****   VD6G_TraceError(ctx, ret);
 2819              		.loc 1 808 9 is_stmt 0 view .LVU831
 2820 00e4 40F27E41 		movw	r1, #1150
 2821 00e8 2846     		mov	r0, r5
 2822 00ea 2B69     		ldr	r3, [r5, #16]
 2823 00ec 327A     		ldrb	r2, [r6, #8]	@ zero_extendqisi2
 2824 00ee 9847     		blx	r3
 2825              	.LVL233:
 809:Lib/Camera_Middleware/sensors/vd6g/vd6g.c **** 
 2826              		.loc 1 809 3 is_stmt 1 view .LVU832
ARM GAS  /tmp/ccWHsT5O.s 			page 84


 809:Lib/Camera_Middleware/sensors/vd6g/vd6g.c **** 
 2827              		.loc 1 809 3 view .LVU833
 2828 00f0 0446     		mov	r4, r0
 2829 00f2 20B1     		cbz	r0, .L209
 809:Lib/Camera_Middleware/sensors/vd6g/vd6g.c **** 
 2830              		.loc 1 809 3 discriminator 1 view .LVU834
 2831 00f4 40F22933 		movw	r3, #809
 2832 00f8 0090     		str	r0, [sp]
 2833              	.L242:
 819:Lib/Camera_Middleware/sensors/vd6g/vd6g.c **** 
 2834              		.loc 1 819 3 is_stmt 0 discriminator 1 view .LVU835
 2835 00fa 5C4A     		ldr	r2, .L243+12
 2836 00fc C8E7     		b	.L240
 2837              	.L209:
 809:Lib/Camera_Middleware/sensors/vd6g/vd6g.c **** 
 2838              		.loc 1 809 3 is_stmt 1 discriminator 6 view .LVU836
 809:Lib/Camera_Middleware/sensors/vd6g/vd6g.c **** 
 2839              		.loc 1 809 3 discriminator 8 view .LVU837
 811:Lib/Camera_Middleware/sensors/vd6g/vd6g.c ****   VD6G_TraceError(ctx, ret);
 2840              		.loc 1 811 3 view .LVU838
 811:Lib/Camera_Middleware/sensors/vd6g/vd6g.c ****   VD6G_TraceError(ctx, ret);
 2841              		.loc 1 811 9 is_stmt 0 view .LVU839
 2842 00fe 40F25E41 		movw	r1, #1118
 2843 0102 2846     		mov	r0, r5
 2844              	.LVL234:
 811:Lib/Camera_Middleware/sensors/vd6g/vd6g.c ****   VD6G_TraceError(ctx, ret);
 2845              		.loc 1 811 9 view .LVU840
 2846 0104 6B69     		ldr	r3, [r5, #20]
 2847 0106 B289     		ldrh	r2, [r6, #12]
 2848 0108 9847     		blx	r3
 2849              	.LVL235:
 812:Lib/Camera_Middleware/sensors/vd6g/vd6g.c ****   ret = ctx->write16(ctx, VD6G_REG_OUT_ROI_X_END, mode->crop.left + mode->crop.width - 1);
 2850              		.loc 1 812 3 is_stmt 1 view .LVU841
 812:Lib/Camera_Middleware/sensors/vd6g/vd6g.c ****   ret = ctx->write16(ctx, VD6G_REG_OUT_ROI_X_END, mode->crop.left + mode->crop.width - 1);
 2851              		.loc 1 812 3 view .LVU842
 2852 010a 0446     		mov	r4, r0
 2853 010c 78B9     		cbnz	r0, .L210
 812:Lib/Camera_Middleware/sensors/vd6g/vd6g.c ****   ret = ctx->write16(ctx, VD6G_REG_OUT_ROI_X_END, mode->crop.left + mode->crop.width - 1);
 2854              		.loc 1 812 3 discriminator 3 view .LVU843
 812:Lib/Camera_Middleware/sensors/vd6g/vd6g.c ****   ret = ctx->write16(ctx, VD6G_REG_OUT_ROI_X_END, mode->crop.left + mode->crop.width - 1);
 2855              		.loc 1 812 3 discriminator 6 view .LVU844
 812:Lib/Camera_Middleware/sensors/vd6g/vd6g.c ****   ret = ctx->write16(ctx, VD6G_REG_OUT_ROI_X_END, mode->crop.left + mode->crop.width - 1);
 2856              		.loc 1 812 3 discriminator 8 view .LVU845
 813:Lib/Camera_Middleware/sensors/vd6g/vd6g.c ****   VD6G_TraceError(ctx, ret);
 2857              		.loc 1 813 3 view .LVU846
 813:Lib/Camera_Middleware/sensors/vd6g/vd6g.c ****   VD6G_TraceError(ctx, ret);
 2858              		.loc 1 813 67 is_stmt 0 view .LVU847
 2859 010e 7369     		ldr	r3, [r6, #20]
 2860 0110 F268     		ldr	r2, [r6, #12]
 813:Lib/Camera_Middleware/sensors/vd6g/vd6g.c ****   VD6G_TraceError(ctx, ret);
 2861              		.loc 1 813 9 view .LVU848
 2862 0112 4FF48C61 		mov	r1, #1120
 813:Lib/Camera_Middleware/sensors/vd6g/vd6g.c ****   VD6G_TraceError(ctx, ret);
 2863              		.loc 1 813 67 view .LVU849
 2864 0116 1A44     		add	r2, r2, r3
 813:Lib/Camera_Middleware/sensors/vd6g/vd6g.c ****   VD6G_TraceError(ctx, ret);
 2865              		.loc 1 813 9 view .LVU850
ARM GAS  /tmp/ccWHsT5O.s 			page 85


 2866 0118 013A     		subs	r2, r2, #1
 2867 011a 2846     		mov	r0, r5
 2868              	.LVL236:
 813:Lib/Camera_Middleware/sensors/vd6g/vd6g.c ****   VD6G_TraceError(ctx, ret);
 2869              		.loc 1 813 9 view .LVU851
 2870 011c 6B69     		ldr	r3, [r5, #20]
 2871 011e 92B2     		uxth	r2, r2
 2872 0120 9847     		blx	r3
 2873              	.LVL237:
 814:Lib/Camera_Middleware/sensors/vd6g/vd6g.c **** 
 2874              		.loc 1 814 3 is_stmt 1 view .LVU852
 814:Lib/Camera_Middleware/sensors/vd6g/vd6g.c **** 
 2875              		.loc 1 814 3 view .LVU853
 2876 0122 0446     		mov	r4, r0
 2877 0124 38B1     		cbz	r0, .L236
 814:Lib/Camera_Middleware/sensors/vd6g/vd6g.c **** 
 2878              		.loc 1 814 3 discriminator 1 view .LVU854
 2879 0126 40F22E33 		movw	r3, #814
 2880 012a 0090     		str	r0, [sp]
 2881 012c E5E7     		b	.L242
 2882              	.L210:
 812:Lib/Camera_Middleware/sensors/vd6g/vd6g.c ****   ret = ctx->write16(ctx, VD6G_REG_OUT_ROI_X_END, mode->crop.left + mode->crop.width - 1);
 2883              		.loc 1 812 3 discriminator 1 view .LVU855
 2884 012e 4FF44B73 		mov	r3, #812
 2885 0132 0090     		str	r0, [sp]
 2886 0134 E1E7     		b	.L242
 2887              	.L236:
 814:Lib/Camera_Middleware/sensors/vd6g/vd6g.c **** 
 2888              		.loc 1 814 3 discriminator 3 view .LVU856
 814:Lib/Camera_Middleware/sensors/vd6g/vd6g.c **** 
 2889              		.loc 1 814 3 discriminator 6 view .LVU857
 814:Lib/Camera_Middleware/sensors/vd6g/vd6g.c **** 
 2890              		.loc 1 814 3 discriminator 8 view .LVU858
 816:Lib/Camera_Middleware/sensors/vd6g/vd6g.c ****   VD6G_TraceError(ctx, ret);
 2891              		.loc 1 816 3 view .LVU859
 816:Lib/Camera_Middleware/sensors/vd6g/vd6g.c ****   VD6G_TraceError(ctx, ret);
 2892              		.loc 1 816 9 is_stmt 0 view .LVU860
 2893 0136 40F26241 		movw	r1, #1122
 2894 013a 2846     		mov	r0, r5
 2895              	.LVL238:
 816:Lib/Camera_Middleware/sensors/vd6g/vd6g.c ****   VD6G_TraceError(ctx, ret);
 2896              		.loc 1 816 9 view .LVU861
 2897 013c 6B69     		ldr	r3, [r5, #20]
 2898 013e 328A     		ldrh	r2, [r6, #16]
 2899 0140 9847     		blx	r3
 2900              	.LVL239:
 817:Lib/Camera_Middleware/sensors/vd6g/vd6g.c ****   ret = ctx->write16(ctx, VD6G_REG_OUT_ROI_Y_END, mode->crop.top + mode->crop.height - 1);
 2901              		.loc 1 817 3 is_stmt 1 view .LVU862
 817:Lib/Camera_Middleware/sensors/vd6g/vd6g.c ****   ret = ctx->write16(ctx, VD6G_REG_OUT_ROI_Y_END, mode->crop.top + mode->crop.height - 1);
 2902              		.loc 1 817 3 view .LVU863
 2903 0142 0446     		mov	r4, r0
 2904 0144 18B1     		cbz	r0, .L237
 817:Lib/Camera_Middleware/sensors/vd6g/vd6g.c ****   ret = ctx->write16(ctx, VD6G_REG_OUT_ROI_Y_END, mode->crop.top + mode->crop.height - 1);
 2905              		.loc 1 817 3 discriminator 1 view .LVU864
 2906 0146 40F23133 		movw	r3, #817
 2907 014a 0090     		str	r0, [sp]
 2908 014c D5E7     		b	.L242
ARM GAS  /tmp/ccWHsT5O.s 			page 86


 2909              	.L237:
 817:Lib/Camera_Middleware/sensors/vd6g/vd6g.c ****   ret = ctx->write16(ctx, VD6G_REG_OUT_ROI_Y_END, mode->crop.top + mode->crop.height - 1);
 2910              		.loc 1 817 3 discriminator 3 view .LVU865
 817:Lib/Camera_Middleware/sensors/vd6g/vd6g.c ****   ret = ctx->write16(ctx, VD6G_REG_OUT_ROI_Y_END, mode->crop.top + mode->crop.height - 1);
 2911              		.loc 1 817 3 discriminator 6 view .LVU866
 817:Lib/Camera_Middleware/sensors/vd6g/vd6g.c ****   ret = ctx->write16(ctx, VD6G_REG_OUT_ROI_Y_END, mode->crop.top + mode->crop.height - 1);
 2912              		.loc 1 817 3 discriminator 8 view .LVU867
 818:Lib/Camera_Middleware/sensors/vd6g/vd6g.c ****   VD6G_TraceError(ctx, ret);
 2913              		.loc 1 818 3 view .LVU868
 818:Lib/Camera_Middleware/sensors/vd6g/vd6g.c ****   VD6G_TraceError(ctx, ret);
 2914              		.loc 1 818 66 is_stmt 0 view .LVU869
 2915 014e B369     		ldr	r3, [r6, #24]
 2916 0150 3269     		ldr	r2, [r6, #16]
 818:Lib/Camera_Middleware/sensors/vd6g/vd6g.c ****   VD6G_TraceError(ctx, ret);
 2917              		.loc 1 818 9 view .LVU870
 2918 0152 40F26441 		movw	r1, #1124
 818:Lib/Camera_Middleware/sensors/vd6g/vd6g.c ****   VD6G_TraceError(ctx, ret);
 2919              		.loc 1 818 66 view .LVU871
 2920 0156 1A44     		add	r2, r2, r3
 818:Lib/Camera_Middleware/sensors/vd6g/vd6g.c ****   VD6G_TraceError(ctx, ret);
 2921              		.loc 1 818 9 view .LVU872
 2922 0158 013A     		subs	r2, r2, #1
 2923 015a 2846     		mov	r0, r5
 2924              	.LVL240:
 818:Lib/Camera_Middleware/sensors/vd6g/vd6g.c ****   VD6G_TraceError(ctx, ret);
 2925              		.loc 1 818 9 view .LVU873
 2926 015c 6B69     		ldr	r3, [r5, #20]
 2927 015e 92B2     		uxth	r2, r2
 2928 0160 9847     		blx	r3
 2929              	.LVL241:
 819:Lib/Camera_Middleware/sensors/vd6g/vd6g.c **** 
 2930              		.loc 1 819 3 is_stmt 1 view .LVU874
 819:Lib/Camera_Middleware/sensors/vd6g/vd6g.c **** 
 2931              		.loc 1 819 3 view .LVU875
 2932 0162 0446     		mov	r4, r0
 2933 0164 18B1     		cbz	r0, .L238
 819:Lib/Camera_Middleware/sensors/vd6g/vd6g.c **** 
 2934              		.loc 1 819 3 discriminator 1 view .LVU876
 2935 0166 40F23333 		movw	r3, #819
 2936 016a 0090     		str	r0, [sp]
 2937 016c C5E7     		b	.L242
 2938              	.L238:
 2939              	.LVL242:
 819:Lib/Camera_Middleware/sensors/vd6g/vd6g.c **** 
 2940              		.loc 1 819 3 is_stmt 0 discriminator 1 view .LVU877
 2941              	.LBE161:
 2942              	.LBE160:
 981:Lib/Camera_Middleware/sensors/vd6g/vd6g.c ****     return ret;
 2943              		.loc 1 981 3 is_stmt 1 view .LVU878
 984:Lib/Camera_Middleware/sensors/vd6g/vd6g.c ****   if (ret)
 2944              		.loc 1 984 3 view .LVU879
 2945              	.LBB163:
 2946              	.LBI163:
 843:Lib/Camera_Middleware/sensors/vd6g/vd6g.c **** {
 2947              		.loc 1 843 12 view .LVU880
 2948              	.LBB164:
 845:Lib/Camera_Middleware/sensors/vd6g/vd6g.c **** 
ARM GAS  /tmp/ccWHsT5O.s 			page 87


 2949              		.loc 1 845 3 view .LVU881
 847:Lib/Camera_Middleware/sensors/vd6g/vd6g.c **** }
 2950              		.loc 1 847 3 view .LVU882
 847:Lib/Camera_Middleware/sensors/vd6g/vd6g.c **** }
 2951              		.loc 1 847 10 is_stmt 0 view .LVU883
 2952 016e 2846     		mov	r0, r5
 2953 0170 95F86410 		ldrb	r1, [r5, #100]	@ zero_extendqisi2
 2954 0174 FFF7FEFF 		bl	VD6G_SetExposureModeInternal
 2955              	.LVL243:
 847:Lib/Camera_Middleware/sensors/vd6g/vd6g.c **** }
 2956              		.loc 1 847 10 view .LVU884
 2957              	.LBE164:
 2958              	.LBE163:
 985:Lib/Camera_Middleware/sensors/vd6g/vd6g.c ****     return ret;
 2959              		.loc 1 985 3 is_stmt 1 view .LVU885
 985:Lib/Camera_Middleware/sensors/vd6g/vd6g.c ****     return ret;
 2960              		.loc 1 985 6 is_stmt 0 view .LVU886
 2961 0178 0446     		mov	r4, r0
 2962 017a 0028     		cmp	r0, #0
 2963 017c 7FF448AF 		bne	.L198
 988:Lib/Camera_Middleware/sensors/vd6g/vd6g.c ****   if (ret)
 2964              		.loc 1 988 3 is_stmt 1 view .LVU887
 2965              	.LVL244:
 2966              	.LBB165:
 2967              	.LBI165:
 850:Lib/Camera_Middleware/sensors/vd6g/vd6g.c **** {
 2968              		.loc 1 850 12 view .LVU888
 2969              	.LBB166:
 852:Lib/Camera_Middleware/sensors/vd6g/vd6g.c ****   uint8_t mode;
 2970              		.loc 1 852 3 view .LVU889
 853:Lib/Camera_Middleware/sensors/vd6g/vd6g.c ****   int ret;
 2971              		.loc 1 853 3 view .LVU890
 854:Lib/Camera_Middleware/sensors/vd6g/vd6g.c **** 
 2972              		.loc 1 854 3 view .LVU891
 856:Lib/Camera_Middleware/sensors/vd6g/vd6g.c ****   case VD6G_MIRROR_FLIP_NONE:
 2973              		.loc 1 856 3 view .LVU892
 856:Lib/Camera_Middleware/sensors/vd6g/vd6g.c ****   case VD6G_MIRROR_FLIP_NONE:
 2974              		.loc 1 856 31 is_stmt 0 view .LVU893
 2975 0180 95F83C30 		ldrb	r3, [r5, #60]	@ zero_extendqisi2
 2976 0184 032B     		cmp	r3, #3
 2977 0186 3FF641AF 		bhi	.L208
 2978              	.LVL245:
 873:Lib/Camera_Middleware/sensors/vd6g/vd6g.c ****   VD6G_TraceError(ctx, ret);
 2979              		.loc 1 873 3 is_stmt 1 view .LVU894
 873:Lib/Camera_Middleware/sensors/vd6g/vd6g.c ****   VD6G_TraceError(ctx, ret);
 2980              		.loc 1 873 9 is_stmt 0 view .LVU895
 2981 018a 394A     		ldr	r2, .L243+16
 2982 018c 2C69     		ldr	r4, [r5, #16]
 2983 018e 40F20231 		movw	r1, #770
 2984 0192 2846     		mov	r0, r5
 2985              	.LVL246:
 873:Lib/Camera_Middleware/sensors/vd6g/vd6g.c ****   VD6G_TraceError(ctx, ret);
 2986              		.loc 1 873 9 view .LVU896
 2987 0194 D25C     		ldrb	r2, [r2, r3]	@ zero_extendqisi2
 2988 0196 A047     		blx	r4
 2989              	.LVL247:
 874:Lib/Camera_Middleware/sensors/vd6g/vd6g.c **** 
ARM GAS  /tmp/ccWHsT5O.s 			page 88


 2990              		.loc 1 874 3 is_stmt 1 view .LVU897
 874:Lib/Camera_Middleware/sensors/vd6g/vd6g.c **** 
 2991              		.loc 1 874 3 view .LVU898
 2992 0198 0446     		mov	r4, r0
 2993 019a A8B9     		cbnz	r0, .L217
 2994              	.LVL248:
 874:Lib/Camera_Middleware/sensors/vd6g/vd6g.c **** 
 2995              		.loc 1 874 3 is_stmt 0 view .LVU899
 2996              	.LBE166:
 2997              	.LBE165:
 989:Lib/Camera_Middleware/sensors/vd6g/vd6g.c ****     return ret;
 2998              		.loc 1 989 3 is_stmt 1 view .LVU900
 992:Lib/Camera_Middleware/sensors/vd6g/vd6g.c ****   if (ret)
 2999              		.loc 1 992 3 view .LVU901
 3000              	.LBB168:
 3001              	.LBI168:
 879:Lib/Camera_Middleware/sensors/vd6g/vd6g.c **** {
 3002              		.loc 1 879 12 view .LVU902
 3003              	.LBB169:
 881:Lib/Camera_Middleware/sensors/vd6g/vd6g.c ****   uint16_t value = VD6G_PATGEN_CTRL_DISABLE;
 3004              		.loc 1 881 3 view .LVU903
 882:Lib/Camera_Middleware/sensors/vd6g/vd6g.c ****   int ret;
 3005              		.loc 1 882 3 view .LVU904
 883:Lib/Camera_Middleware/sensors/vd6g/vd6g.c **** 
 3006              		.loc 1 883 3 view .LVU905
 885:Lib/Camera_Middleware/sensors/vd6g/vd6g.c ****   case VD6G_PATGEN_DISABLE:
 3007              		.loc 1 885 3 view .LVU906
 885:Lib/Camera_Middleware/sensors/vd6g/vd6g.c ****   case VD6G_PATGEN_DISABLE:
 3008              		.loc 1 885 31 is_stmt 0 view .LVU907
 3009 019c 95F84430 		ldrb	r3, [r5, #68]	@ zero_extendqisi2
 3010 01a0 062B     		cmp	r3, #6
 3011 01a2 3FF633AF 		bhi	.L208
 3012 01a6 334A     		ldr	r2, .L243+20
 3013 01a8 32F81360 		ldrh	r6, [r2, r3, lsl #1]
 3014              	.LVL249:
 911:Lib/Camera_Middleware/sensors/vd6g/vd6g.c ****   {
 3015              		.loc 1 911 3 is_stmt 1 view .LVU908
 911:Lib/Camera_Middleware/sensors/vd6g/vd6g.c ****   {
 3016              		.loc 1 911 6 is_stmt 0 view .LVU909
 3017 01ac EBB1     		cbz	r3, .L219
 913:Lib/Camera_Middleware/sensors/vd6g/vd6g.c ****     VD6G_TraceError(ctx, ret);
 3018              		.loc 1 913 5 is_stmt 1 view .LVU910
 913:Lib/Camera_Middleware/sensors/vd6g/vd6g.c ****     VD6G_TraceError(ctx, ret);
 3019              		.loc 1 913 11 is_stmt 0 view .LVU911
 3020 01ae 0246     		mov	r2, r0
 3021 01b0 4FF44671 		mov	r1, #792
 3022 01b4 2846     		mov	r0, r5
 3023 01b6 2B69     		ldr	r3, [r5, #16]
 3024 01b8 9847     		blx	r3
 3025              	.LVL250:
 914:Lib/Camera_Middleware/sensors/vd6g/vd6g.c ****     ret = ctx->write8(ctx, VD6G_REG_DARKCAL_CTRL, VD6G_DARKCAL_CTRL_DISABLE_DARKAVG);
 3026              		.loc 1 914 5 is_stmt 1 view .LVU912
 914:Lib/Camera_Middleware/sensors/vd6g/vd6g.c ****     ret = ctx->write8(ctx, VD6G_REG_DARKCAL_CTRL, VD6G_DARKCAL_CTRL_DISABLE_DARKAVG);
 3027              		.loc 1 914 5 view .LVU913
 3028 01ba 0446     		mov	r4, r0
 3029 01bc 48B1     		cbz	r0, .L220
 914:Lib/Camera_Middleware/sensors/vd6g/vd6g.c ****     ret = ctx->write8(ctx, VD6G_REG_DARKCAL_CTRL, VD6G_DARKCAL_CTRL_DISABLE_DARKAVG);
ARM GAS  /tmp/ccWHsT5O.s 			page 89


 3030              		.loc 1 914 5 discriminator 1 view .LVU914
 3031 01be 40F29233 		movw	r3, #914
 3032 01c2 0090     		str	r0, [sp]
 3033              	.L241:
 920:Lib/Camera_Middleware/sensors/vd6g/vd6g.c **** 
 3034              		.loc 1 920 3 is_stmt 0 discriminator 1 view .LVU915
 3035 01c4 2C4A     		ldr	r2, .L243+24
 3036 01c6 63E7     		b	.L240
 3037              	.LVL251:
 3038              	.L217:
 920:Lib/Camera_Middleware/sensors/vd6g/vd6g.c **** 
 3039              		.loc 1 920 3 discriminator 1 view .LVU916
 3040              	.LBE169:
 3041              	.LBE168:
 3042              	.LBB171:
 3043              	.LBB167:
 874:Lib/Camera_Middleware/sensors/vd6g/vd6g.c **** 
 3044              		.loc 1 874 3 is_stmt 1 discriminator 1 view .LVU917
 3045 01c8 40F26A33 		movw	r3, #874
 3046 01cc 2B4A     		ldr	r2, .L243+28
 3047 01ce 0090     		str	r0, [sp]
 3048 01d0 5EE7     		b	.L240
 3049              	.LVL252:
 3050              	.L220:
 874:Lib/Camera_Middleware/sensors/vd6g/vd6g.c **** 
 3051              		.loc 1 874 3 is_stmt 0 discriminator 1 view .LVU918
 3052              	.LBE167:
 3053              	.LBE171:
 3054              	.LBB172:
 3055              	.LBB170:
 914:Lib/Camera_Middleware/sensors/vd6g/vd6g.c ****     ret = ctx->write8(ctx, VD6G_REG_DARKCAL_CTRL, VD6G_DARKCAL_CTRL_DISABLE_DARKAVG);
 3056              		.loc 1 914 5 is_stmt 1 discriminator 6 view .LVU919
 914:Lib/Camera_Middleware/sensors/vd6g/vd6g.c ****     ret = ctx->write8(ctx, VD6G_REG_DARKCAL_CTRL, VD6G_DARKCAL_CTRL_DISABLE_DARKAVG);
 3057              		.loc 1 914 5 discriminator 8 view .LVU920
 915:Lib/Camera_Middleware/sensors/vd6g/vd6g.c ****     VD6G_TraceError(ctx, ret);
 3058              		.loc 1 915 5 view .LVU921
 915:Lib/Camera_Middleware/sensors/vd6g/vd6g.c ****     VD6G_TraceError(ctx, ret);
 3059              		.loc 1 915 11 is_stmt 0 view .LVU922
 3060 01d2 0222     		movs	r2, #2
 3061 01d4 4FF45071 		mov	r1, #832
 3062 01d8 2846     		mov	r0, r5
 3063              	.LVL253:
 915:Lib/Camera_Middleware/sensors/vd6g/vd6g.c ****     VD6G_TraceError(ctx, ret);
 3064              		.loc 1 915 11 view .LVU923
 3065 01da 2B69     		ldr	r3, [r5, #16]
 3066 01dc 9847     		blx	r3
 3067              	.LVL254:
 916:Lib/Camera_Middleware/sensors/vd6g/vd6g.c ****   }
 3068              		.loc 1 916 5 is_stmt 1 view .LVU924
 916:Lib/Camera_Middleware/sensors/vd6g/vd6g.c ****   }
 3069              		.loc 1 916 5 view .LVU925
 3070 01de 0446     		mov	r4, r0
 3071 01e0 18B1     		cbz	r0, .L219
 916:Lib/Camera_Middleware/sensors/vd6g/vd6g.c ****   }
 3072              		.loc 1 916 5 discriminator 1 view .LVU926
 3073 01e2 4FF46573 		mov	r3, #916
 3074 01e6 0090     		str	r0, [sp]
ARM GAS  /tmp/ccWHsT5O.s 			page 90


 3075 01e8 ECE7     		b	.L241
 3076              	.LVL255:
 3077              	.L219:
 916:Lib/Camera_Middleware/sensors/vd6g/vd6g.c ****   }
 3078              		.loc 1 916 5 discriminator 8 view .LVU927
 919:Lib/Camera_Middleware/sensors/vd6g/vd6g.c ****   VD6G_TraceError(ctx, ret);
 3079              		.loc 1 919 3 view .LVU928
 919:Lib/Camera_Middleware/sensors/vd6g/vd6g.c ****   VD6G_TraceError(ctx, ret);
 3080              		.loc 1 919 9 is_stmt 0 view .LVU929
 3081 01ea 3246     		mov	r2, r6
 3082 01ec 4FF48061 		mov	r1, #1024
 3083 01f0 2846     		mov	r0, r5
 3084 01f2 6B69     		ldr	r3, [r5, #20]
 3085 01f4 9847     		blx	r3
 3086              	.LVL256:
 920:Lib/Camera_Middleware/sensors/vd6g/vd6g.c **** 
 3087              		.loc 1 920 3 is_stmt 1 view .LVU930
 920:Lib/Camera_Middleware/sensors/vd6g/vd6g.c **** 
 3088              		.loc 1 920 3 view .LVU931
 3089 01f6 0446     		mov	r4, r0
 3090 01f8 18B1     		cbz	r0, .L221
 920:Lib/Camera_Middleware/sensors/vd6g/vd6g.c **** 
 3091              		.loc 1 920 3 discriminator 1 view .LVU932
 3092 01fa 4FF46673 		mov	r3, #920
 3093 01fe 0090     		str	r0, [sp]
 3094 0200 E0E7     		b	.L241
 3095              	.L221:
 3096              	.LVL257:
 920:Lib/Camera_Middleware/sensors/vd6g/vd6g.c **** 
 3097              		.loc 1 920 3 is_stmt 0 discriminator 1 view .LVU933
 3098              	.LBE170:
 3099              	.LBE172:
 993:Lib/Camera_Middleware/sensors/vd6g/vd6g.c ****     return ret;
 3100              		.loc 1 993 3 is_stmt 1 view .LVU934
 996:Lib/Camera_Middleware/sensors/vd6g/vd6g.c ****   if (ret)
 3101              		.loc 1 996 3 view .LVU935
 3102              	.LBB173:
 3103              	.LBI173:
 950:Lib/Camera_Middleware/sensors/vd6g/vd6g.c **** {
 3104              		.loc 1 950 12 view .LVU936
 3105              	.LBB174:
 952:Lib/Camera_Middleware/sensors/vd6g/vd6g.c **** 
 3106              		.loc 1 952 3 view .LVU937
 954:Lib/Camera_Middleware/sensors/vd6g/vd6g.c **** }
 3107              		.loc 1 954 3 view .LVU938
 954:Lib/Camera_Middleware/sensors/vd6g/vd6g.c **** }
 3108              		.loc 1 954 10 is_stmt 0 view .LVU939
 3109 0202 2846     		mov	r0, r5
 3110 0204 95F84510 		ldrb	r1, [r5, #69]	@ zero_extendqisi2
 3111 0208 FFF7FEFF 		bl	VD6G_SetFlicker
 3112              	.LVL258:
 954:Lib/Camera_Middleware/sensors/vd6g/vd6g.c **** }
 3113              		.loc 1 954 10 view .LVU940
 3114              	.LBE174:
 3115              	.LBE173:
 997:Lib/Camera_Middleware/sensors/vd6g/vd6g.c ****     return ret;
 3116              		.loc 1 997 3 is_stmt 1 view .LVU941
ARM GAS  /tmp/ccWHsT5O.s 			page 91


 997:Lib/Camera_Middleware/sensors/vd6g/vd6g.c ****     return ret;
 3117              		.loc 1 997 3 is_stmt 0 view .LVU942
 3118              	.LBE177:
 3119              	.LBE180:
1110:Lib/Camera_Middleware/sensors/vd6g/vd6g.c ****     return ret;
 3120              		.loc 1 1110 3 is_stmt 1 view .LVU943
1110:Lib/Camera_Middleware/sensors/vd6g/vd6g.c ****     return ret;
 3121              		.loc 1 1110 6 is_stmt 0 view .LVU944
 3122 020c 0446     		mov	r4, r0
 3123 020e 0028     		cmp	r0, #0
 3124 0210 7FF4FEAE 		bne	.L198
 3125              	.LVL259:
 3126              	.LBB181:
 3127              	.LBI181:
1104:Lib/Camera_Middleware/sensors/vd6g/vd6g.c **** {
 3128              		.loc 1 1104 5 is_stmt 1 view .LVU945
 3129              	.LBB182:
1113:Lib/Camera_Middleware/sensors/vd6g/vd6g.c ****   if (ret)
 3130              		.loc 1 1113 3 view .LVU946
 3131              	.LBB183:
 3132              	.LBI183:
1003:Lib/Camera_Middleware/sensors/vd6g/vd6g.c **** {
 3133              		.loc 1 1003 12 view .LVU947
 3134              	.LBB184:
1005:Lib/Camera_Middleware/sensors/vd6g/vd6g.c **** 
 3135              		.loc 1 1005 3 view .LVU948
1007:Lib/Camera_Middleware/sensors/vd6g/vd6g.c ****   VD6G_TraceError(ctx, ret);
 3136              		.loc 1 1007 3 view .LVU949
1007:Lib/Camera_Middleware/sensors/vd6g/vd6g.c ****   VD6G_TraceError(ctx, ret);
 3137              		.loc 1 1007 9 is_stmt 0 view .LVU950
 3138 0214 0122     		movs	r2, #1
 3139 0216 40F20121 		movw	r1, #513
 3140 021a 2846     		mov	r0, r5
 3141              	.LVL260:
1007:Lib/Camera_Middleware/sensors/vd6g/vd6g.c ****   VD6G_TraceError(ctx, ret);
 3142              		.loc 1 1007 9 view .LVU951
 3143 021c 2B69     		ldr	r3, [r5, #16]
 3144 021e 9847     		blx	r3
 3145              	.LVL261:
1008:Lib/Camera_Middleware/sensors/vd6g/vd6g.c **** 
 3146              		.loc 1 1008 3 is_stmt 1 view .LVU952
1008:Lib/Camera_Middleware/sensors/vd6g/vd6g.c **** 
 3147              		.loc 1 1008 3 view .LVU953
 3148 0220 0446     		mov	r4, r0
 3149              	.LVL262:
1008:Lib/Camera_Middleware/sensors/vd6g/vd6g.c **** 
 3150              		.loc 1 1008 3 is_stmt 0 view .LVU954
 3151 0222 20B1     		cbz	r0, .L222
1008:Lib/Camera_Middleware/sensors/vd6g/vd6g.c **** 
 3152              		.loc 1 1008 3 is_stmt 1 discriminator 1 view .LVU955
 3153 0224 4FF47C73 		mov	r3, #1008
 3154 0228 154A     		ldr	r2, .L243+32
 3155 022a 0090     		str	r0, [sp]
 3156 022c 30E7     		b	.L240
 3157              	.L222:
1008:Lib/Camera_Middleware/sensors/vd6g/vd6g.c **** 
 3158              		.loc 1 1008 3 discriminator 6 view .LVU956
ARM GAS  /tmp/ccWHsT5O.s 			page 92


1008:Lib/Camera_Middleware/sensors/vd6g/vd6g.c **** 
 3159              		.loc 1 1008 3 discriminator 8 view .LVU957
1010:Lib/Camera_Middleware/sensors/vd6g/vd6g.c ****   if (ret)
 3160              		.loc 1 1010 3 view .LVU958
1010:Lib/Camera_Middleware/sensors/vd6g/vd6g.c ****   if (ret)
 3161              		.loc 1 1010 9 is_stmt 0 view .LVU959
 3162 022e 0246     		mov	r2, r0
 3163 0230 40F20121 		movw	r1, #513
 3164 0234 2846     		mov	r0, r5
 3165              	.LVL263:
1010:Lib/Camera_Middleware/sensors/vd6g/vd6g.c ****   if (ret)
 3166              		.loc 1 1010 9 view .LVU960
 3167 0236 FFF7FEFF 		bl	VD6G_PollReg8
 3168              	.LVL264:
1011:Lib/Camera_Middleware/sensors/vd6g/vd6g.c ****     return ret;
 3169              		.loc 1 1011 3 is_stmt 1 view .LVU961
1011:Lib/Camera_Middleware/sensors/vd6g/vd6g.c ****     return ret;
 3170              		.loc 1 1011 6 is_stmt 0 view .LVU962
 3171 023a 0446     		mov	r4, r0
 3172 023c 0028     		cmp	r0, #0
 3173 023e 7FF4E7AE 		bne	.L198
1014:Lib/Camera_Middleware/sensors/vd6g/vd6g.c ****   if (ret)
 3174              		.loc 1 1014 3 is_stmt 1 view .LVU963
1014:Lib/Camera_Middleware/sensors/vd6g/vd6g.c ****   if (ret)
 3175              		.loc 1 1014 9 is_stmt 0 view .LVU964
 3176 0242 0321     		movs	r1, #3
 3177 0244 2846     		mov	r0, r5
 3178              	.LVL265:
1014:Lib/Camera_Middleware/sensors/vd6g/vd6g.c ****   if (ret)
 3179              		.loc 1 1014 9 view .LVU965
 3180 0246 FFF7FEFF 		bl	VD6G_WaitState
 3181              	.LVL266:
1015:Lib/Camera_Middleware/sensors/vd6g/vd6g.c ****     return ret;
 3182              		.loc 1 1015 3 is_stmt 1 view .LVU966
1015:Lib/Camera_Middleware/sensors/vd6g/vd6g.c ****     return ret;
 3183              		.loc 1 1015 6 is_stmt 0 view .LVU967
 3184 024a 0446     		mov	r4, r0
 3185 024c 0028     		cmp	r0, #0
 3186 024e 7FF4DFAE 		bne	.L198
1018:Lib/Camera_Middleware/sensors/vd6g/vd6g.c **** 
 3187              		.loc 1 1018 3 is_stmt 1 view .LVU968
 3188 0252 2846     		mov	r0, r5
 3189              	.LVL267:
1018:Lib/Camera_Middleware/sensors/vd6g/vd6g.c **** 
 3190              		.loc 1 1018 3 is_stmt 0 view .LVU969
 3191 0254 0B49     		ldr	r1, .L243+36
 3192 0256 FFF7FEFF 		bl	VD6G_notice
 3193              	.LVL268:
1020:Lib/Camera_Middleware/sensors/vd6g/vd6g.c **** }
 3194              		.loc 1 1020 3 is_stmt 1 view .LVU970
1020:Lib/Camera_Middleware/sensors/vd6g/vd6g.c **** }
 3195              		.loc 1 1020 3 is_stmt 0 view .LVU971
 3196              	.LBE184:
 3197              	.LBE183:
1114:Lib/Camera_Middleware/sensors/vd6g/vd6g.c ****     return ret;
 3198              		.loc 1 1114 3 is_stmt 1 view .LVU972
1116:Lib/Camera_Middleware/sensors/vd6g/vd6g.c **** 
ARM GAS  /tmp/ccWHsT5O.s 			page 93


 3199              		.loc 1 1116 3 view .LVU973
1116:Lib/Camera_Middleware/sensors/vd6g/vd6g.c **** 
 3200              		.loc 1 1116 25 is_stmt 0 view .LVU974
 3201 025a 0123     		movs	r3, #1
 3202 025c EB62     		str	r3, [r5, #44]
1118:Lib/Camera_Middleware/sensors/vd6g/vd6g.c **** }
 3203              		.loc 1 1118 3 is_stmt 1 view .LVU975
 3204              	.LVL269:
1118:Lib/Camera_Middleware/sensors/vd6g/vd6g.c **** }
 3205              		.loc 1 1118 10 is_stmt 0 view .LVU976
 3206 025e D7E6     		b	.L198
 3207              	.L244:
 3208              		.align	2
 3209              	.L243:
 3210 0260 00000000 		.word	__func__.17
 3211 0264 00000000 		.word	.LC4
 3212 0268 00000000 		.word	CSWTCH.58
 3213 026c 00000000 		.word	__func__.16
 3214 0270 00000000 		.word	CSWTCH.81
 3215 0274 00000000 		.word	CSWTCH.83
 3216 0278 00000000 		.word	__func__.13
 3217 027c 00000000 		.word	__func__.14
 3218 0280 00000000 		.word	__func__.11
 3219 0284 00000000 		.word	.LC25
 3220              	.LBE182:
 3221              	.LBE181:
 3222              		.cfi_endproc
 3223              	.LFE37:
 3225              		.section	.rodata.VD6G_Stop.str1.1,"aMS",%progbits,1
 3226              	.LC26:
 3227 0000 53747265 		.ascii	"Streaming is off\012\000"
 3227      616D696E 
 3227      67206973 
 3227      206F6666 
 3227      0A00
 3228              		.section	.text.VD6G_Stop,"ax",%progbits
 3229              		.align	1
 3230              		.global	VD6G_Stop
 3231              		.syntax unified
 3232              		.thumb
 3233              		.thumb_func
 3235              	VD6G_Stop:
 3236              	.LVL270:
 3237              	.LFB38:
1120:Lib/Camera_Middleware/sensors/vd6g/vd6g.c **** 
1121:Lib/Camera_Middleware/sensors/vd6g/vd6g.c **** int VD6G_Stop(VD6G_Ctx_t *ctx)
1122:Lib/Camera_Middleware/sensors/vd6g/vd6g.c **** {
 3238              		.loc 1 1122 1 is_stmt 1 view -0
 3239              		.cfi_startproc
 3240              		@ args = 0, pretend = 0, frame = 0
 3241              		@ frame_needed = 0, uses_anonymous_args = 0
1123:Lib/Camera_Middleware/sensors/vd6g/vd6g.c ****   struct drv_vd6g_ctx *drv_ctx = &ctx->ctx;
 3242              		.loc 1 1123 3 view .LVU978
1124:Lib/Camera_Middleware/sensors/vd6g/vd6g.c ****   int ret;
 3243              		.loc 1 1124 3 view .LVU979
1125:Lib/Camera_Middleware/sensors/vd6g/vd6g.c **** 
1126:Lib/Camera_Middleware/sensors/vd6g/vd6g.c ****   ret = VD6G_StopStreaming(ctx);
ARM GAS  /tmp/ccWHsT5O.s 			page 94


 3244              		.loc 1 1126 3 view .LVU980
 3245              	.LBB187:
 3246              	.LBI187:
1023:Lib/Camera_Middleware/sensors/vd6g/vd6g.c **** {
 3247              		.loc 1 1023 12 view .LVU981
 3248              	.LBB188:
1025:Lib/Camera_Middleware/sensors/vd6g/vd6g.c **** 
 3249              		.loc 1 1025 3 view .LVU982
1027:Lib/Camera_Middleware/sensors/vd6g/vd6g.c ****   VD6G_TraceError(ctx, ret);
 3250              		.loc 1 1027 3 view .LVU983
 3251              	.LBE188:
 3252              	.LBE187:
1122:Lib/Camera_Middleware/sensors/vd6g/vd6g.c ****   struct drv_vd6g_ctx *drv_ctx = &ctx->ctx;
 3253              		.loc 1 1122 1 is_stmt 0 view .LVU984
 3254 0000 37B5     		push	{r0, r1, r2, r4, r5, lr}
 3255              		.cfi_def_cfa_offset 24
 3256              		.cfi_offset 4, -12
 3257              		.cfi_offset 5, -8
 3258              		.cfi_offset 14, -4
 3259              	.LBB192:
 3260              	.LBB189:
1027:Lib/Camera_Middleware/sensors/vd6g/vd6g.c ****   VD6G_TraceError(ctx, ret);
 3261              		.loc 1 1027 9 view .LVU985
 3262 0002 0369     		ldr	r3, [r0, #16]
 3263 0004 0122     		movs	r2, #1
 3264 0006 40F20221 		movw	r1, #514
 3265              	.LBE189:
 3266              	.LBE192:
1122:Lib/Camera_Middleware/sensors/vd6g/vd6g.c ****   struct drv_vd6g_ctx *drv_ctx = &ctx->ctx;
 3267              		.loc 1 1122 1 view .LVU986
 3268 000a 0546     		mov	r5, r0
 3269              	.LBB193:
 3270              	.LBB190:
1027:Lib/Camera_Middleware/sensors/vd6g/vd6g.c ****   VD6G_TraceError(ctx, ret);
 3271              		.loc 1 1027 9 view .LVU987
 3272 000c 9847     		blx	r3
 3273              	.LVL271:
1028:Lib/Camera_Middleware/sensors/vd6g/vd6g.c **** 
 3274              		.loc 1 1028 3 is_stmt 1 view .LVU988
1028:Lib/Camera_Middleware/sensors/vd6g/vd6g.c **** 
 3275              		.loc 1 1028 3 view .LVU989
 3276 000e 0446     		mov	r4, r0
 3277 0010 98B9     		cbnz	r0, .L246
1028:Lib/Camera_Middleware/sensors/vd6g/vd6g.c **** 
 3278              		.loc 1 1028 3 discriminator 6 view .LVU990
1028:Lib/Camera_Middleware/sensors/vd6g/vd6g.c **** 
 3279              		.loc 1 1028 3 discriminator 8 view .LVU991
1030:Lib/Camera_Middleware/sensors/vd6g/vd6g.c ****   if (ret)
 3280              		.loc 1 1030 3 view .LVU992
1030:Lib/Camera_Middleware/sensors/vd6g/vd6g.c ****   if (ret)
 3281              		.loc 1 1030 9 is_stmt 0 view .LVU993
 3282 0012 0246     		mov	r2, r0
 3283 0014 40F20221 		movw	r1, #514
 3284 0018 2846     		mov	r0, r5
 3285              	.LVL272:
1030:Lib/Camera_Middleware/sensors/vd6g/vd6g.c ****   if (ret)
 3286              		.loc 1 1030 9 view .LVU994
ARM GAS  /tmp/ccWHsT5O.s 			page 95


 3287 001a FFF7FEFF 		bl	VD6G_PollReg8
 3288              	.LVL273:
1031:Lib/Camera_Middleware/sensors/vd6g/vd6g.c ****     return ret;
 3289              		.loc 1 1031 3 is_stmt 1 view .LVU995
1031:Lib/Camera_Middleware/sensors/vd6g/vd6g.c ****     return ret;
 3290              		.loc 1 1031 6 is_stmt 0 view .LVU996
 3291 001e 0446     		mov	r4, r0
 3292 0020 B0B9     		cbnz	r0, .L245
1034:Lib/Camera_Middleware/sensors/vd6g/vd6g.c ****   if (ret)
 3293              		.loc 1 1034 3 is_stmt 1 view .LVU997
1034:Lib/Camera_Middleware/sensors/vd6g/vd6g.c ****   if (ret)
 3294              		.loc 1 1034 9 is_stmt 0 view .LVU998
 3295 0022 0221     		movs	r1, #2
 3296 0024 2846     		mov	r0, r5
 3297              	.LVL274:
1034:Lib/Camera_Middleware/sensors/vd6g/vd6g.c ****   if (ret)
 3298              		.loc 1 1034 9 view .LVU999
 3299 0026 FFF7FEFF 		bl	VD6G_WaitState
 3300              	.LVL275:
1035:Lib/Camera_Middleware/sensors/vd6g/vd6g.c ****     return ret;
 3301              		.loc 1 1035 3 is_stmt 1 view .LVU1000
1035:Lib/Camera_Middleware/sensors/vd6g/vd6g.c ****     return ret;
 3302              		.loc 1 1035 6 is_stmt 0 view .LVU1001
 3303 002a 0446     		mov	r4, r0
 3304 002c 80B9     		cbnz	r0, .L245
1038:Lib/Camera_Middleware/sensors/vd6g/vd6g.c **** 
 3305              		.loc 1 1038 3 is_stmt 1 view .LVU1002
 3306 002e 2846     		mov	r0, r5
 3307              	.LVL276:
1038:Lib/Camera_Middleware/sensors/vd6g/vd6g.c **** 
 3308              		.loc 1 1038 3 is_stmt 0 view .LVU1003
 3309 0030 0949     		ldr	r1, .L251
 3310 0032 FFF7FEFF 		bl	VD6G_notice
 3311              	.LVL277:
1040:Lib/Camera_Middleware/sensors/vd6g/vd6g.c **** }
 3312              		.loc 1 1040 3 is_stmt 1 view .LVU1004
1040:Lib/Camera_Middleware/sensors/vd6g/vd6g.c **** }
 3313              		.loc 1 1040 3 is_stmt 0 view .LVU1005
 3314              	.LBE190:
 3315              	.LBE193:
1127:Lib/Camera_Middleware/sensors/vd6g/vd6g.c ****   if (ret)
 3316              		.loc 1 1127 3 is_stmt 1 view .LVU1006
1128:Lib/Camera_Middleware/sensors/vd6g/vd6g.c ****     return ret;
1129:Lib/Camera_Middleware/sensors/vd6g/vd6g.c ****   drv_ctx->is_streaming = 0;
 3317              		.loc 1 1129 3 view .LVU1007
 3318              		.loc 1 1129 25 is_stmt 0 view .LVU1008
 3319 0036 EC62     		str	r4, [r5, #44]
1130:Lib/Camera_Middleware/sensors/vd6g/vd6g.c **** 
1131:Lib/Camera_Middleware/sensors/vd6g/vd6g.c ****   return 0;
 3320              		.loc 1 1131 3 is_stmt 1 view .LVU1009
 3321              	.LVL278:
 3322              		.loc 1 1131 10 is_stmt 0 view .LVU1010
 3323 0038 0AE0     		b	.L245
 3324              	.LVL279:
 3325              	.L246:
 3326              	.LBB194:
 3327              	.LBB191:
ARM GAS  /tmp/ccWHsT5O.s 			page 96


1028:Lib/Camera_Middleware/sensors/vd6g/vd6g.c **** 
 3328              		.loc 1 1028 3 is_stmt 1 discriminator 1 view .LVU1011
 3329 003a 0090     		str	r0, [sp]
 3330 003c 40F20443 		movw	r3, #1028
 3331 0040 2846     		mov	r0, r5
 3332              	.LVL280:
1028:Lib/Camera_Middleware/sensors/vd6g/vd6g.c **** 
 3333              		.loc 1 1028 3 is_stmt 0 discriminator 1 view .LVU1012
 3334 0042 064A     		ldr	r2, .L251+4
 3335 0044 0649     		ldr	r1, .L251+8
 3336 0046 FFF7FEFF 		bl	VD6G_error
 3337              	.LVL281:
1028:Lib/Camera_Middleware/sensors/vd6g/vd6g.c **** 
 3338              		.loc 1 1028 3 is_stmt 1 discriminator 3 view .LVU1013
1028:Lib/Camera_Middleware/sensors/vd6g/vd6g.c **** 
 3339              		.loc 1 1028 3 discriminator 4 view .LVU1014
 3340 004a 2846     		mov	r0, r5
 3341 004c FFF7FEFF 		bl	display_error
 3342              	.LVL282:
1028:Lib/Camera_Middleware/sensors/vd6g/vd6g.c **** 
 3343              		.loc 1 1028 3 discriminator 6 view .LVU1015
1028:Lib/Camera_Middleware/sensors/vd6g/vd6g.c **** 
 3344              		.loc 1 1028 3 is_stmt 0 discriminator 6 view .LVU1016
 3345              	.LBE191:
 3346              	.LBE194:
1127:Lib/Camera_Middleware/sensors/vd6g/vd6g.c ****     return ret;
 3347              		.loc 1 1127 3 is_stmt 1 view .LVU1017
 3348              	.L245:
1132:Lib/Camera_Middleware/sensors/vd6g/vd6g.c **** }
 3349              		.loc 1 1132 1 is_stmt 0 view .LVU1018
 3350 0050 2046     		mov	r0, r4
 3351 0052 03B0     		add	sp, sp, #12
 3352              		.cfi_def_cfa_offset 12
 3353              		@ sp needed
 3354 0054 30BD     		pop	{r4, r5, pc}
 3355              	.LVL283:
 3356              	.L252:
 3357              		.loc 1 1132 1 view .LVU1019
 3358 0056 00BF     		.align	2
 3359              	.L251:
 3360 0058 00000000 		.word	.LC26
 3361 005c 00000000 		.word	__func__.10
 3362 0060 00000000 		.word	.LC4
 3363              		.cfi_endproc
 3364              	.LFE38:
 3366              		.section	.text.VD6G_SetFlipMirrorMode,"ax",%progbits
 3367              		.align	1
 3368              		.global	VD6G_SetFlipMirrorMode
 3369              		.syntax unified
 3370              		.thumb
 3371              		.thumb_func
 3373              	VD6G_SetFlipMirrorMode:
 3374              	.LVL284:
 3375              	.LFB39:
1133:Lib/Camera_Middleware/sensors/vd6g/vd6g.c **** 
1134:Lib/Camera_Middleware/sensors/vd6g/vd6g.c **** int VD6G_SetFlipMirrorMode(VD6G_Ctx_t *ctx, VD6G_MirrorFlip_t mode)
1135:Lib/Camera_Middleware/sensors/vd6g/vd6g.c **** {
ARM GAS  /tmp/ccWHsT5O.s 			page 97


 3376              		.loc 1 1135 1 is_stmt 1 view -0
 3377              		.cfi_startproc
 3378              		@ args = 0, pretend = 0, frame = 8
 3379              		@ frame_needed = 0, uses_anonymous_args = 0
1136:Lib/Camera_Middleware/sensors/vd6g/vd6g.c ****   struct drv_vd6g_ctx *drv_ctx = &ctx->ctx;
 3380              		.loc 1 1136 3 view .LVU1021
1137:Lib/Camera_Middleware/sensors/vd6g/vd6g.c ****   int is_streaming;
 3381              		.loc 1 1137 3 view .LVU1022
1138:Lib/Camera_Middleware/sensors/vd6g/vd6g.c ****   int ret;
 3382              		.loc 1 1138 3 view .LVU1023
1139:Lib/Camera_Middleware/sensors/vd6g/vd6g.c **** 
1140:Lib/Camera_Middleware/sensors/vd6g/vd6g.c ****   is_streaming = VD6G_IsStreaming(ctx);
 3383              		.loc 1 1140 3 view .LVU1024
 3384              	.LBB197:
 3385              	.LBI197:
 342:Lib/Camera_Middleware/sensors/vd6g/vd6g.c **** {
 3386              		.loc 1 342 12 view .LVU1025
 3387              	.LBB198:
 344:Lib/Camera_Middleware/sensors/vd6g/vd6g.c ****   int ret;
 3388              		.loc 1 344 3 view .LVU1026
 345:Lib/Camera_Middleware/sensors/vd6g/vd6g.c **** 
 3389              		.loc 1 345 3 view .LVU1027
 347:Lib/Camera_Middleware/sensors/vd6g/vd6g.c ****   VD6G_TraceError(ctx, ret);
 3390              		.loc 1 347 3 view .LVU1028
 3391              	.LBE198:
 3392              	.LBE197:
1135:Lib/Camera_Middleware/sensors/vd6g/vd6g.c ****   struct drv_vd6g_ctx *drv_ctx = &ctx->ctx;
 3393              		.loc 1 1135 1 is_stmt 0 view .LVU1029
 3394 0000 7FB5     		push	{r0, r1, r2, r3, r4, r5, r6, lr}
 3395              		.cfi_def_cfa_offset 32
 3396              		.cfi_offset 4, -16
 3397              		.cfi_offset 5, -12
 3398              		.cfi_offset 6, -8
 3399              		.cfi_offset 14, -4
1135:Lib/Camera_Middleware/sensors/vd6g/vd6g.c ****   struct drv_vd6g_ctx *drv_ctx = &ctx->ctx;
 3400              		.loc 1 1135 1 view .LVU1030
 3401 0002 0E46     		mov	r6, r1
 3402              	.LBB202:
 3403              	.LBB199:
 347:Lib/Camera_Middleware/sensors/vd6g/vd6g.c ****   VD6G_TraceError(ctx, ret);
 3404              		.loc 1 347 9 view .LVU1031
 3405 0004 4368     		ldr	r3, [r0, #4]
 3406 0006 2821     		movs	r1, #40
 3407              	.LVL285:
 347:Lib/Camera_Middleware/sensors/vd6g/vd6g.c ****   VD6G_TraceError(ctx, ret);
 3408              		.loc 1 347 9 view .LVU1032
 3409 0008 0DF10F02 		add	r2, sp, #15
 3410              	.LBE199:
 3411              	.LBE202:
1135:Lib/Camera_Middleware/sensors/vd6g/vd6g.c ****   struct drv_vd6g_ctx *drv_ctx = &ctx->ctx;
 3412              		.loc 1 1135 1 view .LVU1033
 3413 000c 0546     		mov	r5, r0
 3414              	.LBB203:
 3415              	.LBB200:
 347:Lib/Camera_Middleware/sensors/vd6g/vd6g.c ****   VD6G_TraceError(ctx, ret);
 3416              		.loc 1 347 9 view .LVU1034
 3417 000e 9847     		blx	r3
ARM GAS  /tmp/ccWHsT5O.s 			page 98


 3418              	.LVL286:
 348:Lib/Camera_Middleware/sensors/vd6g/vd6g.c **** 
 3419              		.loc 1 348 3 is_stmt 1 view .LVU1035
 348:Lib/Camera_Middleware/sensors/vd6g/vd6g.c **** 
 3420              		.loc 1 348 3 view .LVU1036
 3421 0010 0446     		mov	r4, r0
 3422 0012 80B9     		cbnz	r0, .L254
 348:Lib/Camera_Middleware/sensors/vd6g/vd6g.c **** 
 3423              		.loc 1 348 3 discriminator 6 view .LVU1037
 348:Lib/Camera_Middleware/sensors/vd6g/vd6g.c **** 
 3424              		.loc 1 348 3 discriminator 8 view .LVU1038
 350:Lib/Camera_Middleware/sensors/vd6g/vd6g.c **** }
 3425              		.loc 1 350 3 view .LVU1039
 350:Lib/Camera_Middleware/sensors/vd6g/vd6g.c **** }
 3426              		.loc 1 350 16 is_stmt 0 view .LVU1040
 3427 0014 9DF80F30 		ldrb	r3, [sp, #15]	@ zero_extendqisi2
 3428              	.LVL287:
 350:Lib/Camera_Middleware/sensors/vd6g/vd6g.c **** }
 3429              		.loc 1 350 16 view .LVU1041
 3430              	.LBE200:
 3431              	.LBE203:
1141:Lib/Camera_Middleware/sensors/vd6g/vd6g.c ****   if (is_streaming < 0)
 3432              		.loc 1 1141 3 is_stmt 1 view .LVU1042
1142:Lib/Camera_Middleware/sensors/vd6g/vd6g.c ****     return is_streaming;
1143:Lib/Camera_Middleware/sensors/vd6g/vd6g.c **** 
1144:Lib/Camera_Middleware/sensors/vd6g/vd6g.c ****   if (is_streaming) {
 3433              		.loc 1 1144 3 view .LVU1043
 3434              		.loc 1 1144 6 is_stmt 0 view .LVU1044
 3435 0018 032B     		cmp	r3, #3
 3436 001a 1CD1     		bne	.L255
 3437              	.LVL288:
 3438              	.L258:
1145:Lib/Camera_Middleware/sensors/vd6g/vd6g.c ****     ret = VD6G_Stop(ctx);
 3439              		.loc 1 1145 5 is_stmt 1 view .LVU1045
 3440              		.loc 1 1145 11 is_stmt 0 view .LVU1046
 3441 001c 2846     		mov	r0, r5
 3442 001e FFF7FEFF 		bl	VD6G_Stop
 3443              	.LVL289:
1146:Lib/Camera_Middleware/sensors/vd6g/vd6g.c ****     if (ret)
 3444              		.loc 1 1146 5 is_stmt 1 view .LVU1047
 3445              		.loc 1 1146 8 is_stmt 0 view .LVU1048
 3446 0022 0446     		mov	r4, r0
 3447 0024 A0B9     		cbnz	r0, .L253
1147:Lib/Camera_Middleware/sensors/vd6g/vd6g.c ****       return ret;
1148:Lib/Camera_Middleware/sensors/vd6g/vd6g.c ****   }
1149:Lib/Camera_Middleware/sensors/vd6g/vd6g.c **** 
1150:Lib/Camera_Middleware/sensors/vd6g/vd6g.c ****   drv_ctx->config_save.flip_mirror_mode = mode;
 3448              		.loc 1 1150 3 is_stmt 1 view .LVU1049
1151:Lib/Camera_Middleware/sensors/vd6g/vd6g.c **** 
1152:Lib/Camera_Middleware/sensors/vd6g/vd6g.c ****   if (is_streaming) {
1153:Lib/Camera_Middleware/sensors/vd6g/vd6g.c ****     ret = VD6G_Start(ctx);
 3449              		.loc 1 1153 11 is_stmt 0 view .LVU1050
 3450 0026 2846     		mov	r0, r5
 3451              	.LVL290:
1150:Lib/Camera_Middleware/sensors/vd6g/vd6g.c **** 
 3452              		.loc 1 1150 41 view .LVU1051
 3453 0028 85F83C60 		strb	r6, [r5, #60]
ARM GAS  /tmp/ccWHsT5O.s 			page 99


1152:Lib/Camera_Middleware/sensors/vd6g/vd6g.c ****     ret = VD6G_Start(ctx);
 3454              		.loc 1 1152 3 is_stmt 1 view .LVU1052
 3455              		.loc 1 1153 5 view .LVU1053
1154:Lib/Camera_Middleware/sensors/vd6g/vd6g.c ****     if (ret)
1155:Lib/Camera_Middleware/sensors/vd6g/vd6g.c ****       return ret;
1156:Lib/Camera_Middleware/sensors/vd6g/vd6g.c ****   }
1157:Lib/Camera_Middleware/sensors/vd6g/vd6g.c **** 
1158:Lib/Camera_Middleware/sensors/vd6g/vd6g.c ****   return 0;
1159:Lib/Camera_Middleware/sensors/vd6g/vd6g.c **** }
 3456              		.loc 1 1159 1 is_stmt 0 view .LVU1054
 3457 002c 04B0     		add	sp, sp, #16
 3458              		.cfi_remember_state
 3459              		.cfi_def_cfa_offset 16
 3460              		@ sp needed
 3461 002e BDE87040 		pop	{r4, r5, r6, lr}
 3462              		.cfi_restore 14
 3463              		.cfi_restore 6
 3464              		.cfi_restore 5
 3465              		.cfi_restore 4
 3466              		.cfi_def_cfa_offset 0
 3467              	.LVL291:
1153:Lib/Camera_Middleware/sensors/vd6g/vd6g.c ****     if (ret)
 3468              		.loc 1 1153 11 view .LVU1055
 3469 0032 FFF7FEBF 		b	VD6G_Start
 3470              	.LVL292:
 3471              	.L254:
 3472              		.cfi_restore_state
 3473              	.LBB204:
 3474              	.LBB201:
 348:Lib/Camera_Middleware/sensors/vd6g/vd6g.c **** 
 3475              		.loc 1 348 3 is_stmt 1 discriminator 1 view .LVU1056
 3476 0036 4FF4AE73 		mov	r3, #348
 3477 003a 084A     		ldr	r2, .L260
 3478 003c 0849     		ldr	r1, .L260+4
 3479 003e 0090     		str	r0, [sp]
 3480 0040 2846     		mov	r0, r5
 3481              	.LVL293:
 348:Lib/Camera_Middleware/sensors/vd6g/vd6g.c **** 
 3482              		.loc 1 348 3 is_stmt 0 discriminator 1 view .LVU1057
 3483 0042 FFF7FEFF 		bl	VD6G_error
 3484              	.LVL294:
 348:Lib/Camera_Middleware/sensors/vd6g/vd6g.c **** 
 3485              		.loc 1 348 3 is_stmt 1 discriminator 3 view .LVU1058
 348:Lib/Camera_Middleware/sensors/vd6g/vd6g.c **** 
 3486              		.loc 1 348 3 discriminator 4 view .LVU1059
 3487 0046 2846     		mov	r0, r5
 3488 0048 FFF7FEFF 		bl	display_error
 3489              	.LVL295:
 348:Lib/Camera_Middleware/sensors/vd6g/vd6g.c **** 
 3490              		.loc 1 348 3 discriminator 6 view .LVU1060
 348:Lib/Camera_Middleware/sensors/vd6g/vd6g.c **** 
 3491              		.loc 1 348 3 is_stmt 0 discriminator 6 view .LVU1061
 3492              	.LBE201:
 3493              	.LBE204:
1141:Lib/Camera_Middleware/sensors/vd6g/vd6g.c ****     return is_streaming;
 3494              		.loc 1 1141 3 is_stmt 1 view .LVU1062
1141:Lib/Camera_Middleware/sensors/vd6g/vd6g.c ****     return is_streaming;
ARM GAS  /tmp/ccWHsT5O.s 			page 100


 3495              		.loc 1 1141 6 is_stmt 0 view .LVU1063
 3496 004c 002C     		cmp	r4, #0
 3497 004e E5DA     		bge	.L258
 3498              	.LVL296:
 3499              	.L253:
 3500              		.loc 1 1159 1 view .LVU1064
 3501 0050 2046     		mov	r0, r4
 3502 0052 04B0     		add	sp, sp, #16
 3503              		.cfi_remember_state
 3504              		.cfi_def_cfa_offset 16
 3505              		@ sp needed
 3506 0054 70BD     		pop	{r4, r5, r6, pc}
 3507              	.LVL297:
 3508              	.L255:
 3509              		.cfi_restore_state
1150:Lib/Camera_Middleware/sensors/vd6g/vd6g.c **** 
 3510              		.loc 1 1150 3 is_stmt 1 view .LVU1065
1150:Lib/Camera_Middleware/sensors/vd6g/vd6g.c **** 
 3511              		.loc 1 1150 41 is_stmt 0 view .LVU1066
 3512 0056 85F83C60 		strb	r6, [r5, #60]
1152:Lib/Camera_Middleware/sensors/vd6g/vd6g.c ****     ret = VD6G_Start(ctx);
 3513              		.loc 1 1152 3 is_stmt 1 view .LVU1067
 3514 005a F9E7     		b	.L253
 3515              	.L261:
 3516              		.align	2
 3517              	.L260:
 3518 005c 00000000 		.word	__func__.9
 3519 0060 00000000 		.word	.LC4
 3520              		.cfi_endproc
 3521              	.LFE39:
 3523              		.section	.text.VD6G_GetBrightnessLevel,"ax",%progbits
 3524              		.align	1
 3525              		.global	VD6G_GetBrightnessLevel
 3526              		.syntax unified
 3527              		.thumb
 3528              		.thumb_func
 3530              	VD6G_GetBrightnessLevel:
 3531              	.LVL298:
 3532              	.LFB40:
1160:Lib/Camera_Middleware/sensors/vd6g/vd6g.c **** 
1161:Lib/Camera_Middleware/sensors/vd6g/vd6g.c **** int VD6G_GetBrightnessLevel(VD6G_Ctx_t *ctx, int *level)
1162:Lib/Camera_Middleware/sensors/vd6g/vd6g.c **** {
 3533              		.loc 1 1162 1 view -0
 3534              		.cfi_startproc
 3535              		@ args = 0, pretend = 0, frame = 8
 3536              		@ frame_needed = 0, uses_anonymous_args = 0
1163:Lib/Camera_Middleware/sensors/vd6g/vd6g.c ****   uint16_t value;
 3537              		.loc 1 1163 3 view .LVU1069
1164:Lib/Camera_Middleware/sensors/vd6g/vd6g.c ****   int ret;
 3538              		.loc 1 1164 3 view .LVU1070
1165:Lib/Camera_Middleware/sensors/vd6g/vd6g.c **** 
1166:Lib/Camera_Middleware/sensors/vd6g/vd6g.c ****   ret = ctx->read16(ctx, VD6G_REG_AE_TARGET_PERCENTAGE, &value);
 3539              		.loc 1 1166 3 view .LVU1071
1162:Lib/Camera_Middleware/sensors/vd6g/vd6g.c ****   uint16_t value;
 3540              		.loc 1 1162 1 is_stmt 0 view .LVU1072
 3541 0000 7FB5     		push	{r0, r1, r2, r3, r4, r5, r6, lr}
 3542              		.cfi_def_cfa_offset 32
ARM GAS  /tmp/ccWHsT5O.s 			page 101


 3543              		.cfi_offset 4, -16
 3544              		.cfi_offset 5, -12
 3545              		.cfi_offset 6, -8
 3546              		.cfi_offset 14, -4
1162:Lib/Camera_Middleware/sensors/vd6g/vd6g.c ****   uint16_t value;
 3547              		.loc 1 1162 1 view .LVU1073
 3548 0002 0E46     		mov	r6, r1
 3549              		.loc 1 1166 9 view .LVU1074
 3550 0004 8368     		ldr	r3, [r0, #8]
 3551 0006 40F23C41 		movw	r1, #1084
 3552              	.LVL299:
 3553              		.loc 1 1166 9 view .LVU1075
 3554 000a 0DF10E02 		add	r2, sp, #14
1162:Lib/Camera_Middleware/sensors/vd6g/vd6g.c ****   uint16_t value;
 3555              		.loc 1 1162 1 view .LVU1076
 3556 000e 0546     		mov	r5, r0
 3557              		.loc 1 1166 9 view .LVU1077
 3558 0010 9847     		blx	r3
 3559              	.LVL300:
1167:Lib/Camera_Middleware/sensors/vd6g/vd6g.c ****   VD6G_TraceError(ctx, ret);
 3560              		.loc 1 1167 3 is_stmt 1 view .LVU1078
 3561              		.loc 1 1167 3 view .LVU1079
 3562 0012 0446     		mov	r4, r0
 3563 0014 28B9     		cbnz	r0, .L263
 3564              		.loc 1 1167 3 discriminator 6 view .LVU1080
 3565              		.loc 1 1167 3 discriminator 8 view .LVU1081
1168:Lib/Camera_Middleware/sensors/vd6g/vd6g.c ****   *level = value;
 3566              		.loc 1 1168 3 view .LVU1082
 3567              		.loc 1 1168 10 is_stmt 0 view .LVU1083
 3568 0016 BDF80E30 		ldrh	r3, [sp, #14]
 3569 001a 3360     		str	r3, [r6]
1169:Lib/Camera_Middleware/sensors/vd6g/vd6g.c **** 
1170:Lib/Camera_Middleware/sensors/vd6g/vd6g.c ****   return 0;
 3570              		.loc 1 1170 3 is_stmt 1 view .LVU1084
 3571              	.LVL301:
 3572              	.L262:
1171:Lib/Camera_Middleware/sensors/vd6g/vd6g.c **** }
 3573              		.loc 1 1171 1 is_stmt 0 view .LVU1085
 3574 001c 2046     		mov	r0, r4
 3575 001e 04B0     		add	sp, sp, #16
 3576              		.cfi_remember_state
 3577              		.cfi_def_cfa_offset 16
 3578              		@ sp needed
 3579 0020 70BD     		pop	{r4, r5, r6, pc}
 3580              	.LVL302:
 3581              	.L263:
 3582              		.cfi_restore_state
1167:Lib/Camera_Middleware/sensors/vd6g/vd6g.c ****   *level = value;
 3583              		.loc 1 1167 3 is_stmt 1 discriminator 1 view .LVU1086
 3584 0022 0090     		str	r0, [sp]
 3585 0024 40F28F43 		movw	r3, #1167
 3586 0028 2846     		mov	r0, r5
 3587              	.LVL303:
1167:Lib/Camera_Middleware/sensors/vd6g/vd6g.c ****   *level = value;
 3588              		.loc 1 1167 3 is_stmt 0 discriminator 1 view .LVU1087
 3589 002a 044A     		ldr	r2, .L265
 3590 002c 0449     		ldr	r1, .L265+4
ARM GAS  /tmp/ccWHsT5O.s 			page 102


 3591 002e FFF7FEFF 		bl	VD6G_error
 3592              	.LVL304:
1167:Lib/Camera_Middleware/sensors/vd6g/vd6g.c ****   *level = value;
 3593              		.loc 1 1167 3 is_stmt 1 discriminator 3 view .LVU1088
1167:Lib/Camera_Middleware/sensors/vd6g/vd6g.c ****   *level = value;
 3594              		.loc 1 1167 3 discriminator 4 view .LVU1089
 3595 0032 2846     		mov	r0, r5
 3596 0034 FFF7FEFF 		bl	display_error
 3597              	.LVL305:
1167:Lib/Camera_Middleware/sensors/vd6g/vd6g.c ****   *level = value;
 3598              		.loc 1 1167 3 discriminator 6 view .LVU1090
 3599 0038 F0E7     		b	.L262
 3600              	.L266:
 3601 003a 00BF     		.align	2
 3602              	.L265:
 3603 003c 00000000 		.word	__func__.8
 3604 0040 00000000 		.word	.LC4
 3605              		.cfi_endproc
 3606              	.LFE40:
 3608              		.section	.text.VD6G_SetBrightnessLevel,"ax",%progbits
 3609              		.align	1
 3610              		.global	VD6G_SetBrightnessLevel
 3611              		.syntax unified
 3612              		.thumb
 3613              		.thumb_func
 3615              	VD6G_SetBrightnessLevel:
 3616              	.LVL306:
 3617              	.LFB41:
1172:Lib/Camera_Middleware/sensors/vd6g/vd6g.c **** 
1173:Lib/Camera_Middleware/sensors/vd6g/vd6g.c **** int VD6G_SetBrightnessLevel(VD6G_Ctx_t *ctx, int level)
1174:Lib/Camera_Middleware/sensors/vd6g/vd6g.c **** {
 3618              		.loc 1 1174 1 view -0
 3619              		.cfi_startproc
 3620              		@ args = 0, pretend = 0, frame = 0
 3621              		@ frame_needed = 0, uses_anonymous_args = 0
1175:Lib/Camera_Middleware/sensors/vd6g/vd6g.c ****   uint16_t value = level;
 3622              		.loc 1 1175 3 view .LVU1092
1176:Lib/Camera_Middleware/sensors/vd6g/vd6g.c ****   int ret;
1177:Lib/Camera_Middleware/sensors/vd6g/vd6g.c **** 
1178:Lib/Camera_Middleware/sensors/vd6g/vd6g.c ****   if (level < VD6G_MIN_BRIGHTNESS || level > VD6G_MAX_BRIGHTNESS)
 3623              		.loc 1 1178 6 is_stmt 0 view .LVU1093
 3624 0000 6429     		cmp	r1, #100
1174:Lib/Camera_Middleware/sensors/vd6g/vd6g.c ****   uint16_t value = level;
 3625              		.loc 1 1174 1 view .LVU1094
 3626 0002 37B5     		push	{r0, r1, r2, r4, r5, lr}
 3627              		.cfi_def_cfa_offset 24
 3628              		.cfi_offset 4, -12
 3629              		.cfi_offset 5, -8
 3630              		.cfi_offset 14, -4
1174:Lib/Camera_Middleware/sensors/vd6g/vd6g.c ****   uint16_t value = level;
 3631              		.loc 1 1174 1 view .LVU1095
 3632 0004 0546     		mov	r5, r0
1175:Lib/Camera_Middleware/sensors/vd6g/vd6g.c ****   uint16_t value = level;
 3633              		.loc 1 1175 12 view .LVU1096
 3634 0006 8AB2     		uxth	r2, r1
 3635              	.LVL307:
1176:Lib/Camera_Middleware/sensors/vd6g/vd6g.c ****   int ret;
ARM GAS  /tmp/ccWHsT5O.s 			page 103


 3636              		.loc 1 1176 3 is_stmt 1 view .LVU1097
 3637              		.loc 1 1178 3 view .LVU1098
 3638              		.loc 1 1178 6 is_stmt 0 view .LVU1099
 3639 0008 13D8     		bhi	.L270
1179:Lib/Camera_Middleware/sensors/vd6g/vd6g.c ****     return -1;
1180:Lib/Camera_Middleware/sensors/vd6g/vd6g.c **** 
1181:Lib/Camera_Middleware/sensors/vd6g/vd6g.c ****   ret = ctx->write16(ctx, VD6G_REG_AE_TARGET_PERCENTAGE, value);
 3640              		.loc 1 1181 3 is_stmt 1 view .LVU1100
 3641              		.loc 1 1181 9 is_stmt 0 view .LVU1101
 3642 000a 40F23C41 		movw	r1, #1084
 3643              	.LVL308:
 3644              		.loc 1 1181 9 view .LVU1102
 3645 000e 4369     		ldr	r3, [r0, #20]
 3646 0010 9847     		blx	r3
 3647              	.LVL309:
1182:Lib/Camera_Middleware/sensors/vd6g/vd6g.c ****   VD6G_TraceError(ctx, ret);
 3648              		.loc 1 1182 3 is_stmt 1 view .LVU1103
 3649              		.loc 1 1182 3 view .LVU1104
 3650 0012 0446     		mov	r4, r0
 3651 0014 50B1     		cbz	r0, .L267
 3652              		.loc 1 1182 3 discriminator 1 view .LVU1105
 3653 0016 0090     		str	r0, [sp]
 3654 0018 40F29E43 		movw	r3, #1182
 3655 001c 2846     		mov	r0, r5
 3656              	.LVL310:
 3657              		.loc 1 1182 3 is_stmt 0 discriminator 1 view .LVU1106
 3658 001e 064A     		ldr	r2, .L274
 3659 0020 0649     		ldr	r1, .L274+4
 3660 0022 FFF7FEFF 		bl	VD6G_error
 3661              	.LVL311:
 3662              		.loc 1 1182 3 is_stmt 1 discriminator 3 view .LVU1107
 3663              		.loc 1 1182 3 discriminator 4 view .LVU1108
 3664 0026 2846     		mov	r0, r5
 3665 0028 FFF7FEFF 		bl	display_error
 3666              	.LVL312:
 3667              	.L267:
1183:Lib/Camera_Middleware/sensors/vd6g/vd6g.c **** 
1184:Lib/Camera_Middleware/sensors/vd6g/vd6g.c ****   return 0;
1185:Lib/Camera_Middleware/sensors/vd6g/vd6g.c **** }
 3668              		.loc 1 1185 1 is_stmt 0 view .LVU1109
 3669 002c 2046     		mov	r0, r4
 3670 002e 03B0     		add	sp, sp, #12
 3671              		.cfi_remember_state
 3672              		.cfi_def_cfa_offset 12
 3673              		@ sp needed
 3674 0030 30BD     		pop	{r4, r5, pc}
 3675              	.LVL313:
 3676              	.L270:
 3677              		.cfi_restore_state
1179:Lib/Camera_Middleware/sensors/vd6g/vd6g.c **** 
 3678              		.loc 1 1179 12 view .LVU1110
 3679 0032 4FF0FF34 		mov	r4, #-1
 3680 0036 F9E7     		b	.L267
 3681              	.L275:
 3682              		.align	2
 3683              	.L274:
 3684 0038 00000000 		.word	__func__.7
ARM GAS  /tmp/ccWHsT5O.s 			page 104


 3685 003c 00000000 		.word	.LC4
 3686              		.cfi_endproc
 3687              	.LFE41:
 3689              		.section	.text.VD6G_SetFlickerMode,"ax",%progbits
 3690              		.align	1
 3691              		.global	VD6G_SetFlickerMode
 3692              		.syntax unified
 3693              		.thumb
 3694              		.thumb_func
 3696              	VD6G_SetFlickerMode:
 3697              	.LVL314:
 3698              	.LFB42:
1186:Lib/Camera_Middleware/sensors/vd6g/vd6g.c **** 
1187:Lib/Camera_Middleware/sensors/vd6g/vd6g.c **** int VD6G_SetFlickerMode(VD6G_Ctx_t *ctx, VD6G_Flicker_t mode)
1188:Lib/Camera_Middleware/sensors/vd6g/vd6g.c **** {
 3699              		.loc 1 1188 1 is_stmt 1 view -0
 3700              		.cfi_startproc
 3701              		@ args = 0, pretend = 0, frame = 0
 3702              		@ frame_needed = 0, uses_anonymous_args = 0
1189:Lib/Camera_Middleware/sensors/vd6g/vd6g.c ****   struct drv_vd6g_ctx *drv_ctx = &ctx->ctx;
 3703              		.loc 1 1189 3 view .LVU1112
1188:Lib/Camera_Middleware/sensors/vd6g/vd6g.c ****   struct drv_vd6g_ctx *drv_ctx = &ctx->ctx;
 3704              		.loc 1 1188 1 is_stmt 0 view .LVU1113
 3705 0000 38B5     		push	{r3, r4, r5, lr}
 3706              		.cfi_def_cfa_offset 16
 3707              		.cfi_offset 3, -16
 3708              		.cfi_offset 4, -12
 3709              		.cfi_offset 5, -8
 3710              		.cfi_offset 14, -4
1188:Lib/Camera_Middleware/sensors/vd6g/vd6g.c ****   struct drv_vd6g_ctx *drv_ctx = &ctx->ctx;
 3711              		.loc 1 1188 1 view .LVU1114
 3712 0002 0446     		mov	r4, r0
 3713              	.LVL315:
1190:Lib/Camera_Middleware/sensors/vd6g/vd6g.c ****   int ret;
 3714              		.loc 1 1190 3 is_stmt 1 view .LVU1115
1191:Lib/Camera_Middleware/sensors/vd6g/vd6g.c **** 
1192:Lib/Camera_Middleware/sensors/vd6g/vd6g.c ****   ret = VD6G_SetFlicker(ctx, mode);
 3715              		.loc 1 1192 3 view .LVU1116
1188:Lib/Camera_Middleware/sensors/vd6g/vd6g.c ****   struct drv_vd6g_ctx *drv_ctx = &ctx->ctx;
 3716              		.loc 1 1188 1 is_stmt 0 view .LVU1117
 3717 0004 0D46     		mov	r5, r1
 3718              		.loc 1 1192 9 view .LVU1118
 3719 0006 FFF7FEFF 		bl	VD6G_SetFlicker
 3720              	.LVL316:
1193:Lib/Camera_Middleware/sensors/vd6g/vd6g.c ****   if (ret)
 3721              		.loc 1 1193 3 is_stmt 1 view .LVU1119
 3722              		.loc 1 1193 6 is_stmt 0 view .LVU1120
 3723 000a 08B9     		cbnz	r0, .L276
1194:Lib/Camera_Middleware/sensors/vd6g/vd6g.c ****     return ret;
1195:Lib/Camera_Middleware/sensors/vd6g/vd6g.c **** 
1196:Lib/Camera_Middleware/sensors/vd6g/vd6g.c ****   drv_ctx->config_save.flicker = mode;
 3724              		.loc 1 1196 3 is_stmt 1 view .LVU1121
 3725              		.loc 1 1196 32 is_stmt 0 view .LVU1122
 3726 000c 84F84550 		strb	r5, [r4, #69]
1197:Lib/Camera_Middleware/sensors/vd6g/vd6g.c **** 
1198:Lib/Camera_Middleware/sensors/vd6g/vd6g.c ****   return 0;
 3727              		.loc 1 1198 3 is_stmt 1 view .LVU1123
ARM GAS  /tmp/ccWHsT5O.s 			page 105


 3728              	.L276:
1199:Lib/Camera_Middleware/sensors/vd6g/vd6g.c **** }
 3729              		.loc 1 1199 1 is_stmt 0 view .LVU1124
 3730 0010 38BD     		pop	{r3, r4, r5, pc}
 3731              		.loc 1 1199 1 view .LVU1125
 3732              		.cfi_endproc
 3733              	.LFE42:
 3735              		.section	.text.VD6G_SetExposureMode,"ax",%progbits
 3736              		.align	1
 3737              		.global	VD6G_SetExposureMode
 3738              		.syntax unified
 3739              		.thumb
 3740              		.thumb_func
 3742              	VD6G_SetExposureMode:
 3743              	.LVL317:
 3744              	.LFB43:
1200:Lib/Camera_Middleware/sensors/vd6g/vd6g.c **** 
1201:Lib/Camera_Middleware/sensors/vd6g/vd6g.c **** int VD6G_SetExposureMode(VD6G_Ctx_t *ctx, VD6G_ExposureMode_t mode)
1202:Lib/Camera_Middleware/sensors/vd6g/vd6g.c **** {
 3745              		.loc 1 1202 1 is_stmt 1 view -0
 3746              		.cfi_startproc
 3747              		@ args = 0, pretend = 0, frame = 0
 3748              		@ frame_needed = 0, uses_anonymous_args = 0
1203:Lib/Camera_Middleware/sensors/vd6g/vd6g.c ****   struct drv_vd6g_ctx *drv_ctx = &ctx->ctx;
 3749              		.loc 1 1203 3 view .LVU1127
1202:Lib/Camera_Middleware/sensors/vd6g/vd6g.c ****   struct drv_vd6g_ctx *drv_ctx = &ctx->ctx;
 3750              		.loc 1 1202 1 is_stmt 0 view .LVU1128
 3751 0000 38B5     		push	{r3, r4, r5, lr}
 3752              		.cfi_def_cfa_offset 16
 3753              		.cfi_offset 3, -16
 3754              		.cfi_offset 4, -12
 3755              		.cfi_offset 5, -8
 3756              		.cfi_offset 14, -4
1202:Lib/Camera_Middleware/sensors/vd6g/vd6g.c ****   struct drv_vd6g_ctx *drv_ctx = &ctx->ctx;
 3757              		.loc 1 1202 1 view .LVU1129
 3758 0002 0446     		mov	r4, r0
 3759              	.LVL318:
1204:Lib/Camera_Middleware/sensors/vd6g/vd6g.c ****   int ret;
 3760              		.loc 1 1204 3 is_stmt 1 view .LVU1130
1205:Lib/Camera_Middleware/sensors/vd6g/vd6g.c **** 
1206:Lib/Camera_Middleware/sensors/vd6g/vd6g.c ****   ret = VD6G_SetExposureModeInternal(ctx, mode);
 3761              		.loc 1 1206 3 view .LVU1131
1202:Lib/Camera_Middleware/sensors/vd6g/vd6g.c ****   struct drv_vd6g_ctx *drv_ctx = &ctx->ctx;
 3762              		.loc 1 1202 1 is_stmt 0 view .LVU1132
 3763 0004 0D46     		mov	r5, r1
 3764              		.loc 1 1206 9 view .LVU1133
 3765 0006 FFF7FEFF 		bl	VD6G_SetExposureModeInternal
 3766              	.LVL319:
1207:Lib/Camera_Middleware/sensors/vd6g/vd6g.c ****   if (ret)
 3767              		.loc 1 1207 3 is_stmt 1 view .LVU1134
 3768              		.loc 1 1207 6 is_stmt 0 view .LVU1135
 3769 000a 08B9     		cbnz	r0, .L278
1208:Lib/Camera_Middleware/sensors/vd6g/vd6g.c ****     return ret;
1209:Lib/Camera_Middleware/sensors/vd6g/vd6g.c **** 
1210:Lib/Camera_Middleware/sensors/vd6g/vd6g.c ****   drv_ctx->config_save.exposure_mode = mode;
 3770              		.loc 1 1210 3 is_stmt 1 view .LVU1136
 3771              		.loc 1 1210 38 is_stmt 0 view .LVU1137
ARM GAS  /tmp/ccWHsT5O.s 			page 106


 3772 000c 84F86450 		strb	r5, [r4, #100]
1211:Lib/Camera_Middleware/sensors/vd6g/vd6g.c **** 
1212:Lib/Camera_Middleware/sensors/vd6g/vd6g.c ****   return 0;
 3773              		.loc 1 1212 3 is_stmt 1 view .LVU1138
 3774              	.L278:
1213:Lib/Camera_Middleware/sensors/vd6g/vd6g.c **** }
 3775              		.loc 1 1213 1 is_stmt 0 view .LVU1139
 3776 0010 38BD     		pop	{r3, r4, r5, pc}
 3777              		.loc 1 1213 1 view .LVU1140
 3778              		.cfi_endproc
 3779              	.LFE43:
 3781              		.section	.text.VD6G_GetAnalogGainRegRange,"ax",%progbits
 3782              		.align	1
 3783              		.global	VD6G_GetAnalogGainRegRange
 3784              		.syntax unified
 3785              		.thumb
 3786              		.thumb_func
 3788              	VD6G_GetAnalogGainRegRange:
 3789              	.LVL320:
 3790              	.LFB44:
1214:Lib/Camera_Middleware/sensors/vd6g/vd6g.c **** 
1215:Lib/Camera_Middleware/sensors/vd6g/vd6g.c **** int VD6G_GetAnalogGainRegRange(VD6G_Ctx_t *ctx, uint8_t *AGmin, uint8_t *AGmax)
1216:Lib/Camera_Middleware/sensors/vd6g/vd6g.c **** {
 3791              		.loc 1 1216 1 is_stmt 1 view -0
 3792              		.cfi_startproc
 3793              		@ args = 0, pretend = 0, frame = 8
 3794              		@ frame_needed = 0, uses_anonymous_args = 0
1217:Lib/Camera_Middleware/sensors/vd6g/vd6g.c ****   int ret;
 3795              		.loc 1 1217 3 view .LVU1142
1218:Lib/Camera_Middleware/sensors/vd6g/vd6g.c ****   uint8_t value;
 3796              		.loc 1 1218 3 view .LVU1143
1219:Lib/Camera_Middleware/sensors/vd6g/vd6g.c **** 
1220:Lib/Camera_Middleware/sensors/vd6g/vd6g.c ****   if ((AGmin == NULL) || (AGmax == NULL))
 3797              		.loc 1 1220 3 view .LVU1144
1216:Lib/Camera_Middleware/sensors/vd6g/vd6g.c ****   int ret;
 3798              		.loc 1 1216 1 is_stmt 0 view .LVU1145
 3799 0000 F0B5     		push	{r4, r5, r6, r7, lr}
 3800              		.cfi_def_cfa_offset 20
 3801              		.cfi_offset 4, -20
 3802              		.cfi_offset 5, -16
 3803              		.cfi_offset 6, -12
 3804              		.cfi_offset 7, -8
 3805              		.cfi_offset 14, -4
 3806 0002 0546     		mov	r5, r0
 3807 0004 1646     		mov	r6, r2
 3808              		.loc 1 1220 6 view .LVU1146
 3809 0006 0F46     		mov	r7, r1
1216:Lib/Camera_Middleware/sensors/vd6g/vd6g.c ****   int ret;
 3810              		.loc 1 1216 1 view .LVU1147
 3811 0008 85B0     		sub	sp, sp, #20
 3812              		.cfi_def_cfa_offset 40
 3813              		.loc 1 1220 6 view .LVU1148
 3814 000a 71B3     		cbz	r1, .L286
 3815              		.loc 1 1220 23 discriminator 1 view .LVU1149
 3816 000c 6AB3     		cbz	r2, .L286
1221:Lib/Camera_Middleware/sensors/vd6g/vd6g.c ****     return -1;
1222:Lib/Camera_Middleware/sensors/vd6g/vd6g.c **** 
ARM GAS  /tmp/ccWHsT5O.s 			page 107


1223:Lib/Camera_Middleware/sensors/vd6g/vd6g.c ****   ret = ctx->read8(ctx, VD6G_REG_MIN_AG_CODED, &value);
 3817              		.loc 1 1223 3 is_stmt 1 view .LVU1150
 3818              		.loc 1 1223 9 is_stmt 0 view .LVU1151
 3819 000e 40F67E11 		movw	r1, #2430
 3820              	.LVL321:
 3821              		.loc 1 1223 9 view .LVU1152
 3822 0012 4368     		ldr	r3, [r0, #4]
 3823 0014 0DF10F02 		add	r2, sp, #15
 3824              	.LVL322:
 3825              		.loc 1 1223 9 view .LVU1153
 3826 0018 9847     		blx	r3
 3827              	.LVL323:
1224:Lib/Camera_Middleware/sensors/vd6g/vd6g.c ****   VD6G_TraceError(ctx, ret);
 3828              		.loc 1 1224 3 is_stmt 1 view .LVU1154
 3829              		.loc 1 1224 3 view .LVU1155
 3830 001a 0446     		mov	r4, r0
 3831 001c 88B9     		cbnz	r0, .L282
 3832              		.loc 1 1224 3 discriminator 6 view .LVU1156
 3833              		.loc 1 1224 3 discriminator 8 view .LVU1157
1225:Lib/Camera_Middleware/sensors/vd6g/vd6g.c ****   *AGmin = value & VD6G_REG_MIN_AG_CODED_MASK;
 3834              		.loc 1 1225 3 view .LVU1158
 3835              		.loc 1 1225 18 is_stmt 0 view .LVU1159
 3836 001e 9DF80F30 		ldrb	r3, [sp, #15]	@ zero_extendqisi2
1226:Lib/Camera_Middleware/sensors/vd6g/vd6g.c **** 
1227:Lib/Camera_Middleware/sensors/vd6g/vd6g.c ****   ret = ctx->read8(ctx, VD6G_REG_MAX_AG_CODED, &value);
 3837              		.loc 1 1227 9 view .LVU1160
 3838 0022 4FF41661 		mov	r1, #2400
1225:Lib/Camera_Middleware/sensors/vd6g/vd6g.c ****   *AGmin = value & VD6G_REG_MIN_AG_CODED_MASK;
 3839              		.loc 1 1225 18 view .LVU1161
 3840 0026 03F01F03 		and	r3, r3, #31
1225:Lib/Camera_Middleware/sensors/vd6g/vd6g.c ****   *AGmin = value & VD6G_REG_MIN_AG_CODED_MASK;
 3841              		.loc 1 1225 10 view .LVU1162
 3842 002a 3B70     		strb	r3, [r7]
 3843              		.loc 1 1227 3 is_stmt 1 view .LVU1163
 3844              		.loc 1 1227 9 is_stmt 0 view .LVU1164
 3845 002c 2846     		mov	r0, r5
 3846              	.LVL324:
 3847              		.loc 1 1227 9 view .LVU1165
 3848 002e 6B68     		ldr	r3, [r5, #4]
 3849 0030 0DF10F02 		add	r2, sp, #15
 3850 0034 9847     		blx	r3
 3851              	.LVL325:
1228:Lib/Camera_Middleware/sensors/vd6g/vd6g.c ****   VD6G_TraceError(ctx, ret);
 3852              		.loc 1 1228 3 is_stmt 1 view .LVU1166
 3853              		.loc 1 1228 3 view .LVU1167
 3854 0036 0446     		mov	r4, r0
 3855 0038 78B1     		cbz	r0, .L287
 3856              		.loc 1 1228 3 discriminator 1 view .LVU1168
 3857 003a 40F2CC43 		movw	r3, #1228
 3858 003e 0090     		str	r0, [sp]
 3859 0040 02E0     		b	.L288
 3860              	.L282:
1224:Lib/Camera_Middleware/sensors/vd6g/vd6g.c ****   *AGmin = value & VD6G_REG_MIN_AG_CODED_MASK;
 3861              		.loc 1 1224 3 discriminator 1 view .LVU1169
 3862 0042 4FF49963 		mov	r3, #1224
 3863 0046 0090     		str	r0, [sp]
 3864              	.L288:
ARM GAS  /tmp/ccWHsT5O.s 			page 108


 3865              		.loc 1 1228 3 is_stmt 0 discriminator 1 view .LVU1170
 3866 0048 2846     		mov	r0, r5
 3867              	.LVL326:
 3868              		.loc 1 1228 3 discriminator 1 view .LVU1171
 3869 004a 094A     		ldr	r2, .L289
 3870 004c 0949     		ldr	r1, .L289+4
 3871 004e FFF7FEFF 		bl	VD6G_error
 3872              	.LVL327:
 3873              		.loc 1 1228 3 is_stmt 1 discriminator 3 view .LVU1172
 3874              		.loc 1 1228 3 discriminator 4 view .LVU1173
 3875 0052 2846     		mov	r0, r5
 3876 0054 FFF7FEFF 		bl	display_error
 3877              	.LVL328:
 3878              		.loc 1 1228 3 discriminator 6 view .LVU1174
 3879              		.loc 1 1228 3 discriminator 7 view .LVU1175
 3880              		.loc 1 1228 3 is_stmt 0 view .LVU1176
 3881 0058 04E0     		b	.L280
 3882              	.LVL329:
 3883              	.L287:
 3884              		.loc 1 1228 3 is_stmt 1 discriminator 3 view .LVU1177
 3885              		.loc 1 1228 3 discriminator 6 view .LVU1178
 3886              		.loc 1 1228 3 discriminator 8 view .LVU1179
1229:Lib/Camera_Middleware/sensors/vd6g/vd6g.c ****   *AGmax = value & VD6G_REG_MAX_AG_CODED_MASK;
 3887              		.loc 1 1229 3 view .LVU1180
 3888              		.loc 1 1229 18 is_stmt 0 view .LVU1181
 3889 005a 9DF80F30 		ldrb	r3, [sp, #15]	@ zero_extendqisi2
 3890 005e 03F01F03 		and	r3, r3, #31
 3891              		.loc 1 1229 10 view .LVU1182
 3892 0062 3370     		strb	r3, [r6]
1230:Lib/Camera_Middleware/sensors/vd6g/vd6g.c **** 
1231:Lib/Camera_Middleware/sensors/vd6g/vd6g.c ****   return 0;
 3893              		.loc 1 1231 3 is_stmt 1 view .LVU1183
 3894              	.LVL330:
 3895              	.L280:
1232:Lib/Camera_Middleware/sensors/vd6g/vd6g.c **** }
 3896              		.loc 1 1232 1 is_stmt 0 view .LVU1184
 3897 0064 2046     		mov	r0, r4
 3898 0066 05B0     		add	sp, sp, #20
 3899              		.cfi_remember_state
 3900              		.cfi_def_cfa_offset 20
 3901              		@ sp needed
 3902 0068 F0BD     		pop	{r4, r5, r6, r7, pc}
 3903              	.LVL331:
 3904              	.L286:
 3905              		.cfi_restore_state
1221:Lib/Camera_Middleware/sensors/vd6g/vd6g.c **** 
 3906              		.loc 1 1221 12 view .LVU1185
 3907 006a 4FF0FF34 		mov	r4, #-1
 3908 006e F9E7     		b	.L280
 3909              	.L290:
 3910              		.align	2
 3911              	.L289:
 3912 0070 00000000 		.word	__func__.6
 3913 0074 00000000 		.word	.LC4
 3914              		.cfi_endproc
 3915              	.LFE44:
 3917              		.section	.text.VD6G_SetAnalogGain,"ax",%progbits
ARM GAS  /tmp/ccWHsT5O.s 			page 109


 3918              		.align	1
 3919              		.global	VD6G_SetAnalogGain
 3920              		.syntax unified
 3921              		.thumb
 3922              		.thumb_func
 3924              	VD6G_SetAnalogGain:
 3925              	.LVL332:
 3926              	.LFB45:
1233:Lib/Camera_Middleware/sensors/vd6g/vd6g.c **** 
1234:Lib/Camera_Middleware/sensors/vd6g/vd6g.c **** int VD6G_SetAnalogGain(VD6G_Ctx_t *ctx, int gain)
1235:Lib/Camera_Middleware/sensors/vd6g/vd6g.c **** {
 3927              		.loc 1 1235 1 is_stmt 1 view -0
 3928              		.cfi_startproc
 3929              		@ args = 0, pretend = 0, frame = 8
 3930              		@ frame_needed = 0, uses_anonymous_args = 0
1236:Lib/Camera_Middleware/sensors/vd6g/vd6g.c ****   int ret;
 3931              		.loc 1 1236 3 view .LVU1187
1237:Lib/Camera_Middleware/sensors/vd6g/vd6g.c ****   uint8_t again_regmin, again_regmax;
 3932              		.loc 1 1237 3 view .LVU1188
1238:Lib/Camera_Middleware/sensors/vd6g/vd6g.c **** 
1239:Lib/Camera_Middleware/sensors/vd6g/vd6g.c ****   ret = VD6G_GetAnalogGainRegRange(ctx, &again_regmin, &again_regmax);
 3933              		.loc 1 1239 3 view .LVU1189
1235:Lib/Camera_Middleware/sensors/vd6g/vd6g.c ****   int ret;
 3934              		.loc 1 1235 1 is_stmt 0 view .LVU1190
 3935 0000 7FB5     		push	{r0, r1, r2, r3, r4, r5, r6, lr}
 3936              		.cfi_def_cfa_offset 32
 3937              		.cfi_offset 4, -16
 3938              		.cfi_offset 5, -12
 3939              		.cfi_offset 6, -8
 3940              		.cfi_offset 14, -4
1235:Lib/Camera_Middleware/sensors/vd6g/vd6g.c ****   int ret;
 3941              		.loc 1 1235 1 view .LVU1191
 3942 0002 0E46     		mov	r6, r1
 3943              		.loc 1 1239 9 view .LVU1192
 3944 0004 0DF10F02 		add	r2, sp, #15
 3945 0008 0DF10E01 		add	r1, sp, #14
 3946              	.LVL333:
1235:Lib/Camera_Middleware/sensors/vd6g/vd6g.c ****   int ret;
 3947              		.loc 1 1235 1 view .LVU1193
 3948 000c 0546     		mov	r5, r0
 3949              		.loc 1 1239 9 view .LVU1194
 3950 000e FFF7FEFF 		bl	VD6G_GetAnalogGainRegRange
 3951              	.LVL334:
1240:Lib/Camera_Middleware/sensors/vd6g/vd6g.c ****   if (ret)
 3952              		.loc 1 1240 3 is_stmt 1 view .LVU1195
 3953              		.loc 1 1240 6 is_stmt 0 view .LVU1196
 3954 0012 0446     		mov	r4, r0
 3955 0014 D0B9     		cbnz	r0, .L291
1241:Lib/Camera_Middleware/sensors/vd6g/vd6g.c ****     return ret;
1242:Lib/Camera_Middleware/sensors/vd6g/vd6g.c **** 
1243:Lib/Camera_Middleware/sensors/vd6g/vd6g.c ****   ret = CHECK_RANGE(gain, again_regmin, again_regmax);
 3956              		.loc 1 1243 3 is_stmt 1 view .LVU1197
 3957              		.loc 1 1243 9 is_stmt 0 view .LVU1198
 3958 0016 9DF80E30 		ldrb	r3, [sp, #14]	@ zero_extendqisi2
 3959 001a B342     		cmp	r3, r6
 3960 001c 19DC     		bgt	.L295
 3961              		.loc 1 1243 9 discriminator 1 view .LVU1199
ARM GAS  /tmp/ccWHsT5O.s 			page 110


 3962 001e 9DF80F30 		ldrb	r3, [sp, #15]	@ zero_extendqisi2
 3963 0022 B342     		cmp	r3, r6
 3964 0024 15DB     		blt	.L295
 3965              	.LVL335:
1244:Lib/Camera_Middleware/sensors/vd6g/vd6g.c ****   if (ret)
 3966              		.loc 1 1244 3 is_stmt 1 view .LVU1200
1245:Lib/Camera_Middleware/sensors/vd6g/vd6g.c ****     return ret;
1246:Lib/Camera_Middleware/sensors/vd6g/vd6g.c **** 
1247:Lib/Camera_Middleware/sensors/vd6g/vd6g.c ****   ret = ctx->write8(ctx, VD6G_REG_MANUAL_ANALOG_GAIN, gain);
 3967              		.loc 1 1247 3 view .LVU1201
 3968              		.loc 1 1247 9 is_stmt 0 view .LVU1202
 3969 0026 40F24D41 		movw	r1, #1101
 3970 002a 2846     		mov	r0, r5
 3971 002c 2B69     		ldr	r3, [r5, #16]
 3972 002e F2B2     		uxtb	r2, r6
 3973 0030 9847     		blx	r3
 3974              	.LVL336:
1248:Lib/Camera_Middleware/sensors/vd6g/vd6g.c ****   VD6G_TraceError(ctx, ret);
 3975              		.loc 1 1248 3 is_stmt 1 view .LVU1203
 3976              		.loc 1 1248 3 view .LVU1204
 3977 0032 0446     		mov	r4, r0
 3978 0034 50B1     		cbz	r0, .L291
 3979              		.loc 1 1248 3 discriminator 1 view .LVU1205
 3980 0036 0090     		str	r0, [sp]
 3981 0038 4FF49C63 		mov	r3, #1248
 3982 003c 2846     		mov	r0, r5
 3983              	.LVL337:
 3984              		.loc 1 1248 3 is_stmt 0 discriminator 1 view .LVU1206
 3985 003e 064A     		ldr	r2, .L299
 3986 0040 0649     		ldr	r1, .L299+4
 3987 0042 FFF7FEFF 		bl	VD6G_error
 3988              	.LVL338:
 3989              		.loc 1 1248 3 is_stmt 1 discriminator 3 view .LVU1207
 3990              		.loc 1 1248 3 discriminator 4 view .LVU1208
 3991 0046 2846     		mov	r0, r5
 3992 0048 FFF7FEFF 		bl	display_error
 3993              	.LVL339:
 3994              		.loc 1 1248 3 discriminator 6 view .LVU1209
 3995              		.loc 1 1248 3 discriminator 7 view .LVU1210
 3996              	.L291:
1249:Lib/Camera_Middleware/sensors/vd6g/vd6g.c **** 
1250:Lib/Camera_Middleware/sensors/vd6g/vd6g.c ****   return 0;
1251:Lib/Camera_Middleware/sensors/vd6g/vd6g.c **** }
 3997              		.loc 1 1251 1 is_stmt 0 view .LVU1211
 3998 004c 2046     		mov	r0, r4
 3999 004e 04B0     		add	sp, sp, #16
 4000              		.cfi_remember_state
 4001              		.cfi_def_cfa_offset 16
 4002              		@ sp needed
 4003 0050 70BD     		pop	{r4, r5, r6, pc}
 4004              	.LVL340:
 4005              	.L295:
 4006              		.cfi_restore_state
1245:Lib/Camera_Middleware/sensors/vd6g/vd6g.c **** 
 4007              		.loc 1 1245 12 view .LVU1212
 4008 0052 4FF0FF34 		mov	r4, #-1
 4009              	.LVL341:
ARM GAS  /tmp/ccWHsT5O.s 			page 111


1245:Lib/Camera_Middleware/sensors/vd6g/vd6g.c **** 
 4010              		.loc 1 1245 12 view .LVU1213
 4011 0056 F9E7     		b	.L291
 4012              	.L300:
 4013              		.align	2
 4014              	.L299:
 4015 0058 00000000 		.word	__func__.5
 4016 005c 00000000 		.word	.LC4
 4017              		.cfi_endproc
 4018              	.LFE45:
 4020              		.section	.text.VD6G_GetDigitalGainRegRange,"ax",%progbits
 4021              		.align	1
 4022              		.global	VD6G_GetDigitalGainRegRange
 4023              		.syntax unified
 4024              		.thumb
 4025              		.thumb_func
 4027              	VD6G_GetDigitalGainRegRange:
 4028              	.LVL342:
 4029              	.LFB46:
1252:Lib/Camera_Middleware/sensors/vd6g/vd6g.c **** 
1253:Lib/Camera_Middleware/sensors/vd6g/vd6g.c **** int VD6G_GetDigitalGainRegRange(VD6G_Ctx_t *ctx, uint16_t *DGmin, uint16_t *DGmax)
1254:Lib/Camera_Middleware/sensors/vd6g/vd6g.c **** {
 4030              		.loc 1 1254 1 is_stmt 1 view -0
 4031              		.cfi_startproc
 4032              		@ args = 0, pretend = 0, frame = 0
 4033              		@ frame_needed = 0, uses_anonymous_args = 0
1255:Lib/Camera_Middleware/sensors/vd6g/vd6g.c ****   int ret;
 4034              		.loc 1 1255 3 view .LVU1215
1256:Lib/Camera_Middleware/sensors/vd6g/vd6g.c **** 
1257:Lib/Camera_Middleware/sensors/vd6g/vd6g.c ****   if ((DGmin == NULL) && (DGmax == NULL))
 4035              		.loc 1 1257 3 view .LVU1216
1254:Lib/Camera_Middleware/sensors/vd6g/vd6g.c ****   int ret;
 4036              		.loc 1 1254 1 is_stmt 0 view .LVU1217
 4037 0000 73B5     		push	{r0, r1, r4, r5, r6, lr}
 4038              		.cfi_def_cfa_offset 24
 4039              		.cfi_offset 4, -16
 4040              		.cfi_offset 5, -12
 4041              		.cfi_offset 6, -8
 4042              		.cfi_offset 14, -4
1254:Lib/Camera_Middleware/sensors/vd6g/vd6g.c ****   int ret;
 4043              		.loc 1 1254 1 view .LVU1218
 4044 0002 1646     		mov	r6, r2
 4045 0004 0546     		mov	r5, r0
 4046              		.loc 1 1257 6 view .LVU1219
 4047 0006 0A46     		mov	r2, r1
 4048              	.LVL343:
 4049              		.loc 1 1257 6 view .LVU1220
 4050 0008 01B9     		cbnz	r1, .L302
 4051              		.loc 1 1257 23 discriminator 1 view .LVU1221
 4052 000a 06B3     		cbz	r6, .L307
 4053              	.L302:
1258:Lib/Camera_Middleware/sensors/vd6g/vd6g.c ****     return -1;
1259:Lib/Camera_Middleware/sensors/vd6g/vd6g.c **** 
1260:Lib/Camera_Middleware/sensors/vd6g/vd6g.c ****   ret = ctx->read16(ctx, VD6G_REG_MIN_DG, DGmin);
 4054              		.loc 1 1260 3 is_stmt 1 view .LVU1222
 4055              		.loc 1 1260 9 is_stmt 0 view .LVU1223
 4056 000c 40F67C11 		movw	r1, #2428
ARM GAS  /tmp/ccWHsT5O.s 			page 112


 4057              	.LVL344:
 4058              		.loc 1 1260 9 view .LVU1224
 4059 0010 2846     		mov	r0, r5
 4060              	.LVL345:
 4061              		.loc 1 1260 9 view .LVU1225
 4062 0012 AB68     		ldr	r3, [r5, #8]
 4063 0014 9847     		blx	r3
 4064              	.LVL346:
1261:Lib/Camera_Middleware/sensors/vd6g/vd6g.c ****   VD6G_TraceError(ctx, ret);
 4065              		.loc 1 1261 3 is_stmt 1 view .LVU1226
 4066              		.loc 1 1261 3 view .LVU1227
 4067 0016 0446     		mov	r4, r0
 4068 0018 58B9     		cbnz	r0, .L304
 4069              		.loc 1 1261 3 discriminator 6 view .LVU1228
 4070              		.loc 1 1261 3 discriminator 8 view .LVU1229
1262:Lib/Camera_Middleware/sensors/vd6g/vd6g.c **** 
1263:Lib/Camera_Middleware/sensors/vd6g/vd6g.c ****   ret = ctx->read16(ctx, VD6G_REG_MAX_DG, DGmax);
 4071              		.loc 1 1263 3 view .LVU1230
 4072              		.loc 1 1263 9 is_stmt 0 view .LVU1231
 4073 001a 3246     		mov	r2, r6
 4074 001c 40F65E11 		movw	r1, #2398
 4075 0020 2846     		mov	r0, r5
 4076              	.LVL347:
 4077              		.loc 1 1263 9 view .LVU1232
 4078 0022 AB68     		ldr	r3, [r5, #8]
 4079 0024 9847     		blx	r3
 4080              	.LVL348:
1264:Lib/Camera_Middleware/sensors/vd6g/vd6g.c ****   VD6G_TraceError(ctx, ret);
 4081              		.loc 1 1264 3 is_stmt 1 view .LVU1233
 4082              		.loc 1 1264 3 view .LVU1234
 4083 0026 0446     		mov	r4, r0
 4084 0028 70B1     		cbz	r0, .L301
 4085              		.loc 1 1264 3 discriminator 1 view .LVU1235
 4086 002a 4FF49E63 		mov	r3, #1264
 4087 002e 0090     		str	r0, [sp]
 4088 0030 02E0     		b	.L308
 4089              	.L304:
1261:Lib/Camera_Middleware/sensors/vd6g/vd6g.c ****   VD6G_TraceError(ctx, ret);
 4090              		.loc 1 1261 3 discriminator 1 view .LVU1236
 4091 0032 40F2ED43 		movw	r3, #1261
 4092 0036 0090     		str	r0, [sp]
 4093              	.L308:
 4094              		.loc 1 1264 3 is_stmt 0 discriminator 1 view .LVU1237
 4095 0038 2846     		mov	r0, r5
 4096              	.LVL349:
 4097              		.loc 1 1264 3 discriminator 1 view .LVU1238
 4098 003a 064A     		ldr	r2, .L309
 4099 003c 0649     		ldr	r1, .L309+4
 4100 003e FFF7FEFF 		bl	VD6G_error
 4101              	.LVL350:
 4102              		.loc 1 1264 3 is_stmt 1 discriminator 3 view .LVU1239
 4103              		.loc 1 1264 3 discriminator 4 view .LVU1240
 4104 0042 2846     		mov	r0, r5
 4105 0044 FFF7FEFF 		bl	display_error
 4106              	.LVL351:
 4107              		.loc 1 1264 3 discriminator 6 view .LVU1241
 4108              		.loc 1 1264 3 discriminator 7 view .LVU1242
ARM GAS  /tmp/ccWHsT5O.s 			page 113


 4109              	.L301:
1265:Lib/Camera_Middleware/sensors/vd6g/vd6g.c **** 
1266:Lib/Camera_Middleware/sensors/vd6g/vd6g.c ****   return 0;
1267:Lib/Camera_Middleware/sensors/vd6g/vd6g.c **** }
 4110              		.loc 1 1267 1 is_stmt 0 view .LVU1243
 4111 0048 2046     		mov	r0, r4
 4112 004a 02B0     		add	sp, sp, #8
 4113              		.cfi_remember_state
 4114              		.cfi_def_cfa_offset 16
 4115              		@ sp needed
 4116 004c 70BD     		pop	{r4, r5, r6, pc}
 4117              	.LVL352:
 4118              	.L307:
 4119              		.cfi_restore_state
1258:Lib/Camera_Middleware/sensors/vd6g/vd6g.c **** 
 4120              		.loc 1 1258 12 view .LVU1244
 4121 004e 4FF0FF34 		mov	r4, #-1
 4122 0052 F9E7     		b	.L301
 4123              	.L310:
 4124              		.align	2
 4125              	.L309:
 4126 0054 00000000 		.word	__func__.4
 4127 0058 00000000 		.word	.LC4
 4128              		.cfi_endproc
 4129              	.LFE46:
 4131              		.section	.text.VD6G_SetDigitalGain,"ax",%progbits
 4132              		.align	1
 4133              		.global	VD6G_SetDigitalGain
 4134              		.syntax unified
 4135              		.thumb
 4136              		.thumb_func
 4138              	VD6G_SetDigitalGain:
 4139              	.LVL353:
 4140              	.LFB47:
1268:Lib/Camera_Middleware/sensors/vd6g/vd6g.c **** 
1269:Lib/Camera_Middleware/sensors/vd6g/vd6g.c **** int VD6G_SetDigitalGain(VD6G_Ctx_t *ctx, int gain)
1270:Lib/Camera_Middleware/sensors/vd6g/vd6g.c **** {
 4141              		.loc 1 1270 1 is_stmt 1 view -0
 4142              		.cfi_startproc
 4143              		@ args = 0, pretend = 0, frame = 8
 4144              		@ frame_needed = 0, uses_anonymous_args = 0
1271:Lib/Camera_Middleware/sensors/vd6g/vd6g.c ****   int ret;
 4145              		.loc 1 1271 3 view .LVU1246
1272:Lib/Camera_Middleware/sensors/vd6g/vd6g.c ****   uint16_t dgain_regmin, dgain_regmax;
 4146              		.loc 1 1272 3 view .LVU1247
1273:Lib/Camera_Middleware/sensors/vd6g/vd6g.c **** 
1274:Lib/Camera_Middleware/sensors/vd6g/vd6g.c ****   ret = VD6G_GetDigitalGainRegRange(ctx, &dgain_regmin, &dgain_regmax);
 4147              		.loc 1 1274 3 view .LVU1248
1270:Lib/Camera_Middleware/sensors/vd6g/vd6g.c ****   int ret;
 4148              		.loc 1 1270 1 is_stmt 0 view .LVU1249
 4149 0000 7FB5     		push	{r0, r1, r2, r3, r4, r5, r6, lr}
 4150              		.cfi_def_cfa_offset 32
 4151              		.cfi_offset 4, -16
 4152              		.cfi_offset 5, -12
 4153              		.cfi_offset 6, -8
 4154              		.cfi_offset 14, -4
1270:Lib/Camera_Middleware/sensors/vd6g/vd6g.c ****   int ret;
ARM GAS  /tmp/ccWHsT5O.s 			page 114


 4155              		.loc 1 1270 1 view .LVU1250
 4156 0002 0E46     		mov	r6, r1
 4157              		.loc 1 1274 9 view .LVU1251
 4158 0004 0DF10E02 		add	r2, sp, #14
 4159 0008 03A9     		add	r1, sp, #12
 4160              	.LVL354:
1270:Lib/Camera_Middleware/sensors/vd6g/vd6g.c ****   int ret;
 4161              		.loc 1 1270 1 view .LVU1252
 4162 000a 0546     		mov	r5, r0
 4163              		.loc 1 1274 9 view .LVU1253
 4164 000c FFF7FEFF 		bl	VD6G_GetDigitalGainRegRange
 4165              	.LVL355:
1275:Lib/Camera_Middleware/sensors/vd6g/vd6g.c ****   if (ret)
 4166              		.loc 1 1275 3 is_stmt 1 view .LVU1254
 4167              		.loc 1 1275 6 is_stmt 0 view .LVU1255
 4168 0010 0446     		mov	r4, r0
 4169 0012 38BB     		cbnz	r0, .L311
1276:Lib/Camera_Middleware/sensors/vd6g/vd6g.c ****     return ret;
1277:Lib/Camera_Middleware/sensors/vd6g/vd6g.c **** 
1278:Lib/Camera_Middleware/sensors/vd6g/vd6g.c ****   ret = CHECK_RANGE(gain, dgain_regmin, dgain_regmax);
 4170              		.loc 1 1278 3 is_stmt 1 view .LVU1256
 4171              		.loc 1 1278 9 is_stmt 0 view .LVU1257
 4172 0014 BDF80C30 		ldrh	r3, [sp, #12]
 4173 0018 B342     		cmp	r3, r6
 4174 001a 3FDC     		bgt	.L321
 4175              		.loc 1 1278 9 discriminator 1 view .LVU1258
 4176 001c BDF80E30 		ldrh	r3, [sp, #14]
 4177 0020 B342     		cmp	r3, r6
 4178 0022 3BDB     		blt	.L321
 4179              	.LVL356:
1279:Lib/Camera_Middleware/sensors/vd6g/vd6g.c ****   if (ret)
 4180              		.loc 1 1279 3 is_stmt 1 view .LVU1259
1280:Lib/Camera_Middleware/sensors/vd6g/vd6g.c ****     return ret;
1281:Lib/Camera_Middleware/sensors/vd6g/vd6g.c **** 
1282:Lib/Camera_Middleware/sensors/vd6g/vd6g.c ****   ret = ctx->write16(ctx, VD6G_REG_MANUAL_CH0_DIGITAL_GAIN, gain);
 4181              		.loc 1 1282 3 view .LVU1260
 4182              		.loc 1 1282 9 is_stmt 0 view .LVU1261
 4183 0024 B6B2     		uxth	r6, r6
 4184              	.LVL357:
 4185              		.loc 1 1282 9 view .LVU1262
 4186 0026 3246     		mov	r2, r6
 4187 0028 4FF48A61 		mov	r1, #1104
 4188 002c 2846     		mov	r0, r5
 4189 002e 6B69     		ldr	r3, [r5, #20]
 4190 0030 9847     		blx	r3
 4191              	.LVL358:
1283:Lib/Camera_Middleware/sensors/vd6g/vd6g.c ****   VD6G_TraceError(ctx, ret);
 4192              		.loc 1 1283 3 is_stmt 1 view .LVU1263
 4193              		.loc 1 1283 3 view .LVU1264
 4194 0032 0446     		mov	r4, r0
 4195 0034 58B9     		cbnz	r0, .L313
 4196              		.loc 1 1283 3 discriminator 3 view .LVU1265
 4197              		.loc 1 1283 3 discriminator 6 view .LVU1266
 4198              		.loc 1 1283 3 discriminator 8 view .LVU1267
1284:Lib/Camera_Middleware/sensors/vd6g/vd6g.c **** 
1285:Lib/Camera_Middleware/sensors/vd6g/vd6g.c ****   ret = ctx->write16(ctx, VD6G_REG_MANUAL_CH1_DIGITAL_GAIN, gain);
 4199              		.loc 1 1285 3 view .LVU1268
ARM GAS  /tmp/ccWHsT5O.s 			page 115


 4200              		.loc 1 1285 9 is_stmt 0 view .LVU1269
 4201 0036 3246     		mov	r2, r6
 4202 0038 40F25241 		movw	r1, #1106
 4203 003c 2846     		mov	r0, r5
 4204              	.LVL359:
 4205              		.loc 1 1285 9 view .LVU1270
 4206 003e 6B69     		ldr	r3, [r5, #20]
 4207 0040 9847     		blx	r3
 4208              	.LVL360:
1286:Lib/Camera_Middleware/sensors/vd6g/vd6g.c ****   VD6G_TraceError(ctx, ret);
 4209              		.loc 1 1286 3 is_stmt 1 view .LVU1271
 4210              		.loc 1 1286 3 view .LVU1272
 4211 0042 0446     		mov	r4, r0
 4212 0044 88B1     		cbz	r0, .L322
 4213              		.loc 1 1286 3 discriminator 1 view .LVU1273
 4214 0046 40F20653 		movw	r3, #1286
 4215 004a 0090     		str	r0, [sp]
 4216 004c 02E0     		b	.L324
 4217              	.L313:
1283:Lib/Camera_Middleware/sensors/vd6g/vd6g.c ****   VD6G_TraceError(ctx, ret);
 4218              		.loc 1 1283 3 discriminator 1 view .LVU1274
 4219 004e 40F20353 		movw	r3, #1283
 4220 0052 0090     		str	r0, [sp]
 4221              	.L324:
1287:Lib/Camera_Middleware/sensors/vd6g/vd6g.c **** 
1288:Lib/Camera_Middleware/sensors/vd6g/vd6g.c ****   ret = ctx->write16(ctx, VD6G_REG_MANUAL_CH2_DIGITAL_GAIN, gain);
1289:Lib/Camera_Middleware/sensors/vd6g/vd6g.c ****   VD6G_TraceError(ctx, ret);
1290:Lib/Camera_Middleware/sensors/vd6g/vd6g.c **** 
1291:Lib/Camera_Middleware/sensors/vd6g/vd6g.c ****   ret = ctx->write16(ctx, VD6G_REG_MANUAL_CH3_DIGITAL_GAIN, gain);
1292:Lib/Camera_Middleware/sensors/vd6g/vd6g.c ****   VD6G_TraceError(ctx, ret);
 4222              		.loc 1 1292 3 is_stmt 0 discriminator 1 view .LVU1275
 4223 0054 2846     		mov	r0, r5
 4224              	.LVL361:
 4225              		.loc 1 1292 3 discriminator 1 view .LVU1276
 4226 0056 134A     		ldr	r2, .L325
 4227 0058 1349     		ldr	r1, .L325+4
 4228 005a FFF7FEFF 		bl	VD6G_error
 4229              	.LVL362:
 4230              		.loc 1 1292 3 is_stmt 1 discriminator 3 view .LVU1277
 4231              		.loc 1 1292 3 discriminator 4 view .LVU1278
 4232 005e 2846     		mov	r0, r5
 4233 0060 FFF7FEFF 		bl	display_error
 4234              	.LVL363:
 4235              		.loc 1 1292 3 discriminator 6 view .LVU1279
 4236              		.loc 1 1292 3 discriminator 7 view .LVU1280
 4237              	.L311:
1293:Lib/Camera_Middleware/sensors/vd6g/vd6g.c **** 
1294:Lib/Camera_Middleware/sensors/vd6g/vd6g.c ****   return 0;
1295:Lib/Camera_Middleware/sensors/vd6g/vd6g.c **** }
 4238              		.loc 1 1295 1 is_stmt 0 view .LVU1281
 4239 0064 2046     		mov	r0, r4
 4240 0066 04B0     		add	sp, sp, #16
 4241              		.cfi_remember_state
 4242              		.cfi_def_cfa_offset 16
 4243              		@ sp needed
 4244 0068 70BD     		pop	{r4, r5, r6, pc}
 4245              	.LVL364:
ARM GAS  /tmp/ccWHsT5O.s 			page 116


 4246              	.L322:
 4247              		.cfi_restore_state
1286:Lib/Camera_Middleware/sensors/vd6g/vd6g.c **** 
 4248              		.loc 1 1286 3 is_stmt 1 discriminator 3 view .LVU1282
1286:Lib/Camera_Middleware/sensors/vd6g/vd6g.c **** 
 4249              		.loc 1 1286 3 discriminator 6 view .LVU1283
1286:Lib/Camera_Middleware/sensors/vd6g/vd6g.c **** 
 4250              		.loc 1 1286 3 discriminator 8 view .LVU1284
1288:Lib/Camera_Middleware/sensors/vd6g/vd6g.c ****   VD6G_TraceError(ctx, ret);
 4251              		.loc 1 1288 3 view .LVU1285
1288:Lib/Camera_Middleware/sensors/vd6g/vd6g.c ****   VD6G_TraceError(ctx, ret);
 4252              		.loc 1 1288 9 is_stmt 0 view .LVU1286
 4253 006a 3246     		mov	r2, r6
 4254 006c 40F25441 		movw	r1, #1108
 4255 0070 2846     		mov	r0, r5
 4256              	.LVL365:
1288:Lib/Camera_Middleware/sensors/vd6g/vd6g.c ****   VD6G_TraceError(ctx, ret);
 4257              		.loc 1 1288 9 view .LVU1287
 4258 0072 6B69     		ldr	r3, [r5, #20]
 4259 0074 9847     		blx	r3
 4260              	.LVL366:
1289:Lib/Camera_Middleware/sensors/vd6g/vd6g.c **** 
 4261              		.loc 1 1289 3 is_stmt 1 view .LVU1288
1289:Lib/Camera_Middleware/sensors/vd6g/vd6g.c **** 
 4262              		.loc 1 1289 3 view .LVU1289
 4263 0076 0446     		mov	r4, r0
 4264 0078 18B1     		cbz	r0, .L323
1289:Lib/Camera_Middleware/sensors/vd6g/vd6g.c **** 
 4265              		.loc 1 1289 3 discriminator 1 view .LVU1290
 4266 007a 40F20953 		movw	r3, #1289
 4267 007e 0090     		str	r0, [sp]
 4268 0080 E8E7     		b	.L324
 4269              	.L323:
1289:Lib/Camera_Middleware/sensors/vd6g/vd6g.c **** 
 4270              		.loc 1 1289 3 discriminator 3 view .LVU1291
1289:Lib/Camera_Middleware/sensors/vd6g/vd6g.c **** 
 4271              		.loc 1 1289 3 discriminator 6 view .LVU1292
1289:Lib/Camera_Middleware/sensors/vd6g/vd6g.c **** 
 4272              		.loc 1 1289 3 discriminator 8 view .LVU1293
1291:Lib/Camera_Middleware/sensors/vd6g/vd6g.c ****   VD6G_TraceError(ctx, ret);
 4273              		.loc 1 1291 3 view .LVU1294
1291:Lib/Camera_Middleware/sensors/vd6g/vd6g.c ****   VD6G_TraceError(ctx, ret);
 4274              		.loc 1 1291 9 is_stmt 0 view .LVU1295
 4275 0082 3246     		mov	r2, r6
 4276 0084 40F25641 		movw	r1, #1110
 4277 0088 2846     		mov	r0, r5
 4278              	.LVL367:
1291:Lib/Camera_Middleware/sensors/vd6g/vd6g.c ****   VD6G_TraceError(ctx, ret);
 4279              		.loc 1 1291 9 view .LVU1296
 4280 008a 6B69     		ldr	r3, [r5, #20]
 4281 008c 9847     		blx	r3
 4282              	.LVL368:
1292:Lib/Camera_Middleware/sensors/vd6g/vd6g.c **** 
 4283              		.loc 1 1292 3 is_stmt 1 view .LVU1297
1292:Lib/Camera_Middleware/sensors/vd6g/vd6g.c **** 
 4284              		.loc 1 1292 3 view .LVU1298
 4285 008e 0446     		mov	r4, r0
ARM GAS  /tmp/ccWHsT5O.s 			page 117


 4286 0090 0028     		cmp	r0, #0
 4287 0092 E7D0     		beq	.L311
1292:Lib/Camera_Middleware/sensors/vd6g/vd6g.c **** 
 4288              		.loc 1 1292 3 discriminator 1 view .LVU1299
 4289 0094 40F20C53 		movw	r3, #1292
 4290 0098 0090     		str	r0, [sp]
 4291 009a DBE7     		b	.L324
 4292              	.LVL369:
 4293              	.L321:
1280:Lib/Camera_Middleware/sensors/vd6g/vd6g.c **** 
 4294              		.loc 1 1280 12 is_stmt 0 view .LVU1300
 4295 009c 4FF0FF34 		mov	r4, #-1
 4296              	.LVL370:
1280:Lib/Camera_Middleware/sensors/vd6g/vd6g.c **** 
 4297              		.loc 1 1280 12 view .LVU1301
 4298 00a0 E0E7     		b	.L311
 4299              	.L326:
 4300 00a2 00BF     		.align	2
 4301              	.L325:
 4302 00a4 00000000 		.word	__func__.3
 4303 00a8 00000000 		.word	.LC4
 4304              		.cfi_endproc
 4305              	.LFE47:
 4307              		.section	.text.VD6G_GetExposureRegRange,"ax",%progbits
 4308              		.align	1
 4309              		.global	VD6G_GetExposureRegRange
 4310              		.syntax unified
 4311              		.thumb
 4312              		.thumb_func
 4314              	VD6G_GetExposureRegRange:
 4315              	.LVL371:
 4316              	.LFB48:
1296:Lib/Camera_Middleware/sensors/vd6g/vd6g.c **** 
1297:Lib/Camera_Middleware/sensors/vd6g/vd6g.c **** int VD6G_GetExposureRegRange(VD6G_Ctx_t *ctx, uint32_t *min_us, uint32_t *max_us)
1298:Lib/Camera_Middleware/sensors/vd6g/vd6g.c **** {
 4317              		.loc 1 1298 1 is_stmt 1 view -0
 4318              		.cfi_startproc
 4319              		@ args = 0, pretend = 0, frame = 8
 4320              		@ frame_needed = 0, uses_anonymous_args = 0
1299:Lib/Camera_Middleware/sensors/vd6g/vd6g.c ****   uint16_t exp_coarse_intg_margin;
 4321              		.loc 1 1299 3 view .LVU1303
1300:Lib/Camera_Middleware/sensors/vd6g/vd6g.c ****   uint32_t line_time_in_us;
 4322              		.loc 1 1300 3 view .LVU1304
1301:Lib/Camera_Middleware/sensors/vd6g/vd6g.c ****   uint16_t frame_length;
 4323              		.loc 1 1301 3 view .LVU1305
1302:Lib/Camera_Middleware/sensors/vd6g/vd6g.c ****   int ret;
 4324              		.loc 1 1302 3 view .LVU1306
1303:Lib/Camera_Middleware/sensors/vd6g/vd6g.c **** 
1304:Lib/Camera_Middleware/sensors/vd6g/vd6g.c ****   if ((min_us == NULL) || (max_us == NULL))
 4325              		.loc 1 1304 3 view .LVU1307
1298:Lib/Camera_Middleware/sensors/vd6g/vd6g.c ****   uint16_t exp_coarse_intg_margin;
 4326              		.loc 1 1298 1 is_stmt 0 view .LVU1308
 4327 0000 2DE9FF41 		push	{r0, r1, r2, r3, r4, r5, r6, r7, r8, lr}
 4328              		.cfi_def_cfa_offset 40
 4329              		.cfi_offset 4, -24
 4330              		.cfi_offset 5, -20
 4331              		.cfi_offset 6, -16
ARM GAS  /tmp/ccWHsT5O.s 			page 118


 4332              		.cfi_offset 7, -12
 4333              		.cfi_offset 8, -8
 4334              		.cfi_offset 14, -4
1298:Lib/Camera_Middleware/sensors/vd6g/vd6g.c ****   uint16_t exp_coarse_intg_margin;
 4335              		.loc 1 1298 1 view .LVU1309
 4336 0004 0546     		mov	r5, r0
 4337 0006 1646     		mov	r6, r2
 4338              		.loc 1 1304 6 view .LVU1310
 4339 0008 0F46     		mov	r7, r1
 4340 000a 29B9     		cbnz	r1, .L328
 4341              	.LVL372:
 4342              	.L330:
1305:Lib/Camera_Middleware/sensors/vd6g/vd6g.c ****     return -1;
 4343              		.loc 1 1305 12 view .LVU1311
 4344 000c 4FF0FF34 		mov	r4, #-1
 4345              	.L327:
1306:Lib/Camera_Middleware/sensors/vd6g/vd6g.c **** 
1307:Lib/Camera_Middleware/sensors/vd6g/vd6g.c ****   ret = VD6G_GetLineTimeInUs(ctx, &line_time_in_us);
1308:Lib/Camera_Middleware/sensors/vd6g/vd6g.c ****   if (ret)
1309:Lib/Camera_Middleware/sensors/vd6g/vd6g.c ****     return ret;
1310:Lib/Camera_Middleware/sensors/vd6g/vd6g.c **** 
1311:Lib/Camera_Middleware/sensors/vd6g/vd6g.c ****   *min_us = VD6G_MIN_MANUAL_EXP_COARSE * line_time_in_us;
1312:Lib/Camera_Middleware/sensors/vd6g/vd6g.c **** 
1313:Lib/Camera_Middleware/sensors/vd6g/vd6g.c ****   ret = ctx->read16(ctx, VD6G_FRAME_LENGTH, &frame_length);
1314:Lib/Camera_Middleware/sensors/vd6g/vd6g.c ****   VD6G_TraceError(ctx, ret);
1315:Lib/Camera_Middleware/sensors/vd6g/vd6g.c **** 
1316:Lib/Camera_Middleware/sensors/vd6g/vd6g.c ****   ret = ctx->read16(ctx, VD6G_REG_EXP_COARSE_INTG_MARGIN, &exp_coarse_intg_margin);
1317:Lib/Camera_Middleware/sensors/vd6g/vd6g.c ****   VD6G_TraceError(ctx, ret);
1318:Lib/Camera_Middleware/sensors/vd6g/vd6g.c **** 
1319:Lib/Camera_Middleware/sensors/vd6g/vd6g.c ****   if (exp_coarse_intg_margin >= VD6G_MIN_EXP_COARSE_INTG_MARGIN)
1320:Lib/Camera_Middleware/sensors/vd6g/vd6g.c ****     *max_us = (frame_length - exp_coarse_intg_margin - VD6G_MAX_MANUAL_EXP_COARSE_OFFSET) * line_ti
1321:Lib/Camera_Middleware/sensors/vd6g/vd6g.c ****   else
1322:Lib/Camera_Middleware/sensors/vd6g/vd6g.c ****     return -1;
1323:Lib/Camera_Middleware/sensors/vd6g/vd6g.c **** 
1324:Lib/Camera_Middleware/sensors/vd6g/vd6g.c ****   return 0;
1325:Lib/Camera_Middleware/sensors/vd6g/vd6g.c **** }
 4346              		.loc 1 1325 1 view .LVU1312
 4347 0010 2046     		mov	r0, r4
 4348 0012 04B0     		add	sp, sp, #16
 4349              		.cfi_remember_state
 4350              		.cfi_def_cfa_offset 24
 4351              		@ sp needed
 4352 0014 BDE8F081 		pop	{r4, r5, r6, r7, r8, pc}
 4353              	.LVL373:
 4354              	.L328:
 4355              		.cfi_restore_state
1304:Lib/Camera_Middleware/sensors/vd6g/vd6g.c ****     return -1;
 4356              		.loc 1 1304 24 discriminator 1 view .LVU1313
 4357 0018 002A     		cmp	r2, #0
 4358 001a F7D0     		beq	.L330
1307:Lib/Camera_Middleware/sensors/vd6g/vd6g.c ****   if (ret)
 4359              		.loc 1 1307 3 is_stmt 1 view .LVU1314
1307:Lib/Camera_Middleware/sensors/vd6g/vd6g.c ****   if (ret)
 4360              		.loc 1 1307 9 is_stmt 0 view .LVU1315
 4361 001c 03A9     		add	r1, sp, #12
 4362              	.LVL374:
1307:Lib/Camera_Middleware/sensors/vd6g/vd6g.c ****   if (ret)
ARM GAS  /tmp/ccWHsT5O.s 			page 119


 4363              		.loc 1 1307 9 view .LVU1316
 4364 001e FFF7FEFF 		bl	VD6G_GetLineTimeInUs
 4365              	.LVL375:
1308:Lib/Camera_Middleware/sensors/vd6g/vd6g.c ****     return ret;
 4366              		.loc 1 1308 3 is_stmt 1 view .LVU1317
1308:Lib/Camera_Middleware/sensors/vd6g/vd6g.c ****     return ret;
 4367              		.loc 1 1308 6 is_stmt 0 view .LVU1318
 4368 0022 0446     		mov	r4, r0
 4369 0024 0028     		cmp	r0, #0
 4370 0026 F3D1     		bne	.L327
1311:Lib/Camera_Middleware/sensors/vd6g/vd6g.c **** 
 4371              		.loc 1 1311 3 is_stmt 1 view .LVU1319
1311:Lib/Camera_Middleware/sensors/vd6g/vd6g.c **** 
 4372              		.loc 1 1311 40 is_stmt 0 view .LVU1320
 4373 0028 1523     		movs	r3, #21
 4374 002a DDF80C80 		ldr	r8, [sp, #12]
1313:Lib/Camera_Middleware/sensors/vd6g/vd6g.c ****   VD6G_TraceError(ctx, ret);
 4375              		.loc 1 1313 9 view .LVU1321
 4376 002e 4FF48B61 		mov	r1, #1112
1311:Lib/Camera_Middleware/sensors/vd6g/vd6g.c **** 
 4377              		.loc 1 1311 40 view .LVU1322
 4378 0032 03FB08F3 		mul	r3, r3, r8
1313:Lib/Camera_Middleware/sensors/vd6g/vd6g.c ****   VD6G_TraceError(ctx, ret);
 4379              		.loc 1 1313 9 view .LVU1323
 4380 0036 2846     		mov	r0, r5
 4381              	.LVL376:
1311:Lib/Camera_Middleware/sensors/vd6g/vd6g.c **** 
 4382              		.loc 1 1311 11 view .LVU1324
 4383 0038 3B60     		str	r3, [r7]
1313:Lib/Camera_Middleware/sensors/vd6g/vd6g.c ****   VD6G_TraceError(ctx, ret);
 4384              		.loc 1 1313 3 is_stmt 1 view .LVU1325
1313:Lib/Camera_Middleware/sensors/vd6g/vd6g.c ****   VD6G_TraceError(ctx, ret);
 4385              		.loc 1 1313 9 is_stmt 0 view .LVU1326
 4386 003a 0DF10A02 		add	r2, sp, #10
 4387 003e AB68     		ldr	r3, [r5, #8]
 4388 0040 9847     		blx	r3
 4389              	.LVL377:
1314:Lib/Camera_Middleware/sensors/vd6g/vd6g.c **** 
 4390              		.loc 1 1314 3 is_stmt 1 view .LVU1327
1314:Lib/Camera_Middleware/sensors/vd6g/vd6g.c **** 
 4391              		.loc 1 1314 3 view .LVU1328
 4392 0042 0446     		mov	r4, r0
 4393 0044 58B9     		cbnz	r0, .L331
1314:Lib/Camera_Middleware/sensors/vd6g/vd6g.c **** 
 4394              		.loc 1 1314 3 discriminator 6 view .LVU1329
1314:Lib/Camera_Middleware/sensors/vd6g/vd6g.c **** 
 4395              		.loc 1 1314 3 discriminator 8 view .LVU1330
1316:Lib/Camera_Middleware/sensors/vd6g/vd6g.c ****   VD6G_TraceError(ctx, ret);
 4396              		.loc 1 1316 3 view .LVU1331
1316:Lib/Camera_Middleware/sensors/vd6g/vd6g.c ****   VD6G_TraceError(ctx, ret);
 4397              		.loc 1 1316 9 is_stmt 0 view .LVU1332
 4398 0046 40F64611 		movw	r1, #2374
 4399 004a 2846     		mov	r0, r5
 4400              	.LVL378:
1316:Lib/Camera_Middleware/sensors/vd6g/vd6g.c ****   VD6G_TraceError(ctx, ret);
 4401              		.loc 1 1316 9 view .LVU1333
 4402 004c AB68     		ldr	r3, [r5, #8]
ARM GAS  /tmp/ccWHsT5O.s 			page 120


 4403 004e 02AA     		add	r2, sp, #8
 4404 0050 9847     		blx	r3
 4405              	.LVL379:
1317:Lib/Camera_Middleware/sensors/vd6g/vd6g.c **** 
 4406              		.loc 1 1317 3 is_stmt 1 view .LVU1334
1317:Lib/Camera_Middleware/sensors/vd6g/vd6g.c **** 
 4407              		.loc 1 1317 3 view .LVU1335
 4408 0052 0446     		mov	r4, r0
 4409 0054 78B1     		cbz	r0, .L338
1317:Lib/Camera_Middleware/sensors/vd6g/vd6g.c **** 
 4410              		.loc 1 1317 3 discriminator 1 view .LVU1336
 4411 0056 40F22553 		movw	r3, #1317
 4412 005a 0090     		str	r0, [sp]
 4413 005c 02E0     		b	.L339
 4414              	.L331:
1314:Lib/Camera_Middleware/sensors/vd6g/vd6g.c **** 
 4415              		.loc 1 1314 3 discriminator 1 view .LVU1337
 4416 005e 40F22253 		movw	r3, #1314
 4417 0062 0090     		str	r0, [sp]
 4418              	.L339:
1317:Lib/Camera_Middleware/sensors/vd6g/vd6g.c **** 
 4419              		.loc 1 1317 3 is_stmt 0 discriminator 1 view .LVU1338
 4420 0064 2846     		mov	r0, r5
 4421              	.LVL380:
1317:Lib/Camera_Middleware/sensors/vd6g/vd6g.c **** 
 4422              		.loc 1 1317 3 discriminator 1 view .LVU1339
 4423 0066 0A4A     		ldr	r2, .L340
 4424 0068 0A49     		ldr	r1, .L340+4
 4425 006a FFF7FEFF 		bl	VD6G_error
 4426              	.LVL381:
1317:Lib/Camera_Middleware/sensors/vd6g/vd6g.c **** 
 4427              		.loc 1 1317 3 is_stmt 1 discriminator 3 view .LVU1340
1317:Lib/Camera_Middleware/sensors/vd6g/vd6g.c **** 
 4428              		.loc 1 1317 3 discriminator 4 view .LVU1341
 4429 006e 2846     		mov	r0, r5
 4430 0070 FFF7FEFF 		bl	display_error
 4431              	.LVL382:
1317:Lib/Camera_Middleware/sensors/vd6g/vd6g.c **** 
 4432              		.loc 1 1317 3 discriminator 6 view .LVU1342
1317:Lib/Camera_Middleware/sensors/vd6g/vd6g.c **** 
 4433              		.loc 1 1317 3 discriminator 7 view .LVU1343
1317:Lib/Camera_Middleware/sensors/vd6g/vd6g.c **** 
 4434              		.loc 1 1317 3 is_stmt 0 view .LVU1344
 4435 0074 CCE7     		b	.L327
 4436              	.LVL383:
 4437              	.L338:
1317:Lib/Camera_Middleware/sensors/vd6g/vd6g.c **** 
 4438              		.loc 1 1317 3 is_stmt 1 discriminator 3 view .LVU1345
1317:Lib/Camera_Middleware/sensors/vd6g/vd6g.c **** 
 4439              		.loc 1 1317 3 discriminator 6 view .LVU1346
1317:Lib/Camera_Middleware/sensors/vd6g/vd6g.c **** 
 4440              		.loc 1 1317 3 discriminator 8 view .LVU1347
1319:Lib/Camera_Middleware/sensors/vd6g/vd6g.c ****     *max_us = (frame_length - exp_coarse_intg_margin - VD6G_MAX_MANUAL_EXP_COARSE_OFFSET) * line_ti
 4441              		.loc 1 1319 3 view .LVU1348
1319:Lib/Camera_Middleware/sensors/vd6g/vd6g.c ****     *max_us = (frame_length - exp_coarse_intg_margin - VD6G_MAX_MANUAL_EXP_COARSE_OFFSET) * line_ti
 4442              		.loc 1 1319 30 is_stmt 0 view .LVU1349
 4443 0076 BDF80820 		ldrh	r2, [sp, #8]
ARM GAS  /tmp/ccWHsT5O.s 			page 121


1319:Lib/Camera_Middleware/sensors/vd6g/vd6g.c ****     *max_us = (frame_length - exp_coarse_intg_margin - VD6G_MAX_MANUAL_EXP_COARSE_OFFSET) * line_ti
 4444              		.loc 1 1319 6 view .LVU1350
 4445 007a 432A     		cmp	r2, #67
 4446 007c C6D9     		bls	.L330
1320:Lib/Camera_Middleware/sensors/vd6g/vd6g.c ****   else
 4447              		.loc 1 1320 5 is_stmt 1 view .LVU1351
1320:Lib/Camera_Middleware/sensors/vd6g/vd6g.c ****   else
 4448              		.loc 1 1320 29 is_stmt 0 view .LVU1352
 4449 007e BDF80A30 		ldrh	r3, [sp, #10]
 4450 0082 9B1A     		subs	r3, r3, r2
1320:Lib/Camera_Middleware/sensors/vd6g/vd6g.c ****   else
 4451              		.loc 1 1320 54 view .LVU1353
 4452 0084 073B     		subs	r3, r3, #7
1320:Lib/Camera_Middleware/sensors/vd6g/vd6g.c ****   else
 4453              		.loc 1 1320 91 view .LVU1354
 4454 0086 08FB03F3 		mul	r3, r8, r3
1320:Lib/Camera_Middleware/sensors/vd6g/vd6g.c ****   else
 4455              		.loc 1 1320 13 view .LVU1355
 4456 008a 3360     		str	r3, [r6]
1324:Lib/Camera_Middleware/sensors/vd6g/vd6g.c **** }
 4457              		.loc 1 1324 3 is_stmt 1 view .LVU1356
1324:Lib/Camera_Middleware/sensors/vd6g/vd6g.c **** }
 4458              		.loc 1 1324 10 is_stmt 0 view .LVU1357
 4459 008c C0E7     		b	.L327
 4460              	.L341:
 4461 008e 00BF     		.align	2
 4462              	.L340:
 4463 0090 00000000 		.word	__func__.2
 4464 0094 00000000 		.word	.LC4
 4465              		.cfi_endproc
 4466              	.LFE48:
 4468              		.section	.text.VD6G_SetExposureTime,"ax",%progbits
 4469              		.align	1
 4470              		.global	VD6G_SetExposureTime
 4471              		.syntax unified
 4472              		.thumb
 4473              		.thumb_func
 4475              	VD6G_SetExposureTime:
 4476              	.LVL384:
 4477              	.LFB49:
1326:Lib/Camera_Middleware/sensors/vd6g/vd6g.c **** 
1327:Lib/Camera_Middleware/sensors/vd6g/vd6g.c **** int VD6G_SetExposureTime(VD6G_Ctx_t *ctx, int exposure_us)
1328:Lib/Camera_Middleware/sensors/vd6g/vd6g.c **** {
 4478              		.loc 1 1328 1 is_stmt 1 view -0
 4479              		.cfi_startproc
 4480              		@ args = 0, pretend = 0, frame = 16
 4481              		@ frame_needed = 0, uses_anonymous_args = 0
1329:Lib/Camera_Middleware/sensors/vd6g/vd6g.c ****   int32_t ret;
 4482              		.loc 1 1329 3 view .LVU1359
1330:Lib/Camera_Middleware/sensors/vd6g/vd6g.c ****   uint32_t exp_min, exp_max;
 4483              		.loc 1 1330 3 view .LVU1360
1331:Lib/Camera_Middleware/sensors/vd6g/vd6g.c ****   uint32_t line_time_in_us;
 4484              		.loc 1 1331 3 view .LVU1361
1332:Lib/Camera_Middleware/sensors/vd6g/vd6g.c **** 
1333:Lib/Camera_Middleware/sensors/vd6g/vd6g.c ****   ret = VD6G_GetExposureRegRange(ctx, &exp_min, &exp_max);
 4485              		.loc 1 1333 3 view .LVU1362
1328:Lib/Camera_Middleware/sensors/vd6g/vd6g.c ****   int32_t ret;
ARM GAS  /tmp/ccWHsT5O.s 			page 122


 4486              		.loc 1 1328 1 is_stmt 0 view .LVU1363
 4487 0000 70B5     		push	{r4, r5, r6, lr}
 4488              		.cfi_def_cfa_offset 16
 4489              		.cfi_offset 4, -16
 4490              		.cfi_offset 5, -12
 4491              		.cfi_offset 6, -8
 4492              		.cfi_offset 14, -4
 4493 0002 86B0     		sub	sp, sp, #24
 4494              		.cfi_def_cfa_offset 40
1328:Lib/Camera_Middleware/sensors/vd6g/vd6g.c ****   int32_t ret;
 4495              		.loc 1 1328 1 view .LVU1364
 4496 0004 0E46     		mov	r6, r1
 4497              		.loc 1 1333 9 view .LVU1365
 4498 0006 04AA     		add	r2, sp, #16
 4499 0008 03A9     		add	r1, sp, #12
 4500              	.LVL385:
1328:Lib/Camera_Middleware/sensors/vd6g/vd6g.c ****   int32_t ret;
 4501              		.loc 1 1328 1 view .LVU1366
 4502 000a 0546     		mov	r5, r0
 4503              		.loc 1 1333 9 view .LVU1367
 4504 000c FFF7FEFF 		bl	VD6G_GetExposureRegRange
 4505              	.LVL386:
1334:Lib/Camera_Middleware/sensors/vd6g/vd6g.c ****   if (ret)
 4506              		.loc 1 1334 3 is_stmt 1 view .LVU1368
 4507              		.loc 1 1334 6 is_stmt 0 view .LVU1369
 4508 0010 0446     		mov	r4, r0
 4509 0012 08BB     		cbnz	r0, .L342
1335:Lib/Camera_Middleware/sensors/vd6g/vd6g.c ****     return ret;
1336:Lib/Camera_Middleware/sensors/vd6g/vd6g.c **** 
1337:Lib/Camera_Middleware/sensors/vd6g/vd6g.c ****   ret = CHECK_RANGE(exposure_us, exp_min, exp_max);
 4510              		.loc 1 1337 3 is_stmt 1 view .LVU1370
 4511              		.loc 1 1337 9 is_stmt 0 view .LVU1371
 4512 0014 039B     		ldr	r3, [sp, #12]
 4513 0016 9E42     		cmp	r6, r3
 4514 0018 21D3     		bcc	.L346
 4515              		.loc 1 1337 9 discriminator 1 view .LVU1372
 4516 001a 049B     		ldr	r3, [sp, #16]
 4517 001c 9E42     		cmp	r6, r3
 4518 001e 1ED8     		bhi	.L346
 4519              	.LVL387:
1338:Lib/Camera_Middleware/sensors/vd6g/vd6g.c ****   if (ret)
 4520              		.loc 1 1338 3 is_stmt 1 view .LVU1373
1339:Lib/Camera_Middleware/sensors/vd6g/vd6g.c ****     return ret;
1340:Lib/Camera_Middleware/sensors/vd6g/vd6g.c **** 
1341:Lib/Camera_Middleware/sensors/vd6g/vd6g.c ****   ret = VD6G_GetLineTimeInUs(ctx, &line_time_in_us);
 4521              		.loc 1 1341 3 view .LVU1374
 4522              		.loc 1 1341 9 is_stmt 0 view .LVU1375
 4523 0020 2846     		mov	r0, r5
 4524 0022 05A9     		add	r1, sp, #20
 4525 0024 FFF7FEFF 		bl	VD6G_GetLineTimeInUs
 4526              	.LVL388:
1342:Lib/Camera_Middleware/sensors/vd6g/vd6g.c ****   if (ret)
 4527              		.loc 1 1342 3 is_stmt 1 view .LVU1376
 4528              		.loc 1 1342 6 is_stmt 0 view .LVU1377
 4529 0028 0446     		mov	r4, r0
 4530 002a A8B9     		cbnz	r0, .L342
1343:Lib/Camera_Middleware/sensors/vd6g/vd6g.c ****     return ret;
ARM GAS  /tmp/ccWHsT5O.s 			page 123


1344:Lib/Camera_Middleware/sensors/vd6g/vd6g.c **** 
1345:Lib/Camera_Middleware/sensors/vd6g/vd6g.c ****   ret = ctx->write16(ctx, VD6G_REG_MANUAL_COARSE_EXP, CEIL(exposure_us / line_time_in_us));
 4531              		.loc 1 1345 3 is_stmt 1 view .LVU1378
 4532              		.loc 1 1345 55 is_stmt 0 view .LVU1379
 4533 002c 059B     		ldr	r3, [sp, #20]
 4534              		.loc 1 1345 9 view .LVU1380
 4535 002e 40F24E41 		movw	r1, #1102
 4536              		.loc 1 1345 55 view .LVU1381
 4537 0032 B6FBF3F2 		udiv	r2, r6, r3
 4538              		.loc 1 1345 9 view .LVU1382
 4539 0036 2846     		mov	r0, r5
 4540              	.LVL389:
 4541              		.loc 1 1345 9 view .LVU1383
 4542 0038 6B69     		ldr	r3, [r5, #20]
 4543 003a 92B2     		uxth	r2, r2
 4544 003c 9847     		blx	r3
 4545              	.LVL390:
1346:Lib/Camera_Middleware/sensors/vd6g/vd6g.c ****   VD6G_TraceError(ctx, ret);
 4546              		.loc 1 1346 3 is_stmt 1 view .LVU1384
 4547              		.loc 1 1346 3 view .LVU1385
 4548 003e 0446     		mov	r4, r0
 4549 0040 50B1     		cbz	r0, .L342
 4550              		.loc 1 1346 3 discriminator 1 view .LVU1386
 4551 0042 0090     		str	r0, [sp]
 4552 0044 40F24253 		movw	r3, #1346
 4553 0048 2846     		mov	r0, r5
 4554              	.LVL391:
 4555              		.loc 1 1346 3 is_stmt 0 discriminator 1 view .LVU1387
 4556 004a 064A     		ldr	r2, .L350
 4557 004c 0649     		ldr	r1, .L350+4
 4558 004e FFF7FEFF 		bl	VD6G_error
 4559              	.LVL392:
 4560              		.loc 1 1346 3 is_stmt 1 discriminator 3 view .LVU1388
 4561              		.loc 1 1346 3 discriminator 4 view .LVU1389
 4562 0052 2846     		mov	r0, r5
 4563 0054 FFF7FEFF 		bl	display_error
 4564              	.LVL393:
 4565              		.loc 1 1346 3 discriminator 6 view .LVU1390
 4566              		.loc 1 1346 3 discriminator 7 view .LVU1391
 4567              	.L342:
1347:Lib/Camera_Middleware/sensors/vd6g/vd6g.c **** 
1348:Lib/Camera_Middleware/sensors/vd6g/vd6g.c ****   return 0;
1349:Lib/Camera_Middleware/sensors/vd6g/vd6g.c **** }
 4568              		.loc 1 1349 1 is_stmt 0 view .LVU1392
 4569 0058 2046     		mov	r0, r4
 4570 005a 06B0     		add	sp, sp, #24
 4571              		.cfi_remember_state
 4572              		.cfi_def_cfa_offset 16
 4573              		@ sp needed
 4574 005c 70BD     		pop	{r4, r5, r6, pc}
 4575              	.LVL394:
 4576              	.L346:
 4577              		.cfi_restore_state
1339:Lib/Camera_Middleware/sensors/vd6g/vd6g.c **** 
 4578              		.loc 1 1339 12 view .LVU1393
 4579 005e 4FF0FF34 		mov	r4, #-1
 4580              	.LVL395:
ARM GAS  /tmp/ccWHsT5O.s 			page 124


1339:Lib/Camera_Middleware/sensors/vd6g/vd6g.c **** 
 4581              		.loc 1 1339 12 view .LVU1394
 4582 0062 F9E7     		b	.L342
 4583              	.L351:
 4584              		.align	2
 4585              	.L350:
 4586 0064 00000000 		.word	__func__.0
 4587 0068 00000000 		.word	.LC4
 4588              		.cfi_endproc
 4589              	.LFE49:
 4591              		.section	.rodata.CSWTCH.85,"a"
 4594              	CSWTCH.85:
 4595 0000 00       		.byte	0
 4596 0001 01       		.byte	1
 4597 0002 03       		.byte	3
 4598              		.section	.rodata.CSWTCH.83,"a"
 4599              		.align	1
 4602              	CSWTCH.83:
 4603 0000 0000     		.short	0
 4604 0002 1100     		.short	17
 4605 0004 2100     		.short	33
 4606 0006 0101     		.short	257
 4607 0008 1101     		.short	273
 4608 000a 2101     		.short	289
 4609 000c 3101     		.short	305
 4610              		.section	.rodata.CSWTCH.81,"a"
 4613              	CSWTCH.81:
 4614 0000 00       		.byte	0
 4615 0001 02       		.byte	2
 4616 0002 01       		.byte	1
 4617 0003 03       		.byte	3
 4618              		.section	.rodata.CSWTCH.58,"a"
 4619              		.align	2
 4622              	CSWTCH.58:
 4623 0000 C4000000 		.word	vdg_supported_modes+196
 4624 0004 8C000000 		.word	vdg_supported_modes+140
 4625 0008 A8000000 		.word	vdg_supported_modes+168
 4626 000c 38000000 		.word	vdg_supported_modes+56
 4627 0010 54000000 		.word	vdg_supported_modes+84
 4628 0014 70000000 		.word	vdg_supported_modes+112
 4629 0018 1C000000 		.word	vdg_supported_modes+28
 4630 001c E0000000 		.word	vdg_supported_modes+224
 4631 0020 00000000 		.word	vdg_supported_modes
 4632              		.section	.rodata.__func__.0,"a"
 4635              	__func__.0:
 4636 0000 56443647 		.ascii	"VD6G_SetExposureTime\000"
 4636      5F536574 
 4636      4578706F 
 4636      73757265 
 4636      54696D65 
 4637              		.section	.rodata.__func__.1,"a"
 4640              	__func__.1:
 4641 0000 56443647 		.ascii	"VD6G_GetLineTimeInUs\000"
 4641      5F476574 
 4641      4C696E65 
 4641      54696D65 
 4641      496E5573 
ARM GAS  /tmp/ccWHsT5O.s 			page 125


 4642              		.section	.rodata.__func__.2,"a"
 4645              	__func__.2:
 4646 0000 56443647 		.ascii	"VD6G_GetExposureRegRange\000"
 4646      5F476574 
 4646      4578706F 
 4646      73757265 
 4646      52656752 
 4647              		.section	.rodata.__func__.3,"a"
 4650              	__func__.3:
 4651 0000 56443647 		.ascii	"VD6G_SetDigitalGain\000"
 4651      5F536574 
 4651      44696769 
 4651      74616C47 
 4651      61696E00 
 4652              		.section	.rodata.__func__.4,"a"
 4655              	__func__.4:
 4656 0000 56443647 		.ascii	"VD6G_GetDigitalGainRegRange\000"
 4656      5F476574 
 4656      44696769 
 4656      74616C47 
 4656      61696E52 
 4657              		.section	.rodata.__func__.5,"a"
 4660              	__func__.5:
 4661 0000 56443647 		.ascii	"VD6G_SetAnalogGain\000"
 4661      5F536574 
 4661      416E616C 
 4661      6F674761 
 4661      696E00
 4662              		.section	.rodata.__func__.6,"a"
 4665              	__func__.6:
 4666 0000 56443647 		.ascii	"VD6G_GetAnalogGainRegRange\000"
 4666      5F476574 
 4666      416E616C 
 4666      6F674761 
 4666      696E5265 
 4667              		.section	.rodata.__func__.7,"a"
 4670              	__func__.7:
 4671 0000 56443647 		.ascii	"VD6G_SetBrightnessLevel\000"
 4671      5F536574 
 4671      42726967 
 4671      68746E65 
 4671      73734C65 
 4672              		.section	.rodata.__func__.8,"a"
 4675              	__func__.8:
 4676 0000 56443647 		.ascii	"VD6G_GetBrightnessLevel\000"
 4676      5F476574 
 4676      42726967 
 4676      68746E65 
 4676      73734C65 
 4677              		.section	.rodata.__func__.9,"a"
 4680              	__func__.9:
 4681 0000 56443647 		.ascii	"VD6G_IsStreaming\000"
 4681      5F497353 
 4681      74726561 
 4681      6D696E67 
 4681      00
 4682              		.section	.rodata.__func__.10,"a"
ARM GAS  /tmp/ccWHsT5O.s 			page 126


 4685              	__func__.10:
 4686 0000 56443647 		.ascii	"VD6G_StopStreaming\000"
 4686      5F53746F 
 4686      70537472 
 4686      65616D69 
 4686      6E6700
 4687              		.section	.rodata.__func__.11,"a"
 4690              	__func__.11:
 4691 0000 56443647 		.ascii	"VD6G_StartStreaming\000"
 4691      5F537461 
 4691      72745374 
 4691      7265616D 
 4691      696E6700 
 4692              		.section	.rodata.__func__.12,"a"
 4695              	__func__.12:
 4696 0000 56443647 		.ascii	"VD6G_SetFlicker\000"
 4696      5F536574 
 4696      466C6963 
 4696      6B657200 
 4697              		.section	.rodata.__func__.13,"a"
 4700              	__func__.13:
 4701 0000 56443647 		.ascii	"VD6G_SetupPatGen\000"
 4701      5F536574 
 4701      75705061 
 4701      7447656E 
 4701      00
 4702              		.section	.rodata.__func__.14,"a"
 4705              	__func__.14:
 4706 0000 56443647 		.ascii	"VD6G_SetupMirrorFlip\000"
 4706      5F536574 
 4706      75704D69 
 4706      72726F72 
 4706      466C6970 
 4707              		.section	.rodata.__func__.15,"a"
 4710              	__func__.15:
 4711 0000 56443647 		.ascii	"VD6G_SetExposureModeInternal\000"
 4711      5F536574 
 4711      4578706F 
 4711      73757265 
 4711      4D6F6465 
 4712              		.section	.rodata.__func__.16,"a"
 4715              	__func__.16:
 4716 0000 56443647 		.ascii	"VD6G_SetupSize\000"
 4716      5F536574 
 4716      75705369 
 4716      7A6500
 4717              		.section	.rodata.__func__.17,"a"
 4720              	__func__.17:
 4721 0000 56443647 		.ascii	"VD6G_SetupOutput\000"
 4721      5F536574 
 4721      75704F75 
 4721      74707574 
 4721      00
 4722              		.section	.rodata.__func__.18,"a"
 4725              	__func__.18:
 4726 0000 56443647 		.ascii	"VD6G_SetupFrameRate\000"
 4726      5F536574 
ARM GAS  /tmp/ccWHsT5O.s 			page 127


 4726      75704672 
 4726      616D6552 
 4726      61746500 
 4727              		.section	.rodata.__func__.19,"a"
 4730              	__func__.19:
 4731 0000 56443647 		.ascii	"VD6G_SetupClocks\000"
 4731      5F536574 
 4731      7570436C 
 4731      6F636B73 
 4731      00
 4732              		.section	.rodata.__func__.20,"a"
 4735              	__func__.20:
 4736 0000 56443647 		.ascii	"VD6G_Gpios\000"
 4736      5F477069 
 4736      6F7300
 4737              		.section	.rodata.__func__.21,"a"
 4740              	__func__.21:
 4741 0000 56443647 		.ascii	"VD6G_SetBayerType\000"
 4741      5F536574 
 4741      42617965 
 4741      72547970 
 4741      6500
 4742              		.section	.rodata.__func__.22,"a"
 4745              	__func__.22:
 4746 0000 56443647 		.ascii	"VD6G_ApplyVtPatchSlowBoot\000"
 4746      5F417070 
 4746      6C795674 
 4746      50617463 
 4746      68536C6F 
 4747              		.section	.rodata.__func__.23,"a"
 4750              	__func__.23:
 4751 0000 56443647 		.ascii	"VD6G_ApplyVtPatch\000"
 4751      5F417070 
 4751      6C795674 
 4751      50617463 
 4751      6800
 4752              		.section	.rodata.__func__.24,"a"
 4755              	__func__.24:
 4756 0000 56443647 		.ascii	"VD6G_BootMcu\000"
 4756      5F426F6F 
 4756      744D6375 
 4756      00
 4757              		.section	.rodata.__func__.25,"a"
 4760              	__func__.25:
 4761 0000 56443647 		.ascii	"VD6G_ApplyPatchSlowBoot\000"
 4761      5F417070 
 4761      6C795061 
 4761      74636853 
 4761      6C6F7742 
 4762              		.section	.rodata.__func__.26,"a"
 4765              	__func__.26:
 4766 0000 56443647 		.ascii	"VD6G_ApplyPatch\000"
 4766      5F417070 
 4766      6C795061 
 4766      74636800 
 4767              		.section	.rodata.__func__.27,"a"
 4770              	__func__.27:
ARM GAS  /tmp/ccWHsT5O.s 			page 128


 4771 0000 56443647 		.ascii	"VD6G_GetTopDie\000"
 4771      5F476574 
 4771      546F7044 
 4771      696500
 4772              		.section	.rodata.__func__.28,"a"
 4775              	__func__.28:
 4776 0000 56443647 		.ascii	"VD6G_CheckModelId\000"
 4776      5F436865 
 4776      636B4D6F 
 4776      64656C49 
 4776      6400
 4777              		.section	.rodata.__func__.29,"a"
 4780              	__func__.29:
 4781 0000 64697370 		.ascii	"display_error\000"
 4781      6C61795F 
 4781      6572726F 
 4781      7200
 4782              		.section	.rodata.__func__.30,"a"
 4785              	__func__.30:
 4786 0000 56443647 		.ascii	"VD6G_PollReg8\000"
 4786      5F506F6C 
 4786      6C526567 
 4786      3800
 4787              		.section	.rodata.vdg_supported_modes,"a"
 4788              		.align	2
 4791              	vdg_supported_modes:
 4792 0000 60040000 		.word	1120
 4793 0004 54050000 		.word	1364
 4794 0008 00       		.byte	0
 4795 0009 000000   		.space	3
 4796 000c 02000000 		.word	2
 4797 0010 00000000 		.word	0
 4798 0014 60040000 		.word	1120
 4799 0018 54050000 		.word	1364
 4800 001c 00040000 		.word	1024
 4801 0020 00050000 		.word	1280
 4802 0024 00       		.byte	0
 4803 0025 000000   		.space	3
 4804 0028 32000000 		.word	50
 4805 002c 2A000000 		.word	42
 4806 0030 00040000 		.word	1024
 4807 0034 00050000 		.word	1280
 4808 0038 00040000 		.word	1024
 4809 003c 00030000 		.word	768
 4810 0040 00       		.byte	0
 4811 0041 000000   		.space	3
 4812 0044 32000000 		.word	50
 4813 0048 2A010000 		.word	298
 4814 004c 00040000 		.word	1024
 4815 0050 00030000 		.word	768
 4816 0054 00030000 		.word	768
 4817 0058 00040000 		.word	1024
 4818 005c 00       		.byte	0
 4819 005d 000000   		.space	3
 4820 0060 B2000000 		.word	178
 4821 0064 AA000000 		.word	170
 4822 0068 00030000 		.word	768
ARM GAS  /tmp/ccWHsT5O.s 			page 129


 4823 006c 00040000 		.word	1024
 4824 0070 D0020000 		.word	720
 4825 0074 00050000 		.word	1280
 4826 0078 00       		.byte	0
 4827 0079 000000   		.space	3
 4828 007c CA000000 		.word	202
 4829 0080 2A000000 		.word	42
 4830 0084 D0020000 		.word	720
 4831 0088 00050000 		.word	1280
 4832 008c 80020000 		.word	640
 4833 0090 E0010000 		.word	480
 4834 0094 00       		.byte	0
 4835 0095 000000   		.space	3
 4836 0098 F2000000 		.word	242
 4837 009c BA010000 		.word	442
 4838 00a0 80020000 		.word	640
 4839 00a4 E0010000 		.word	480
 4840 00a8 E0010000 		.word	480
 4841 00ac 80020000 		.word	640
 4842 00b0 01       		.byte	1
 4843 00b1 000000   		.space	3
 4844 00b4 52000000 		.word	82
 4845 00b8 2A000000 		.word	42
 4846 00bc C0030000 		.word	960
 4847 00c0 00050000 		.word	1280
 4848 00c4 40010000 		.word	320
 4849 00c8 F0000000 		.word	240
 4850 00cc 01       		.byte	1
 4851 00cd 000000   		.space	3
 4852 00d0 F2000000 		.word	242
 4853 00d4 BA010000 		.word	442
 4854 00d8 80020000 		.word	640
 4855 00dc E0010000 		.word	480
 4856 00e0 60040000 		.word	1120
 4857 00e4 D0020000 		.word	720
 4858 00e8 00       		.byte	0
 4859 00e9 000000   		.space	3
 4860 00ec 02000000 		.word	2
 4861 00f0 42010000 		.word	322
 4862 00f4 60040000 		.word	1120
 4863 00f8 D0020000 		.word	720
 4864              		.global	vtpatch_area_nb
 4865              		.section	.data.vtpatch_area_nb,"aw"
 4866              		.align	2
 4869              	vtpatch_area_nb:
 4870 0000 07000000 		.word	7
 4871              		.global	vtpatch_desc
 4872              		.section	.data.vtpatch_desc,"aw"
 4873              		.align	2
 4876              	vtpatch_desc:
 4877 0000 00D00000 		.word	53248
 4878 0004 10030000 		.word	784
 4879 0008 00B00000 		.word	45056
 4880 000c 30040000 		.word	1072
 4881 0010 00A00000 		.word	40960
 4882 0014 8C0C0000 		.word	3212
 4883 0018 00B80000 		.word	47104
ARM GAS  /tmp/ccWHsT5O.s 			page 130


 4884 001c 68000000 		.word	104
 4885 0020 A0B80000 		.word	47264
 4886 0024 70000000 		.word	112
 4887 0028 3CB90000 		.word	47420
 4888 002c F8000000 		.word	248
 4889 0030 BCBB0000 		.word	48060
 4890 0034 2C020000 		.word	556
 4891              		.section	.rodata.vtpatch,"a"
 4894              	vtpatch:
 4895 0000 46000180 		.ascii	"F\000\001\200\006\002\003\000\306\000\001\300\006\002"
 4895      06020300 
 4895      C60001C0 
 4895      0602
 4896 000e 03000600 		.ascii	"\003\000\006\000\001\300\006\002\003\000\006\000!\300"
 4896      01C00602 
 4896      03000600 
 4896      21C0
 4897 001c 06020300 		.ascii	"\006\002\003\000\006@!\300\006\002\001\000\006\000!"
 4897      064021C0 
 4897      06020100 
 4897      060021
 4898 002b C0060201 		.ascii	"\300\006\002\001\000\006\000\001\300\006\002\001\000"
 4898      00060001 
 4898      C0060201 
 4898      00
 4899 0038 060001C0 		.ascii	"\006\000\001\300\004\002\001\000\006\200\001\300\004"
 4899      04020100 
 4899      068001C0 
 4899      04
 4900 0045 02010006 		.ascii	"\002\001\000\006\002\001\300\004\002\001\000\006\000"
 4900      0201C004 
 4900      02010006 
 4900      00
 4901 0052 01C08402 		.ascii	"\001\300\204\002\001\000\002\000\001\300\204\002\001"
 4901      01000200 
 4901      01C08402 
 4901      01
 4902 005f 00000001 		.ascii	"\000\000\000\001\300\204\002\001\000\000\000\001\300"
 4902      C0840201 
 4902      00000001 
 4902      C0
 4903 006c 8C020100 		.ascii	"\214\002\001\000\000\000!\300\204\002\001\000 \000!"
 4903      000021C0 
 4903      84020100 
 4903      200021
 4904 007b C0840201 		.ascii	"\300\204\002\001\000 \000!\300\224\002\001\000 \000"
 4904      00200021 
 4904      C0940201 
 4904      002000
 4905 008a 21C08C02 		.ascii	"!\300\214\002\001\000 \000\001\300\214\002\001\000\000"
 4905      01002000 
 4905      01C08C02 
 4905      010000
 4906 0099 0401C084 		.ascii	"\004\001\300\204\002\001\000\000\000\001\300\206\002"
 4906      02010000 
 4906      0001C086 
 4906      02
ARM GAS  /tmp/ccWHsT5O.s 			page 131


 4907 00a6 01000020 		.ascii	"\001\000\000 \001\300\206\002\001\000\000@\001@\206"
 4907      01C08602 
 4907      01000040 
 4907      014086
 4908 00b5 02010000 		.ascii	"\002\001\000\000\000\001@\206\002\001\000\001\000\001"
 4908      00014086 
 4908      02010001 
 4908      0001
 4909 00c3 40870200 		.ascii	"@\207\002\000\000\001\010\001@\207\002\000\000!\000"
 4909      00010801 
 4909      40870200 
 4909      002100
 4910 00d2 01408702 		.ascii	"\001@\207\002\000\000!\000\001@\227\002\000\000!\000"
 4910      00002100 
 4910      01409702 
 4910      00002100 
 4911 00e2 03408702 		.ascii	"\003@\207\002\000\000!\000\007@\247\002\000\000!\000"
 4911      00002100 
 4911      0740A702 
 4911      00002100 
 4912 00f2 0740A702 		.ascii	"\007@\247\002\002\000\001\024\003@\207\002\002\000\001"
 4912      02000114 
 4912      03408702 
 4912      020001
 4913 0101 000B4087 		.ascii	"\000\013@\207\002\002\000\001\000\003@\207\002\002\000"
 4913      02020001 
 4913      00034087 
 4913      020200
 4914 0110 01200340 		.ascii	"\001 \003@\207\002\002\000A\000\003@\207\002\002\000"
 4914      87020200 
 4914      41000340 
 4914      87020200 
 4915 0120 46010340 		.ascii	"F\001\003@\006\002\003\000F\000\003@\006\002\003\000"
 4915      06020300 
 4915      46000340 
 4915      06020300 
 4916 0130 46000140 		.ascii	"F\000\001@\006\002\003\000F\000\001\300\006\002\003"
 4916      06020300 
 4916      460001C0 
 4916      060203
 4917 013f 00460001 		.ascii	"\000F\000\001\200\006B\003\000\206\000\001\300\006\002"
 4917      80064203 
 4917      00860001 
 4917      C00602
 4918 014e 03000100 		.ascii	"\003\000\001\000\003\000\207\002\002\000\001\000\003"
 4918      03008702 
 4918      02000100 
 4918      03
 4919 015b 00874202 		.ascii	"\000\207B\002\000\001 \003\000\207B\002\000A\000\003"
 4919      00012003 
 4919      00874202 
 4919      00410003 
 4920 016b 00870202 		.ascii	"\000\207\002\002\000F\001\003\000\006\002\003\000F\000"
 4920      00460103 
 4920      00060203 
 4920      004600
 4921 017a 03000602 		.ascii	"\003\000\006\002\003\000F\000\001\000\006\002\003\000"
ARM GAS  /tmp/ccWHsT5O.s 			page 132


 4921      03004600 
 4921      01000602 
 4921      0300
 4922 0188 46000180 		.ascii	"F\000\001\200\006\000\002\000\306\000\001\300\006\000"
 4922      06000200 
 4922      C60001C0 
 4922      0600
 4923 0196 02000600 		.ascii	"\002\000\006\000\001\300\006\000\002\000\006\000!\300"
 4923      01C00600 
 4923      02000600 
 4923      21C0
 4924 01a4 06000200 		.ascii	"\006\000\002\000\006@!\300\006\000\000\000\006\000!"
 4924      064021C0 
 4924      06000000 
 4924      060021
 4925 01b3 C0060000 		.ascii	"\300\006\000\000\000\006\000\001\300\006\000\000\000"
 4925      00060001 
 4925      C0060000 
 4925      00
 4926 01c0 060001C0 		.ascii	"\006\000\001\300\004\000\000\000\006\200\001\300\004"
 4926      04000000 
 4926      068001C0 
 4926      04
 4927 01cd 00000006 		.ascii	"\000\000\000\006\002\001\300\004\000\000\000\006\000"
 4927      0201C004 
 4927      00000006 
 4927      00
 4928 01da 01C08400 		.ascii	"\001\300\204\000\000\000\002\000\001\300\204\000\000"
 4928      00000200 
 4928      01C08400 
 4928      00
 4929 01e7 00000001 		.ascii	"\000\000\000\001\300\204\000\000\000\000\000\001\300"
 4929      C0840000 
 4929      00000001 
 4929      C0
 4930 01f4 8C000000 		.ascii	"\214\000\000\000\000\000!\300\204\000\000\000 \000!"
 4930      000021C0 
 4930      84000000 
 4930      200021
 4931 0203 C0840000 		.ascii	"\300\204\000\000\000 \000!\300\224\000\000\000 \000"
 4931      00200021 
 4931      C0940000 
 4931      002000
 4932 0212 21C08C00 		.ascii	"!\300\214\000\000\000 \000\001\300\214\000\000\000\000"
 4932      00002000 
 4932      01C08C00 
 4932      000000
 4933 0221 0401C084 		.ascii	"\004\001\300\204\000\000\000\000\000\001\300\206\000"
 4933      00000000 
 4933      0001C086 
 4933      00
 4934 022e 00000020 		.ascii	"\000\000\000 \001\300\206\000\000\000\000@\001@\206"
 4934      01C08600 
 4934      00000040 
 4934      014086
 4935 023d 00000000 		.ascii	"\000\000\000\000\000\001@\206\000\000\000\001\000\001"
 4935      00014086 
ARM GAS  /tmp/ccWHsT5O.s 			page 133


 4935      00000001 
 4935      0001
 4936 024b 40870000 		.ascii	"@\207\000\000\000\001\010\001@\207\000\000\000!\000"
 4936      00010801 
 4936      40870000 
 4936      002100
 4937 025a 01408700 		.ascii	"\001@\207\000\000\000!\000\001@\227\000\000\000!\000"
 4937      00002100 
 4937      01409700 
 4937      00002100 
 4938 026a 03408700 		.ascii	"\003@\207\000\000\000!\000\007@\247\000\000\000!\000"
 4938      00002100 
 4938      0740A700 
 4938      00002100 
 4939 027a 0740A700 		.ascii	"\007@\247\000\002\000\001\024\003@\207\000\002\000\001"
 4939      02000114 
 4939      03408700 
 4939      020001
 4940 0289 000B4087 		.ascii	"\000\013@\207\000\002\000\001\000\003@\207\000\002\000"
 4940      00020001 
 4940      00034087 
 4940      000200
 4941 0298 01200340 		.ascii	"\001 \003@\207\000\002\000A\000\003@\207\000\002\000"
 4941      87000200 
 4941      41000340 
 4941      87000200 
 4942 02a8 46010340 		.ascii	"F\001\003@\006\000\002\000F\000\003@\006\000\002\000"
 4942      06000200 
 4942      46000340 
 4942      06000200 
 4943 02b8 46000140 		.ascii	"F\000\001@\006\000\002\000F\000\001\300\006\000\002"
 4943      06000200 
 4943      460001C0 
 4943      060002
 4944 02c7 00460001 		.ascii	"\000F\000\001\200\006@\002\000\206\000\001\300\006\000"
 4944      80064002 
 4944      00860001 
 4944      C00600
 4945 02d6 02000100 		.ascii	"\002\000\001\000\003\000\207\000\002\000\001\000\003"
 4945      03008700 
 4945      02000100 
 4945      03
 4946 02e3 00874002 		.ascii	"\000\207@\002\000\001 \003\000\207@\002\000A\000\003"
 4946      00012003 
 4946      00874002 
 4946      00410003 
 4947 02f3 00870002 		.ascii	"\000\207\000\002\000F\001\003\000\006\000\002\000F\000"
 4947      00460103 
 4947      00060002 
 4947      004600
 4948 0302 03000600 		.ascii	"\003\000\006\000\002\000F\000\001\000\006\000\002\000"
 4948      02004600 
 4948      01000600 
 4948      0200
 4949 0310 05000000 		.ascii	"\005\000\000\000\204\000\000\000\003\001\000\000\200"
 4949      84000000 
 4949      03010000 
ARM GAS  /tmp/ccWHsT5O.s 			page 134


 4949      80
 4950 031d 01100085 		.ascii	"\001\020\000\205\001\000\000\004\002\000\000\201\002"
 4950      01000004 
 4950      02000081 
 4950      02
 4951 032a 00000103 		.ascii	"\000\000\001\003\000\000\215\003\000\000\015\004\000"
 4951      00008D03 
 4951      00000D04 
 4951      00
 4952 0337 008A0300 		.ascii	"\000\212\003\000\000\204\004\000\000\332\003\000\000"
 4952      00840400 
 4952      00DA0300 
 4952      00
 4953 0344 4D050000 		.ascii	"M\005\000\000\202\005\000\000\023\006\000\000\204\006"
 4953      82050000 
 4953      13060000 
 4953      8406
 4954 0352 00006206 		.ascii	"\000\000b\006\000\000\003\007\000\000\204\007\000\000"
 4954      00000307 
 4954      00008407 
 4954      0000
 4955 0360 04080000 		.ascii	"\004\010\000\000\330\007\000\000\200\010\000\000\003"
 4955      D8070000 
 4955      80080000 
 4955      03
 4956 036d 09000084 		.ascii	"\011\000\000\204\011\000\000\025\006\000\000\004\012"
 4956      09000015 
 4956      06000004 
 4956      0A
 4957 037a 0000840A 		.ascii	"\000\000\204\012\000\000*\012\000\000\004\013\000\000"
 4957      00002A0A 
 4957      0000040B 
 4957      0000
 4958 0388 9A0B0000 		.ascii	"\232\013\000\000\017\014\000\000\204\014\000\000~\014"
 4958      0F0C0000 
 4958      840C0000 
 4958      7E0C
 4959 0396 00001C0C 		.ascii	"\000\000\034\014\000\000\004\015\000\000\204\015\000"
 4959      0000040D 
 4959      0000840D 
 4959      00
 4960 03a3 007E0D00 		.ascii	"\000~\015\000\000~\015\000\000\027\015\000\000\002\015"
 4960      007E0D00 
 4960      00170D00 
 4960      00020D
 4961 03b2 0400020E 		.ascii	"\004\000\002\016\004\000\006\016\002\000\200\016\002"
 4961      0400060E 
 4961      0200800E 
 4961      02
 4962 03bf 00030F02 		.ascii	"\000\003\017\002\000\204\017\002\000\004\020\002\000"
 4962      00840F02 
 4962      00041002 
 4962      00
 4963 03cc 95100200 		.ascii	"\225\020\002\000\004\021\002\000\225\020\002\000\204"
 4963      04110200 
 4963      95100200 
 4963      84
ARM GAS  /tmp/ccWHsT5O.s 			page 135


 4964 03d9 11020004 		.ascii	"\021\002\000\004\022\002\000\204\022\002\000\005\023"
 4964      12020084 
 4964      12020005 
 4964      13
 4965 03e6 02009013 		.ascii	"\002\000\220\023\002\000\015\000\002\000\015\024\002"
 4965      02000D00 
 4965      02000D14 
 4965      02
 4966 03f3 000000C2 		.ascii	"\000\000\000\302\000\000\000\000\000\000\000\000\000"
 4966      00000000 
 4966      00000000 
 4966      00
 4967 0400 00000000 		.ascii	"\000\000\000\000\000\000\000\000\000\000\000\000\000"
 4967      00000000 
 4967      00000000 
 4967      00
 4968 040d 00000000 		.ascii	"\000\000\000\000\000\000\000\000\000\000\000\000\000"
 4968      00000000 
 4968      00000000 
 4968      00
 4969 041a 00000000 		.ascii	"\000\000\000\000\000\000\000\000\000\000\000\000\000"
 4969      00000000 
 4969      00000000 
 4969      00
 4970 0427 00060000 		.ascii	"\000\006\000\000\000\205\000\000\000\200\024\000\000"
 4970      00850000 
 4970      00801400 
 4970      00
 4971 0434 03010000 		.ascii	"\003\001\000\000\200\001\000\000\200\001\020\000\206"
 4971      80010000 
 4971      80011000 
 4971      86
 4972 0441 01000006 		.ascii	"\001\000\000\006\002\000\000\201\002\000\000\001\003"
 4972      02000081 
 4972      02000001 
 4972      03
 4973 044e 00009103 		.ascii	"\000\000\221\003\000\000\021\004\000\000\214\003\000"
 4973      00001104 
 4973      00008C03 
 4973      00
 4974 045b 00860400 		.ascii	"\000\206\004\000\000\361\003\000\000a\005\000\000\202"
 4974      00F10300 
 4974      00610500 
 4974      0082
 4975 0469 05000017 		.ascii	"\005\000\000\027\006\000\000\206\006\000\000z\006\000"
 4975      06000086 
 4975      0600007A 
 4975      0600
 4976 0477 00030700 		.ascii	"\000\003\007\000\000\206\007\000\000\006\010\000\000"
 4976      00860700 
 4976      00060800 
 4976      00
 4977 0484 D4070000 		.ascii	"\324\007\000\000\200\010\000\000\005\011\000\000\206"
 4977      80080000 
 4977      05090000 
 4977      86
 4978 0491 09000019 		.ascii	"\011\000\000\031\006\000\000\006\012\000\000\206\012"
ARM GAS  /tmp/ccWHsT5O.s 			page 136


 4978      06000006 
 4978      0A000086 
 4978      0A
 4979 049e 0000340A 		.ascii	"\000\0004\012\000\000\006\013\000\000\240\013\000\000"
 4979      0000060B 
 4979      0000A00B 
 4979      0000
 4980 04ac 130C0000 		.ascii	"\023\014\000\000\206\014\000\000~\014\000\000B\014\000"
 4980      860C0000 
 4980      7E0C0000 
 4980      420C00
 4981 04bb 00060D00 		.ascii	"\000\006\015\000\000\206\015\000\000~\015\000\000A\015"
 4981      00860D00 
 4981      007E0D00 
 4981      00410D
 4982 04ca 0000030D 		.ascii	"\000\000\003\015\004\000\003\016\004\000\011\016\002"
 4982      0400030E 
 4982      0400090E 
 4982      02
 4983 04d7 00800E02 		.ascii	"\000\200\016\002\000\005\017\002\000\206\017\002\000"
 4983      00050F02 
 4983      00860F02 
 4983      00
 4984 04e4 06100200 		.ascii	"\006\020\002\000\021\025\002\000\207\025\002\000\006"
 4984      11150200 
 4984      87150200 
 4984      06
 4985 04f1 16020082 		.ascii	"\026\002\000\202\025\002\000\027\025\002\000\205\026"
 4985      15020017 
 4985      15020085 
 4985      16
 4986 04fe 02000617 		.ascii	"\002\000\006\027\002\000\206\027\002\000\005\030\002"
 4986      02008617 
 4986      02000518 
 4986      02
 4987 050b 000000C2 		.ascii	"\000\000\000\302\000\000\000\000\000\000\000\000\000"
 4987      00000000 
 4987      00000000 
 4987      00
 4988 0518 00000000 		.ascii	"\000\000\000\000\000\000\000\000\000\000\000\000\000"
 4988      00000000 
 4988      00000000 
 4988      00
 4989 0525 00000000 		.ascii	"\000\000\000\000\000\000\000\000\000\000\000\000\000"
 4989      00000000 
 4989      00000000 
 4989      00
 4990 0532 00000000 		.ascii	"\000\000\000\000\000\000\000\000\000\000\000\000\000"
 4990      00000000 
 4990      00000000 
 4990      00
 4991 053f 00851800 		.ascii	"\000\205\030\000\000\004\031\000\000\202\031\000\000"
 4991      00041900 
 4991      00821900 
 4991      00
 4992 054c 80191000 		.ascii	"\200\031\020\000\006\032\000\000\204\032\000\000\001"
 4992      061A0000 
ARM GAS  /tmp/ccWHsT5O.s 			page 137


 4992      841A0000 
 4992      01
 4993 0559 1B000081 		.ascii	"\033\000\000\201\033\000\000\015\034\000\000\215\034"
 4993      1B00000D 
 4993      1C00008D 
 4993      1C
 4994 0566 00000A1C 		.ascii	"\000\000\012\034\000\000\004\035\000\000Z\034\000\000"
 4994      0000041D 
 4994      00005A1C 
 4994      0000
 4995 0574 CD1D0000 		.ascii	"\315\035\000\000\002\036\000\000\223\036\000\000\004"
 4995      021E0000 
 4995      931E0000 
 4995      04
 4996 0581 1F0000E2 		.ascii	"\037\000\000\342\036\000\000\203\037\000\000\004 \000"
 4996      1E000083 
 4996      1F000004 
 4996      2000
 4997 058f 00842000 		.ascii	"\000\204 \000\000X \000\000\000!\000\000\203!\000\000"
 4997      00582000 
 4997      00002100 
 4997      00832100 
 4997      00
 4998 05a0 04220000 		.ascii	"\004\"\000\000\225\036\000\000\204\"\000\000\004#\000"
 4998      951E0000 
 4998      84220000 
 4998      042300
 4999 05af 00AA2200 		.ascii	"\000\252\"\000\000\204#\000\000\032$\000\000\217$\000"
 4999      00842300 
 4999      001A2400 
 4999      008F2400 
 5000 05bf 00042500 		.ascii	"\000\004%\000\000\376$\000\000\234$\000\000\204%\000"
 5000      00FE2400 
 5000      009C2400 
 5000      00842500 
 5001 05cf 00042600 		.ascii	"\000\004&\000\000\376%\000\000\376%\000\000\226%\000"
 5001      00FE2500 
 5001      00FE2500 
 5001      00962500 
 5002 05df 00832504 		.ascii	"\000\203%\004\000\201&\004\000\207&\002\000\000'\002"
 5002      00812604 
 5002      00872602 
 5002      00002702 
 5003 05ef 00832702 		.ascii	"\000\203'\002\000\004(\002\000\204(\002\000\025)\002"
 5003      00042802 
 5003      00842802 
 5003      00152902 
 5004 05ff 00842902 		.ascii	"\000\204)\002\000\025)\002\000\004*\002\000\204*\002"
 5004      00152902 
 5004      00042A02 
 5004      00842A02 
 5005 060f 00042B02 		.ascii	"\000\004+\002\000\205+\002\000\020,\002\000\215\030"
 5005      00852B02 
 5005      00102C02 
 5005      008D18
 5006 061e 02008D2C 		.ascii	"\002\000\215,\002\000\200\030\302\000\000\000\000\000"
 5006      02008018 
ARM GAS  /tmp/ccWHsT5O.s 			page 138


 5006      C2000000 
 5006      0000
 5007 062c 00000000 		.ascii	"\000\000\000\000\000\000\000\000\000\000\000\000\000"
 5007      00000000 
 5007      00000000 
 5007      00
 5008 0639 00000000 		.ascii	"\000\000\000\000\000\000\000\000\000\000\000\000\000"
 5008      00000000 
 5008      00000000 
 5008      00
 5009 0646 00000000 		.ascii	"\000\000\000\000\000\000\000\000\000\000\000\000\000"
 5009      00000000 
 5009      00000000 
 5009      00
 5010 0653 00000000 		.ascii	"\000\000\000\000\000\206\030\000\000\005\031\000\000"
 5010      00861800 
 5010      00051900 
 5010      00
 5011 0660 002D0000 		.ascii	"\000-\000\000\203\031\000\000\000\032\000\000\000\032"
 5011      83190000 
 5011      001A0000 
 5011      001A
 5012 066e 1000061A 		.ascii	"\020\000\006\032\000\000\206\032\000\000\001\033\000"
 5012      0000861A 
 5012      0000011B 
 5012      00
 5013 067b 00811B00 		.ascii	"\000\201\033\000\000\021\034\000\000\221\034\000\000"
 5013      00111C00 
 5013      00911C00 
 5013      00
 5014 0688 0C1C0000 		.ascii	"\014\034\000\000\006\035\000\000q\034\000\000\341\035"
 5014      061D0000 
 5014      711C0000 
 5014      E11D
 5015 0696 0000021E 		.ascii	"\000\000\002\036\000\000\227\036\000\000\006\037\000"
 5015      0000971E 
 5015      0000061F 
 5015      00
 5016 06a3 00FA1E00 		.ascii	"\000\372\036\000\000\203\037\000\000\006 \000\000\206"
 5016      00831F00 
 5016      00062000 
 5016      0086
 5017 06b1 20000054 		.ascii	" \000\000T \000\000\000!\000\000\205!\000\000\006\""
 5017      20000000 
 5017      21000085 
 5017      21000006 
 5017      22
 5018 06c2 0000991E 		.ascii	"\000\000\231\036\000\000\206\"\000\000\006#\000\000"
 5018      00008622 
 5018      00000623 
 5018      0000
 5019 06d0 B4220000 		.ascii	"\264\"\000\000\206#\000\000 $\000\000\223$\000\000\006"
 5019      86230000 
 5019      20240000 
 5019      93240000 
 5019      06
 5020 06e1 250000FE 		.ascii	"%\000\000\376$\000\000\302$\000\000\206%\000\000\006"
ARM GAS  /tmp/ccWHsT5O.s 			page 139


 5020      240000C2 
 5020      24000086 
 5020      25000006 
 5021 06f1 260000FE 		.ascii	"&\000\000\376%\000\000\301%\000\000\203%\004\000\203"
 5021      250000C1 
 5021      25000083 
 5021      25040083 
 5022 0701 26040089 		.ascii	"&\004\000\211&\002\000\000'\002\000\205'\002\000\006"
 5022      26020000 
 5022      27020085 
 5022      27020006 
 5023 0711 28020086 		.ascii	"(\002\000\206(\002\000\221-\002\000\007.\002\000\206"
 5023      28020091 
 5023      2D020007 
 5023      2E020086 
 5024 0721 2E020002 		.ascii	".\002\000\002.\002\000\227-\002\000\005/\002\000\206"
 5024      2E020097 
 5024      2D020005 
 5024      2F020086 
 5025 0731 2F020006 		.ascii	"/\002\000\0060\002\000\2050\002\000\200\030\302\000"
 5025      30020085 
 5025      30020080 
 5025      18C200
 5026 0740 00600000 		.ascii	"\000`\000\000\001$\000\000\027\200\000\000\177<\000"
 5026      01240000 
 5026      17800000 
 5026      7F3C00
 5027 074f 00189C00 		.ascii	"\000\030\234\000\000\011|\000\000\277?\000\000\200\377"
 5027      00097C00 
 5027      00BF3F00 
 5027      0080FF
 5028 075e 00000268 		.ascii	"\000\000\002h\000\000\000)\000\000\002\255\000\000\000"
 5028      00000029 
 5028      000002AD 
 5028      000000
 5029 076d 8D000002 		.ascii	"\215\000\000\002h\000\000 )\000\000\010\205\000\000"
 5029      68000020 
 5029      29000008 
 5029      850000
 5030 077c 087C0000 		.ascii	"\010|\000\000\273?\000\000\200\377\000\000\003h\000"
 5030      BB3F0000 
 5030      80FF0000 
 5030      036800
 5031 078b 00002900 		.ascii	"\000\000)\000\0000\205\000\0001\205\000\0008\205\000"
 5031      00308500 
 5031      00318500 
 5031      00388500 
 5032 079b 00328100 		.ascii	"\0002\201\000\000,\215\000\000-\225\000\000\031\250"
 5032      002C8D00 
 5032      002D9500 
 5032      0019A8
 5033 07aa 00000249 		.ascii	"\000\000\002I\000\000\001)\000\000\003\011\000\000\000"
 5033      00000129 
 5033      00000309 
 5033      000000
 5034 07b9 72000004 		.ascii	"r\000\000\004I\000\000\002I\000\000\004\312\000\000"
 5034      49000002 
ARM GAS  /tmp/ccWHsT5O.s 			page 140


 5034      49000004 
 5034      CA0000
 5035 07c8 19AC0000 		.ascii	"\031\254\000\000\003h\000\000"
 5035      03680000 
 5036 07d0 00290000 		.ascii	"\000)\000\0002\205\000\000\003h\000\000\000)\000\000"
 5036      32850000 
 5036      03680000 
 5036      00290000 
 5037 07e0 2A8D0000 		.ascii	"*\215\000\000\003\250\000\000\203M\000\000\377-\000"
 5037      03A80000 
 5037      834D0000 
 5037      FF2D00
 5038 07ef 00820D00 		.ascii	"\000\202\015\000\000\027\214\000\000>\254\000\000\000"
 5038      00178C00 
 5038      003EAC00 
 5038      0000
 5039 07fd 8C000002 		.ascii	"\214\000\000\002|\000\000\240?\000\000\216\207\000\000"
 5039      7C0000A0 
 5039      3F00008E 
 5039      870000
 5040 080c 007C0000 		.ascii	"\000|\000\000\266?\000\000\201\377\000\000\002h\000"
 5040      B63F0000 
 5040      81FF0000 
 5040      026800
 5041 081b 00202900 		.ascii	"\000 )\000\000\000\261\000\000\001\320\000\000\373\300"
 5041      0000B100 
 5041      0001D000 
 5041      00FBC0
 5042 082a 000001B9 		.ascii	"\000\000\001\271\000\000\000\231\000\000>\254\000\000"
 5042      00000099 
 5042      00003EAC 
 5042      0000
 5043 0838 008C0000 		.ascii	"\000\214\000\000\003h\000\000\000)\000\000\031\201\000"
 5043      03680000 
 5043      00290000 
 5043      198100
 5044 0847 00178100 		.ascii	"\000\027\201\000\000\032\255\000\000\002\314\000\000"
 5044      001AAD00 
 5044      0002CC00 
 5044      00
 5045 0854 10AC0000 		.ascii	"\020\254\000\000\017\214\000\0007\255\000\000\001\314"
 5045      0F8C0000 
 5045      37AD0000 
 5045      01CC
 5046 0862 000084C0 		.ascii	"\000\000\204\300\000\000\377-\000\0007\215\000\000\001"
 5046      0000FF2D 
 5046      0000378D 
 5046      000001
 5047 0871 CC000038 		.ascii	"\314\000\0008\205\000\000\027\254\000\000\035\314\000"
 5047      85000017 
 5047      AC00001D 
 5047      CC00
 5048 087f 00318500 		.ascii	"\0001\205\000\0008\201\000\000\002|\000\000\240?\000"
 5048      00388100 
 5048      00027C00 
 5048      00A03F00 
 5049 088f 008E8300 		.ascii	"\000\216\203\000\000\011|\000\000\277?\000\000\200\377"
ARM GAS  /tmp/ccWHsT5O.s 			page 141


 5049      00097C00 
 5049      00BF3F00 
 5049      0080FF
 5050 089e 0000087C 		.ascii	"\000\000\010|\000\000\273?\000\000\200\377\000\000\003"
 5050      0000BB3F 
 5050      000080FF 
 5050      000003
 5051 08ad 68000000 		.ascii	"h\000\000\000)\000\000,\215\000\000-\225\000\000\031"
 5051      2900002C 
 5051      8D00002D 
 5051      95000019 
 5052 08bd A8000002 		.ascii	"\250\000\000\002I\000\000\001)\000\000\003\011\000\000"
 5052      49000001 
 5052      29000003 
 5052      090000
 5053 08cc 00720000 		.ascii	"\000r\000\000\004I\000\000\002I\000\000\001\312\000"
 5053      04490000 
 5053      02490000 
 5053      01CA00
 5054 08db 0019AC00 		.ascii	"\000\031\254\000\000\003h\000\000\000)\000\000*\215"
 5054      00036800 
 5054      00002900 
 5054      002A8D
 5055 08ea 00002281 		.ascii	"\000\000\"\201\000\000\032\201\000\000\031\270\000\000"
 5055      00001A81 
 5055      000019B8 
 5055      0000
 5056 08f8 065B0000 		.ascii	"\006[\000\000\003\250\000\000\002\033\000\000\011\317"
 5056      03A80000 
 5056      021B0000 
 5056      09CF
 5057 0906 0000087C 		.ascii	"\000\000\010|\000\000\273?\000\000\200\377\000\000\003"
 5057      0000BB3F 
 5057      000080FF 
 5057      000003
 5058 0915 68000000 		.ascii	"h\000\000\000)\000\000,\215\000\000-\225\000\000.\201"
 5058      2900002C 
 5058      8D00002D 
 5058      9500002E 
 5058      81
 5059 0926 00003B81 		.ascii	"\000\000;\201\000\000\025\200\000\000=\270\000\000\027"
 5059      00001580 
 5059      00003DB8 
 5059      000017
 5060 0935 AC000081 		.ascii	"\254\000\000\201\331\000\000\025\204\000\000\002h\000"
 5060      D9000015 
 5060      84000002 
 5060      6800
 5061 0943 00202900 		.ascii	"\000 )\000\000\004\271\000\000\027\254\000\000\001\317"
 5061      0004B900 
 5061      0017AC00 
 5061      0001CF
 5062 0952 00000685 		.ascii	"\000\000\006\205\000\000\005\271\000\000\001\317\000"
 5062      000005B9 
 5062      000001CF 
 5062      00
 5063 095f 00068100 		.ascii	"\000\006\201\000\000\002h\000\000\000)\000\000\005\255"
ARM GAS  /tmp/ccWHsT5O.s 			page 142


 5063      00026800 
 5063      00002900 
 5063      0005AD
 5064 096e 000003CC 		.ascii	"\000\000\003\314\000\000\003|\000\000\212?\000\000\200"
 5064      0000037C 
 5064      00008A3F 
 5064      000080
 5065 097d FF000002 		.ascii	"\377\000\000\002h\000\000\000)\000\000(\254\000\000"
 5065      68000000 
 5065      29000028 
 5065      AC0000
 5066 098c 01CC0000 		.ascii	"\001\314\000\000\201\300\000\000\377-\000\000(\214\000"
 5066      81C00000 
 5066      FF2D0000 
 5066      288C00
 5067 099b 0006CC00 		.ascii	"\000\006\314\000\000.\254\000\000\204\314\000\000%\254"
 5067      002EAC00 
 5067      0084CC00 
 5067      0025AC
 5068 09aa 0000288C 		.ascii	"\000\000(\214\000\000&\204\000\000*\204\000\000\000"
 5068      00002684 
 5068      00002A84 
 5068      000000
 5069 09b9 B1000001 		.ascii	"\261\000\000\001x\000\000\000;\000\000\000\267\000\000"
 5069      78000000 
 5069      3B000000 
 5069      B70000
 5070 09c8 85560000 		.ascii	"\205V\000\000\2016\000\000\206\032\000\000\020\257\000"
 5070      81360000 
 5070      861A0000 
 5070      10AF00
 5071 09d7 0081D100 		.ascii	"\000\201\321\000\000#\200\000\000\010\257\000\000\022"
 5071      00238000 
 5071      0008AF00 
 5071      0012
 5072 09e5 B4000085 		.ascii	"\264\000\000\205\025\000\000\201\322\000\000)\200\000"
 5072      15000081 
 5072      D2000029 
 5072      8000
 5073 09f3 0018B800 		.ascii	"\000\030\270\000\000(\254\000\000\016\314\000\000&\200"
 5073      0028AC00 
 5073      000ECC00 
 5073      002680
 5074 0a02 00002A80 		.ascii	"\000\000*\200\000\000\001t\000\000\2006\000\000\012"
 5074      00000174 
 5074      00008036 
 5074      00000A
 5075 0a11 6C0000A4 		.ascii	"l\000\000\244-\000\000\200\375\000\000\000\221\000\000"
 5075      2D000080 
 5075      FD000000 
 5075      910000
 5076 0a20 02AD0000 		.ascii	"\002\255\000\000\003\316\000\000>\254\000\000\000\214"
 5076      03CE0000 
 5076      3EAC0000 
 5076      008C
 5077 0a2e 000081C0 		.ascii	"\000\000\201\300\000\000\000\220\000\000\001|\000\000"
 5077      00000090 
ARM GAS  /tmp/ccWHsT5O.s 			page 143


 5077      0000017C 
 5077      0000
 5078 0a3c 803F0000 		.ascii	"\200?\000\000\200\253\000\000\202\033\000\000\017\257"
 5078      80AB0000 
 5078      821B0000 
 5078      0FAF
 5079 0a4a 000081D1 		.ascii	"\000\000\201\321\000\000#\204\000\000\007\257\000\000"
 5079      00002384 
 5079      000007AF 
 5079      0000
 5080 0a58 12B80000 		.ascii	"\022\270\000\000\206\031\000\000\001\323\000\000)\204"
 5080      86190000 
 5080      01D30000 
 5080      2984
 5081 0a66 000028AC 		.ascii	"\000\000(\254\000\000\005\314\000\000\030\270\000\000"
 5081      000005CC 
 5081      000018B8 
 5081      0000
 5082 0a74 013B0000 		.ascii	"\001;\000\000\001\330\000\000\201\300\000\000\030\230"
 5082      01D80000 
 5082      81C00000 
 5082      1898
 5083 0a82 00000180 		.ascii	"\000\000\001\200\000\000 \200\000\000\027\270\000\000"
 5083      00002080 
 5083      000017B8 
 5083      0000
 5084 0a90 02680000 		.ascii	"\002h\000\000 )\000\000\010\255\000\000\201\305\000"
 5084      20290000 
 5084      08AD0000 
 5084      81C500
 5085 0a9f 00013B00 		.ascii	"\000\001;\000\000\027\230\000\000\003\264\000\000\210"
 5085      00179800 
 5085      0003B400 
 5085      0088
 5086 0aad DA000017 		.ascii	"\332\000\000\027\200\000\000\001\204\000\000\003h\000"
 5086      80000001 
 5086      84000003 
 5086      6800
 5087 0abb 00002900 		.ascii	"\000\000)\000\000\006\271\000\0007\200\000\000\001\330"
 5087      0006B900 
 5087      00378000 
 5087      0001D8
 5088 0aca 00003784 		.ascii	"\000\0007\204\000\000\027\270\000\000<\250\000\000\005"
 5088      000017B8 
 5088      00003CA8 
 5088      000005
 5089 0ad9 D9000020 		.ascii	"\331\000\000 \204\000\000\030\200\000\000\002h\000\000"
 5089      84000018 
 5089      80000002 
 5089      680000
 5090 0ae8 00290000 		.ascii	"\000)\000\000\005\205\000\000\002h\000\000 )\000\000"
 5090      05850000 
 5090      02680000 
 5090      20290000 
 5091 0af8 0FB80000 		.ascii	"\017\270\000\000\003\201\000\000.\200\000\000\030\330"
 5091      03810000 
 5091      2E800000 
ARM GAS  /tmp/ccWHsT5O.s 			page 144


 5091      18D8
 5092 0b06 00000268 		.ascii	"\000\000\002h\000\000 )\000\000\027\270\000\000\003"
 5092      00002029 
 5092      000017B8 
 5092      000003
 5093 0b15 B4000006 		.ascii	"\264\000\000\006[\000\000\005\033\000\000\003p\000\000"
 5093      5B000005 
 5093      1B000003 
 5093      700000
 5094 0b24 00320000 		.ascii	"\0002\000\000*\256\000\000\021\317\000\000\007\255\000"
 5094      2AAE0000 
 5094      11CF0000 
 5094      07AD00
 5095 0b33 00032400 		.ascii	"\000\003$\000\000\201M\000\000\203M\000\000\001$\000"
 5095      00814D00 
 5095      00834D00 
 5095      00012400 
 5096 0b43 0002CC00 		.ascii	"\000\002\314\000\000\003\205\000\000\211\300\000\000"
 5096      00038500 
 5096      0089C000 
 5096      00
 5097 0b50 02AD0000 		.ascii	"\002\255\000\000\203\314\000\000\010\205\000\000\003"
 5097      83CC0000 
 5097      08850000 
 5097      03
 5098 0b5d 85000084 		.ascii	"\205\000\000\204\300\000\000\010\201\000\000\010h\000"
 5098      C0000008 
 5098      81000008 
 5098      6800
 5099 0b6b 00002900 		.ascii	"\000\000)\000\000\000\351\000\000\027\270\000\000\201"
 5099      0000E900 
 5099      0017B800 
 5099      0081
 5100 0b79 D80000FA 		.ascii	"\330\000\000\372\300\000\000\003\264\000\000\006[\000"
 5100      C0000003 
 5100      B4000006 
 5100      5B00
 5101 0b87 00051B00 		.ascii	"\000\005\033\000\000\003h\000\000\000)\000\000\022\201"
 5101      00036800 
 5101      00002900 
 5101      001281
 5102 0b96 00001381 		.ascii	"\000\000\023\201\000\000\006\255\000\000\005\314\000"
 5102      000006AD 
 5102      000005CC 
 5102      00
 5103 0ba3 00003C00 		.ascii	"\000\000<\000\000\000,\000\000\016\261\000\000+\320"
 5103      00002C00 
 5103      000EB100 
 5103      002BD0
 5104 0bb2 0000ECC0 		.ascii	"\000\000\354\300\000\000\000\255\000\000\207\331\000"
 5104      000000AD 
 5104      000087D9 
 5104      00
 5105 0bbf 00128500 		.ascii	"\000\022\205\000\000\001\255\000\000\203M\000\000\004"
 5105      0001AD00 
 5105      00834D00 
 5105      0004
ARM GAS  /tmp/ccWHsT5O.s 			page 145


 5106 0bcd BC000087 		.ascii	"\274\000\000\207\015\000\000\024\215\000\000\"\205\000"
 5106      0D000014 
 5106      8D000022 
 5106      8500
 5107 0bdb 0003B500 		.ascii	"\000\003\265\000\000\007\261\000\000\005\022\000\000"
 5107      0007B100 
 5107      00051200 
 5107      00
 5108 0be8 05B50000 		.ascii	"\005\265\000\000\005\016\000\000=\215\000\000<\205\000"
 5108      050E0000 
 5108      3D8D0000 
 5108      3C8500
 5109 0bf7 003C8100 		.ascii	"\000<\201\000\000\002\255\000\000>\261\000\000?\275"
 5109      0002AD00 
 5109      003EB100 
 5109      003FBD
 5110 0c06 0000840D 		.ascii	"\000\000\204\015\000\000\006\261\000\000\204\015\000"
 5110      000006B1 
 5110      0000840D 
 5110      00
 5111 0c13 0004B100 		.ascii	"\000\004\261\000\000\204\015\000\000\206\331\000\000"
 5111      00840D00 
 5111      0086D900 
 5111      00
 5112 0c20 13850000 		.ascii	"\023\205\000\000\207S\000\000\004\264\000\000\005\022"
 5112      87530000 
 5112      04B40000 
 5112      0512
 5113 0c2e 00001591 		.ascii	"\000\000\025\221\000\000\"\205\000\000\020\261\000\000"
 5113      00002285 
 5113      000010B1 
 5113      0000
 5114 0c3c 840D0000 		.ascii	"\204\015\000\000\021\265\000\000\205\037\000\000=\235"
 5114      11B50000 
 5114      851F0000 
 5114      3D9D
 5115 0c4a 00003C85 		.ascii	"\000\000<\205\000\000<\201\000\000>\261\000\000?\275"
 5115      00003C81 
 5115      00003EB1 
 5115      00003FBD 
 5116 0c5a 0000840D 		.ascii	"\000\000\204\015\000\0000\214\000\0001\234\000\000\011"
 5116      0000308C 
 5116      0000319C 
 5116      000009
 5117 0c69 B1000007 		.ascii	"\261\000\000\007\016\000\000=\215\000\000<\205\000\000"
 5117      0E00003D 
 5117      8D00003C 
 5117      850000
 5118 0c78 3C810000 		.ascii	"<\201\000\0000\254\000\000>\261\000\000?\275\000\000"
 5118      30AC0000 
 5118      3EB10000 
 5118      3FBD0000 
 5119 0c88 08B50000 		.ascii	"\010\265\000\000\005\022\000\000\204\015\000\000\206"
 5119      05120000 
 5119      840D0000 
 5119      86
 5120 0c95 D9000012 		.ascii	"\331\000\000\022\205\000\0001\201\000\000\207O\000\000"
ARM GAS  /tmp/ccWHsT5O.s 			page 146


 5120      85000031 
 5120      81000087 
 5120      4F0000
 5121 0ca4 04BC0000 		.ascii	"\004\274\000\000\207\015\000\000\024\215\000\0005\261"
 5121      870D0000 
 5121      148D0000 
 5121      35B1
 5122 0cb2 0000840D 		.ascii	"\000\000\204\015\000\000\201\331\000\0001\201\000\000"
 5122      000081D9 
 5122      00003181 
 5122      0000
 5123 0cc0 31B00000 		.ascii	"1\260\000\000\013\255\000\000\003\022\000\000\017\255"
 5123      0BAD0000 
 5123      03120000 
 5123      0FAD
 5124 0cce 00000312 		.ascii	"\000\000\003\022\000\000\015\255\000\000\003\016\000"
 5124      00000DAD 
 5124      0000030E 
 5124      00
 5125 0cdb 003D8D00 		.ascii	"\000=\215\000\000<\205\000\000<\201\000\0000\254\000"
 5125      003C8500 
 5125      003C8100 
 5125      0030AC00 
 5126 0ceb 00002000 		.ascii	"\000\000 \000\000>\261\000\000?\275\000\000\003\022"
 5126      003EB100 
 5126      003FBD00 
 5126      000312
 5127 0cfa 00000AAD 		.ascii	"\000\000\012\255\000\000\003\022\000\000\016\255\000"
 5127      00000312 
 5127      00000EAD 
 5127      00
 5128 0d07 00031200 		.ascii	"\000\003\022\000\000\014\255\000\000\003\016\000\000"
 5128      000CAD00 
 5128      00030E00 
 5128      00
 5129 0d14 88D90000 		.ascii	"\210\331\000\000\023\205\000\0000\201\000\000\032\205"
 5129      13850000 
 5129      30810000 
 5129      1A85
 5130 0d22 0000874F 		.ascii	"\000\000\207O\000\000\004\274\000\000\207\015\000\000"
 5130      000004BC 
 5130      0000870D 
 5130      0000
 5131 0d30 158D0000 		.ascii	"\025\215\000\000\225\300\000\000-\260\000\000\204\015"
 5131      95C00000 
 5131      2DB00000 
 5131      840D
 5132 0d3e 00002E80 		.ascii	"\000\000.\200\000\000\203\331\000\000$\244\000\000."
 5132      000083D9 
 5132      000024A4 
 5132      00002E
 5133 0d4d 84000001 		.ascii	"\204\000\000\001$\000\000\004R\000\000\0012\000\000"
 5133      24000004 
 5133      52000001 
 5133      320000
 5134 0d5c 840D0000 		.ascii	"\204\015\000\0003\261\000\000\204\015\000\000\201\331"
 5134      33B10000 
ARM GAS  /tmp/ccWHsT5O.s 			page 147


 5134      840D0000 
 5134      81D9
 5135 0d6a 00003081 		.ascii	"\000\0000\201\000\0004\265\000\000\005\022\000\000\004"
 5135      000034B5 
 5135      00000512 
 5135      000004
 5136 0d79 52000001 		.ascii	"R\000\000\0012\000\000\204\015\000\000\201\331\000\000"
 5136      32000084 
 5136      0D000081 
 5136      D90000
 5137 0d88 30850000 		.ascii	"0\205\000\000,\255\000\000-\265\000\000\027\270\000"
 5137      2CAD0000 
 5137      2DB50000 
 5137      17B800
 5138 0d97 0003B000 		.ascii	"\000\003\260\000\000\006[\000\000\004\033\000\0009\201"
 5138      00065B00 
 5138      00041B00 
 5138      003981
 5139 0da6 00001681 		.ascii	"\000\000\026\201\000\000\027\201\000\000\030\201\000"
 5139      00001781 
 5139      00001881 
 5139      00
 5140 0db3 0081D900 		.ascii	"\000\201\331\000\0009\205\000\000\201\332\000\000\026"
 5140      00398500 
 5140      0081DA00 
 5140      0016
 5141 0dc1 85000003 		.ascii	"\205\000\000\003\255\000\000\007\261\000\000\003\016"
 5141      AD000007 
 5141      B1000003 
 5141      0E
 5142 0dce 000005B1 		.ascii	"\000\000\005\261\000\000\003\016\000\000\021\261\000"
 5142      0000030E 
 5142      000011B1 
 5142      00
 5143 0ddb 00030E00 		.ascii	"\000\003\016\000\000\006\275\000\000\001\334\000\000"
 5143      0006BD00 
 5143      0001DC00 
 5143      00
 5144 0de8 002C0000 		.ascii	"\000,\000\000\013\261\000\000\003\016\000\000=\215\000"
 5144      0BB10000 
 5144      030E0000 
 5144      3D8D00
 5145 0df7 003C8500 		.ascii	"\000<\205\000\000<\201\000\000\002\255\000\000\000 "
 5145      003C8100 
 5145      0002AD00 
 5145      000020
 5146 0e06 00000020 		.ascii	"\000\000\000 \000\000>\261\000\000\003\016\000\000\006"
 5146      00003EB1 
 5146      0000030E 
 5146      000006
 5147 0e15 B1000003 		.ascii	"\261\000\000\003\016\000\000\004\261\000\000\003\016"
 5147      0E000004 
 5147      B1000003 
 5147      0E
 5148 0e22 000010B1 		.ascii	"\000\000\020\261\000\000\003\016\000\000\006\275\000"
 5148      0000030E 
 5148      000006BD 
ARM GAS  /tmp/ccWHsT5O.s 			page 148


 5148      00
 5149 0e2f 0001DC00 		.ascii	"\000\001\334\000\000\000,\000\000\012\261\000\000\003"
 5149      00002C00 
 5149      000AB100 
 5149      0003
 5150 0e3d 0E000028 		.ascii	"\016\000\000(\265\000\000\205V\000\000\2016\000\000"
 5150      B5000085 
 5150      56000081 
 5150      360000
 5151 0e4c 83160000 		.ascii	"\203\026\000\000;\275\000\000\014\334\000\000\000~\000"
 5151      3BBD0000 
 5151      0CDC0000 
 5151      007E00
 5152 0e5b 00875200 		.ascii	"\000\207R\000\000\004R\000\000\005\336\000\000\205V"
 5152      00045200 
 5152      0005DE00 
 5152      008556
 5153 0e6a 00003A95 		.ascii	"\000\000:\225\000\000\032\255\000\000;\215\000\000\203"
 5153      00001AAD 
 5153      00003B8D 
 5153      000083
 5154 0e79 C000003B 		.ascii	"\300\000\000;\201\000\000\201\332\000\000\027\205\000"
 5154      81000081 
 5154      DA000017 
 5154      8500
 5155 0e87 0006BD00 		.ascii	"\000\006\275\000\000\003\334\000\000\027\255\000\000"
 5155      0003DC00 
 5155      0017AD00 
 5155      00
 5156 0e94 198D0000 		.ascii	"\031\215\000\000\245\300\000\000\003\255\000\000\007"
 5156      A5C00000 
 5156      03AD0000 
 5156      07
 5157 0ea1 B1000003 		.ascii	"\261\000\000\003\016\000\000=\215\000\000<\205\000\000"
 5157      0E00003D 
 5157      8D00003C 
 5157      850000
 5158 0eb0 3C810000 		.ascii	"<\201\000\000\002\255\000\000\000 \000\000>\261\000"
 5158      02AD0000 
 5158      00200000 
 5158      3EB100
 5159 0ebf 00030E00 		.ascii	"\000\003\016\000\000\006\261\000\000\003\016\000\000"
 5159      0006B100 
 5159      00030E00 
 5159      00
 5160 0ecc 27B50000 		.ascii	"'\265\000\000\205V\000\000\2016\000\000\203\026\000"
 5160      85560000 
 5160      81360000 
 5160      831600
 5161 0edb 0081DA00 		.ascii	"\000\201\332\000\000\030\205\000\000\002\255\000\000"
 5161      00188500 
 5161      0002AD00 
 5161      00
 5162 0ee8 29B50000 		.ascii	")\265\000\000\205V\000\000\2016\000\000\203\026\000"
 5162      85560000 
 5162      81360000 
 5162      831600
ARM GAS  /tmp/ccWHsT5O.s 			page 149


 5163 0ef7 002EBD00 		.ascii	"\000.\275\000\000\014\334\000\000\000~\000\000\207R"
 5163      000CDC00 
 5163      00007E00 
 5163      008752
 5164 0f06 00000452 		.ascii	"\000\000\004R\000\000\005\336\000\000\205V\000\000/"
 5164      000005DE 
 5164      00008556 
 5164      00002F
 5165 0f15 9500001A 		.ascii	"\225\000\000\032\255\000\000.\215\000\000\203\300\000"
 5165      AD00002E 
 5165      8D000083 
 5165      C000
 5166 0f23 002E8100 		.ascii	"\000.\201\000\000\201\332\000\000\031\205\000\000\""
 5166      0081DA00 
 5166      00198500 
 5166      0022
 5167 0f31 80000019 		.ascii	"\200\000\000\031\264\000\000\201\332\000\000\"\204\000"
 5167      B4000081 
 5167      DA000022 
 5167      8400
 5168 0f3f 00027400 		.ascii	"\000\002t\000\000\2406\000\000\216\276\000\000!\200"
 5168      00A03600 
 5168      008EBE00 
 5168      002180
 5169 0f4e 000011B4 		.ascii	"\000\000\021\264\000\000\030\270\000\000\002\334\000"
 5169      000018B8 
 5169      000002DC 
 5169      00
 5170 0f5b 0081DA00 		.ascii	"\000\201\332\000\000!\204\000\000:\200\000\000\007\264"
 5170      00218400 
 5170      003A8000 
 5170      0007B4
 5171 0f6a 0000813E 		.ascii	"\000\000\201>\000\000\001\334\000\000\202\300\000\000"
 5171      000001DC 
 5171      000082C0 
 5171      0000
 5172 0f78 01D70000 		.ascii	"\001\327\000\000:\204\000\000;\200\000\000\010\264\000"
 5172      3A840000 
 5172      3B800000 
 5172      08B400
 5173 0f87 0001D700 		.ascii	"\000\001\327\000\000;\204\000\000\027\270\000\000\003"
 5173      003B8400 
 5173      0017B800 
 5173      0003
 5174 0f95 68000000 		.ascii	"h\000\000\000)\000\000.\265\000\000"
 5174      2900002E 
 5174      B50000
 5175 0fa0 84D40000 		.ascii	"\204\324\000\000/\265\000\000\002\327\000\000\031\205"
 5175      2FB50000 
 5175      02D70000 
 5175      1985
 5176 0fae 00002E81 		.ascii	"\000\000.\201\000\000;\265\000\000\207\324\000\000:"
 5176      00003BB5 
 5176      000087D4 
 5176      00003A
 5177 0fbd B5000005 		.ascii	"\265\000\000\005\327\000\000\027\205\000\000;\201\000"
 5177      D7000017 
ARM GAS  /tmp/ccWHsT5O.s 			page 150


 5177      8500003B 
 5177      8100
 5178 0fcb 0037BC00 		.ascii	"\0007\274\000\000\201\334\000\000\031\205\000\0000\265"
 5178      0081DC00 
 5178      00198500 
 5178      0030B5
 5179 0fda 000031B1 		.ascii	"\000\0001\261\000\000\005R\000\000\004R\000\0008\265"
 5179      00000552 
 5179      00000452 
 5179      000038B5 
 5180 0fea 00000552 		.ascii	"\000\000\005R\000\000\004R\000\0002\221\000\000\002"
 5180      00000452 
 5180      00003291 
 5180      000002
 5181 0ff9 68000020 		.ascii	"h\000\000 )\000\000\007\255\000\000\0100\000\000\003"
 5181      29000007 
 5181      AD000008 
 5181      30000003 
 5182 1009 4E000083 		.ascii	"N\000\000\203M\000\000\003\316\000\0007\274\000\000"
 5182      4D000003 
 5182      CE000037 
 5182      BC0000
 5183 1018 81DC0000 		.ascii	"\201\334\000\000\000\200\000\000\000|\000\000\266?\000"
 5183      00800000 
 5183      007C0000 
 5183      B63F00
 5184 1027 0081FF00 		.ascii	"\000\201\377\000\000\003h\000\000\000)\000\000\006\255"
 5184      00036800 
 5184      00002900 
 5184      0006AD
 5185 1036 000002CC 		.ascii	"\000\000\002\314\000\000\000,\000\000\007\304\000\000"
 5185      0000002C 
 5185      000007C4 
 5185      0000
 5186 1044 03AD0000 		.ascii	"\003\255\000\000\007\261\000\000\003\016\000\000\005"
 5186      07B10000 
 5186      030E0000 
 5186      05
 5187 1051 B1000003 		.ascii	"\261\000\000\003\016\000\000\021\261\000\000\003\016"
 5187      0E000011 
 5187      B1000003 
 5187      0E
 5188 105e 00000BB1 		.ascii	"\000\000\013\261\000\000\003\016\000\000\017\261\000"
 5188      0000030E 
 5188      00000FB1 
 5188      00
 5189 106b 00030E00 		.ascii	"\000\003\016\000\000\015\261\000\000\2005\000\000\003"
 5189      000DB100 
 5189      00803500 
 5189      0003
 5190 1079 0E00003D 		.ascii	"\016\000\000=\215\000\000<\205\000\000<\201\000\000"
 5190      8D00003C 
 5190      8500003C 
 5190      810000
 5191 1088 06AD0000 		.ascii	"\006\255\000\000\002\314\000\000\000,\000\000\007\304"
 5191      02CC0000 
 5191      002C0000 
ARM GAS  /tmp/ccWHsT5O.s 			page 151


 5191      07C4
 5192 1096 000002AD 		.ascii	"\000\000\002\255\000\000\006\261\000\000\003\016\000"
 5192      000006B1 
 5192      0000030E 
 5192      00
 5193 10a3 0004B100 		.ascii	"\000\004\261\000\000\003\016\000\000\020\261\000\000"
 5193      00030E00 
 5193      0010B100 
 5193      00
 5194 10b0 030E0000 		.ascii	"\003\016\000\000\012\261\000\000\003\016\000\000\016"
 5194      0AB10000 
 5194      030E0000 
 5194      0E
 5195 10bd B1000003 		.ascii	"\261\000\000\003\016\000\000>\261\000\000\003\032\000"
 5195      0E00003E 
 5195      B1000003 
 5195      1A00
 5196 10cb 003D9500 		.ascii	"\000=\225\000\000<\205\000\000<\201\000\000\000 \000"
 5196      003C8500 
 5196      003C8100 
 5196      00002000 
 5197 10db 00002000 		.ascii	"\000\000 \000\000\000 \000\000\000 \000\000\000 \000"
 5197      00002000 
 5197      00002000 
 5197      00002000 
 5198 10eb 003EB500 		.ascii	"\000>\265\000\000\205\015\000\000&\265\000\000\205V"
 5198      00850D00 
 5198      0026B500 
 5198      008556
 5199 10fa 00008136 		.ascii	"\000\000\2016\000\000\203\026\000\000-\260\000\000\006"
 5199      00008316 
 5199      00002DB0 
 5199      000006
 5200 1109 0E00000C 		.ascii	"\016\000\000\014\261\000\000\003\016\000\000\203Y\000"
 5200      B1000003 
 5200      0E000083 
 5200      5900
 5201 1117 00013B00 		.ascii	"\000\001;\000\000\005\033\000\000\000j\000\000\002["
 5201      00051B00 
 5201      00006A00 
 5201      00025B
 5202 1126 0000065B 		.ascii	"\000\000\006[\000\000\001\331\000\000\201\300\000\000"
 5202      000001D9 
 5202      000081C0 
 5202      0000
 5203 1134 802E0000 		.ascii	"\200.\000\000\200\377\000\000\001h\000\000\000)\000"
 5203      80FF0000 
 5203      01680000 
 5203      002900
 5204 1143 0009AD00 		.ascii	"\000\011\255\000\000\021\265\000\000\205V\000\000\201"
 5204      0011B500 
 5204      00855600 
 5204      0081
 5205 1151 36000083 		.ascii	"6\000\000\203\016\000\000\001$\000\000\012\215\000\000"
 5205      0E000001 
 5205      2400000A 
 5205      8D0000
ARM GAS  /tmp/ccWHsT5O.s 			page 152


 5206 1160 01AD0000 		.ascii	"\001\255\000\000\023\265\000\000\205V\000\000\2016\000"
 5206      13B50000 
 5206      85560000 
 5206      813600
 5207 116f 00830E00 		.ascii	"\000\203\016\000\000\002\215\000\000\013\255\000\000"
 5207      00028D00 
 5207      000BAD00 
 5207      00
 5208 117c 11B50000 		.ascii	"\021\265\000\000\203\016\000\000\022\265\000\000\203"
 5208      830E0000 
 5208      12B50000 
 5208      83
 5209 1189 0E00000C 		.ascii	"\016\000\000\014\215\000\000\003\255\000\000\023\265"
 5209      8D000003 
 5209      AD000013 
 5209      B5
 5210 1196 0000830E 		.ascii	"\000\000\203\016\000\000\024\265\000\000\203\016\000"
 5210      000014B5 
 5210      0000830E 
 5210      00
 5211 11a3 00048D00 		.ascii	"\000\004\215\000\000\200\377\000\000\000l\000\000\200"
 5211      0080FF00 
 5211      00006C00 
 5211      0080
 5212 11b1 2D000001 		.ascii	"-\000\000\001\215\000\000\003\201\000\000\004\201\000"
 5212      8D000003 
 5212      81000004 
 5212      8100
 5213 11bf 0002B100 		.ascii	"\000\002\261\000\000\005\255\000\000\200\314\000\000"
 5213      0005AD00 
 5213      0080CC00 
 5213      00
 5214 11cc 80FF0000 		.ascii	"\200\377\000\000\005\255\000\000\365\314\000\000\001"
 5214      05AD0000 
 5214      F5CC0000 
 5214      01
 5215 11d9 AD000021 		.ascii	"\255\000\000!\314\000\000\212\256\000\000q\317\000\000"
 5215      CC00008A 
 5215      AE000071 
 5215      CF0000
 5216 11e8 80AE0000 		.ascii	"\200\256\000\000\205\015\000\000\217\261\000\000\221"
 5216      850D0000 
 5216      8FB10000 
 5216      91
 5217 11f5 AE000009 		.ascii	"\256\000\000\011\314\000\000\001$\000\000\221\256\000"
 5217      CC000001 
 5217      24000091 
 5217      AE00
 5218 1203 00834D00 		.ascii	"\000\203M\000\000\007\215\000\000\001\205\000\000\003"
 5218      00078D00 
 5218      00018500 
 5218      0003
 5219 1211 85000004 		.ascii	"\205\000\000\004\201\000\000\0014\000\000\200\377\000"
 5219      81000001 
 5219      34000080 
 5219      FF00
 5220 121f 0080BA00 		.ascii	"\000\200\272\000\000\215\246\000\000\002\330\000\000"
ARM GAS  /tmp/ccWHsT5O.s 			page 153


 5220      008DA600 
 5220      0002D800 
 5220      00
 5221 122c 81440000 		.ascii	"\201D\000\000\201$\000\000\001\022\000\000\377-\000"
 5221      81240000 
 5221      01120000 
 5221      FF2D00
 5222 123b 0001CC00 		.ascii	"\000\001\314\000\000\356\300\000\000\216\246\000\000"
 5222      00EEC000 
 5222      008EA600 
 5222      00
 5223 1248 02D80000 		.ascii	"\002\330\000\000\201D\000\000\201$\000\000\001\022\000"
 5223      81440000 
 5223      81240000 
 5223      011200
 5224 1257 00FF2D00 		.ascii	"\000\377-\000\000q\314\000\000\346\300\000\000\225\314"
 5224      0071CC00 
 5224      00E6C000 
 5224      0095CC
 5225 1266 00008AAE 		.ascii	"\000\000\212\256\000\000\214\262\000\000\204\015\000"
 5225      00008CB2 
 5225      0000840D 
 5225      00
 5226 1273 0003CF00 		.ascii	"\000\003\317\000\000\002,\000\000\001\215\000\000\220"
 5226      00022C00 
 5226      00018D00 
 5226      0090
 5227 1281 C0000007 		.ascii	"\300\000\000\007\271\000\000\200\262\000\000\216\256"
 5227      B9000080 
 5227      B200008E 
 5227      AE
 5228 128e 000001D8 		.ascii	"\000\000\001\330\000\000\215\256\000\000\202\320\000"
 5228      00008DAE 
 5228      000082D0 
 5228      00
 5229 129b 00834D00 		.ascii	"\000\203M\000\000\201-\000\000\000\261\000\000\003\022"
 5229      00812D00 
 5229      0000B100 
 5229      000312
 5230 12aa 0000065B 		.ascii	"\000\000\006[\000\000\007\231\000\000\000t\000\000\200"
 5230      00000799 
 5230      00000074 
 5230      000080
 5231 12b9 FF000002 		.ascii	"\377\000\000\0020\000\000%\316\000\000\202\256\000\000"
 5231      30000025 
 5231      CE000082 
 5231      AE0000
 5232 12c8 11CF0000 		.ascii	"\021\317\000\000\200\256\000\000\205\015\000\000\207"
 5232      80AE0000 
 5232      850D0000 
 5232      87
 5233 12d5 B1000012 		.ascii	"\261\000\000\022\254\000\000\003\022\000\000\223\256"
 5233      AC000003 
 5233      12000093 
 5233      AE
 5234 12e2 00000BCC 		.ascii	"\000\000\013\314\000\000\001$\000\000\003,\000\000\001"
 5234      00000124 
ARM GAS  /tmp/ccWHsT5O.s 			page 154


 5234      0000032C 
 5234      000001
 5235 12f1 8D000093 		.ascii	"\215\000\000\223\256\000\000\203M\000\000\007\215\000"
 5235      AE000083 
 5235      4D000007 
 5235      8D00
 5236 12ff 00038100 		.ascii	"\000\003\201\000\000\004\205\000\000\000t\000\000\200"
 5236      00048500 
 5236      00007400 
 5236      0080
 5237 130d FF00009B 		.ascii	"\377\000\000\233\300\000\000\200\272\000\000\205\246"
 5237      C0000080 
 5237      BA000085 
 5237      A6
 5238 131a 000002D8 		.ascii	"\000\000\002\330\000\000\201D\000\000\201$\000\000\001"
 5238      00008144 
 5238      00008124 
 5238      000001
 5239 1329 120000FF 		.ascii	"\022\000\000\377-\000\000\001\314\000\000\354\300\000"
 5239      2D000001 
 5239      CC0000EC 
 5239      C000
 5240 1337 0086A600 		.ascii	"\000\206\246\000\000\002\330\000\000\201D\000\000\201"
 5240      0002D800 
 5240      00814400 
 5240      0081
 5241 1345 24000001 		.ascii	"$\000\000\001\022\000\000\377-\000\000q\314\000\000"
 5241      120000FF 
 5241      2D000071 
 5241      CC0000
 5242 1354 E4C00000 		.ascii	"\344\300\000\000\204\262\000\000\202\256\000\000\204"
 5242      84B20000 
 5242      82AE0000 
 5242      84
 5243 1361 0D00000A 		.ascii	"\015\000\000\012\317\000\000\001\201\000\000\005\201"
 5243      CF000001 
 5243      81000005 
 5243      81
 5244 136e 00000374 		.ascii	"\000\000\003t\000\000\2006\000\000\266\256\000\000\267"
 5244      00008036 
 5244      0000B6AE 
 5244      0000B7
 5245 137d 8E000003 		.ascii	"\216\000\000\003\201\000\000\004\201\000\000\002\261"
 5245      81000004 
 5245      81000002 
 5245      B1
 5246 138a 000080FF 		.ascii	"\000\000\200\377\000\000\007\271\000\000\200\262\000"
 5246      000007B9 
 5246      000080B2 
 5246      00
 5247 1397 0086AE00 		.ascii	"\000\206\256\000\000\001\330\000\000\205\256\000\000"
 5247      0001D800 
 5247      0085AE00 
 5247      00
 5248 13a4 82D00000 		.ascii	"\202\320\000\000\203M\000\000\201-\000\000\000\261\000"
 5248      834D0000 
 5248      812D0000 
ARM GAS  /tmp/ccWHsT5O.s 			page 155


 5248      00B100
 5249 13b3 00031200 		.ascii	"\000\003\022\000\000\006[\000\000\007\231\000\000\000"
 5249      00065B00 
 5249      00079900 
 5249      0000
 5250 13c1 74000080 		.ascii	"t\000\000\200\377\000\000\000 \000\000\177\000\000\020"
 5250      FF000000 
 5250      2000007F 
 5250      000010
 5251 13d0 20000000 		.ascii	" \000\000\000\377\234\003\020`\000\000\000\377\234\003"
 5251      FF9C0310 
 5251      60000000 
 5251      FF9C03
 5252 13df 50600000 		.ascii	"P`\000\000\000\377\234\007\320`\000\000\000\377\234"
 5252      00FF9C07 
 5252      D0600000 
 5252      00FF9C
 5253 13ee 07D06800 		.ascii	"\007\320h\000\000\000\377\234\007\360h\000\000\000\377"
 5253      0000FF9C 
 5253      07F06800 
 5253      0000FF
 5254 13fd 9C07F060 		.ascii	"\234\007\360`\000\000\000\377\234\007\340`\000\000\000"
 5254      000000FF 
 5254      9C07E060 
 5254      000000
 5255 140c FF9C07E0 		.ascii	"\377\234\007\340h\000\000\000\377\234\007\320 \000\000"
 5255      68000000 
 5255      FF9C07D0 
 5255      200000
 5256 141b 00FF9403 		.ascii	"\000\377\224\003\020`\000\000\000\177\000\004\320 \000"
 5256      10600000 
 5256      007F0004 
 5256      D02000
 5257 142a 00007F00 		.ascii	"\000\000\177\000\004\220 \000\000\000\005\000\000\000"
 5257      04902000 
 5257      00000500 
 5257      0000
 5258 1438 0F080000 		.ascii	"\017\010\000\000\017\020\000\000'\036\000\000\342!\000"
 5258      0F100000 
 5258      271E0000 
 5258      E22100
 5259 1447 00412900 		.ascii	"\000A)\000\000$3\000\000\203:\000\000$C\000\000$;\000"
 5259      00243300 
 5259      00833A00 
 5259      00244300 
 5259      00243B00 
 5260 145b 00531A00 		.ascii	"\000S\032\000\000/H\000\000\000\000\014\000\000\000"
 5260      002F4800 
 5260      0000000C 
 5260      000000
 5261 146a 00000700 		.ascii	"\000\000\007\000\000\000\000P\000\000&\010\000\000\240"
 5261      00000050 
 5261      00002608 
 5261      0000A0
 5262 1479 18000010 		.ascii	"\030\000\000\0207\000\000\354+\000\000\3543\000\000"
 5262      370000EC 
 5262      2B0000EC 
ARM GAS  /tmp/ccWHsT5O.s 			page 156


 5262      330000
 5263 1488 233B0000 		.ascii	"#;\000\000\354C\000\000\354;\000\000\347\032\000\000"
 5263      EC430000 
 5263      EC3B0000 
 5263      E71A0000 
 5264 1498 13580000 		.ascii	"\023X\000\000'`\000\000\000\000\014\000\177\000\010"
 5264      27600000 
 5264      00000C00 
 5264      7F0008
 5265 14a7 10200000 		.ascii	"\020 \000\000\000\177\000\010\030`\000\000\000\377\034"
 5265      007F0008 
 5265      18600000 
 5265      00FF1C
 5266 14b6 0B1A6000 		.ascii	"\013\032`\000\000\000\377\034\013\030`\000\000\000\377"
 5266      0000FF1C 
 5266      0B186000 
 5266      0000FF
 5267 14c5 1C0FD860 		.ascii	"\034\017\330`\000\000\000\377\034\217\330`\000\000\000"
 5267      000000FF 
 5267      1C8FD860 
 5267      000000
 5268 14d4 FF1C2FD8 		.ascii	"\377\034/\330`\000\000\000\377\034\017\331`\000\000"
 5268      60000000 
 5268      FF1C0FD9 
 5268      600000
 5269 14e3 00FF1C07 		.ascii	"\000\377\034\007\330`\000\000\000\377\034\027\330`\000"
 5269      D8600000 
 5269      00FF1C17 
 5269      D86000
 5270 14f2 0000FF1C 		.ascii	"\000\000\377\034W\330`\000\000\000\377\034\017\334`"
 5270      57D86000 
 5270      0000FF1C 
 5270      0FDC60
 5271 1501 000000FF 		.ascii	"\000\000\000\377\034\017\330@\000\000\000\377\034\017"
 5271      1C0FD840 
 5271      000000FF 
 5271      1C0F
 5272 150f D8C00000 		.ascii	"\330\300\000\000\000\377\034\017\350\300\000\000\000"
 5272      00FF1C0F 
 5272      E8C00000 
 5272      00
 5273 151c FF1C2FE8 		.ascii	"\377\034/\350\300\000\000\000\377\034\017\352\300\000"
 5273      C0000000 
 5273      FF1C0FEA 
 5273      C000
 5274 152a 0000FF1D 		.ascii	"\000\000\377\035\017\350\300\000\000\000\377\034O\350"
 5274      0FE8C000 
 5274      0000FF1C 
 5274      4FE8
 5275 1538 C0000000 		.ascii	"\300\000\000\000\377\034\017\350@\000\000\000\377\034"
 5275      FF1C0FE8 
 5275      40000000 
 5275      FF1C
 5276 1546 8FE84000 		.ascii	"\217\350@\000\000\000\377\034\007\350@\000\000\000\377"
 5276      0000FF1C 
 5276      07E84000 
 5276      0000FF
ARM GAS  /tmp/ccWHsT5O.s 			page 157


 5277 1555 1C17E840 		.ascii	"\034\027\350@\000\000\000\377\035\027\350H\000\000\000"
 5277      000000FF 
 5277      1D17E848 
 5277      000000
 5278 1564 FF1D17EC 		.ascii	"\377\035\027\354H\000\000\000\377\035\007\350H\000\000"
 5278      48000000 
 5278      FF1D07E8 
 5278      480000
 5279 1573 00FF1D0F 		.ascii	"\000\377\035\017\350H\000\000\000\377\035\017\350@\000"
 5279      E8480000 
 5279      00FF1D0F 
 5279      E84000
 5280 1582 0000FF1C 		.ascii	"\000\000\377\034\017\351\300\000\000\000\377\034\017"
 5280      0FE9C000 
 5280      0000FF1C 
 5280      0F
 5281 158f ECC00000 		.ascii	"\354\300\000\000\000\377\034\017\332`\000\000\000\000"
 5281      00FF1C0F 
 5281      DA600000 
 5281      0000
 5282 159d 00000004 		.ascii	"\000\000\000\004\020\000\000\004 \000\000\0120\000\000"
 5282      10000004 
 5282      2000000A 
 5282      300000
 5283 15ac 90400000 		.ascii	"\220@\000\000\004P\000\000~B\000\000\004`\000\000\300"
 5283      04500000 
 5283      7E420000 
 5283      04600000 
 5283      C0
 5284 15bd 43000004 		.ascii	"C\000\000\004p\000\000~B\000\000\240\200\000\0000\235"
 5284      7000007E 
 5284      420000A0 
 5284      80000030 
 5284      9D
 5285 15ce 000004A0 		.ascii	"\000\000\004\240\000\000~\222\000\000\240\200\000\000"
 5285      00007E92 
 5285      0000A080 
 5285      0000
 5286 15dc E2410000 		.ascii	"\342A\000\000\004\260\000\000~B\000\000$\303\000\000"
 5286      04B00000 
 5286      7E420000 
 5286      24C30000 
 5287 15ec 83D20000 		.ascii	"\203\322\000\000\203\342\000\000\004\360\000\000~\342"
 5287      83E20000 
 5287      04F00000 
 5287      7EE2
 5288 15fa 00000400 		.ascii	"\000\000\004\000\001\000f\351\000\000*\030\001\000\203"
 5288      010066E9 
 5288      00002A18 
 5288      010083
 5289 1609 E2000004 		.ascii	"\342\000\000\004 \001\000~\342\000\000\2032\001\000"
 5289      2001007E 
 5289      E2000083 
 5289      320100
 5290 1618 04400100 		.ascii	"\004@\001\000~2\001\000\240P\001\000\312h\001\000ly"
 5290      7E320100 
 5290      A0500100 
ARM GAS  /tmp/ccWHsT5O.s 			page 158


 5290      CA680100 
 5290      6C79
 5291 162a 01000480 		.ascii	"\001\000\004\200\001\000~r\001\000\240\220\001\000\203"
 5291      01007E72 
 5291      0100A090 
 5291      010083
 5292 1639 A2010024 		.ascii	"\242\001\000$\263\001\000\2032\001\000\203\342\000\000"
 5292      B3010083 
 5292      32010083 
 5292      E20000
 5293 1648 04000100 		.ascii	"\004\000\001\000f\351\000\000*\030\001\000\203\342\000"
 5293      66E90000 
 5293      2A180100 
 5293      83E200
 5294 1657 0004C001 		.ascii	"\000\004\300\001\000~\342\000\000\004\320\001\000~\342"
 5294      007EE200 
 5294      0004D001 
 5294      007EE2
 5295 1666 000083D2 		.ascii	"\000\000\203\322\000\000G\306\000\000\203B\000\000\004"
 5295      000047C6 
 5295      00008342 
 5295      000004
 5296 1675 E0010097 		.ascii	"\340\001\000\227J\000\000`0\000\000\000\000`\000\000"
 5296      4A000060 
 5296      30000000 
 5296      00600000 
 5297 1685 00000000 		.ascii	"\000\000\000\000\000\000\000\000\000\000\000\000\000"
 5297      00000000 
 5297      00000000 
 5297      00
 5298 1692 00000000 		.ascii	"\000\000\000\000\000\000\000\000\000\000\000\000\000"
 5298      00000000 
 5298      00000000 
 5298      00
 5299 169f 00000000 		.ascii	"\000\000\000\000\000\000\000\000\000\000\000\000\000"
 5299      00000000 
 5299      00000000 
 5299      00
 5300 16ac 00000000 		.ascii	"\000\000\000\000\000\000\000\000\000\000\000\000\000"
 5300      00000000 
 5300      00000000 
 5300      00
 5301 16b9 00000000 		.ascii	"\000\000\000\000\000\000\000\000\000\000\000\000\000"
 5301      00000000 
 5301      00000000 
 5301      00
 5302 16c6 00000000 		.ascii	"\000\000\000\000\000\000\000\000\000\000\000\000\000"
 5302      00000000 
 5302      00000000 
 5302      00
 5303 16d3 00000000 		.ascii	"\000\000\000\000\000\000\000\000\000\000\000\000\000"
 5303      00000000 
 5303      00000000 
 5303      00
 5304 16e0 06100000 		.ascii	"\006\020\000\000\006 \000\000\0140\000\000\264@\000"
 5304      06200000 
 5304      0C300000 
ARM GAS  /tmp/ccWHsT5O.s 			page 159


 5304      B44000
 5305 16ef 00065000 		.ascii	"\000\006P\000\000\034C\000\000\006`\000\000\256D\000"
 5305      001C4300 
 5305      00066000 
 5305      00AE4400 
 5306 16ff 00067000 		.ascii	"\000\006p\000\000\034C\000\000\310\200\000\000\376\237"
 5306      001C4300 
 5306      00C88000 
 5306      00FE9F
 5307 170e 00007D90 		.ascii	"\000\000}\220\000\000\006\240\000\000\034\223\000\000"
 5307      000006A0 
 5307      00001C93 
 5307      0000
 5308 171c C8800000 		.ascii	"\310\200\000\000ZB\000\000\006\260\000\000\034C\000"
 5308      5A420000 
 5308      06B00000 
 5308      1C4300
 5309 172b 00ECC300 		.ascii	"\000\354\303\000\000#\323\000\000#\343\000\000\006\360"
 5309      0023D300 
 5309      0023E300 
 5309      0006F0
 5310 173a 00001CE3 		.ascii	"\000\000\034\343\000\000\006\000\001\000\277\353\000"
 5310      00000600 
 5310      0100BFEB 
 5310      00
 5311 1747 00341A01 		.ascii	"\0004\032\001\000#\343\000\000\006 \001\000\034\343"
 5311      0023E300 
 5311      00062001 
 5311      001CE3
 5312 1756 00002333 		.ascii	"\000\000#3\001\000\006@\001\000\0343\001\000\310P\001"
 5312      01000640 
 5312      01001C33 
 5312      0100C850 
 5312      01
 5313 1767 00FD6A01 		.ascii	"\000\375j\001\000\306{\001\000"
 5313      00C67B01 
 5313      00
 5314 1770 04800100 		.ascii	"\004\200\001\000\036s\001\000\310\220\001\000#\243\001"
 5314      1E730100 
 5314      C8900100 
 5314      23A301
 5315 177f 00ECB301 		.ascii	"\000\354\263\001\000#3\001\000#\343\000\000\006\000"
 5315      00233301 
 5315      0023E300 
 5315      000600
 5316 178e 0100BFEB 		.ascii	"\001\000\277\353\000\0004\032\001\000#\343\000\000\006"
 5316      0000341A 
 5316      010023E3 
 5316      000006
 5317 179d C001001C 		.ascii	"\300\001\000\034\343\000\000\006\320\001\000\034\343"
 5317      E3000006 
 5317      D001001C 
 5317      E3
 5318 17aa 000023D3 		.ascii	"\000\000#\323\000\000\331\307\000\000#C\000\000\006"
 5318      0000D9C7 
 5318      00002343 
 5318      000006
ARM GAS  /tmp/ccWHsT5O.s 			page 160


 5319 17b9 E001003D 		.ascii	"\340\001\000=M\000\000x0\000\000\000\000`\000"
 5319      4D000078 
 5319      30000000 
 5319      006000
 5320              		.section	.rodata.patch_cut2,"a"
 5323              	patch_cut2:
 5324 0000 5A0A1C02 		.ascii	"Z\012\034\002\001\001\000\000\000\000\000\000\000\000"
 5324      01010000 
 5324      00000000 
 5324      0000
 5325 000e 00000000 		.ascii	"\000\000\000\000\000\000\000\000\000\000\000\000\000"
 5325      00000000 
 5325      00000000 
 5325      00
 5326 001b 00000000 		.ascii	"\000\000\000\000\000\014\004\014\372\360\036\240\354"
 5326      000C040C 
 5326      FAF01EA0 
 5326      EC
 5327 0028 864004E0 		.ascii	"\206@\004\340hXT\357\013\241\025\234\006\000$\342\306"
 5327      685854EF 
 5327      0BA1159C 
 5327      060024E2 
 5327      C6
 5328 0039 02B4E129 		.ascii	"\002\264\341)\000\004\370H\200X\204\031\000\030\340"
 5328      0004F848 
 5328      80588419 
 5328      0018E0
 5329 0048 1BA1859A 		.ascii	"\033\241\205\232\025\000\020\3708\202!\201A\201Y\002"
 5329      150010F8 
 5329      38822181 
 5329      41815902 
 5330 0058 C8E07181 		.ascii	"\310\340q\201\301\203ZJ\200\340Y\002(\340\201\201\211"
 5330      C1835A4A 
 5330      80E05902 
 5330      28E08181 
 5330      89
 5331 0069 0040A056 		.ascii	"\000@\240V\251Q\215V\253Y\0028\340|\241|\237|\235|\233"
 5331      A9518D56 
 5331      AB590238 
 5331      E07CA17C 
 5331      9F7C9D7C 
 5332 007e 315E90E0 		.ascii	"1^\220\3409\002<\340Y\206V\257U\000\010\3700F\374\360"
 5332      39023CE0 
 5332      598656AF 
 5332      550008F8 
 5332      3046FCF0 
 5333 0092 36953B0A 		.ascii	"6\225;\012(\340\316\376\306\274\313\012$\3403\204\006"
 5333      28E0CEFE 
 5333      C6BCCB0A 
 5333      24E03384 
 5333      06
 5334 00a3 1000C0C3 		.ascii	"\020\000\300\303\204+\012,\340<\376;\0120\340C\220#"
 5334      842B0A2C 
 5334      E03CFE3B 
 5334      0A30E043 
 5334      9023
 5335 00b5 882CFC42 		.ascii	"\210,\374BD\214\360~\211v\255v\261\314\276,\211\031"
ARM GAS  /tmp/ccWHsT5O.s 			page 161


 5335      448CF07E 
 5335      8976AD76 
 5335      B1CCBE2C 
 5335      8919
 5336 00c7 0200E146 		.ascii	"\002\000\341FLL\342J\002\014\370\011\000\010\300\033"
 5336      4C4CE24A 
 5336      020CF809 
 5336      0008C01B 
 5337 00d7 9E04008C 		.ascii	"\236\004\000\214\300\002@\210\320\003^\020\300!\201"
 5337      C0024088 
 5337      D0035E10 
 5337      C02181
 5338 00e6 0B8CC85E 		.ascii	"\013\214\310^0\357\213\241\200\000\004\314\003^\020"
 5338      30EF8BA1 
 5338      800004CC 
 5338      035E10
 5339 00f5 C01B9E21 		.ascii	"\300\033\236!\203\013\214q^\000\200s^\010\300\350]0"
 5339      830B8C71 
 5339      5E008073 
 5339      5E08C0E8 
 5339      5D30
 5340 0107 EFF00230 		.ascii	"\357\360\0020\344\013\214XT0\357\226@\004\340\030QT"
 5340      E40B8C58 
 5340      5430EF96 
 5340      4004E018 
 5340      5154
 5341 0119 EFF1D00C 		.ascii	"\357\361\320\014\014\014\362\223\3358\202\025\000\020"
 5341      0C0CF293 
 5341      DD388215 
 5341      0010
 5342 0127 F81A0610 		.ascii	"\370\032\006\020\34089\374\277ZJ\200\340\3708\374\277"
 5342      E03839FC 
 5342      BF5A4A80 
 5342      E0F838FC 
 5342      BF
 5343 0138 590200E1 		.ascii	"Y\002\000\341Y\206\032\012\000\340\2508\375?\377\303"
 5343      59861A0A 
 5343      00E0A838 
 5343      FD3FFFC3 
 5344 0148 55F1C3C1 		.ascii	"U\361\303\301\014\004\000\372k\200\001\201\250g8\357"
 5344      0C0400FA 
 5344      6B800181 
 5344      A86738EF 
 5345 0158 0185B87B 		.ascii	"\001\205\270{0\357\006Al\342\004\200!\2051\211\001\330"
 5345      30EF0641 
 5345      6CE20480 
 5345      21853189 
 5345      01D8
 5346 016a 1B8CA840 		.ascii	"\033\214\250@\000\350\001\205\370z0\357\001\203\014"
 5346      00E80185 
 5346      F87A30EF 
 5346      01830C
 5347 0179 0C00F268 		.ascii	"\014\000\362h&8\377\014\004\000\372k\200\004\230\250"
 5347      2638FF0C 
 5347      0400FA6B 
 5347      800498A8 
 5348 0189 680CE80E 		.ascii	"h\014\350\016\230\014\014\000\362\223\335L\004|\372"
ARM GAS  /tmp/ccWHsT5O.s 			page 162


 5348      980C0C00 
 5348      F293DD4C 
 5348      047CFA
 5349 0198 C64E90E1 		.ascii	"\306N\220\341$\234\006\000\001`\000\360\006\002\001"
 5349      249C0600 
 5349      016000F0 
 5349      060201
 5350 01a7 6000E022 		.ascii	"`\000\340\"F\000\370;\2031\211\025\206 F\001p\000\337"
 5350      4600F83B 
 5350      83318915 
 5350      86204601 
 5350      7000DF
 5351 01ba 3BA1C582 		.ascii	";\241\305\202\206F\000\3424\214'\341)\276I\006\360\342"
 5351      864600E2 
 5351      348C27E1 
 5351      29BE4906 
 5351      F0E2
 5352 01cc 404880F3 		.ascii	"@H\200\363O\244AF\360\342$\234\012\004|\370\245\202"
 5352      4FA44146 
 5352      F0E2249C 
 5352      0A047CF8 
 5352      A582
 5353 01de 20467CF0 		.ascii	" F|\360\306E\000\342$\210I\004\020\343@H\200\363O\246"
 5353      C64500E2 
 5353      24884904 
 5353      10E34048 
 5353      80F34FA6 
 5354 01f2 414410E3 		.ascii	"AD\020\343$\236\017\204\013\2035\210 @\001p\017\300"
 5354      249E0F84 
 5354      0B833588 
 5354      20400170 
 5354      0FC0
 5355 0204 0BA1C582 		.ascii	"\013\241\305\202\306A\000\342\004\200'\311 D\300\363"
 5355      C64100E2 
 5355      048027C9 
 5355      2044C0F3 
 5356 0214 190070E2 		.ascii	"\031\000p\342\031\236\037\244\021@p\342$\236\012\004"
 5356      199E1FA4 
 5356      114070E2 
 5356      249E0A04 
 5357 0224 3CF80586 		.ascii	"<\370\005\206\306A\000\342\024\2001\341)\236\020\000"
 5357      C64100E2 
 5357      148031E1 
 5357      299E1000 
 5358 0234 60E51902 		.ascii	"`\345\031\002`\341\037\206\265\201\306A\000\342\004"
 5358      60E11F86 
 5358      B581C641 
 5358      00E204
 5359 0243 80060408 		.ascii	"\200\006\004\010\340\031\000p\342\000\000p\346\031\236"
 5359      E0190070 
 5359      E2000070 
 5359      E6199E
 5360 0252 1FA41680 		.ascii	"\037\244\026\200\006A \342\233\016\331y\001\300\004"
 5360      064120E2 
 5360      9B0ED979 
 5360      01C004
 5361 0261 80090024 		.ascii	"\200\011\000$\340\012@\210\340\256\001\001`\020\300"
ARM GAS  /tmp/ccWHsT5O.s 			page 163


 5361      E00A4088 
 5361      E0AE0101 
 5361      6010C0
 5362 0270 9C80090E 		.ascii	"\234\200\011\016\334\3505\232J\000\374\373p\020\361"
 5362      DCE8359A 
 5362      4A00FCFB 
 5362      7010F1
 5363 027f 6402C005 		.ascii	"d\002\300\005\266\224\014\200\373\006\000$\341\033\214"
 5363      B6940C80 
 5363      FB060024 
 5363      E11B8C
 5364 028e 184D00EF 		.ascii	"\030M\000\357\006\024$\341\206V\000\342\024\254\016"
 5364      061424E1 
 5364      865600E2 
 5364      14AC0E
 5365 029d 08C0FF00 		.ascii	"\010\300\377\000F\375s\003\300%\002\230\340\006@&\340"
 5365      46FD7303 
 5365      C0250298 
 5365      E0064026 
 5365      E0
 5366 02ae 2F882FA6 		.ascii	"/\210/\246%B\230\340\024\254\243\240\240D\375s\037\300"
 5366      254298E0 
 5366      14ACA3A0 
 5366      A044FD73 
 5366      1FC0
 5367 02c0 050298E0 		.ascii	"\005\002\230\340\366G=`\340\377'\324\017\206\017\244"
 5367      F6473D60 
 5367      E0FF27D4 
 5367      0F860FA4 
 5368 02d0 054298E0 		.ascii	"\005B\230\340\366A\200\343\033\214\270J\000\357\366"
 5368      F64180E3 
 5368      1B8CB84A 
 5368      00EFF6
 5369 02df 5580E314 		.ascii	"U\200\343\024\254\016\010\374\377\000F\374\360%\002"
 5369      AC0E08FC 
 5369      FF0046FC 
 5369      F02502
 5370 02ee 9CE00640 		.ascii	"\234\340\006@&\340/\210/\246%B\234\340\024\254\243\240"
 5370      26E02F88 
 5370      2FA62542 
 5370      9CE014AC 
 5370      A3A0
 5371 0300 A044FD73 		.ascii	"\240D\375s\037\300\005\002\234\340\366G\001`\376\377"
 5371      1FC00502 
 5371      9CE0F647 
 5371      0160FEFF 
 5372 0310 27CC0F86 		.ascii	"'\314\017\206\017\244\005B\234\340\266@\\\351\033\214"
 5372      0FA40542 
 5372      9CE0B640 
 5372      5CE91B8C 
 5373 0320 884800EF 		.ascii	"\210H\000\357\024\254\016\010\300\377\000F\375s\003"
 5373      14AC0E08 
 5373      C0FF0046 
 5373      FD7303
 5374 032f C02502A0 		.ascii	"\300%\002\240\340\006@&\340/\210/\246%B\240\340\024"
 5374      E0064026 
 5374      E02F882F 
ARM GAS  /tmp/ccWHsT5O.s 			page 164


 5374      A62542A0 
 5374      E014
 5375 0341 ACBE445C 		.ascii	"\254\276D\\\371\205\215J\000\374\373p\020\371d\002\300"
 5375      F9858D4A 
 5375      00FCFB70 
 5375      10F96402 
 5375      C0
 5376 0352 059C940C 		.ascii	"\005\234\224\014\200\373\306\000l\341\033\214\230F\000"
 5376      80FBC600 
 5376      6CE11B8C 
 5376      984600
 5377 0361 EFC6146C 		.ascii	"\357\306\024l\341\206V\000\342\024\254\016\010\300\377"
 5377      E1865600 
 5377      E214AC0E 
 5377      08C0FF
 5378 0370 0046FD73 		.ascii	"\000F\375s\003\300%\002\230\340\006@&\340/\210/\246"
 5378      03C02502 
 5378      98E00640 
 5378      26E02F88 
 5378      2FA6
 5379 0382 254298E0 		.ascii	"%B\230\340\024\254\243\240\240D\375s\037\300\005\002"
 5379      14ACA3A0 
 5379      A044FD73 
 5379      1FC00502 
 5380 0392 98E0F647 		.ascii	"\230\340\366G=`\340\377'\324\017\206\017\244\005B\230"
 5380      3D60E0FF 
 5380      27D40F86 
 5380      0FA40542 
 5380      98
 5381 03a3 E0660064 		.ascii	"\340f\000d\344\033\2148D\000\357f\024d\344\024\254\016"
 5381      E41B8C38 
 5381      4400EF66 
 5381      1464E414 
 5381      AC0E
 5382 03b5 08FCFF00 		.ascii	"\010\374\377\000F\374\360%\002\234\340\006@&\340/\210"
 5382      46FCF025 
 5382      029CE006 
 5382      4026E02F 
 5382      88
 5383 03c6 2FA62542 		.ascii	"/\246%B\234\340\024\254\243\240\240D\375s\037\300\005"
 5383      9CE014AC 
 5383      A3A0A044 
 5383      FD731FC0 
 5383      05
 5384 03d7 029CE0F6 		.ascii	"\002\234\340\366G\001`\376\377'\314\017\206\017\244"
 5384      470160FE 
 5384      FF27CC0F 
 5384      860FA4
 5385 03e6 05429CE0 		.ascii	"\005B\234\340\246\000\264\353\033\214\010B\000\357\024"
 5385      A600B4EB 
 5385      1B8C0842 
 5385      00EF14
 5386 03f5 AC0E08C0 		.ascii	"\254\016\010\300\377\000F\375s\003\300%\002\240\340"
 5386      FF0046FD 
 5386      7303C025 
 5386      02A0E0
 5387 0404 064026E0 		.ascii	"\006@&\340/\210/\246%B\240\340\024\254\256\004\264\373"
ARM GAS  /tmp/ccWHsT5O.s 			page 165


 5387      2F882FA6 
 5387      2542A0E0 
 5387      14ACAE04 
 5387      B4FB
 5388 0416 23A00502 		.ascii	"#\240\005\002\240\340 D\375s\037\300\366G=`\340\377"
 5388      A0E02044 
 5388      FD731FC0 
 5388      F6473D60 
 5388      E0FF
 5389 0428 27D40F86 		.ascii	"'\324\017\206\017\244\005B\240\340\306M\000\342\012"
 5389      0FA40542 
 5389      A0E0C64D 
 5389      00E20A
 5390 0437 A0150C14 		.ascii	"\240\025\014\024\370\003B\350\341\031\016\330\350\306"
 5390      F80342E8 
 5390      E1190ED8 
 5390      E8C6
 5391 0445 4048E208 		.ascii	"@H\342\010y0\357\004\230\031\000\200\342\020B\014\363"
 5391      7930EF04 
 5391      98190080 
 5391      E210420C 
 5391      F3
 5392 0456 114080E2 		.ascii	"\021@\200\342\004\230\031\000\000\343\020B\340\363\031"
 5392      04981900 
 5392      00E31042 
 5392      E0F319
 5393 0465 C2114000 		.ascii	"\302\021@\000\343\005\014\024\370\031\000\360\342\033"
 5393      E3050C14 
 5393      F81900F0 
 5393      E21B
 5394 0473 A1B60300 		.ascii	"\241\266\003\000\200\021@\360\202\004\230\021\203\021"
 5394      801140F0 
 5394      82049811 
 5394      8311
 5395 0481 4030E204 		.ascii	"@0\342\004\2306C\010\340\021@@\342\004\230\266C\000"
 5395      98364308 
 5395      E0114040 
 5395      E20498B6 
 5395      4300
 5396 0493 E0114050 		.ascii	"\340\021@P\342\004\230\021\207\021@`\342\006Al\342\004"
 5396      E2049811 
 5396      87114060 
 5396      E206416C 
 5396      E204
 5397 04a5 80A64208 		.ascii	"\200\246B\010\340\025@\020\340\004\230vC\004\340\021"
 5397      E0154010 
 5397      E0049876 
 5397      4304E011 
 5398 04b5 40A0E204 		.ascii	"@\240\342\004\230v\003\004\340\021@\260\342L\014|\362"
 5398      98760304 
 5398      E01140B0 
 5398      E24C0C7C 
 5398      F2
 5399 04c6 93DD8642 		.ascii	"\223\335\206B$\342\004\204\000D\014\360+\243\000@\014"
 5399      24E20484 
 5399      00440CF0 
 5399      2BA30040 
ARM GAS  /tmp/ccWHsT5O.s 			page 166


 5399      0C
 5400 04d7 9C054200 		.ascii	"\234\005B\000\200\206B\\\341(\304\016\304\012D\204\340"
 5400      8086425C 
 5400      E128C40E 
 5400      C40A4484 
 5400      E0
 5401 04e8 2040F8D3 		.ascii	" @\370\323\001B\010\300\223\335\303\301L\004\014\370"
 5401      014208C0 
 5401      93DDC3C1 
 5401      4C040CF8 
 5402 04f8 C65928E2 		.ascii	"\306Y(\342\300\000\321e\001\300H\302*\300\206\006\004"
 5402      C000D165 
 5402      01C048C2 
 5402      2AC08606 
 5402      04
 5403 0509 E0464A0E 		.ascii	"\340FJ\016\340\021\201 \004\004\354\006\010\\\341\021"
 5403      E0118120 
 5403      0404EC06 
 5403      085CE111 
 5404 0519 4018E02C 		.ascii	"@\030\340,\300S\210k\012\240\344k\241\005\226P\012A"
 5404      C053886B 
 5404      0AA0E46B 
 5404      A1059650 
 5404      0A41
 5405 052b 6502C07A 		.ascii	"e\002\300z\224h\200\306\020\004\340fL\"\340c\230\313"
 5405      946880C6 
 5405      1004E066 
 5405      4C22E063 
 5405      98CB
 5406 053d 0CA0E17D 		.ascii	"\014\240\341}\330z\224\245\200#\270#\216,\300u\211t"
 5406      D87A94A5 
 5406      8023B823 
 5406      8E2CC075 
 5406      8974
 5407 054f 0E80FB7D 		.ascii	"\016\200\373}\331e\206\212\224$\016\200\373\302P\240"
 5407      D965868A 
 5407      94240E80 
 5407      FBC250A0 
 5408 055f F18D8EE5 		.ascii	"\361\215\216\345\206+\014\244\341$\012\200\372VF\016"
 5408      862B0CA4 
 5408      E1240A80 
 5408      FA56460E 
 5409 056f E026C243 		.ascii	"\340&\302C\206+\010\240\344 \004\004\354,\300+\010\240"
 5409      862B08A0 
 5409      E4200404 
 5409      EC2CC02B 
 5409      08A0
 5410 0581 E42DE5B5 		.ascii	"\344-\345\265\206\021\203U\205\012\004\000\350&\002"
 5410      86118355 
 5410      850A0400 
 5410      E82602
 5411 0590 00801540 		.ascii	"\000\200\025@\010\200\026\002\000\200\021@0\200\345"
 5411      08801602 
 5411      00801140 
 5411      3080E5
 5412 059f 833A94C2 		.ascii	"\203:\224\302H\234\3610\006\004\354M\306\033\012\000"
 5412      489CF130 
ARM GAS  /tmp/ccWHsT5O.s 			page 167


 5412      0604EC4D 
 5412      C61B0A00 
 5413 05af 802244B0 		.ascii	"\200\"D\260\221\"D\204\220%\362\034\300\245\201@\004"
 5413      91224484 
 5413      9025F21C 
 5413      C0A58140 
 5413      04
 5414 05c0 416502C0 		.ascii	"Ae\002\300*\210+\243\365\200\021\203\021@0\340\021\205"
 5414      2A882BA3 
 5414      F5801183 
 5414      114030E0 
 5414      1185
 5415 05d2 1EC03581 		.ascii	"\036\3005\201\036\300\034\300L\014\014\360\223\335\014"
 5415      1EC01CC0 
 5415      4C0C0CF0 
 5415      93DD0C
 5416 05e1 0484FAA6 		.ascii	"\004\204\372\246\014`\341\013\014\\\342\012\000\370"
 5416      0C60E10B 
 5416      0C5CE20A 
 5416      00F8
 5417 05ef FB85840B 		.ascii	"\373\205\204\013\014\\\342\306\003H\342\024\204\007"
 5417      0C5CE2C6 
 5417      0348E214 
 5417      8407
 5418 05fd C30040FC 		.ascii	"\303\000@\374\361\004\000\240\374\016\304\004\304\032"
 5418      F10400A0 
 5418      FC0EC404 
 5418      C41A
 5419 060b 9807C204 		.ascii	"\230\007\302\004\000\200\372\031\202\017\242\014\230"
 5419      0080FA19 
 5419      820FA20C 
 5419      98
 5420 0618 06005160 		.ascii	"\006\000Q` \300\006\016Q` \300HA\000\350\033\014\\\342"
 5420      20C0060E 
 5420      516020C0 
 5420      484100E8 
 5420      1B0C5CE2 
 5421 062c 0A42A0E0 		.ascii	"\012B\240\340\000@A\036\013\300\216BD\237\002@\004\230"
 5421      0040411E 
 5421      0BC08E42 
 5421      449F0240 
 5421      0498
 5422 063e 0E9C2640 		.ascii	"\016\234&@\010\340\014\014\204\362\210'P\377\004\200"
 5422      08E00C0C 
 5422      84F28827 
 5422      50FF0480 
 5423 064e 93DD0C04 		.ascii	"\223\335\014\004\000\372k\200f@\264\341\012\200N\003"
 5423      00FA6B80 
 5423      6640B4E1 
 5423      0A804E03 
 5424 065e 016010C0 		.ascii	"\001`\020\300\016\204\250A\000\350\005L8\340\013\214"
 5424      0E84A841 
 5424      00E8054C 
 5424      38E00B8C 
 5425 066e 98704CEF 		.ascii	"\230pL\3578vL\357\013\214\310xL\357\013\214\030}L\357"
 5425      38764CEF 
 5425      0B8CC878 
ARM GAS  /tmp/ccWHsT5O.s 			page 168


 5425      4CEF0B8C 
 5425      187D4CEF 
 5426 0682 0B8CE844 		.ascii	"\013\214\350DP\357\306\001\004\342\306B \342\014\014"
 5426      50EFC601 
 5426      04E2C642 
 5426      20E20C0C 
 5427 0692 00F26838 		.ascii	"\000\362h8\024\377L\000\000\372\021\221\230Y0\357L\010"
 5427      14FF4C00 
 5427      00FA1191 
 5427      985930EF 
 5427      4C08
 5428 06a4 00F293DD 		.ascii	"\000\362\223\335\014\004|\376\360\036@\354\016\376\005"
 5428      0C047CFE 
 5428      F01E40EC 
 5428      0EFE05
 5429 06b3 0010E029 		.ascii	"\000\020\340)\002p\340i\0020\340\224\204\016\002\001"
 5429      0270E069 
 5429      0230E094 
 5429      840E0201 
 5430 06c3 601ED12A 		.ascii	"`\036\321*\004\000\340\006Up\342\030B\000\357bP\250"
 5430      0400E006 
 5430      5570E218 
 5430      4200EF62 
 5430      50A8
 5431 06d5 F067C463 		.ascii	"\360g\304c\224{\200\005\014T\340\033\216\270@\000\357"
 5431      947B8005 
 5431      0C54E01B 
 5431      8EB84000 
 5431      EF
 5432 06e6 AB80050C 		.ascii	"\253\200\005\014X\340\033\216\245Ld\3408@\000\357xI"
 5432      58E01B8E 
 5432      A54C64E0 
 5432      384000EF 
 5432      7849
 5433 06f8 00E81B80 		.ascii	"\000\350\033\200\006\000\001`\340\317\006\026\001`\340"
 5433      06000160 
 5433      E0CF0616 
 5433      0160E0
 5434 0707 CF084800 		.ascii	"\317\010H\000\350\025\014\\\340\016\374\005Lh\340\013"
 5434      E8150C5C 
 5434      E00EFC05 
 5434      4C68E00B 
 5435 0717 8E7EBEB8 		.ascii	"\216~\276\270\177\374\356{\220\033\200\013\222\250~"
 5435      7FFCEE7B 
 5435      901B800B 
 5435      92A87E
 5436 0726 FCEE1B80 		.ascii	"\374\356\033\200\013\224HH\000\350\233\200\001\201\225"
 5436      0B944848 
 5436      00E89B80 
 5436      018195
 5437 0735 4C6CE001 		.ascii	"Ll\340\001N0\341\250\000\001@\000\200\006Ap\342\011"
 5437      4E30E1A8 
 5437      00014000 
 5437      80064170 
 5437      E209
 5438 0747 0040E14A 		.ascii	"\000@\341J\000\374\373\345\200\004\376\005\000\030\340"
 5438      00FCFBE5 
ARM GAS  /tmp/ccWHsT5O.s 			page 169


 5438      8004FE05 
 5438      0018E0
 5439 0756 584800E8 		.ascii	"XH\000\350\273\200\013\222\033\226\210}\374\356\273"
 5439      BB800B92 
 5439      1B96887D 
 5439      FCEEBB
 5440 0765 80060201 		.ascii	"\200\006\002\001`\340\317\013\224\030\177\374\356\204"
 5440      60E0CF0B 
 5440      94187FFC 
 5440      EE84
 5441 0773 FC0BA170 		.ascii	"\374\013\241p\024,\3455\220\013\220\033\226\010~\374"
 5441      142CE535 
 5441      900B901B 
 5441      96087EFC 
 5442 0783 EE0BA175 		.ascii	"\356\013\241u\216\261\203\013\222\033\220\266\250\010"
 5442      8EB1830B 
 5442      921B90B6 
 5442      A808
 5443 0791 7EFCEE0B 		.ascii	"~\374\356\013\241p\0000\305\261@\000\300\013\222(D\000"
 5443      A1700030 
 5443      C5B14000 
 5443      C00B9228 
 5443      4400
 5444 07a3 E8AB800B 		.ascii	"\350\253\200\013\222\033\224xz\374\356\033\200\006\000"
 5444      921B9478 
 5444      7AFCEE1B 
 5444      800600
 5445 07b2 0160E0CF 		.ascii	"\001`\340\317\030{\374\356\006\002\001`\262\320\210"
 5445      187BFCEE 
 5445      06020160 
 5445      B2D088
 5446 07c1 7AFCEE14 		.ascii	"z\374\356\024\376\025\002\024\340\270{\374\356{\200"
 5446      FE150214 
 5446      E0B87BFC 
 5446      EE7B80
 5447 07d0 06020160 		.ascii	"\006\002\001`\340\357\013\224\310x\374\356{\241\000"
 5447      E0EF0B94 
 5447      C878FCEE 
 5447      7BA100
 5448 07df 5200DC0B 		.ascii	"R\000\334\013\220\033\222\030A\000\350\033\200\004\276"
 5448      901B9218 
 5448      4100E81B 
 5448      8004BE
 5449 07ee 154C30E0 		.ascii	"\025L0\340\370x\374\356\005L\034\3405\201\001\201\006"
 5449      F878FCEE 
 5449      054C1CE0 
 5449      35810181 
 5449      06
 5450 07ff A8F1A00C 		.ascii	"\250\361\240\014\014|\366\223\335L\004\004\372k\202"
 5450      0C7CF693 
 5450      DD4C0404 
 5450      FA6B82
 5451 080e 7B80087A 		.ascii	"{\200\010z\374\356\013\241pL\000\234\013\214L\014\004"
 5451      FCEE0BA1 
 5451      704C009C 
 5451      0B8C4C0C 
 5451      04
ARM GAS  /tmp/ccWHsT5O.s 			page 170


 5452 081f F293DDC3 		.ascii	"\362\223\335\303\301L\000\000\372HJ\004\357L\010\000"
 5452      C14C0000 
 5452      FA484A04 
 5452      EF4C0800 
 5453 082f F293DDC3 		.ascii	"\362\223\335\303\301\014\004\014\372k\202{\200\250x"
 5453      C10C040C 
 5453      FA6B827B 
 5453      80A878
 5454 083e FCEE8B80 		.ascii	"\374\356\213\200\013\216\033\214\330w\374\356\013\241"
 5454      0B8E1B8C 
 5454      D877FCEE 
 5454      0BA1
 5455 084c 704C009C 		.ascii	"pL\000\234\213\241pL\000\334\013\214\014\014\014\362"
 5455      8BA1704C 
 5455      00DC0B8C 
 5455      0C0C0CF2 
 5456 085c 93DDC3C1 		.ascii	"\223\335\303\301L\000\000\372HS\004\357L\010\000\362"
 5456      4C0000FA 
 5456      485304EF 
 5456      4C0800F2 
 5457 086c 93DDC3C1 		.ascii	"\223\335\303\301\014\004\000\372\013\241\305\220\001"
 5457      0C0400FA 
 5457      0BA1C590 
 5457      01
 5458 0879 81B86F34 		.ascii	"\201\270o4\357\006L\264\341\010\230\012@\210\340\006"
 5458      EF064CB4 
 5458      E108980A 
 5458      4088E006 
 5459 0889 0000C068 		.ascii	"\000\000\300hp4\317\010\230\012@\204\340\005\202\306"
 5459      7034CF08 
 5459      980A4084 
 5459      E00582C6 
 5460 0899 4048E268 		.ascii	"@H\342hT0\357\001\2018e4\357\010\230\012@\220\340\245"
 5460      5430EF01 
 5460      81386534 
 5460      EF08980A 
 5460      4090E0A5 
 5461 08ad 82018188 		.ascii	"\202\001\201\210p4\357\006Al\342\004\200\025\000L\340"
 5461      7034EF06 
 5461      416CE204 
 5461      8015004C 
 5461      E0
 5462 08be 140238FC 		.ascii	"\024\0028\374\025@L\340\010\230\012@\214\340\305\230"
 5462      15404CE0 
 5462      08980A40 
 5462      8CE0C598 
 5463 08ce C64100E2 		.ascii	"\306A\000\342\024\200!\203!B0\342\024\2006E\000\340"
 5463      14802183 
 5463      214230E2 
 5463      14803645 
 5463      00E0
 5464 08e0 214240E2 		.ascii	"!B@\342\024\200!\207!BP\342\004\200\366C\014\340!@`"
 5464      14802187 
 5464      214250E2 
 5464      0480F643 
 5464      0CE02140 
 5465 08f5 E206416C 		.ascii	"\342\006Al\342\004\200\025@\020\340\305\211\006L\264"
ARM GAS  /tmp/ccWHsT5O.s 			page 171


 5465      E2048015 
 5465      4010E0C5 
 5465      89064CB4 
 5466 0905 E108980A 		.ascii	"\341\010\230\012@\220\340%\206\006Al\342\004\200\025"
 5466      4090E025 
 5466      8606416C 
 5466      E2048015 
 5467 0915 004CE014 		.ascii	"\000L\340\024\002\270\374\025@L\340\001\203\021\207"
 5467      02B8FC15 
 5467      404CE001 
 5467      831187
 5468 0924 A84180EF 		.ascii	"\250A\200\357\010M4\357\013\241\245\376\001\205\021"
 5468      084D34EF 
 5468      0BA1A5FE 
 5468      018511
 5469 0933 89284180 		.ascii	"\211(A\200\357\001\2038l4\357\010\230\012@\214\340\205"
 5469      EF018338 
 5469      6C34EF08 
 5469      980A408C 
 5469      E085
 5470 0945 86C64100 		.ascii	"\206\306A\000\342\024\200!\203!B0\342\024\2006E\010"
 5470      E2148021 
 5470      83214230 
 5470      E2148036 
 5470      4508
 5471 0957 E0214240 		.ascii	"\340!B@\342\024\200\266E\000\340!BP\342\004\200\021"
 5471      E21480B6 
 5471      4500E021 
 5471      4250E204 
 5471      8011
 5472 0969 87114060 		.ascii	"\207\021@`\342\006Al\342\004\200\246B\010\340\025@\020"
 5472      E206416C 
 5472      E20480A6 
 5472      4208E015 
 5472      4010
 5473 097b E0018398 		.ascii	"\340\001\203\230g4\357\010\230\012@\210\340\026\000"
 5473      6734EF08 
 5473      980A4088 
 5473      E01600
 5474 098a 00C06868 		.ascii	"\000\300hh4\317\010\230\012@\204\340\225\200\014\014"
 5474      34CF0898 
 5474      0A4084E0 
 5474      95800C0C 
 5475 099a 00F293DD 		.ascii	"\000\362\223\335\001\203H]4\357\306@H\342\014\014\000"
 5475      0183485D 
 5475      34EFC640 
 5475      48E20C0C 
 5475      00
 5476 09ab F2680B30 		.ascii	"\362h\0130\377\014\004\000\372\206\014|\341\005\014"
 5476      FF0C0400 
 5476      FA860C7C 
 5476      E1050C
 5477 09ba 58E14E04 		.ascii	"X\341N\004\001`\020\300\012@\204\340\000@\004\334\005"
 5477      016010C0 
 5477      0A4084E0 
 5477      004004DC 
 5477      05
ARM GAS  /tmp/ccWHsT5O.s 			page 172


 5478 09cb 4C58C15E 		.ascii	"LX\301^\000\001`\020\300\030\200\033\241\021\203\026"
 5478      00016010 
 5478      C018801B 
 5478      A1118316 
 5479 09db 88464520 		.ascii	"\210FE \302%\004\000\300\021D\240\300\006\002\000\300"
 5479      C2250400 
 5479      C01144A0 
 5479      C0060200 
 5479      C0
 5480 09ec 114000C0 		.ascii	"\021@\000\300\236\000\001`\020\300\030\200\033\241\245"
 5480      9E000160 
 5480      10C01880 
 5480      1BA1A5
 5481 09fb 82190CF8 		.ascii	"\202\031\014\370\355JB\224\340\006\002\000\300\021@"
 5481      ED4A4294 
 5481      E0060200 
 5481      C01140
 5482 0a0a 00C0C640 		.ascii	"\000\300\306@P\302HB8\317\011\014`\356\012@\200\340"
 5482      50C24842 
 5482      38CF090C 
 5482      60EE0A40 
 5482      80E0
 5483 0a1c C582090C 		.ascii	"\305\202\011\014`\356\012@\220\340%\202\012\230\316"
 5483      60EE0A40 
 5483      90E02582 
 5483      0A98CE
 5484 0a2b 02016010 		.ascii	"\002\001`\020\300\014\204\012\230\001\240\014\230\006"
 5484      C00C840A 
 5484      9801A00C 
 5484      9806
 5485 0a39 4120E214 		.ascii	"A \342\024\200\026\004\020\340\006\006\021`@\300\030"
 5485      80160410 
 5485      E0060611 
 5485      6040C018 
 5486 0a49 C4140204 		.ascii	"\304\024\002\004\375\031\206\027\306/\343?\343!@\320"
 5486      FD198617 
 5486      C62FE33F 
 5486      E32140D0 
 5487 0a59 E03140D4 		.ascii	"\3401@\324\340\031\014\020\356\206\004X\342\033\243"
 5487      E0190C10 
 5487      EE860458 
 5487      E21BA3
 5488 0a68 11812602 		.ascii	"\021\201&\002\000\300\021@<\340\033\014l\340\004\300"
 5488      00C01140 
 5488      3CE01B0C 
 5488      6CE004C0 
 5489 0a78 1C881340 		.ascii	"\034\210\023@\\\340\023L\341x\001\300\006\000\004\340"
 5489      5CE0134C 
 5489      E17801C0 
 5489      060004E0 
 5490 0a88 0C0C00F2 		.ascii	"\014\014\000\362h\005P\377\014\004\000\372\006Ml\342"
 5490      680550FF 
 5490      0C0400FA 
 5490      064D6CE2 
 5491 0a98 049A8E42 		.ascii	"\004\232\216B\355v\000\300\210L\374\356\024\230\007"
 5491      ED7600C0 
 5491      884CFCEE 
ARM GAS  /tmp/ccWHsT5O.s 			page 173


 5491      149807
 5492 0aa7 E00E0601 		.ascii	"\340\016\006\001p\037\300$\306\017\206\366G\375o\340"
 5492      701FC024 
 5492      C60F86F6 
 5492      47FD6FE0 
 5493 0ab7 FF2F862F 		.ascii	"\377/\206/\240.\306\004\206\004\000\010\374\016\206"
 5493      A02EC604 
 5493      86040008 
 5493      FC0E86
 5494 0ac6 0C0C00F2 		.ascii	"\014\014\000\362\223\335\006A\000\342\024\200\366E\014"
 5494      93DD0641 
 5494      00E21480 
 5494      F6450C
 5495 0ad5 E02142E0 		.ascii	"\340!B\340\341\024\200!B\000\342\024\200!\217!B \342"
 5495      E1148021 
 5495      4200E214 
 5495      80218F21 
 5495      4220E2
 5496 0ae8 14800645 		.ascii	"\024\200\006E\004\340!B\300\341\024\200\006\004\014"
 5496      04E02142 
 5496      C0E11480 
 5496      06040C
 5497 0af7 E0214210 		.ascii	"\340!B\020\342\004\200\021\203\021@0\342\223\335\303"
 5497      E2048011 
 5497      83114030 
 5497      E293DDC3 
 5498 0b07 C1064100 		.ascii	"\301\006A\000\342\024\200\006E\004\340!B\320\341\004"
 5498      E2148006 
 5498      4504E021 
 5498      42D0E104 
 5499 0b17 8011B911 		.ascii	"\200\021\271\021@\360\341\223\335\006A\000\342\024\200"
 5499      40F0E193 
 5499      DD064100 
 5499      E21480
 5500 0b26 21812142 		.ascii	"!\201!B\320\341\004\200!@\360\341\223\335\006A\000\342"
 5500      D0E10480 
 5500      2140F0E1 
 5500      93DD0641 
 5500      00E2
 5501 0b38 14800604 		.ascii	"\024\200\006\004\010\340!B\320\341\004\2006B\014\340"
 5501      08E02142 
 5501      D0E10480 
 5501      36420CE0 
 5502 0b48 1140F0E1 		.ascii	"\021@\360\341\223\335\303\301\006A\000\342\024\200!"
 5502      93DDC3C1 
 5502      064100E2 
 5502      148021
 5503 0b57 812142D0 		.ascii	"\201!B\320\341\004\200!@\360\341\223\335\014\000\200"
 5503      E1048021 
 5503      40F0E193 
 5503      DD0C0080 
 5504 0b67 FA864100 		.ascii	"\372\206A\000\342\004\200\021\207\026\200&A\000\340"
 5504      E2048011 
 5504      87168026 
 5504      4100E0
 5505 0b76 D86A2CEF 		.ascii	"\330j,\357\230z\374\357\001\203\210j,\357(|\374\357"
 5505      987AFCEF 
ARM GAS  /tmp/ccWHsT5O.s 			page 174


 5505      0183886A 
 5505      2CEF287C 
 5505      FCEF
 5506 0b88 0183386A 		.ascii	"\001\2038j,\357\230|\374\357\206\000\014\340\330i,\357"
 5506      2CEF987C 
 5506      FCEF8600 
 5506      0CE0D869 
 5506      2CEF
 5507 0b9a D87CFCEF 		.ascii	"\330|\374\357\001\203\210i,\357h}\374\357\001\225\014"
 5507      01838869 
 5507      2CEF687D 
 5507      FCEF0195 
 5507      0C
 5508 0bab 0880F218 		.ascii	"\010\200\362\030),\377\303\301\006A\000\342\024\202"
 5508      292CFFC3 
 5508      C1064100 
 5508      E21482
 5509 0bba 21813189 		.ascii	"!\2011\211&\204\024\200!B\340\340\024\200!B\360\340"
 5509      26841480 
 5509      2142E0E0 
 5509      14802142 
 5509      F0E0
 5510 0bcc 14C22142 		.ascii	"\024\302!B0\340\024\2001B\300\340\024\2001B\320\340"
 5510      30E01480 
 5510      3142C0E0 
 5510      14803142 
 5510      D0E0
 5511 0bde 14802142 		.ascii	"\024\200!B@\341\024\200!B`\341\024\200!BP\341\024\200"
 5511      40E11480 
 5511      214260E1 
 5511      14802142 
 5511      50E11480 
 5512 0bf2 214270E1 		.ascii	"!Bp\341\024\200!B\340\341\024\200!B\000\342\024\200"
 5512      14802142 
 5512      E0E11480 
 5512      214200E2 
 5512      1480
 5513 0c04 214220E2 		.ascii	"!B \342\004\200!@\300\341\223\335L\004|\372\306NH\342"
 5513      04802140 
 5513      C0E193DD 
 5513      4C047CFA 
 5513      C64E48E2 
 5514 0c18 090E44E4 		.ascii	"\011\016D\344\241\201\254\235\013\241\306@\020\300X"
 5514      A181AC9D 
 5514      0BA1C640 
 5514      10C058
 5515 0c27 652CCFC6 		.ascii	"e,\317\306\023\\\3416\014\320\340\201\201u\201\212\020"
 5515      135CE136 
 5515      0CD0E081 
 5515      8175818A 
 5515      10
 5516 0c38 A56B03C0 		.ascii	"\245k\003\300\201\202cR\000\200\360\002p\344\013\216"
 5516      81826352 
 5516      0080F002 
 5516      70E40B8E 
 5517 0c48 88772CEF 		.ascii	"\210w,\357\013\241\225\374\011\016d\345\272\235\013"
 5517      0BA195FC 
ARM GAS  /tmp/ccWHsT5O.s 			page 175


 5517      090E64E5 
 5517      BA9D0B
 5518 0c57 A1CE0101 		.ascii	"\241\316\001\001`\020\300\006\014\000\200\274\200%\214"
 5518      6010C006 
 5518      0C0080BC 
 5518      80258C
 5519 0c66 701010E4 		.ascii	"p\020\020\344\013\220\350^\\\357\262\235k\200\212\026"
 5519      0B90E85E 
 5519      5CEFB29D 
 5519      6B808A16 
 5520 0c76 A8E1A50E 		.ascii	"\250\341\245\016\\\201\205\206~\001\374\377\275\200"
 5520      5C818586 
 5520      7E01FCFF 
 5520      BD80
 5521 0c84 A50E6081 		.ascii	"\245\016`\201\305\204\243\016\270\342\005\016`\341\226"
 5521      C584A30E 
 5521      B8E2050E 
 5521      60E196
 5522 0c93 4204E013 		.ascii	"B\004\340\023\266\242@\200\361d\004\000\373\004\000"
 5522      B6A24080 
 5522      F1640400 
 5522      FB0400
 5523 0ca2 00FB1384 		.ascii	"\000\373\023\204\006@\006\340\026\003\010\340\030x\370"
 5523      064006E0 
 5523      160308E0 
 5523      1878F8
 5524 0cb1 EEA3A00A 		.ascii	"\356\243\240\012L(\350\345\200\244\002\000\373\013\220"
 5524      4C28E8E5 
 5524      80A40200 
 5524      FB0B90
 5525 0cc0 085C5CEF 		.ascii	"\010\\\\\357\272\235\263\254\263\224\026@\010\340\274"
 5525      BA9DB3AC 
 5525      B3941640 
 5525      08E0BC
 5526 0ccf 9DB35260 		.ascii	"\235\263R`\340(sL\357L\014|\362\223\335\303\301\014"
 5526      E028734C 
 5526      EF4C0C7C 
 5526      F293DDC3 
 5526      C10C
 5527 0ce1 0400FA86 		.ascii	"\004\000\372\206\001\010\340\210rL\357\013\241\025\224"
 5527      0108E088 
 5527      724CEF0B 
 5527      A11594
 5528 0cf0 48647CEF 		.ascii	"Hd|\357\350g0\357\310ot\357\006\000\\\341\000\014\240"
 5528      E86730EF 
 5528      C86F74EF 
 5528      06005CE1 
 5528      000CA0
 5529 0d03 E4190C20 		.ascii	"\344\031\014 \345\031\206\033\243\265\202\013\014\224"
 5529      E519861B 
 5529      A3B5820B 
 5529      0C94
 5530 0d11 E2250C4C 		.ascii	"\342%\014L\341\000B\375s\001\300\006@H\342Hz8\357\305"
 5530      E10042FD 
 5530      7301C006 
 5530      4048E248 
 5530      7A38EFC5 
ARM GAS  /tmp/ccWHsT5O.s 			page 176


 5531 0d25 83190C20 		.ascii	"\203\031\014 \345J\002\014\370\365\200\006\000\320\340"
 5531      E54A020C 
 5531      F8F58006 
 5531      00D0E0
 5532 0d34 E85654EF 		.ascii	"\350VT\357\001\201\025\203\033\014\224\342)\014$\345"
 5532      01811583 
 5532      1B0C94E2 
 5532      290C24E5 
 5533 0d44 1042FD73 		.ascii	"\020B\375s\001\300\003\202\000\006\301d\003\300'\304"
 5533      01C00382 
 5533      0006C164 
 5533      03C027C4 
 5534 0d54 064048E2 		.ascii	"\006@H\342\310[8\357\206CX\342(\204+\241)\014\010\300"
 5534      C85B38EF 
 5534      864358E2 
 5534      28842BA1 
 5534      290C08C0 
 5535 0d68 204408DC 		.ascii	" D\010\334!L\010\300\006\004\000\300!B\000\300\013\241"
 5535      214C08C0 
 5535      060400C0 
 5535      214200C0 
 5535      0BA1
 5536 0d7a 090C0880 		.ascii	"\011\014\010\200\000@\004\234\001L\010\200Xnt\357\270"
 5536      0040049C 
 5536      014C0880 
 5536      586E74EF 
 5536      B8
 5537 0d8b 6A30EF96 		.ascii	"j0\357\226\001\010\340\014\014\000\362\030-L\377\303"
 5537      0108E00C 
 5537      0C00F218 
 5537      2D4CFFC3 
 5538 0d9b C10C040C 		.ascii	"\301\014\004\014\372\360\036`\354hv0\357\016\002%t\003"
 5538      FAF01E60 
 5538      EC687630 
 5538      EF0E0225 
 5538      7403
 5539 0dad C01874F8 		.ascii	"\300\030t\370\356\006Q \342i\020D\340\033\214\250s\370"
 5539      EE065120 
 5539      E2691044 
 5539      E01B8CA8 
 5539      73F8
 5540 0dbf EE7B8004 		.ascii	"\356{\200\004\340\033\000(\340\013\000$\340\021\202"
 5540      E01B0028 
 5540      E00B0024 
 5540      E01182
 5541 0dce 124080F1 		.ascii	"\022@\200\361\033\214\350r\370\356\024\240)\002(\340"
 5541      1B8CE872 
 5541      F8EE14A0 
 5541      290228E0 
 5542 0dde 29BE0640 		.ascii	")\276\006@\012\340&D\036\340\001\276\007\313\014\374"
 5542      0AE02644 
 5542      1EE001BE 
 5542      07CB0CFC 
 5543 0dee 0B0218E0 		.ascii	"\013\002\030\340\033\002$\340.\374\011\216\006@\006"
 5543      1B0224E0 
 5543      2EFC098E 
 5543      064006
ARM GAS  /tmp/ccWHsT5O.s 			page 177


 5544 0dfd E00EFE01 		.ascii	"\340\016\376\001\201\016\211\014\225\360\000\020\344"
 5544      810E890C 
 5544      95F00010 
 5544      E4
 5545 0e0a F84B24EF 		.ascii	"\370K$\357\032\225\006\015P\342\013\214\021\240hA\000"
 5545      1A95060D 
 5545      50E20B8C 
 5545      11A06841 
 5545      00
 5546 0e1b E811830B 		.ascii	"\350\021\203\013\214\310I$\357F@\264\341\032\200a\210"
 5546      8CC84924 
 5546      EF4640B4 
 5546      E11A8061 
 5546      88
 5547 0e2c 0B8CB840 		.ascii	"\013\214\270@\000\350\021\203\013\214\030I$\357\361"
 5547      00E81183 
 5547      0B8C1849 
 5547      24EFF1
 5548 0e3b B00C0C0C 		.ascii	"\260\014\014\014\362\223\335\303\301\004\200\001\310"
 5548      F293DDC3 
 5548      C1048001 
 5548      C8
 5549 0e48 080308E0 		.ascii	"\010\003\010\340\014\004|\372\360\036P\354\250S|\357"
 5549      0C047CFA 
 5549      F01E50EC 
 5549      A8537CEF 
 5550 0e58 464070E2 		.ascii	"F@p\342hH0\357\310gt\357\306Qt\341\025\020\250\341\006"
 5550      684830EF 
 5550      C86774EF 
 5550      C65174E1 
 5550      1510A8E1 
 5551 0e6d 00016000 		.ascii	"\000\001`\000\360\035\301\376E\375\037\377\217\022B"
 5551      F01DC1FE 
 5551      45FD1FFF 
 5551      8F1242
 5552 0e7c 08981402 		.ascii	"\010\230\024\002\374\234\025P\250\201\025\020\254\341"
 5552      FC9C1550 
 5552      A8811510 
 5552      ACE1
 5553 0e8a 1DC1FE45 		.ascii	"\035\301\376E\375\037\377\217\022B\010\230\024\002\374"
 5553      FD1FFF8F 
 5553      12420898 
 5553      1402FC
 5554 0e99 9C1550AC 		.ascii	"\234\025P\254\201\025\020\260\341\035\301\376E\375\037"
 5554      811510B0 
 5554      E11DC1FE 
 5554      45FD1F
 5555 0ea8 FF8F1242 		.ascii	"\377\217\022B\010\230\024\002\374\234\025P\260\201\025"
 5555      08981402 
 5555      FC9C1550 
 5555      B08115
 5556 0eb7 10B4E11D 		.ascii	"\020\264\341\035\301\376A\375\037\377\217\022B\000\230"
 5556      C1FE41FD 
 5556      1FFF8F12 
 5556      420098
 5557 0ec6 1400FC9C 		.ascii	"\024\000\374\234\005P\264\201\013\020p\343J\000\001"
 5557      0550B481 
ARM GAS  /tmp/ccWHsT5O.s 			page 178


 5557      0B1070E3 
 5557      4A0001
 5558 0ed5 7C03C000 		.ascii	"|\003\300\000@\375\023\374\300\004\000\244\334\003P"
 5558      40FD13FC 
 5558      C00400A4 
 5558      DC0350
 5559 0ee4 70C30B10 		.ascii	"p\303\013\020x\343J\000\001|\003\300\000@\375\023\374"
 5559      78E34A00 
 5559      017C03C0 
 5559      0040FD13 
 5559      FC
 5560 0ef5 C00400A4 		.ascii	"\300\004\000\244\334\003Px\303XE|\3578_|\357\206\015"
 5560      DC035078 
 5560      C358457C 
 5560      EF385F7C 
 5560      EF860D
 5561 0f08 48E2600E 		.ascii	"H\342`\016`\344\013\216\010K\\\357\001\201\230q0\357"
 5561      60E40B8E 
 5561      084B5CEF 
 5561      01819871 
 5561      30EF
 5562 0f1a 06416CE2 		.ascii	"\006Al\342\004\200\221\203\025\000\024\340\024\002\024"
 5562      04809183 
 5562      150014E0 
 5562      140214
 5563 0f29 FC154014 		.ascii	"\374\025@\024\340\001\203\210s0\357\001\203\030r0\357"
 5563      E0018388 
 5563      7330EF01 
 5563      83187230 
 5563      EF
 5564 0f3a 7000F0E5 		.ascii	"p\000\360\345\030a4\357\001\201\250q0\357\001\201\270"
 5564      186134EF 
 5564      0181A871 
 5564      30EF0181 
 5564      B8
 5565 0f4b 7230EF58 		.ascii	"r0\357X[|\357\001\201\261\261\006\002\200\340\001P\230"
 5565      5B7CEF01 
 5565      81B1B106 
 5565      0280E001 
 5565      5098
 5566 0f5d EFB15050 		.ascii	"\357\261PP\357\023P\244\347\001P`\357\011\020L\356\021"
 5566      EF1350A4 
 5566      E7015060 
 5566      EF09104C 
 5566      EE11
 5567 0f6f B9F00E10 		.ascii	"\271\360\016\020\344\011\320\001PL\356\001\213\001P"
 5567      E409D001 
 5567      504CEE01 
 5567      8B0150
 5568 0f7e 50EE1150 		.ascii	"P\356\021PT\356\021\257\021PX\356\021\243\021P\\\356"
 5568      54EE11AF 
 5568      115058EE 
 5568      11A31150 
 5568      5CEE
 5569 0f90 060210E0 		.ascii	"\006\002\020\340\023P\340\347\001P\274\356\011\020p"
 5569      1350E0E7 
 5569      0150BCEE 
ARM GAS  /tmp/ccWHsT5O.s 			page 179


 5569      091070
 5570 0f9f E0       		.ascii	"\340"
 5571 0fa0 0E0200F0 		.ascii	"\016\002\000\360\241\201\000@\300\363\001Pp\340FA\000"
 5571      A1810040 
 5571      C0F30150 
 5571      70E04641 
 5571      00
 5572 0fb1 E00550FC 		.ascii	"\340\005P\374\343V\001UuU\305\005P\000\344\306\000\314"
 5572      E3560155 
 5572      7555C505 
 5572      5000E4C6 
 5572      00CC
 5573 0fc3 E2035090 		.ascii	"\342\003P\220\340\306\000\010\340\003P\214\340F\000"
 5573      E0C60008 
 5573      E003508C 
 5573      E04600
 5574 0fd2 04E00350 		.ascii	"\004\340\003Pt\347\005\020\034\370+\216\017\202\011"
 5574      74E70510 
 5574      1CF82B8E 
 5574      0F8209
 5575 0fe1 D005501C 		.ascii	"\320\005P\034\370\005\020\034\370\021\217\004\000\200"
 5575      F805101C 
 5575      F8118F04 
 5575      0080
 5576 0fef FB0400CC 		.ascii	"\373\004\000\314\374\005P\034\370\011\020p\340\000@"
 5576      FC05501C 
 5576      F8091070 
 5576      E00040
 5577 0ffe C0F30150 		.ascii	"\300\363\001Pp\340\006\000\000\342\221P\224\357\016"
 5577      70E00600 
 5577      00E29150 
 5577      94EF0E
 5578 100d FC0E890E 		.ascii	"\374\016\211\016\000\001`\001\300\016\376\013\214\256"
 5578      00016001 
 5578      C00EFE0B 
 5578      8CAE
 5579 101b BE918358 		.ascii	"\276\221\203XU,\357\006\000\000\344\016\374\006\000"
 5579      552CEF06 
 5579      0000E40E 
 5579      FC0600
 5580 102a 20E00E89 		.ascii	" \340\016\211\006@\200\342\016\376\021\221\013\214+"
 5580      064080E2 
 5580      0EFE1191 
 5580      0B8C2B
 5581 1039 8EAEBE68 		.ascii	"\216\256\276hT,\357\006\000\000\346\016\374\366A\374"
 5581      542CEF06 
 5581      0000E60E 
 5581      FCF641FC 
 5582 1049 E90E8906 		.ascii	"\351\016\211\006\000\001` \300\016\376\021\223\013\214"
 5582      00016020 
 5582      C00EFE11 
 5582      930B8C
 5583 1058 2B8E9EBE 		.ascii	"+\216\236\276\241\223XS,\357\206@$\342\024\200\366E"
 5583      A1935853 
 5583      2CEF8640 
 5583      24E21480 
 5583      F645
ARM GAS  /tmp/ccWHsT5O.s 			page 180


 5584 106a FD63FFC3 		.ascii	"\375c\377\303\361\250\020B\001|\000\314\037\204\036"
 5584      F1A81042 
 5584      017C00CC 
 5584      1F841E
 5585 1079 8015508C 		.ascii	"\200\025P\214\371\011\020\004\357\016\002\000\360\000"
 5585      F9091004 
 5585      EF0E0200 
 5585      F000
 5586 1087 40F8F301 		.ascii	"@\370\363\001P\004\357\001\253\003P\300\347\263P\304"
 5586      5004EF01 
 5586      AB0350C0 
 5586      E7B350C4 
 5587 1097 E704A004 		.ascii	"\347\004\240\004\000\200\373\004\000\324\374\016\240"
 5587      0080FB04 
 5587      00D4FC0E 
 5587      A0
 5588 10a4 04A00F82 		.ascii	"\004\240\017\202\004\000\224\374\016\240\001\251\021"
 5588      040094FC 
 5588      0EA001A9 
 5588      11
 5589 10b1 85035004 		.ascii	"\205\003P\004\341\241P\020\342\021P\024\342\261P\034"
 5589      E1A15010 
 5589      E2115014 
 5589      E2B1501C 
 5590 10c1 E2035094 		.ascii	"\342\003P\224\341\241P0\343\021P4\343\261P<\343\003"
 5590      E1A15030 
 5590      E3115034 
 5590      E3B1503C 
 5590      E303
 5591 10d3 5024E2A1 		.ascii	"P$\342\241PP\344\021PT\344\261P\\\344\003P\264\342\241"
 5591      5050E411 
 5591      5054E4B1 
 5591      505CE403 
 5591      50B4E2A1 
 5592 10e7 5070E511 		.ascii	"Pp\345\021Pt\345\261P|\345\001Pd\357\006\000 \340\003"
 5592      5074E5B1 
 5592      507CE501 
 5592      5064EF06 
 5592      0020E003 
 5593 10fb 50B8E786 		.ascii	"P\270\347\206\000p\340\003P\264\347\006\000\200\340"
 5593      0070E003 
 5593      50B4E706 
 5593      0080E0
 5594 110a 0550F4E3 		.ascii	"\005P\364\343\001\207\005P\010\344\006\001Eu\024\300"
 5594      01870550 
 5594      08E40601 
 5594      457514C0 
 5595 111a 05500CE4 		.ascii	"\005P\014\344\005P\014\344\001\201\003P\020\340F@\004"
 5595      05500CE4 
 5595      01810350 
 5595      10E04640 
 5595      04
 5596 112b E0055014 		.ascii	"\340\005P\024\344\014\014|\362\223\335\303\301\206D"
 5596      E40C0C7C 
 5596      F293DDC3 
 5596      C18644
 5597 113a 24E20488 		.ascii	"$\342\004\210\000F\375s\377\303>\210\006A\\\341\031"
ARM GAS  /tmp/ccWHsT5O.s 			page 181


 5597      0046FD73 
 5597      FFC33E88 
 5597      06415CE1 
 5597      19
 5598 114b 00356501 		.ascii	"\0005e\001\300JB\200\340\206\003H\342D\204\246\012\240"
 5598      C04A4280 
 5598      E0860348 
 5598      E24484A6 
 5598      0AA0
 5599 115d 803406C8 		.ascii	"\2004\006\310\234UH\240\2005D\000\200\006\006\000\300"
 5599      9C5548A0 
 5599      80354400 
 5599      80060600 
 5599      C0
 5600 116e 3548A0C0 		.ascii	"5H\240\3005\004\000\300>\200\001\201\001B$\344\223\335"
 5600      350400C0 
 5600      3E800181 
 5600      014224E4 
 5600      93DD
 5601 1180 0C0000FA 		.ascii	"\014\000\000\372\013\241\360\036P\354\345\206\006\000"
 5601      0BA1F01E 
 5601      50ECE586 
 5601      0600
 5602 118e 00E60EFC 		.ascii	"\000\346\016\374\366A\374\351\016\211\006\000\001` "
 5602      F641FCE9 
 5602      0E890600 
 5602      016020
 5603 119d C00EFE01 		.ascii	"\300\016\376\001\207\016\276\360\004\020\344\206\001"
 5603      870EBEF0 
 5603      0410E486 
 5603      01
 5604 11aa 48E21193 		.ascii	"H\342\021\223\330H,\357\001\203\350\177,\357\206@\000"
 5604      D8482CEF 
 5604      0183E87F 
 5604      2CEF8640 
 5604      00
 5605 11bb E2048006 		.ascii	"\342\004\200\006\002@\340\023@`\343U\205HY8\357\206"
 5605      0240E013 
 5605      4060E355 
 5605      85485938 
 5605      EF86
 5606 11cd 4000E204 		.ascii	"@\000\342\004\200\021\201\023@`\343\001\201\270~,\357"
 5606      80118113 
 5606      4060E301 
 5606      81B87E2C 
 5606      EF
 5607 11de 06405CE1 		.ascii	"\006@\\\341\024\200\360\004\020\344\024\002\374\374"
 5607      1480F004 
 5607      10E41402 
 5607      FCFC
 5608 11ec 1E800600 		.ascii	"\036\200\006\000\000\346\016\374\366A\374\351\016\211"
 5608      00E60EFC 
 5608      F641FCE9 
 5608      0E89
 5609 11fa 06000160 		.ascii	"\006\000\001` \300\016\376\001\203\016\276\206\001H"
 5609      20C00EFE 
 5609      01830EBE 
ARM GAS  /tmp/ccWHsT5O.s 			page 182


 5609      860148
 5610 1209 E21193E8 		.ascii	"\342\021\223\350E,\357\361\250\014\010\000\362\223\335"
 5610      452CEFF1 
 5610      A80C0800 
 5610      F293DD
 5611 1218 04801540 		.ascii	"\004\200\025@ \340\223\335\014\004\014\372\266\000\010"
 5611      20E093DD 
 5611      0C040CFA 
 5611      B60008
 5612 1227 E088484C 		.ascii	"\340\210HL\357\013\241\025\232\006N\264\341\010\234"
 5612      EF0BA115 
 5612      9A064EB4 
 5612      E1089C
 5613 1236 0A4080E0 		.ascii	"\012@\200\340\205\202\010\234\012@\220\340\316\000\001"
 5613      8582089C 
 5613      0A4090E0 
 5613      CE0001
 5614 1245 0010C00B 		.ascii	"\000\020\300\013\000\000\300\003N1\031\003\300\006M"
 5614      0000C003 
 5614      4E311903 
 5614      C0064D
 5615 1254 20E2090C 		.ascii	" \342\011\014X\340\013\241\005\202\030\177h\357F@\004"
 5615      58E00BA1 
 5615      0582187F 
 5615      68EF4640 
 5615      04
 5616 1265 E0587328 		.ascii	"\340Xs(\3575\201(\\@\357\004\230\011\000\260\340J@\200"
 5616      EF358128 
 5616      5C40EF04 
 5616      980900B0 
 5616      E04A4080 
 5617 1279 E0C58228 		.ascii	"\340\305\202(il\357\011\016h\370\012@\224\340\236\000"
 5617      696CEF09 
 5617      0E68F80A 
 5617      4094E09E 
 5617      00
 5618 128a 010010C0 		.ascii	"\001\000\020\300\026\002\000\300\021@\000\300\330cl"
 5618      160200C0 
 5618      114000C0 
 5618      D8636C
 5619 1299 EFF84644 		.ascii	"\357\370FD\357\206@\000\342\004\200\011\000@\353\012"
 5619      EF864000 
 5619      E2048009 
 5619      0040EB0A 
 5620 12a9 4088E076 		.ascii	"@\210\340v\000\240\300\010kP\317\306LH\342\011\014T"
 5620      00A0C008 
 5620      6B50CFC6 
 5620      4C48E209 
 5620      0C54
 5621 12bb E50BA1C5 		.ascii	"\345\013\241\305\200\210Y|\357\001\201\001LP\345\370"
 5621      8088597C 
 5621      EF018101 
 5621      4C50E5F8 
 5622 12cb 407CEF18 		.ascii	"@|\357\030\334\013\2148z\374\357\013\214\210B,\357\001"
 5622      DC0B8C38 
 5622      7AFCEF0B 
 5622      8C88422C 
ARM GAS  /tmp/ccWHsT5O.s 			page 183


 5622      EF01
 5623 12dd 81818148 		.ascii	"\201\201\201H`0\357\350\177,\357\001\201\370R0\357X"
 5623      6030EFE8 
 5623      7F2CEF01 
 5623      81F85230 
 5623      EF58
 5624 12ef 7E78EF01 		.ascii	"~x\357\001\203\001L\320\343\201N\351y\011\300\306\000"
 5624      83014CD0 
 5624      E3814EE9 
 5624      7909C0C6 
 5624      00
 5625 1300 08E00C0C 		.ascii	"\010\340\014\014\014\362\230\001L\377\303\301\013\241"
 5625      0CF29801 
 5625      4CFFC3C1 
 5625      0BA1
 5626 130e 06416CE2 		.ascii	"\006Al\342\004\200E\204\024\300\031\364\036\300\025"
 5626      04804584 
 5626      14C019F4 
 5626      1EC015
 5627 131d 002CE014 		.ascii	"\000,\340\024\002\034\374\025@,\340\025\000\024\340"
 5627      021CFC15 
 5627      402CE015 
 5627      0014E0
 5628 132c 1042017D 		.ascii	"\020B\001}\001\300\025@\024\340\265\201\025\000,\340"
 5628      01C01540 
 5628      14E0B581 
 5628      15002CE0 
 5629 133c 21CB1402 		.ascii	"!\313\024\002\234\374\025@,\340\024\300\037\204\036"
 5629      9CFC1540 
 5629      2CE014C0 
 5629      1F841E
 5630 134b C0264108 		.ascii	"\300&A\010\340H?H\377e^\004\372\360\014\020\354`^\034"
 5630      E0483F48 
 5630      FF655E04 
 5630      FAF00C10 
 5630      EC605E1C 
 5631 135f F461886E 		.ascii	"\364a\210n\274\374\007\200\376\206\000$\342\025\000"
 5631      BCFC0780 
 5631      FE860024 
 5631      E21500
 5632 136e 18F8F01E 		.ascii	"\030\370\360\036 \354\031\002\324\340\031\206\033\241"
 5632      20EC1902 
 5632      D4E01986 
 5632      1BA1
 5633 137c A5821BA5 		.ascii	"\245\202\033\245\225\210\326\002\264\341\030\204\033"
 5633      9588D602 
 5633      B4E11884 
 5633      1B
 5634 1389 A3F58608 		.ascii	"\243\365\206\010\202\012\000\374\373\265\200\245\203"
 5634      820A00FC 
 5634      FBB580A5 
 5634      83
 5635 1396 08820BA1 		.ascii	"\010\202\013\241\345\204\006\001\270\341\004\200xi("
 5635      E5840601 
 5635      B8E10480 
 5635      786928
 5636 13a5 EF064C54 		.ascii	"\357\006LT\342\013\214hu \357\012\330\013\241\306\000"
ARM GAS  /tmp/ccWHsT5O.s 			page 184


 5636      E20B8C68 
 5636      7520EF0A 
 5636      D80BA1C6 
 5636      00
 5637 13b6 28820500 		.ascii	"(\202\005\000\000\200\025\000(\200\024\002\000\234\025"
 5637      00801500 
 5637      28801402 
 5637      009C15
 5638 13c5 40288016 		.ascii	"@(\200\026A\000\340h{H\357\013\241\225\204\350y@\357"
 5638      4100E068 
 5638      7B48EF0B 
 5638      A19584E8 
 5638      7940EF
 5639 13d8 060170E1 		.ascii	"\006\001p\341\024\200!\203\021\202\036\200\306B$\342"
 5639      14802183 
 5639      11821E80 
 5639      C64224E2 
 5640 13e8 14842640 		.ascii	"\024\204&@X\342&\200\005\002D\340\011\302\005BD\340"
 5640      58E22680 
 5640      050244E0 
 5640      09C20542 
 5640      44E0
 5641 13fa 01838840 		.ascii	"\001\203\210@\000\350\361\220\374\017\200\366\364\274"
 5641      00E8F190 
 5641      FC0F80F6 
 5641      F4BC
 5642 1408 64FD53C1 		.ascii	"d\375S\301L\000\000\372\021\201\370[\004\357L\010\000"
 5642      4C0000FA 
 5642      1181F85B 
 5642      04EF4C08 
 5642      00
 5643 1419 F293DD65 		.ascii	"\362\223\335e^\004\372\360\014\020\354`^\034\364a\210"
 5643      5E04FAF0 
 5643      0C10EC60 
 5643      5E1CF461 
 5643      88
 5644 142a 6EBCFC07 		.ascii	"n\274\374\007\234\376\360\036p\354&A\000\340\010xH\357"
 5644      9CFEF01E 
 5644      70EC2641 
 5644      00E00878 
 5644      48EF
 5645 143c 0BA1759E 		.ascii	"\013\241u\236\206A$\342\024\200k\002\250\345+\002\300"
 5645      864124E2 
 5645      14806B02 
 5645      A8E52B02 
 5645      C0
 5646 144d E56F8464 		.ascii	"\345o\204d\016\200\373\012N\200\340cB\260\345\205\220"
 5646      0E80FB0A 
 5646      4E80E063 
 5646      42B0E585 
 5646      90
 5647 145e 050014E0 		.ascii	"\005\000\024\340\005\000(\340\012@\200\340\205\210\266"
 5647      050028E0 
 5647      0A4080E0 
 5647      8588B6
 5648 146d 0024E208 		.ascii	"\000$\342\010\200\012\000\374\373\305\206\206\021\270"
 5648      800A00FC 
ARM GAS  /tmp/ccWHsT5O.s 			page 185


 5648      FBC58686 
 5648      11B8
 5649 147b E109102C 		.ascii	"\341\011\020,\371\013\241\025\206\306SP\342\004\244"
 5649      F90BA115 
 5649      86C65350 
 5649      E204A4
 5650 148a 0A800EA2 		.ascii	"\012\200\016\242\030BX\357\004\242\024\244\014\204\004"
 5650      184258EF 
 5650      04A214A4 
 5650      0C8404
 5651 1499 A0118101 		.ascii	"\240\021\201\001\202\016\240\220\0000\356(^X\357\310"
 5651      820EA090 
 5651      0030EE28 
 5651      5E58EFC8 
 5652 14a9 6A74EF01 		.ascii	"jt\357\001\203\001R\260\346\206AP\3414\200\306Bh\341"
 5652      830152B0 
 5652      E6864150 
 5652      E13480C6 
 5652      4268E1
 5653 14bc 24843182 		.ascii	"$\2041\202;\241!\202.\204\026\002\000\200>\200\025@"
 5653      3BA12182 
 5653      2E841602 
 5653      00803E80 
 5653      1540
 5654 14ce 00800600 		.ascii	"\000\200\006\000T\201\006\002\000\200\025@\000\200f"
 5654      54810602 
 5654      00801540 
 5654      008066
 5655 14dd 0158E211 		.ascii	"\001X\342\021\203\026\200\012N\214\340F\001X\302\026"
 5655      8316800A 
 5655      4E8CE046 
 5655      0158C216 
 5656 14ed 0200C011 		.ascii	"\002\000\300\021@\000\300\012N\220\340E\202FAh\341\024"
 5656      4000C00A 
 5656      4E90E045 
 5656      82464168 
 5656      E114
 5657 14ff 8011821E 		.ascii	"\200\021\202\036\200V\001X\342\021\203\026\200\012\016"
 5657      80560158 
 5657      E2118316 
 5657      800A0E
 5658 150e 80F9A601 		.ascii	"\200\371\246\001X\302\026\002\000\300\021@\000\300\012"
 5658      58C21602 
 5658      00C01140 
 5658      00C00A
 5659 151d 4C88E046 		.ascii	"L\210\340F@X\302\026\002\000\300\021@\000\3006\000\240"
 5659      4058C216 
 5659      0200C011 
 5659      4000C036 
 5659      00A0
 5660 152f C0085750 		.ascii	"\300\010WP\317F@(\342\024\200\021\202\036\200\001\207"
 5660      CF464028 
 5660      E2148011 
 5660      821E8001 
 5660      87
 5661 1540 6876FCEF 		.ascii	"hv\374\357\361\270\374\017\234\366\364\274d\375S\301"
 5661      F1B8FC0F 
ARM GAS  /tmp/ccWHsT5O.s 			page 186


 5661      9CF6F4BC 
 5661      64FD53C1 
 5662 1550 0C0484FA 		.ascii	"\014\004\204\372\246\000\010\340\010oH\357\013\241u"
 5662      A60008E0 
 5662      086F48EF 
 5662      0BA175
 5663 155f 94C64E90 		.ascii	"\224\306N\220\341\004\234\006\002\001`\000\360\006\004"
 5663      E1049C06 
 5663      02016000 
 5663      F00604
 5664 156e 016000E0 		.ascii	"\001`\000\340\037\200\033\205U\210\007\341\011\276\013"
 5664      1F801B85 
 5664      558807E1 
 5664      09BE0B
 5665 157d A1C586CE 		.ascii	"\241\305\206\316\003\001`\020\300\022\204!\377\035\204"
 5665      03016010 
 5665      C0128421 
 5665      FF1D84
 5666 158c 0000088C 		.ascii	"\000\000\010\214E\202\020\004\030\354\212\004\024\355"
 5666      45821004 
 5666      18EC8A04 
 5666      14ED
 5667 159a B5808A02 		.ascii	"\265\200\212\002@\341\265\202\001\204\206B\000\342\024"
 5667      40E1B582 
 5667      01848642 
 5667      00E214
 5668 15a9 8409BE29 		.ascii	"\204\011\276)\002\360\342 D\200\363/\240!B\360\342\006"
 5668      02F0E220 
 5668      4480F32F 
 5668      A02142F0 
 5668      E206
 5669 15bb 4D48E209 		.ascii	"MH\342\011\014\340\350\013\241E\202\366A\374\357\003"
 5669      0CE0E80B 
 5669      A14582F6 
 5669      41FCEF03 
 5670 15cb 4EA57902 		.ascii	"N\245y\002\300\001\201\001L\340\350u\203\001\205\370"
 5670      C0018101 
 5670      4CE0E875 
 5670      830185F8 
 5671 15db 5A70EF09 		.ascii	"Zp\357\011\016h\350J@\220\340\006\000\000\300XA\000"
 5671      0E68E84A 
 5671      4090E006 
 5671      0000C058 
 5671      4100
 5672 15ed C811810B 		.ascii	"\310\021\201\013\214\270SX\357X`t\357\011\016\320\350"
 5672      8CB85358 
 5672      EF586074 
 5672      EF090ED0 
 5672      E8
 5673 15fe 0A4080E0 		.ascii	"\012@\200\340\225\200\014\014\204\362\223\335\001\203"
 5673      95800C0C 
 5673      84F293DD 
 5673      0183
 5674 160c 0C0C84F2 		.ascii	"\014\014\204\362\210*x\377\033\200F@P\342\004\200!\201"
 5674      882A78FF 
 5674      1B804640 
 5674      50E20480 
ARM GAS  /tmp/ccWHsT5O.s 			page 187


 5674      2181
 5675 161e 318301B8 		.ascii	"1\203\001\270\370\032\364\377\303\301\004\200\024\200"
 5675      F81AF4FF 
 5675      C3C10480 
 5675      1480
 5676 162c 19C21E80 		.ascii	"\031\302\036\200\006Al\342\004\200\025\000\024\340\024"
 5676      06416CE2 
 5676      04801500 
 5676      14E014
 5677 163b 0294FC15 		.ascii	"\002\224\374\025@\024\340\223\335\004\200\024\200\024"
 5677      4014E093 
 5677      DD048014 
 5677      8014
 5678 1649 0200FC1E 		.ascii	"\002\000\374\036\200\006Al\342\004\200\025\000\024\340"
 5678      8006416C 
 5678      E2048015 
 5678      0014E0
 5679 1658 140214FC 		.ascii	"\024\002\024\374\025@\024\340\223\335\303\301\014\004"
 5679      154014E0 
 5679      93DDC3C1 
 5679      0C04
 5680 1666 00FA4A40 		.ascii	"\000\372J@\200\340\006Al\302\005\000\000\300\025\000"
 5680      80E00641 
 5680      6CC20500 
 5680      00C01500 
 5681 1676 14C01402 		.ascii	"\024\300\024\002\024\334\025@\024\300\006Al\342d\200"
 5681      14DC1540 
 5681      14C00641 
 5681      6CE26480 
 5682 1686 0C0000E2 		.ascii	"\014\000\000\342\330@\000\350a\220\033\200!\213\006"
 5682      D84000E8 
 5682      61901B80 
 5682      218B06
 5683 1695 4600E00B 		.ascii	"F\000\340\013\2148W\364\357\014\014\000\362\223\335"
 5683      8C3857F4 
 5683      EF0C0C00 
 5683      F293DD
 5684 16a4 93DDC3C1 		.ascii	"\223\335\303\301\014\004\014\372\206L\000\342\004\230"
 5684      0C040CFA 
 5684      864C00E2 
 5684      0498
 5685 16b2 C64F6CE1 		.ascii	"\306Ol\341\006I \342\033\000\020\341*\234\020\002\024"
 5685      064920E2 
 5685      1B0010E1 
 5685      2A9C1002 
 5685      14
 5686 16c3 EC234020 		.ascii	"\354#@ \341$\230F\0004\342\012\200;\004\250\340\023"
 5686      E1249846 
 5686      0034E20A 
 5686      803B04A8 
 5686      E013
 5687 16d5 A00B04B0 		.ascii	"\240\013\004\260\340\023\2465\004\230\340\023\240\005"
 5687      E013A635 
 5687      0498E013 
 5687      A005
 5688 16e3 049CE030 		.ascii	"\004\234\3400F\375s\003\300\023\2465\004\230\340%\004"
 5688      46FD7303 
ARM GAS  /tmp/ccWHsT5O.s 			page 188


 5688      C013A635 
 5688      0498E025 
 5688      04
 5689 16f4 9CE04490 		.ascii	"\234\340D\220\000@\374\360\022P\200\361\032\2207\325"
 5689      0040FCF0 
 5689      125080F1 
 5689      1A9037D5 
 5690 1704 27CD2386 		.ascii	"'\315#\206$\000\200\373(i\364\356\013\300\203\200\032"
 5690      240080FB 
 5690      2869F4EE 
 5690      0BC08380 
 5690      1A
 5691 1715 9C04DA84 		.ascii	"\234\004\332\204\004\200\373\035\305\031\0000\340\024"
 5691      0480FB1D 
 5691      C5190030 
 5691      E014
 5692 1723 02949C10 		.ascii	"\002\224\234\020B|\323\021@0\340\014\014\014\362\223"
 5692      427CD311 
 5692      4030E00C 
 5692      0C0CF293 
 5693 1733 DD864000 		.ascii	"\335\206@\000\342\024\202&E\000\340#B(\340\024\202\266"
 5693      E2148226 
 5693      4500E023 
 5693      4228E014 
 5693      82B6
 5694 1745 0414E023 		.ascii	"\004\024\340#B0\340\024\202\366\004\004\340#B8\340\024"
 5694      4230E014 
 5694      82F60404 
 5694      E0234238 
 5694      E014
 5695 1757 80218521 		.ascii	"\200!\205!B\260\343!\225!B\240\343f\005x\340#B\310\343"
 5695      42B0E321 
 5695      952142A0 
 5695      E3660578 
 5695      E02342C8 
 5696 176c 14822183 		.ascii	"\024\202!\203"
 5697 1770 214220E0 		.ascii	"!B \340\004\200f\002\004\340\023@h\342\021\235\023@"
 5697      04806602 
 5697      04E01340 
 5697      68E2119D 
 5697      1340
 5698 1782 C0E20603 		.ascii	"\300\342\006\003\004\340\023@\020\343\021\263\021@\320"
 5698      04E01340 
 5698      10E311B3 
 5698      1140D0
 5699 1791 E293DD86 		.ascii	"\342\223\335\206@\000\342\024\202&E\000\340#B(\340\024"
 5699      4000E214 
 5699      82264500 
 5699      E0234228 
 5699      E014
 5700 17a3 82C60418 		.ascii	"\202\306\004\030\340#B0\340\024\202\006\005\010\340"
 5700      E0234230 
 5700      E0148206 
 5700      0508E0
 5701 17b2 234238E0 		.ascii	"#B8\340\004\200\021\205\021@\260\343\021\225\021@\240"
 5701      04801185 
 5701      1140B0E3 
ARM GAS  /tmp/ccWHsT5O.s 			page 189


 5701      11951140 
 5701      A0
 5702 17c3 E3660378 		.ascii	"\343f\003x\340\023@\310\343\021\201\021@\340\342\021"
 5702      E01340C8 
 5702      E3118111 
 5702      40E0E211 
 5703 17d3 B31140D0 		.ascii	"\263\021@\320\342\223\335\303\301\306A(\342\000\002"
 5703      E293DDC3 
 5703      C1C64128 
 5703      E20002
 5704 17e2 D16501C0 		.ascii	"\321e\001\300*\304+\241\010\\\000\332$\304+\241\010"
 5704      2AC42BA1 
 5704      085C00DA 
 5704      24C42BA1 
 5704      08
 5705 17f3 5C009A38 		.ascii	"\\\000\2328\206\306\004\004\3406F\012\3403\200I\006"
 5705      86C60404 
 5705      E036460A 
 5705      E0338049 
 5705      06
 5706 1804 48E34DE6 		.ascii	"H\343M\346\365\214\206\012\004\340FH\026\340\006\012"
 5706      F58C860A 
 5706      04E04648 
 5706      16E0060A 
 5707 1814 5CE1438A 		.ascii	"\\\341C\212Y\010@\350QF@\342Y\010D\350\311\006D\342"
 5707      590840E8 
 5707      514640E2 
 5707      590844E8 
 5707      C90644E2 
 5708 1828 59BEC058 		.ascii	"Y\276\300X\200\363\317\252\301FD\342;\010$\344X\206"
 5708      80F3CFAA 
 5708      C14644E2 
 5708      3B0824E4 
 5708      5886
 5709 183a 564A0AE0 		.ascii	"VJ\012\340S\2003J$\341;\010(\3443J(\341;\010,\344X\206"
 5709      5380334A 
 5709      24E13B08 
 5709      28E4334A 
 5709      28E13B08 
 5710 1852 564A0AE0 		.ascii	"VJ\012\340S\2003J,\341;\0100\3443J0\341;\0104\344\030"
 5710      5380334A 
 5710      2CE13B08 
 5710      30E4334A 
 5710      30E13B08 
 5711 1869 8616420A 		.ascii	"\206\026B\012\340\023\2003B4\341\223\335\026\000\\\342"
 5711      E0138033 
 5711      4234E193 
 5711      DD16005C 
 5711      E2
 5712 187a 11831680 		.ascii	"\021\203\026\200\223\335L\000\000\372\010q\374\357\006"
 5712      93DD4C00 
 5712      00FA0871 
 5712      FCEF06
 5713 1889 43D4E10E 		.ascii	"C\324\341\016\204L\010\000\362\223\335\014\004\234\372"
 5713      844C0800 
 5713      F293DD0C 
 5713      049CFA
ARM GAS  /tmp/ccWHsT5O.s 			page 190


 5714 1898 087A6CEF 		.ascii	"\010zl\357(Kt\357\206L\\\341\011\014]e\001\300\012@"
 5714      284B74EF 
 5714      864C5CE1 
 5714      090C5D65 
 5714      01C00A40 
 5715 18ac 80E08582 		.ascii	"\200\340\205\202\246@\010\340\006\230\011\014]e\001"
 5715      A64008E0 
 5715      0698090C 
 5715      5D6501
 5716 18bb C04A4080 		.ascii	"\300J@\200\340e\376\001\207\006\230\206@\000\342\024"
 5716      E065FE01 
 5716      87069886 
 5716      4000E214 
 5717 18cb 80290230 		.ascii	"\200)\0020\340)\304!B0\340\024\202!\203!B\020\340\024"
 5717      E029C421 
 5717      4230E014 
 5717      82218321 
 5717      4210E014 
 5718 18df 80214220 		.ascii	"\200!B \340\004\200\031\000@\353J\002\014\374\205\376"
 5718      E0048019 
 5718      0040EB4A 
 5718      020CFC85 
 5718      FE
 5719 18f0 C65328E2 		.ascii	"\306S(\342\220\016\321e\001\300\012\334\013\241\265"
 5719      900ED165 
 5719      01C00ADC 
 5719      0BA1B5
 5720 18ff 8C04DC0B 		.ascii	"\214\004\334\013\241E\214XfX\357FQ \342\004\240\011"
 5720      A1458C58 
 5720      6658EF46 
 5720      5120E204 
 5720      A009
 5721 1911 0020E14A 		.ascii	"\000 \341J@\200\340%\206\010\236\306\002\004\340\006"
 5721      4080E025 
 5721      86089EC6 
 5721      0204E006 
 5722 1921 4006E003 		.ascii	"@\006\340\003\222\011\000@\342\011\206\013\245\325\202"
 5722      92090040 
 5722      E209860B 
 5722      A5D582
 5723 1930 01857847 		.ascii	"\001\205xG@\357\206@x\3428}<\357\206@x\3428sD\357\330"
 5723      40EF8640 
 5723      78E2387D 
 5723      3CEF8640 
 5723      78E23873 
 5724 1947 4140EF09 		.ascii	"A@\357\011\020H\340\013\241\225\202\011\020X\340\013"
 5724      1048E00B 
 5724      A1958209 
 5724      1058E00B 
 5725 1957 A10B0CE4 		.ascii	"\241\013\014\344\312\003N\330\331Hl4\357\350e8\357\326"
 5725      CA034ED8 
 5725      D9486C34 
 5725      EFE86538 
 5725      EFD6
 5726 1969 4108E00C 		.ascii	"A\010\340\014\014\234\362H\016H\377\014\004\234\372"
 5726      0C9CF248 
 5726      0E48FF0C 
ARM GAS  /tmp/ccWHsT5O.s 			page 191


 5726      049CFA
 5727 1978 060108E0 		.ascii	"\006\001\010\340\350MH\357\013\2415\240\206Lx\342`\016"
 5727      E84D48EF 
 5727      0BA135A0 
 5727      864C78E2 
 5727      600E
 5728 198a 10E49181 		.ascii	"\020\344\221\201\013\214\226\336\370h<\357\006A \342"
 5728      0B8C96DE 
 5728      F8683CEF 
 5728      064120E2 
 5729 199a 04800602 		.ascii	"\004\200\006\002\\\341\020\020\250\345\011\000$\340"
 5729      5CE11010 
 5729      A8E50900 
 5729      24E0
 5730 19a8 21810606 		.ascii	"!\201\006\006\001`\340\317\012@\210\340\306\001X\340"
 5730      0160E0CF 
 5730      0A4088E0 
 5730      C60158E0 
 5731 19b8 E60158C0 		.ascii	"\346\001X\300\013\000\004\374\021\201\270d<\357$\336"
 5731      0B0004FC 
 5731      1181B864 
 5731      3CEF24DE 
 5732 19c8 0E9E0602 		.ascii	"\016\236\006\002\001`\340\316\013\204\370i\364\356\016"
 5732      0160E0CE 
 5732      0B84F869 
 5732      F4EE0E
 5733 19d7 DE969E95 		.ascii	"\336\226\236\225N\020\340\225N\024\340\013\020\210\352"
 5733      4E10E095 
 5733      4E14E00B 
 5733      1088EA
 5734 19e6 060300E1 		.ascii	"\006\003\000\341\007\304\005\000\004\374\005N\030\340"
 5734      07C40500 
 5734      04FC054E 
 5734      18E0
 5735 19f4 09109964 		.ascii	"\011\020\231d\001\300\007\304\005\000\004\374\005N\034"
 5735      01C007C4 
 5735      050004FC 
 5735      054E1C
 5736 1a03 E0091055 		.ascii	"\340\011\020Ud\001\300J@\210\340\326\000\315ls\317E"
 5736      6401C04A 
 5736      4088E0D6 
 5736      00CD6C73 
 5736      CF45
 5737 1a15 820B1084 		.ascii	"\202\013\020\204\352xg\364\356\006\002\001`\340\316"
 5737      EA7867F4 
 5737      EE060201 
 5737      60E0CE
 5738 1a24 6867F4EE 		.ascii	"hg\364\356\005N \340\013\020H\352\310f\364\356\006\002"
 5738      054E20E0 
 5738      0B1048EA 
 5738      C866F4EE 
 5738      0602
 5739 1a36 0160E0CE 		.ascii	"\001`\340\316\270f\364\356\005N$\340\006\000\001`\000"
 5739      B866F4EE 
 5739      054E24E0 
 5739      06000160 
 5739      00
ARM GAS  /tmp/ccWHsT5O.s 			page 192


 5740 1a47 D0054E34 		.ascii	"\320\005N4\340\013\214\030PD\357\206\000T\341\021\203"
 5740      E00B8C18 
 5740      5044EF86 
 5740      0054E111 
 5740      83
 5741 1a58 1E8008DC 		.ascii	"\036\200\010\334\013\241\225\200\004\230\013\243\225"
 5741      0BA19580 
 5741      04980BA3 
 5741      95
 5742 1a65 8008DEC8 		.ascii	"\200\010\336\310xD\357\013\020\260\341\033\020\270\341"
 5742      7844EF0B 
 5742      10B0E11B 
 5742      10B8E1
 5743 1a74 2B10BCE1 		.ascii	"+\020\274\341\014\240\013\020\264\341\034\340,\342\014"
 5743      0CA00B10 
 5743      B4E11CE0 
 5743      2CE20C
 5744 1a83 A2160108 		.ascii	"\242\026\001\010\340\014\014\234\362h\005H\377\014\004"
 5744      E00C0C9C 
 5744      F2680548 
 5744      FF0C04
 5745 1a92 FCFA6600 		.ascii	"\374\372f\000\010\340\010EH\357\013\241h\024\000\300"
 5745      08E00845 
 5745      48EF0BA1 
 5745      681400C0 
 5746 1aa2 861024E2 		.ascii	"\206\020$\342\005\020\030\370\011\000\324\340\011\206"
 5746      051018F8 
 5746      0900D4E0 
 5746      0986
 5747 1ab0 0BA1A582 		.ascii	"\013\241\245\202\013\245u\222\326\000\264\341\010\200"
 5747      0BA57592 
 5747      D600B4E1 
 5747      0880
 5748 1abe 0BA3D590 		.ascii	"\013\243\325\220\010\242\012\000\374\373\265\200\025"
 5748      08A20A00 
 5748      FCFBB580 
 5748      15
 5749 1acb 8908A20B 		.ascii	"\211\010\242\013\241\305\216\306\016(\342\004\234\025"
 5749      A1C58EC6 
 5749      0E28E204 
 5749      9C15
 5750 1ad9 0028E04A 		.ascii	"\000(\340JB\200\340e\210\025\000(\340\006LL\342\031"
 5750      4280E065 
 5750      88150028 
 5750      E0064C4C 
 5750      E219
 5751 1aeb C2154028 		.ascii	"\302\025@(\340\010\342\021\215\013\241v\002\000\300"
 5751      E008E211 
 5751      8D0BA176 
 5751      0200C0
 5752 1afa 8E010160 		.ascii	"\216\001\001`\020\300\026\200\013\214\250Q\000\350\005"
 5752      10C01680 
 5752      0B8CA851 
 5752      00E805
 5753 1b09 0C38E011 		.ascii	"\0148\340\021\203!\201\001\2401\203hs\360\357\004\234"
 5753      83218101 
 5753      A0318368 
ARM GAS  /tmp/ccWHsT5O.s 			page 193


 5753      73F0EF04 
 5753      9C
 5754 1b1a 150018E0 		.ascii	"\025\000\030\340\031\302\025@\030\340E\203\006LL\342"
 5754      19C21540 
 5754      18E04583 
 5754      064C4CE2 
 5755 1b2a 8E010160 		.ascii	"\216\001\001`\020\300\021\205\026\200\021\205\013\214"
 5755      10C01185 
 5755      16801185 
 5755      0B8C
 5756 1b38 085000E8 		.ascii	"\010P\000\350\005\0148\340\021\201!\201\001\2401\203"
 5756      050C38E0 
 5756      11812181 
 5756      01A03183 
 5757 1b48 C871F0EF 		.ascii	"\310q\360\357\006\022\\\341\220\024@\345\011\024Ae\001"
 5757      06125CE1 
 5757      901440E5 
 5757      09144165 
 5757      01
 5758 1b59 C00A4080 		.ascii	"\300\012@\200\340\006\000\000\300\370\177t\317\012\250"
 5758      E0060000 
 5758      C0F87F74 
 5758      CF0AA8
 5759 1b68 01820A00 		.ascii	"\001\202\012\000\000\350\014\250\025\202\005\024|\345"
 5759      00E80CA8 
 5759      15820514 
 5759      7CE5
 5760 1b76 0BA30185 		.ascii	"\013\243\001\205\026\000\000\300\014\250\206A@\342\004"
 5760      160000C0 
 5760      0CA88641 
 5760      40E204
 5761 1b85 800BA10B 		.ascii	"\200\013\241\013\024\004\300\000\000\004\304\003T\004"
 5761      1404C000 
 5761      0004C403 
 5761      5404
 5762 1b93 C00914D9 		.ascii	"\300\011\024\331d\001\300J@\220\340\026\000\000\300"
 5762      6401C04A 
 5762      4090E016 
 5762      0000C0
 5763 1ba2 9853FCCF 		.ascii	"\230S\374\317\330bX\357\270XX\357\206A$\342\004\200"
 5763      D86258EF 
 5763      B85858EF 
 5763      864124E2 
 5763      0480
 5764 1bb4 1B00D0E5 		.ascii	"\033\000\320\345\031\340\023@\320\345\005\020\024\370"
 5764      19E01340 
 5764      D0E50510 
 5764      14F8
 5765 1bc2 090020E1 		.ascii	"\011\000 \341\013\241\325\226xOd\357\330T`\357\270K"
 5765      0BA1D596 
 5765      784F64EF 
 5765      D85460EF 
 5765      B84B
 5766 1bd4 5CEF985E 		.ascii	"\\\357\230^d\357\010\340\013\241\245\222\225\020\020"
 5766      64EF08E0 
 5766      0BA1A592 
 5766      951010
ARM GAS  /tmp/ccWHsT5O.s 			page 194


 5767 1be3 F8691018 		.ascii	"\370i\020\030\370\016\001\001`\020\300\033\022p\340"
 5767      F80E0101 
 5767      6010C01B 
 5767      1270E0
 5768 1bf2 2B126CE0 		.ascii	"+\022l\340n\200\011\022\304\340\021\202\306VX\341\022"
 5768      6E800912 
 5768      C4E01182 
 5768      C65658E1 
 5768      12
 5769 1c03 4E88F106 		.ascii	"N\210\361\006\254t\000\200\373\033\214\030A\364\356"
 5769      AC740080 
 5769      FB1B8C18 
 5769      41F4EE
 5770 1c12 8A000566 		.ascii	"\212\000\005f\002\300\356\003\001`\020\300\014\204\265"
 5770      02C0EE03 
 5770      016010C0 
 5770      0C84B5
 5771 1c21 82051484 		.ascii	"\202\005\024\204\345\016\003\001`\020\300\013\241\001"
 5771      E50E0301 
 5771      6010C00B 
 5771      A101
 5772 1c2f 85460000 		.ascii	"\205F\000\000\300\006L\032\340n\204d\014\200\373\013"
 5772      C0064C1A 
 5772      E06E8464 
 5772      0C80FB0B 
 5773 1c3f 8E1B8C78 		.ascii	"\216\033\214x\177\360\356\033\022x\340+\022t\340\014"
 5773      7FF0EE1B 
 5773      1278E02B 
 5773      1274E00C 
 5774 1c4f AE118212 		.ascii	"\256\021\202\022@\210\361\033\214\310~\360\356\014\354"
 5774      4088F11B 
 5774      8CC87EF0 
 5774      EE0CEC
 5775 1c5e C64054E2 		.ascii	"\306@T\342\306BX\341\330o$\357\270j`\357\001\203\210"
 5775      C64258E1 
 5775      D86F24EF 
 5775      B86A60EF 
 5775      018388
 5776 1c71 6E60EF06 		.ascii	"n`\357\006\022\\\341\310bd\357(Hl\357\210od\357(Gd\357"
 5776      125CE1C8 
 5776      6264EF28 
 5776      486CEF88 
 5776      6F64EF28 
 5777 1c88 064148E2 		.ascii	"\006AH\342\021\203\330^T\357\011\020\010\370\013\241"
 5777      1183D85E 
 5777      54EF0910 
 5777      08F80BA1 
 5778 1c98 0866388F 		.ascii	"\010f8\217\350Il\357\210d8\357\010\242\013\241H}X\317"
 5778      E8496CEF 
 5778      886438EF 
 5778      08A20BA1 
 5778      487D58CF 
 5779 1cac 68596CEF 		.ascii	"hYl\357\210jp\357\013\024\344\341\033\024\354\341+\024"
 5779      886A70EF 
 5779      0B14E4E1 
 5779      1B14ECE1 
 5779      2B14
ARM GAS  /tmp/ccWHsT5O.s 			page 195


 5780 1cbe F0E10354 		.ascii	"\360\341\003T4\340\013\024\350\341\023T<\340#T@\340"
 5780      34E00B14 
 5780      E8E11354 
 5780      3CE02354 
 5780      40E0
 5781 1cd0 035438E0 		.ascii	"\003T8\340\350l<\357\206Lx\342\013\214`\016 \344xN<"
 5781      E86C3CEF 
 5781      864C78E2 
 5781      0B8C600E 
 5781      20E4784E 
 5782 1ce5 EF04DC06 		.ascii	"\357\004\334\006\002\001`\340\316\030Q\364\356\025\020"
 5782      020160E0 
 5782      CE1851F4 
 5782      EE1510
 5783 1cf4 18F80EDC 		.ascii	"\030\370\016\334!\201\011\002$\340\021\201\006\006\001"
 5783      21810902 
 5783      24E01181 
 5783      060601
 5784 1d03 60E0CF0A 		.ascii	"`\340\317\012@\210\340\306\001X\340\346\001X\300\013"
 5784      4088E0C6 
 5784      0158E0E6 
 5784      0158C00B 
 5785 1d13 0024FC18 		.ascii	"\000$\374\030J<\357\016\234\013\214XTD\357\010\340\013"
 5785      4A3CEF0E 
 5785      9C0B8C58 
 5785      5444EF08 
 5785      E00B
 5786 1d25 A1586F60 		.ascii	"\241Xo`\317v\000\010\340\014\014\374\36280D\377\303"
 5786      CF760008 
 5786      E00C0CFC 
 5786      F2383044 
 5786      FFC3
 5787 1d37 C1048078 		.ascii	"\301\004\200x!\004\340\303\301\033\241\006\002\000\200"
 5787      2104E0C3 
 5787      C11BA106 
 5787      020080
 5788 1d46 0643B4C1 		.ascii	"\006C\264\301\025\002\000\300\004\200\020B\375\023?"
 5788      150200C0 
 5788      04801042 
 5788      FD133F
 5789 1d55 C01EC093 		.ascii	"\300\036\300\223\335\303\301J@\200\340U\204\024\004"
 5789      DDC3C14A 
 5789      4080E055 
 5789      841404
 5790 1d64 A0E11400 		.ascii	"\240\341\024\000\340\341 D\001p\377\300/\240\024\000"
 5790      E0E12044 
 5790      0170FFC0 
 5790      2FA01400 
 5791 1d74 A0E00E06 		.ascii	"\240\340\016\006\001p?\300\017\206\027\360\037\240\037"
 5791      01703FC0 
 5791      0F8617F0 
 5791      1FA01F
 5792 1d83 A40B8293 		.ascii	"\244\013\202\223\335\014\004\014\372\246\001\010\340"
 5792      DD0C040C 
 5792      FAA60108 
 5792      E0
 5793 1d90 486D44EF 		.ascii	"HmD\357\006\016\\\341p\014\260\344\201\201\214\230\310"
ARM GAS  /tmp/ccWHsT5O.s 			page 196


 5793      060E5CE1 
 5793      700CB0E4 
 5793      81818C98 
 5793      C8
 5794 1da1 6D6CEF0A 		.ascii	"ml\357\012\230\000B\361s\377\300\031\302\034\230\245"
 5794      980042F1 
 5794      73FFC019 
 5794      C21C98A5 
 5795 1db1 81840280 		.ascii	"\201\204\002\200\373\027\304\023\216\025\0020\343\033"
 5795      FB17C413 
 5795      8E150230 
 5795      E31B
 5796 1dbf A1D58081 		.ascii	"\241\325\200\201\202\012\021\374\355\245\374u\201\207"
 5796      820A11FC 
 5796      EDA5FC75 
 5796      8187
 5797 1dcd D00040F0 		.ascii	"\320\000@\360\363\017\260\011\304\014\230\014\014\014"
 5797      F30FB009 
 5797      C40C980C 
 5797      0C0C
 5798 1ddb F293DDC3 		.ascii	"\362\223\335\303\301L\004|\372\273\206k\202\024\254"
 5798      C14C047C 
 5798      FABB866B 
 5798      8214AC
 5799 1dea 9B80AB84 		.ascii	"\233\200\253\204\244\000\240\341t\244\033\201\213\210"
 5799      A400A0E1 
 5799      74A41B81 
 5799      8B88
 5800 1df8 65820EAC 		.ascii	"e\202\016\254\013\216\033\214\010l,\357$\254\013\216"
 5800      0B8E1B8C 
 5800      086C2CEF 
 5800      24AC0B8E 
 5801 1e08 1B8CB86E 		.ascii	"\033\214\270n,\357\004\230\021\201!\2031\205\261\203"
 5801      2CEF0498 
 5801      11812183 
 5801      3185B183 
 5802 1e18 284400E8 		.ascii	"(D\000\350\244\002\200\372!\213\006F\374\341\270C\000"
 5802      A40280FA 
 5802      218B0646 
 5802      FCE1B843 
 5802      00
 5803 1e29 E8AB800B 		.ascii	"\350\253\200\013\216\033\224\310C\000\350\011\022\020"
 5803      8E1B94C8 
 5803      4300E809 
 5803      1210
 5804 1e37 E01B9070 		.ascii	"\340\033\220p\022\020\344\370x\374\357\033\200\013\222"
 5804      1210E4F8 
 5804      78FCEF1B 
 5804      800B92
 5805 1e46 184300E8 		.ascii	"\030C\000\350\021\203!\2051\211\013\224XB\000\350\213"
 5805      11832185 
 5805      31890B94 
 5805      584200E8 
 5805      8B
 5806 1e57 800B8E1B 		.ascii	"\200\013\216\033\220hB\000\350p\022P\344\206UX\342\013"
 5806      90684200 
 5806      E8701250 
ARM GAS  /tmp/ccWHsT5O.s 			page 197


 5806      E4865558 
 5806      E20B
 5807 1e69 92187FF0 		.ascii	"\222\030\177\360\357\012\000\000\373\261T\000\300\012"
 5807      EF0A0000 
 5807      FBB15400 
 5807      C00A
 5808 1e77 40A0E0E5 		.ascii	"@\240\340\345\374\021\201!\2051\211\013\220\310@\000"
 5808      FC118121 
 5808      8531890B 
 5808      90C84000 
 5809 1e87 E88B800B 		.ascii	"\350\213\200\013\216\033\220\330@\000\350\216\230L\014"
 5809      8E1B90D8 
 5809      4000E88E 
 5809      984C0C
 5810 1e96 7CF293DD 		.ascii	"|\362\223\335\303\301\037\2452@\200\370\037\206\017"
 5810      C3C11FA5 
 5810      324080F8 
 5810      1F860F
 5811 1ea5 A293DD1E 		.ascii	"\242\223\335\036\200\223\335\026\002x\341\030\204\004"
 5811      8093DD16 
 5811      0278E118 
 5811      8404
 5812 1eb3 80114020 		.ascii	"\200\021@ \340\223\335\303\301\014\004<\372\006Q \342"
 5812      E093DDC3 
 5812      C10C043C 
 5812      FA065120 
 5812      E2
 5813 1ec4 04A0F01E 		.ascii	"\004\240\360\036`\355*\302\033\000\204\340:\300!\202"
 5813      60ED2AC2 
 5813      1B0084E0 
 5813      3AC02182 
 5814 1ed4 1BA1224C 		.ascii	"\033\241\"L\214\361FA\264\301\245\000\000\300\025\210"
 5814      8CF14641 
 5814      B4C1A500 
 5814      00C01588 
 5815 1ee4 090024E0 		.ascii	"\011\000$\340\246B`\341\032\204\007\305\011\202\024"
 5815      A64260E1 
 5815      1A8407C5 
 5815      098214
 5816 1ef3 0080E88A 		.ascii	"\000\200\350\212\000\001l\002\300\021\203\225\202\212"
 5816      00016C02 
 5816      C0118395 
 5816      828A
 5817 1f01 00016C04 		.ascii	"\000\001l\004\300\021\205\365\200\212\000\001l\010\300"
 5817      C01185F5 
 5817      808A0001 
 5817      6C08C0
 5818 1f10 11898602 		.ascii	"\021\211\206\002\000\200\006\000\004\340\270h\360\356"
 5818      00800600 
 5818      04E0B868 
 5818      F0EE
 5819 1f1e 001404EC 		.ascii	"\000\024\004\354y\020H\340d\000\200\373\033\216(h\360"
 5819      791048E0 
 5819      640080FB 
 5819      1B8E2868 
 5819      F0
 5820 1f2f EEC65260 		.ascii	"\356\306R`\341k\200\011\022\201d\001\300\013\241\325"
ARM GAS  /tmp/ccWHsT5O.s 			page 198


 5820      E16B8009 
 5820      12816401 
 5820      C00BA1D5 
 5821 1f3f 80       		.ascii	"\200"
 5822 1f40 01891B8E 		.ascii	"\001\211\033\216hg\360\356c\200f@\004\340X_D\357\013"
 5822      6867F0EE 
 5822      63806640 
 5822      04E0585F 
 5822      44EF0B
 5823 1f53 A155AC04 		.ascii	"\241U\254\004\240)\020X\340t\242\031\000\000\341\011"
 5823      A0291058 
 5823      E074A219 
 5823      0000E109 
 5824 1f63 00C8E019 		.ascii	"\000\310\340\031\206\033\241 D\004\234\011\202\033\245"
 5824      861BA120 
 5824      44049C09 
 5824      821BA5
 5825 1f72 640280FB 		.ascii	"d\002\200\373\006\213\014\000\000\342\006\215\011\020"
 5825      068B0C00 
 5825      00E2068D 
 5825      0910
 5826 1f80 80E01EFC 		.ascii	"\200\340\036\374\033\0228\370\014\215\001\201\033\243"
 5826      1B1238F8 
 5826      0C8D0181 
 5826      1BA3
 5827 1f8e 069D090E 		.ascii	"\006\235\011\016P\300&\211)\020`\340\360\014\020\344"
 5827      50C02689 
 5827      291060E0 
 5827      F00C10E4 
 5828 1f9e 00403CD0 		.ascii	"\000@<\320&\237\006\241\005\022L\345\021\201\006E\000"
 5828      269F06A1 
 5828      05124CE5 
 5828      11810645 
 5828      00
 5829 1faf E006A305 		.ascii	"\340\006\243\005\022P\345\246\261\016\213`\000`\344"
 5829      1250E5A6 
 5829      B10E8B60 
 5829      0060E4
 5830 1fbe 5871F0EE 		.ascii	"Xq\360\356\011\016T\340\376C=p\377\300\036\251\016\247"
 5830      090E54E0 
 5830      FE433D70 
 5830      FFC01EA9 
 5830      0EA7
 5831 1fd0 091210F9 		.ascii	"\011\022\020\371\013\245\366A<\340\016\253\026\000\000"
 5831      0BA5F641 
 5831      3CE00EAB 
 5831      160000
 5832 1fdf 80015E3C 		.ascii	"\200\001^<\200\005\016\030\340\000@\375s\377\307\370"
 5832      80050E18 
 5832      E00040FD 
 5832      73FFC7F8 
 5833 1fef 4600E81B 		.ascii	"F\000\350\033\022\004\370\016\217\013\202\370t\360\357"
 5833      1204F80E 
 5833      8F0B82F8 
 5833      74F0EF
 5834 1ffe 1512F4E2 		.ascii	"\025\022\364\342\016\237\031\206\033\243`\014\360\304"
 5834      0E9F1986 
ARM GAS  /tmp/ccWHsT5O.s 			page 199


 5834      1BA3600C 
 5834      F0C4
 5835 200c DE41FCDF 		.ascii	"\336A\374\337U\214\004\242\005\000\034\340\000@\375"
 5835      558C04A2 
 5835      05001CE0 
 5835      0040FD
 5836 201b 73FFC778 		.ascii	"s\377\307xE\000\350\024\242\016\221\025\002 \340\020"
 5836      4500E814 
 5836      A20E9115 
 5836      0220E010 
 5837 202b 40FD73FF 		.ascii	"@\375s\377\307\350D\000\350\024\242\016\223\025\002"
 5837      C7E84400 
 5837      E814A20E 
 5837      931502
 5838 203a 24E01040 		.ascii	"$\340\020@\375s\377\307XD\000\350\032\244\016\225\013"
 5838      FD73FFC7 
 5838      584400E8 
 5838      1AA40E95 
 5838      0B
 5839 204b 826872F0 		.ascii	"\202hr\360\357\032\246\016\241\013\202\030r\360\357"
 5839      EF1AA60E 
 5839      A10B8218 
 5839      72F0EF
 5840 205a 1AE40EA3 		.ascii	"\032\344\016\243\013\202\310q\360\357\016\245\225\201"
 5840      0B82C871 
 5840      F0EF0EA5 
 5840      9581
 5841 2068 149F0182 		.ascii	"\024\237\001\202\036\331\024\217\025L$\370\013\2415"
 5841      1ED9148F 
 5841      154C24F8 
 5841      0BA135
 5842 2077 FE04A009 		.ascii	"\376\004\240\011\000$\340\012@\210\340\245\204\004\237"
 5842      0024E00A 
 5842      4088E0A5 
 5842      84049F
 5843 2086 1B804873 		.ascii	"\033\200Hs\360\356\024\241\016\237\013\202\370r\360"
 5843      F0EE14A1 
 5843      0E9F0B82 
 5843      F872F0
 5844 2095 EE14A30E 		.ascii	"\356\024\243\016\241\013\202\250r\360\356\024\245\016"
 5844      A10B82A8 
 5844      72F0EE14 
 5844      A50E
 5845 20a3 A30B8258 		.ascii	"\243\013\202Xr\360\356\016\245F\000L\342\360\002\020"
 5845      72F0EE0E 
 5845      A546004C 
 5845      E2F00210 
 5846 20b3 E4285204 		.ascii	"\344(R\004\357v@\004\340\350SD\357\360\036`\345\014"
 5846      EF764004 
 5846      E0E85344 
 5846      EFF01E60 
 5846      E50C
 5847 20c5 0C3CF293 		.ascii	"\014<\362\223\335\303\301L\000\000\372\021\217\370C"
 5847      DDC3C14C 
 5847      0000FA11 
 5847      8FF843
 5848 20d4 24EF4C08 		.ascii	"$\357L\010\000\362\223\335\014\004|\376k\204\265\014"
ARM GAS  /tmp/ccWHsT5O.s 			page 200


 5848      00F293DD 
 5848      0C047CFE 
 5848      6B84B50C 
 5849 20e4 10E0F01E 		.ascii	"\020\340\360\036`\354\036\213\016\211u\014\030\340\211"
 5849      60EC1E8B 
 5849      0E89750C 
 5849      18E089
 5850 20f3 0C24E0A4 		.ascii	"\014$\340\244\332\021\201\013\226\250q\360\356\013\241"
 5850      DA11810B 
 5850      96A871F0 
 5850      EE0BA1
 5851 2102 15821498 		.ascii	"\025\202\024\230\013\226\310q\360\356\013\241\265L\000"
 5851      0B96C871 
 5851      F0EE0BA1 
 5851      B54C00
 5852 2111 C011810B 		.ascii	"\300\021\201\013\224\330p\360\356\013\241\224\230\005"
 5852      94D870F0 
 5852      EE0BA194 
 5852      9805
 5853 211f 1E14C0BE 		.ascii	"\036\024\300\276\374u\202\013\224\033\2228q\360\356"
 5853      FC75820B 
 5853      941B9238 
 5853      71F0EE
 5854 212e 0BA1048B 		.ascii	"\013\241\004\213\240R\000\334\245L\000\300\256\376\253"
 5854      A05200DC 
 5854      A54C00C0 
 5854      AEFEAB
 5855 213d 8087C215 		.ascii	"\200\207\302\025\024 \376\013\222\230m\360\356\233\200"
 5855      1420FE0B 
 5855      92986DF0 
 5855      EE9B80
 5856 214c 0B1444E0 		.ascii	"\013\024D\340\310m\360\356\273\200\013\222\033\2268"
 5856      C86DF0EE 
 5856      BB800B92 
 5856      1B9638
 5857 215b 6FF0EE0B 		.ascii	"o\360\356\013\241\220V\000\234\013\226\030n\360\356"
 5857      A1905600 
 5857      9C0B9618 
 5857      6EF0EE
 5858 216a A01288E4 		.ascii	"\240\022\210\344\253\200\001\201{\241v\003q{4\316\254"
 5858      AB800181 
 5858      7BA17603 
 5858      717B34CE 
 5858      AC
 5859 217b D8014C20 		.ascii	"\330\001L \340e\210{\243\006\002\001\000\300\317\325"
 5859      E065887B 
 5859      A3060201 
 5859      00C0CFD5 
 5860 218b 860B96D8 		.ascii	"\206\013\226\330l\360\356{\200\250k\360\356\033\200"
 5860      6CF0EE7B 
 5860      80A86BF0 
 5860      EE1B80
 5861 219a 0B96E86B 		.ascii	"\013\226\350k\360\356HJ\000\350v\003q{4\316xl\360\356"
 5861      F0EE484A 
 5861      00E87603 
 5861      717B34CE 
 5861      786CF0EE 
ARM GAS  /tmp/ccWHsT5O.s 			page 201


 5862 21ae 0BA12584 		.ascii	"\013\241%\204\021\201\013\226\330l\360\356\013\241p"
 5862      11810B96 
 5862      D86CF0EE 
 5862      0BA170
 5863 21bd 14048470 		.ascii	"\024\004\204pT\000\334u\201\013\226Hi\360\356\350j\360"
 5863      5400DC75 
 5863      810B9648 
 5863      69F0EEE8 
 5863      6AF0
 5864 21cf EEAB80AC 		.ascii	"\356\253\200\254\330\012\244\230i\360\356{\220\204\213"
 5864      D80AA498 
 5864      69F0EE7B 
 5864      90848B
 5865 21de 9B80838E 		.ascii	"\233\200\203\216\013\020@\340\030i\360\356\273\200\244"
 5865      0B1040E0 
 5865      1869F0EE 
 5865      BB80A4
 5866 21ed 0080FBC8 		.ascii	"\000\200\373\310h\360\356\033\200\013\226\210p\360\357"
 5866      68F0EE1B 
 5866      800B9688 
 5866      70F0EF
 5867 21fc 1B800B92 		.ascii	"\033\200\013\222\250q\360\357(i\360\356\273\200\004"
 5867      A871F0EF 
 5867      2869F0EE 
 5867      BB8004
 5868 220b 89BCD873 		.ascii	"\211\274\330s\200\233\016\270\341\234\332\013\020L\340"
 5868      809B0EB8 
 5868      E19CDA0B 
 5868      104CE0
 5869 221a 7867F0EE 		.ascii	"xg\360\356\253\200\013\020H\340\216\276\030g\360\356"
 5869      AB800B10 
 5869      48E08EBE 
 5869      1867F0EE 
 5870 222a 8B800B92 		.ascii	"\213\200\013\222\330f\360\356\033\200\013\220\230n\360"
 5870      D866F0EE 
 5870      1B800B90 
 5870      986EF0
 5871 2239 EF1B800B 		.ascii	"\357\033\200\013\224\270o\360\3578g\360\356\204\374"
 5871      94B86FF0 
 5871      EF3867F0 
 5871      EE84FC
 5872 2248 A4FE9B80 		.ascii	"\244\376\233\200\033\220\013\224\234\3328f\360\356\230"
 5872      1B900B94 
 5872      9CDA3866 
 5872      F0EE98
 5873 2257 4400E811 		.ascii	"D\000\350\021\201(g\360\356\013\241\345\216\021\201"
 5873      812867F0 
 5873      EE0BA1E5 
 5873      8E1181
 5874 2266 0B904866 		.ascii	"\013\220Hf\360\356p\016p\347$\2114\213*\000\000\340"
 5874      F0EE700E 
 5874      70E72489 
 5874      348B2A00 
 5874      00E0
 5875 2278 0B961B92 		.ascii	"\013\226\033\222\250k\024\357\233\200h\001\001@\000"
 5875      A86B14EF 
 5875      9B806801 
ARM GAS  /tmp/ccWHsT5O.s 			page 202


 5875      014000
 5876 2287 C00B901B 		.ascii	"\300\013\220\033\222\250e\360\356\013\241\305\202\011"
 5876      92A865F0 
 5876      EE0BA1C5 
 5876      8209
 5877 2295 0C20E01A 		.ascii	"\014 \340\032\330\013\241\013\216\005\036\004\300\021"
 5877      D80BA10B 
 5877      8E051E04 
 5877      C011
 5878 22a3 821CD800 		.ascii	"\202\034\330\000\000\220\304\012\200\014\332\021\201"
 5878      0090C40A 
 5878      800CDA11 
 5878      81
 5879 22b0 0B94F863 		.ascii	"\013\224\370c\360\356\013\241\225\204\013\224\033\222"
 5879      F0EE0BA1 
 5879      95840B94 
 5879      1B92
 5880 22be 9864F0EE 		.ascii	"\230d\360\356\013\241\305\202\011\014 \340\032\330\013"
 5880      0BA1C582 
 5880      090C20E0 
 5880      1AD80B
 5881 22cd A1751E04 		.ascii	"\241u\036\004\300\020\000\004\354\014\330p\016\230\304"
 5881      C0100004 
 5881      EC0CD870 
 5881      0E98C4
 5882 22dc 0A9C0CDA 		.ascii	"\012\234\014\332\361\260\014\014|\366\223\335L\004\004"
 5882      F1B00C0C 
 5882      7CF693DD 
 5882      4C0404
 5883 22eb FA11816B 		.ascii	"\372\021\201k\200\010c\360\356{\200\006\000\001`\000"
 5883      800863F0 
 5883      EE7B8006 
 5883      00016000 
 5884 22fb E01B8CD8 		.ascii	"\340\033\214\330`\360\356{\241\000L\000\334\013\214"
 5884      60F0EE7B 
 5884      A1004C00 
 5884      DC0B8C
 5885 230a 4C0C04F2 		.ascii	"L\014\004\362\223\335\014\004\014\372FL\220\341T\230"
 5885      93DD0C04 
 5885      0CFA464C 
 5885      90E15498 
 5886 231a 06000160 		.ascii	"\006\000\001`\000\360\006\002\001`\000\340RD\000\370"
 5886      00F00602 
 5886      016000E0 
 5886      524400F8 
 5887 232a 2B83449A 		.ascii	"+\203D\2324\330$\3325\210\306Y\000\342t\260W\341Y\276"
 5887      34D824DA 
 5887      3588C659 
 5887      00E274B0 
 5887      57E159BE 
 5888 233e 890E50E1 		.ascii	"\211\016P\341\200P\200\363\217\252\201NP\341T\260x\232"
 5888      805080F3 
 5888      8FAA814E 
 5888      50E154B0 
 5888      789A
 5889 2350 890A40E1 		.ascii	"\211\012@\341y\276\200P\200\363\217\256\201J@\341T\260"
 5889      79BE8050 
ARM GAS  /tmp/ccWHsT5O.s 			page 203


 5889      80F38FAE 
 5889      814A40E1 
 5889      54B0
 5890 2362 C898790A 		.ascii	"\310\230y\012\020\341\311\236pN\300\363\177\270qJ\020"
 5890      10E1C99E 
 5890      704EC0F3 
 5890      7FB8714A 
 5890      10
 5891 2373 E14F804B 		.ascii	"\341O\200K\203U\212\306I\000\342T\220\304\232y\012\000"
 5891      83558AC6 
 5891      4900E254 
 5891      90C49A79 
 5891      0A00
 5892 2385 E1C7C9C0 		.ascii	"\341\307\311\300X\300\363y\236\177\270qJ\000\341T\220"
 5892      58C0F379 
 5892      9E7FB871 
 5892      4A00E154 
 5892      90
 5893 2396 C90C10E0 		.ascii	"\311\014\020\340y\012\000\341\311\236pN\300\363\177"
 5893      790A00E1 
 5893      C99E704E 
 5893      C0F37F
 5894 23a5 B8714A00 		.ascii	"\270qJ\000\341T\232PX\001p\000\337\313\241\205\202E"
 5894      E1549A50 
 5894      58017000 
 5894      DFCBA185 
 5894      8245
 5895 23b7 0814F857 		.ascii	"\010\024\370W\341Y\276\311\010\320\342\300X\200\363"
 5895      E159BEC9 
 5895      08D0E2C0 
 5895      5880F3
 5896 23c6 CFAAC148 		.ascii	"\317\252\301H\320\342?\200;\203u\2104\330\006\010\001"
 5896      D0E23F80 
 5896      3B837588 
 5896      34D80608 
 5896      01
 5897 23d7 60C0C74F 		.ascii	"`\300\307O\206K\241\305\202\206H\000\342D\2207\3619"
 5897      864BA1C5 
 5897      82864800 
 5897      E2449037 
 5897      F139
 5898 23e9 BE5908E0 		.ascii	"\276Y\010\340\342PJ\200\363_\246QH\340\3424\330\012"
 5898      E2504A80 
 5898      F35FA651 
 5898      48E0E234 
 5898      D80A
 5899 23fb 067CF885 		.ascii	"\006|\370\205\202\306I\000\342D\2209\276Y\010\020\343"
 5899      82C64900 
 5899      E2449039 
 5899      BE590810 
 5899      E3
 5900 240c 504A80F3 		.ascii	"PJ\200\363_\246QH\020\343/\200+\203u\204\004\332\000"
 5900      5FA65148 
 5900      10E32F80 
 5900      2B837584 
 5900      04DA00
 5901 241f 4201700F 		.ascii	"B\001p\017\300\033\241\245\202\306C\000\342\024\204"
ARM GAS  /tmp/ccWHsT5O.s 			page 204


 5901      C01BA1A5 
 5901      82C64300 
 5901      E21484
 5902 242e 07C90040 		.ascii	"\007\311\000@\300\363)\002p\342)\236/\240!Bp\342\013"
 5902      C0F32902 
 5902      70E2299E 
 5902      2FA02142 
 5902      70E20B
 5903 2441 0C20E000 		.ascii	"\014 \340\000B\001p\003\300\012\002\001`\002\300\265"
 5903      42017003 
 5903      C00A0201 
 5903      6002C0B5 
 5904 2451 820042FC 		.ascii	"\202\000B\374\360\033\241\006@Q\000 \300\206\004\000"
 5904      F01BA106 
 5904      40510020 
 5904      C0860400 
 5905 2461 C00606F0 		.ascii	"\300\006\006\360\303\330h\354\317\033\0140\340\020@"
 5905      C3D868EC 
 5905      CF1B0C30 
 5905      E01040
 5906 2470 017003C0 		.ascii	"\001p\003\300\012\000\001`\002\300\020B|\220\006AH\202"
 5906      0A000160 
 5906      02C01042 
 5906      7C900641 
 5906      4882
 5907 2482 15405881 		.ascii	"\025@X\201\330]P\217\033\0148\340\020@\001p\003\300"
 5907      D85D508F 
 5907      1B0C38E0 
 5907      10400170 
 5907      03C0
 5908 2494 0A000160 		.ascii	"\012\000\001`\002\300\001\201\020B|\220\306\000`\202"
 5908      02C00181 
 5908      10427C90 
 5908      C6006082 
 5909 24a4 15400080 		.ascii	"\025@\000\200\026\000\000\200V\002`\342\006\204\014"
 5909      16000080 
 5909      560260E2 
 5909      06840C
 5910 24b3 0C0CF293 		.ascii	"\014\014\362\223\335\014\004\004\372\360\036\020\355"
 5910      DD0C0404 
 5910      FAF01E10 
 5910      ED
 5911 24c0 E60104E0 		.ascii	"\346\001\004\340\250s@\357\013\241u\216N\014\001`\020"
 5911      A87340EF 
 5911      0BA1758E 
 5911      4E0C0160 
 5911      10
 5912 24d1 C008980B 		.ascii	"\300\010\230\013\241%\216\360\000\020\344\021\201\006"
 5912      A1258EF0 
 5912      0010E411 
 5912      8106
 5913 24df 0404E071 		.ascii	"\004\004\340q\201(H\360\356\016\000\001x\254\317\016"
 5913      812848F0 
 5913      EE0E0001 
 5913      78ACCF0E 
 5914 24ef 8F0E9106 		.ascii	"\217\016\221\006\000\001p\226\317\016\223\006@\220\341"
 5914      00017096 
ARM GAS  /tmp/ccWHsT5O.s 			page 205


 5914      CF0E9306 
 5914      4090E1
 5915 24fe 04800E02 		.ascii	"\004\200\016\002\001`l\317\036\225\366C<\340J@\200\340"
 5915      01606CCF 
 5915      1E95F643 
 5915      3CE04A40 
 5915      80E0
 5916 2510 1E991E9F 		.ascii	"\036\231\036\237\026\002\000\300\021^\020\300\012@\204"
 5916      160200C0 
 5916      115E10C0 
 5916      0A4084
 5917 251f E0258206 		.ascii	"\340%\202\006\000\001`\300\317v\211\016\217\016\221"
 5917      000160C0 
 5917      CF76890E 
 5917      8F0E91
 5918 252e 7E937E95 		.ascii	"~\223~\225\306AP\342\360\002\020\344v\230\350H\000\357"
 5918      C64150E2 
 5918      F00210E4 
 5918      7698E848 
 5918      00EF
 5919 2540 F60104E0 		.ascii	"\366\001\004\340\250o@\357\360\036\020\345\014\014\004"
 5919      A86F40EF 
 5919      F01E10E5 
 5919      0C0C04
 5920 254f F293DDC3 		.ascii	"\362\223\335\303\301\014\004\204\372\006\016p\341k\200"
 5920      C10C0484 
 5920      FA060E70 
 5920      E16B80
 5921 255e 090E8561 		.ascii	"\011\016\205a\001\300k\243U\204J\000\374\373\345\202"
 5921      01C06BA3 
 5921      55844A00 
 5921      FCFBE582 
 5922 256e 464120E2 		.ascii	"FA \342\024\202\030\204\031\206\033\245\005\202\004"
 5922      14821884 
 5922      19861BA5 
 5922      058204
 5923 257d 80090020 		.ascii	"\200\011\000 \341J@\200\340\330_8\317\011\016\205a\001"
 5923      E14A4080 
 5923      E0D85F38 
 5923      CF090E85 
 5923      6101
 5924 258f C06BA5B5 		.ascii	"\300k\245\265\216\012\000\004\360U\216FA \342\024\202"
 5924      8E0A0004 
 5924      F0558E46 
 5924      4120E214 
 5924      82
 5925 25a0 18841986 		.ascii	"\030\204\031\206\033\245e\214\004\200\011\000 \341J"
 5925      1BA5658C 
 5925      04800900 
 5925      20E14A
 5926 25af 4080E0A5 		.ascii	"@\200\340\245\212\005\016\214\344\013\243\365\200\011"
 5926      8A050E8C 
 5926      E40BA3F5 
 5926      8009
 5927 25bd 0EC17901 		.ascii	"\016\301y\001\300J@\200\340\245\200\014\014\204\362"
 5927      C04A4080 
 5927      E0A5800C 
ARM GAS  /tmp/ccWHsT5O.s 			page 206


 5927      0C84F2
 5928 25cc A81D38FF 		.ascii	"\250\0358\377\306A(\342\031\000\324\345\306\004\004"
 5928      C64128E2 
 5928      1900D4E5 
 5928      C60404
 5929 25db E016420A 		.ascii	"\340\026B\012\340\023\200\013\002$\341)\002D\342\003"
 5929      E013800B 
 5929      0224E129 
 5929      0244E203 
 5930 25eb 4E08F80B 		.ascii	"N\010\370\013\002(\341)\276&\234\014\236\013\002,\341"
 5930      0228E129 
 5930      BE269C0C 
 5930      9E0B022C 
 5930      E1
 5931 25fc 2B0230E1 		.ascii	"+\0020\341\033\0024\341\014\334,\336\023N\020\340\014"
 5931      1B0234E1 
 5931      0CDC2CDE 
 5931      134E10E0 
 5931      0C
 5932 260d 0C84F293 		.ascii	"\014\204\362\223\335\303\301L\000\000\372\306\001\004"
 5932      DDC3C14C 
 5932      0000FAC6 
 5932      0104
 5933 261b E0E86840 		.ascii	"\340\350h@\357\013\241\265\212\206A \342\024\200\026"
 5933      EF0BA1B5 
 5933      8A864120 
 5933      E2148016 
 5934 262b 0400F02E 		.ascii	"\004\000\360.\276+\002p\340;\002l\340\031\000(\340!"
 5934      BE2B0270 
 5934      E03B026C 
 5934      E0190028 
 5934      E021
 5935 263d 8223A624 		.ascii	"\202#\246$\000\200\373ho\354\356\212\000\005f\002\300"
 5935      0080FB68 
 5935      6FECEE8A 
 5935      00056602 
 5935      C0
 5936 264e 01817582 		.ascii	"\001\201u\202\006\211F\001\270\341\004\200\013\241\001"
 5936      06894601 
 5936      B8E10480 
 5936      0BA101
 5937 265d 85460000 		.ascii	"\205F\000\000\300\006\215\001\203\306Cd\341\006\204"
 5937      C0068D01 
 5937      83C64364 
 5937      E10684
 5938 266c 0183068F 		.ascii	"\001\203\006\217F\000T\342\360\002\020\344\210E\004"
 5938      460054E2 
 5938      F00210E4 
 5938      884504
 5939 267b EF4C0800 		.ascii	"\357L\010\000\362\223\335\303\301\014\004\374\372{\202"
 5939      F293DDC3 
 5939      C10C04FC 
 5939      FA7B82
 5940 268a 7BA16B80 		.ascii	"{\241k\200\305\252\024\234\306\005X\341;\016\020\340"
 5940      C5AA149C 
 5940      C60558E1 
 5940      3B0E10E0 
ARM GAS  /tmp/ccWHsT5O.s 			page 207


 5941 269a 1E88190E 		.ascii	"\036\210\031\016`\340)\016\020\340\206A \342\033\241"
 5941      60E0290E 
 5941      10E08641 
 5941      20E21BA1 
 5942 26aa 064258E1 		.ascii	"\006BX\341&\204+\014x\200K\016\034\340\264\200#N\014"
 5942      26842B0C 
 5942      78804B0E 
 5942      1CE0B480 
 5942      234E0C
 5943 26bd 802B0E0C 		.ascii	"\200+\016\014\300\211\000(\340\011\016@\340,\206FBX"
 5943      C0890028 
 5943      E0090E40 
 5943      E02C8646 
 5943      4258
 5944 26cf E13C842B 		.ascii	"\341<\204+\016\024\340;\016\030\340L\306,\206<\304\033"
 5944      0E14E03B 
 5944      0E18E04C 
 5944      C62C863C 
 5944      C41B
 5945 26e1 1670E02B 		.ascii	"\026p\340+\026l\340\306TX\341\021\202\022R\210\361\006"
 5945      166CE0C6 
 5945      5458E111 
 5945      82125288 
 5945      F106
 5946 26f3 A8940080 		.ascii	"\250\224\000\200\373\033\220\270i\354\356\212\000\005"
 5946      FB1B90B8 
 5946      69ECEE8A 
 5946      0005
 5947 2701 6602C035 		.ascii	"f\002\3005\202F\001\270\341\004\200\013\241\204\020"
 5947      824601B8 
 5947      E104800B 
 5947      A18410
 5948 2710 88C08410 		.ascii	"\210\300\204\020\204\200\013\222\033\220\270h\354\356"
 5948      84800B92 
 5948      1B90B868 
 5948      ECEE
 5949 271e 1B1678E0 		.ascii	"\033\026x\340+\026t\340\014\252\021\202\022@\210\361"
 5949      2B1674E0 
 5949      0CAA1182 
 5949      124088F1 
 5950 272e 1B900868 		.ascii	"\033\220\010h\354\356\025\016\024\340\014\350FAX\341"
 5950      ECEE150E 
 5950      14E00CE8 
 5950      464158E1 
 5951 273e 1E802641 		.ascii	"\036\200&AX\341\021\203\026\2006AX\341\026\200`\000"
 5951      58E11183 
 5951      16803641 
 5951      58E11680 
 5951      6000
 5952 2750 40E44643 		.ascii	"@\344FCX\341XS\030\357FA(\342\021\201\026\200`\000\240"
 5952      58E15853 
 5952      18EF4641 
 5952      28E21181 
 5952      16806000 
 5953 2765 E4464328 		.ascii	"\344FC(\342\370Y\034\357`\000\340\344\021\207(n\370"
 5953      E2F8591C 
 5953      EF6000E0 
ARM GAS  /tmp/ccWHsT5O.s 			page 208


 5953      E4118728 
 5953      6EF8
 5954 2777 EF600030 		.ascii	"\357`\0000\344\006BX\341\310|\024\357`\000\260\344F"
 5954      E4064258 
 5954      E1C87C14 
 5954      EF6000B0 
 5954      E446
 5955 2789 4328E2E8 		.ascii	"C(\342\350X\034\357`\000p\344&CX\341\010n\034\357`\000"
 5955      581CEF60 
 5955      0070E426 
 5955      4358E108 
 5955      6E1CEF60 
 5956 279e 80E4C642 		.ascii	"\200\344\306BX\341\350U \3576CX\341\013\214\330A\000"
 5956      58E1E855 
 5956      20EF3643 
 5956      58E10B8C 
 5956      D84100
 5957 27b1 EF6000C0 		.ascii	"\357`\000\300\344FC(\342xW\034\357`\000\320\344\021"
 5957      E4464328 
 5957      E278571C 
 5957      EF6000D0 
 5957      E411
 5958 27c3 83E84400 		.ascii	"\203\350D\000\357\001\203xLL\357`\000\020\344\306\003"
 5958      EF018378 
 5958      4C4CEF60 
 5958      0010E4C6 
 5958      03
 5959 27d4 58E19842 		.ascii	"X\341\230B\000\357`\000P\344FBX\341\014\014\374\362"
 5959      00EF6000 
 5959      50E44642 
 5959      58E10C0C 
 5959      FCF2
 5960 27e6 181418FF 		.ascii	"\030\024\030\377`\000P\344\021\201\310S\030\357`\000"
 5960      600050E4 
 5960      1181C853 
 5960      18EF6000 
 5961 27f6 10E41181 		.ascii	"\020\344\021\201xA\000\357`\000\300\344\021\201(U\034"
 5961      784100EF 
 5961      6000C0E4 
 5961      11812855 
 5961      1C
 5962 2807 EF018178 		.ascii	"\357\001\201xJL\357`\000\320\344\021\201hB\000\357\021"
 5962      4A4CEF60 
 5962      00D0E411 
 5962      81684200 
 5962      EF11
 5963 2819 810B8C68 		.ascii	"\201\013\214h~\374\356`\000\200\344\021\201\330Q \357"
 5963      7EFCEE60 
 5963      0080E411 
 5963      81D85120 
 5963      EF
 5964 282a 600070E4 		.ascii	"`\000p\344\021\201Hi\034\357`\000\260\344\021\201xS"
 5964      11814869 
 5964      1CEF6000 
 5964      B0E41181 
 5964      7853
 5965 283c 1CEF6000 		.ascii	"\034\357`\0000\344\021\201\250v\024\357`\000\340\344"
ARM GAS  /tmp/ccWHsT5O.s 			page 209


 5965      30E41181 
 5965      A87614EF 
 5965      6000E0E4 
 5966 284c 11815867 		.ascii	"\021\201Xg\370\357`\000\240\344\021\201\210R\034\357"
 5966      F8EF6000 
 5966      A0E41181 
 5966      88521CEF 
 5967 285c 600040E4 		.ascii	"`\000@\344\021\201\014\014\374\362\330\012\030\377\303"
 5967      11810C0C 
 5967      FCF2D80A 
 5967      18FFC3
 5968 286b C10C048C 		.ascii	"\301\014\004\214\376k\200\006@\004\340\030V@\357\013"
 5968      FE6B8006 
 5968      4004E018 
 5968      5640EF0B 
 5969 287b A1D59486 		.ascii	"\241\325\224\206O \342\004\234jL\200\340i\016(\340\033"
 5969      4F20E204 
 5969      9C6A4C80 
 5969      E0690E28 
 5969      E01B
 5970 288d 0070E00B 		.ascii	"\000p\340\013\000l\340\021\202\023\240\024\000\200\373"
 5970      006CE011 
 5970      8213A014 
 5970      0080FB
 5971 289c 1B8C985C 		.ascii	"\033\214\230\\\354\356\006\003Ib \300$\204\212\000\005"
 5971      ECEE0603 
 5971      496220C0 
 5971      24848A00 
 5971      05
 5972 28ad 6602C024 		.ascii	"f\002\300$\004 \374.\204$\204$\004\000\374 D\005\\\000"
 5972      0420FC2E 
 5972      84248424 
 5972      0400FC20 
 5972      44055C00 
 5973 28c1 802E8435 		.ascii	"\200.\2045\202F\001\270\341\004\200\013\241d\014\210"
 5973      824601B8 
 5973      E104800B 
 5973      A1640C88 
 5974 28d1 C0640C84 		.ascii	"\300d\014\204\200\004\234\033\214\013\000l\340\230Z"
 5974      80049C1B 
 5974      8C0B006C 
 5974      E0985A
 5975 28e0 ECEE0650 		.ascii	"\354\356\006PIb \300\016\240\004\234\033\214\013\000"
 5975      496220C0 
 5975      0EA0049C 
 5975      1B8C0B00 
 5976 28f0 74E0F859 		.ascii	"t\340\370Y\354\356\016\242\004\234\033\000p\340\013"
 5976      ECEE0EA2 
 5976      049C1B00 
 5976      70E00B
 5977 28ff 006CE011 		.ascii	"\000l\340\021\202\022@\200\361\033\2148Y\354\356\016"
 5977      82124080 
 5977      F11B8C38 
 5977      59ECEE0E 
 5978 290f E0049C1B 		.ascii	"\340\004\234\033\000x\340\013\000t\340\021\202\022@"
 5978      0078E00B 
 5978      0074E011 
ARM GAS  /tmp/ccWHsT5O.s 			page 210


 5978      821240
 5979 291e 80F11B8C 		.ascii	"\200\361\033\214xX\354\356\016\342\026@\004\340\014"
 5979      7858ECEE 
 5979      0EE21640 
 5979      04E00C
 5980 292d 0C8CF648 		.ascii	"\014\214\366H\020@\377\014\004\000\372\306\015\\\342"
 5980      1040FF0C 
 5980      0400FAC6 
 5980      0D5CE2
 5981 293c 049AD860 		.ascii	"\004\232\330`\374\356\006\000\014\341\004\200\006B\000"
 5981      FCEE0600 
 5981      0CE10480 
 5981      064200
 5982 294b E01E8014 		.ascii	"\340\036\200\024\230`\000 \344\250K\374\356\001\201"
 5982      98600020 
 5982      E4A84BFC 
 5982      EE0181
 5983 295a 014C94E0 		.ascii	"\001L\224\340\001L\240\340\014\014\000\362\223\335\026"
 5983      014CA0E0 
 5983      0C0C00F2 
 5983      93DD16
 5984 2969 8093DD30 		.ascii	"\200\223\3350\251\000\000\250\347@\000\310\003\214\340"
 5984      A90000A8 
 5984      E74000C8 
 5984      038CE0
 5985 2978 F8744000 		.ascii	"\370t@\000\250\"\304\340\020\225@\000($\264\340@\314"
 5985      A822C4E0 
 5985      10954000 
 5985      2824B4E0 
 5985      40CC
 5986 298a 4000A805 		.ascii	"@\000\250\005\234\340\220\372@\000\310\021\204\340("
 5986      9CE090FA 
 5986      4000C811 
 5986      84E028
 5987 2999 014100C8 		.ascii	"\001A\000\310%\200\340P\244@\000\010\020\260\340\310"
 5987      2580E050 
 5987      A4400008 
 5987      10B0E0C8 
 5988 29a9 46400008 		.ascii	"F@\000\010?\334\340`\013A\000\210(|\340p\316@\000\010"
 5988      3FDCE060 
 5988      0B410088 
 5988      287CE070 
 5988      CE400008 
 5989 29bd 1A9CE0A0 		.ascii	"\032\234\340\240n@\000\210\037\314\340H\021A\000\350"
 5989      6E400088 
 5989      1FCCE048 
 5989      114100E8 
 5990 29cd 107CE070 		.ascii	"\020|\340p\000A\000\010\035\204\340\230\374@\000H\002"
 5990      00410008 
 5990      1D84E098 
 5990      FC400048 
 5990      02
 5991 29de 88E070EA 		.ascii	"\210\340p\352@\000h\031\220\340\230\021A\000\350\020"
 5991      40006819 
 5991      90E09811 
 5991      4100E810 
 5992 29ee 7CE0E0A3 		.ascii	"|\340\340\243@\000h\023\264\340\270\371@\000H\003\214"
ARM GAS  /tmp/ccWHsT5O.s 			page 211


 5992      40006813 
 5992      B4E0B8F9 
 5992      40004803 
 5992      8C
 5993 29ff E0B07140 		.ascii	"\340\260q@\000\350\012\320\340\310\370@\000H$\214\340"
 5993      00E80AD0 
 5993      E0C8F840 
 5993      0048248C 
 5993      E0
 5994 2a10 186B4000 		.ascii	"\030k@\000\210\030\324\340(k@\000\350\030\324\340Hu"
 5994      8818D4E0 
 5994      286B4000 
 5994      E818D4E0 
 5994      4875
 5995 2a22 4000E808 		.ascii	"@\000\350\010\320\340\350\206@\000\010>\304\340(\026"
 5995      D0E0E886 
 5995      4000083E 
 5995      C4E02816 
 5996 2a32 41006808 		.ascii	"A\000h\010\200\340\220\025A\000(\020\200\340\320\315"
 5996      80E09015 
 5996      41002810 
 5996      80E0D0CD 
 5997 2a42 40006810 		.ascii	"@\000h\020\244\340\310u@\000\310\025\320\340`\225@\000"
 5997      A4E0C875 
 5997      4000C815 
 5997      D0E06095 
 5997      4000
 5998 2a54 A819C0E0 		.ascii	"\250\031\300\340p\327@\000(\020\240\340\000(@\000\010"
 5998      70D74000 
 5998      2810A0E0 
 5998      00284000 
 5998      08
 5999 2a65 2AF8E098 		.ascii	"*\370\340\230}@\000H\002\320\340\210\375@\000\010\000"
 5999      7D400048 
 5999      02D0E088 
 5999      FD400008 
 5999      00
 6000 2a76 90E0E8F2 		.ascii	"\220\340\350\362@\000H=\220\340\330\257@\000\350\033"
 6000      4000483D 
 6000      90E0D8AF 
 6000      4000E81B 
 6001 2a86 B0E0E859 		.ascii	"\260\340\350Y@\000(&\340\340 \010A\000\310\010\204\340"
 6001      40002826 
 6001      E0E02008 
 6001      4100C808 
 6001      84E0
 6002 2a98 D8B04000 		.ascii	"\330\260@\000(\032\260\340\020\206@\000\210\033\304"
 6002      281AB0E0 
 6002      10864000 
 6002      881BC4
 6003 2aa7 E0B8E540 		.ascii	"\340\270\345@\000(\010\234\340pR@\000h3\344\340h\005"
 6003      0028089C 
 6003      E0705240 
 6003      006833E4 
 6003      E06805
 6004 2aba 4100482D 		.ascii	"A\000H-\214\3408\371@\000\350 \224\340\300\341@\000"
 6004      8CE038F9 
ARM GAS  /tmp/ccWHsT5O.s 			page 212


 6004      4000E820 
 6004      94E0C0E1 
 6004      4000
 6005 2acc A822A0E0 		.ascii	"\250\"\240\340\020\344@\000H\005\240\340\260\301@\000"
 6005      10E44000 
 6005      4805A0E0 
 6005      B0C14000 
 6006 2adc A826B0E0 		.ascii	"\250&\260\340@\342@\000h1\240\340\360\015A\000(\032"
 6006      40E24000 
 6006      6831A0E0 
 6006      F00D4100 
 6006      281A
 6007 2aee 8CE000B9 		.ascii	"\214\340\000\271\000\000r\023\000\000"
 6007      00007213 
 6007      0000
 6008              		.section	.rodata
 6009              		.align	2
 6010              		.set	.LANCHOR0,. + 0
 6011              	.LC0:
 6012 0000 01000000 		.word	1
 6013 0004 02000000 		.word	2
 6014 0008 04000000 		.word	4
 6015              		.text
 6016              	.Letext0:
 6017              		.file 2 "/home/tanjiajun2002/renesas/rzv/e2studio_v2025-01_fsp_v3.1.0/toolchains/gcc_arm/arm-gnu-t
 6018              		.file 3 "/home/tanjiajun2002/renesas/rzv/e2studio_v2025-01_fsp_v3.1.0/toolchains/gcc_arm/arm-gnu-t
 6019              		.file 4 "/home/tanjiajun2002/renesas/rzv/e2studio_v2025-01_fsp_v3.1.0/toolchains/gcc_arm/arm-gnu-t
 6020              		.file 5 "Lib/Camera_Middleware/sensors/vd6g/vd6g.h"
 6021              		.file 6 "Lib/Camera_Middleware/sensors/vd6g/vd6g_patch.c"
 6022              		.file 7 "Lib/Camera_Middleware/sensors/vd6g/vd6g_vtpatch.c"
 6023              		.file 8 "/home/tanjiajun2002/renesas/rzv/e2studio_v2025-01_fsp_v3.1.0/toolchains/gcc_arm/arm-gnu-t
 6024              		.file 9 "<built-in>"
ARM GAS  /tmp/ccWHsT5O.s 			page 213


DEFINED SYMBOLS
                            *ABS*:00000000 vd6g.c
     /tmp/ccWHsT5O.s:26     .text.VD6G_error:00000000 $t
     /tmp/ccWHsT5O.s:31     .text.VD6G_error:00000000 VD6G_error
     /tmp/ccWHsT5O.s:83     .text.VD6G_notice:00000000 $t
     /tmp/ccWHsT5O.s:88     .text.VD6G_notice:00000000 VD6G_notice
     /tmp/ccWHsT5O.s:147    .text.display_error:00000000 $t
     /tmp/ccWHsT5O.s:152    .text.display_error:00000000 display_error
     /tmp/ccWHsT5O.s:214    .text.display_error:00000030 $d
     /tmp/ccWHsT5O.s:4780   .rodata.__func__.29:00000000 __func__.29
     /tmp/ccWHsT5O.s:225    .text.VD6G_PollReg8:00000000 $t
     /tmp/ccWHsT5O.s:230    .text.VD6G_PollReg8:00000000 VD6G_PollReg8
     /tmp/ccWHsT5O.s:332    .text.VD6G_PollReg8:00000058 $d
     /tmp/ccWHsT5O.s:4785   .rodata.__func__.30:00000000 __func__.30
     /tmp/ccWHsT5O.s:338    .text.VD6G_SetExposureModeInternal:00000000 $t
     /tmp/ccWHsT5O.s:343    .text.VD6G_SetExposureModeInternal:00000000 VD6G_SetExposureModeInternal
     /tmp/ccWHsT5O.s:409    .text.VD6G_SetExposureModeInternal:00000038 $d
     /tmp/ccWHsT5O.s:4710   .rodata.__func__.15:00000000 __func__.15
     /tmp/ccWHsT5O.s:415    .text.VD6G_SetFlicker:00000000 $t
     /tmp/ccWHsT5O.s:420    .text.VD6G_SetFlicker:00000000 VD6G_SetFlicker
     /tmp/ccWHsT5O.s:487    .text.VD6G_SetFlicker:0000003c $d
     /tmp/ccWHsT5O.s:4594   .rodata.CSWTCH.85:00000000 CSWTCH.85
     /tmp/ccWHsT5O.s:4695   .rodata.__func__.12:00000000 __func__.12
     /tmp/ccWHsT5O.s:496    .text.VD6G_GetLineTimeInUs:00000000 $t
     /tmp/ccWHsT5O.s:501    .text.VD6G_GetLineTimeInUs:00000000 VD6G_GetLineTimeInUs
     /tmp/ccWHsT5O.s:584    .text.VD6G_GetLineTimeInUs:00000050 $d
     /tmp/ccWHsT5O.s:4640   .rodata.__func__.1:00000000 __func__.1
     /tmp/ccWHsT5O.s:596    .text.VD6G_warn.constprop.0:00000000 $t
     /tmp/ccWHsT5O.s:601    .text.VD6G_warn.constprop.0:00000000 VD6G_warn.constprop.0
     /tmp/ccWHsT5O.s:652    .text.VD6G_warn.constprop.0:0000001c $d
     /tmp/ccWHsT5O.s:657    .text.VD6G_dbg.constprop.0:00000000 $t
     /tmp/ccWHsT5O.s:662    .text.VD6G_dbg.constprop.0:00000000 VD6G_dbg.constprop.0
     /tmp/ccWHsT5O.s:717    .text.VD6G_GetTopDie:00000000 $t
     /tmp/ccWHsT5O.s:722    .text.VD6G_GetTopDie:00000000 VD6G_GetTopDie
     /tmp/ccWHsT5O.s:804    .text.VD6G_GetTopDie:00000048 $d
     /tmp/ccWHsT5O.s:4770   .rodata.__func__.27:00000000 __func__.27
     /tmp/ccWHsT5O.s:814    .text.VD6G_WaitState:00000000 $t
     /tmp/ccWHsT5O.s:819    .text.VD6G_WaitState:00000000 VD6G_WaitState
     /tmp/ccWHsT5O.s:886    .text.VD6G_WaitState:00000030 $d
     /tmp/ccWHsT5O.s:928    .text.VD6G_Init:00000000 $t
     /tmp/ccWHsT5O.s:934    .text.VD6G_Init:00000000 VD6G_Init
     /tmp/ccWHsT5O.s:1849   .text.VD6G_Init:00000340 $d
     /tmp/ccWHsT5O.s:4775   .rodata.__func__.28:00000000 __func__.28
     /tmp/ccWHsT5O.s:4765   .rodata.__func__.26:00000000 __func__.26
     /tmp/ccWHsT5O.s:5323   .rodata.patch_cut2:00000000 patch_cut2
     /tmp/ccWHsT5O.s:4760   .rodata.__func__.25:00000000 __func__.25
     /tmp/ccWHsT5O.s:4755   .rodata.__func__.24:00000000 __func__.24
     /tmp/ccWHsT5O.s:4750   .rodata.__func__.23:00000000 __func__.23
     /tmp/ccWHsT5O.s:4745   .rodata.__func__.22:00000000 __func__.22
     /tmp/ccWHsT5O.s:4876   .data.vtpatch_desc:00000000 vtpatch_desc
     /tmp/ccWHsT5O.s:4869   .data.vtpatch_area_nb:00000000 vtpatch_area_nb
     /tmp/ccWHsT5O.s:4894   .rodata.vtpatch:00000000 vtpatch
     /tmp/ccWHsT5O.s:1876   .text.VD6G_Init:00000394 $t
     /tmp/ccWHsT5O.s:2049   .text.VD6G_Init:00000456 $d
     /tmp/ccWHsT5O.s:2053   .text.VD6G_Init:0000045a $t
     /tmp/ccWHsT5O.s:2454   .text.VD6G_Init:000005d0 $d
     /tmp/ccWHsT5O.s:4740   .rodata.__func__.21:00000000 __func__.21
ARM GAS  /tmp/ccWHsT5O.s 			page 214


     /tmp/ccWHsT5O.s:4735   .rodata.__func__.20:00000000 __func__.20
     /tmp/ccWHsT5O.s:4730   .rodata.__func__.19:00000000 __func__.19
     /tmp/ccWHsT5O.s:4725   .rodata.__func__.18:00000000 __func__.18
     /tmp/ccWHsT5O.s:2480   .text.VD6G_DeInit:00000000 $t
     /tmp/ccWHsT5O.s:2486   .text.VD6G_DeInit:00000000 VD6G_DeInit
     /tmp/ccWHsT5O.s:2536   .text.VD6G_Start:00000000 $t
     /tmp/ccWHsT5O.s:2542   .text.VD6G_Start:00000000 VD6G_Start
     /tmp/ccWHsT5O.s:3210   .text.VD6G_Start:00000260 $d
     /tmp/ccWHsT5O.s:4720   .rodata.__func__.17:00000000 __func__.17
     /tmp/ccWHsT5O.s:4622   .rodata.CSWTCH.58:00000000 CSWTCH.58
     /tmp/ccWHsT5O.s:4715   .rodata.__func__.16:00000000 __func__.16
     /tmp/ccWHsT5O.s:4613   .rodata.CSWTCH.81:00000000 CSWTCH.81
     /tmp/ccWHsT5O.s:4602   .rodata.CSWTCH.83:00000000 CSWTCH.83
     /tmp/ccWHsT5O.s:4700   .rodata.__func__.13:00000000 __func__.13
     /tmp/ccWHsT5O.s:4705   .rodata.__func__.14:00000000 __func__.14
     /tmp/ccWHsT5O.s:4690   .rodata.__func__.11:00000000 __func__.11
     /tmp/ccWHsT5O.s:3229   .text.VD6G_Stop:00000000 $t
     /tmp/ccWHsT5O.s:3235   .text.VD6G_Stop:00000000 VD6G_Stop
     /tmp/ccWHsT5O.s:3360   .text.VD6G_Stop:00000058 $d
     /tmp/ccWHsT5O.s:4685   .rodata.__func__.10:00000000 __func__.10
     /tmp/ccWHsT5O.s:3367   .text.VD6G_SetFlipMirrorMode:00000000 $t
     /tmp/ccWHsT5O.s:3373   .text.VD6G_SetFlipMirrorMode:00000000 VD6G_SetFlipMirrorMode
     /tmp/ccWHsT5O.s:3518   .text.VD6G_SetFlipMirrorMode:0000005c $d
     /tmp/ccWHsT5O.s:4680   .rodata.__func__.9:00000000 __func__.9
     /tmp/ccWHsT5O.s:3524   .text.VD6G_GetBrightnessLevel:00000000 $t
     /tmp/ccWHsT5O.s:3530   .text.VD6G_GetBrightnessLevel:00000000 VD6G_GetBrightnessLevel
     /tmp/ccWHsT5O.s:3603   .text.VD6G_GetBrightnessLevel:0000003c $d
     /tmp/ccWHsT5O.s:4675   .rodata.__func__.8:00000000 __func__.8
     /tmp/ccWHsT5O.s:3609   .text.VD6G_SetBrightnessLevel:00000000 $t
     /tmp/ccWHsT5O.s:3615   .text.VD6G_SetBrightnessLevel:00000000 VD6G_SetBrightnessLevel
     /tmp/ccWHsT5O.s:3684   .text.VD6G_SetBrightnessLevel:00000038 $d
     /tmp/ccWHsT5O.s:4670   .rodata.__func__.7:00000000 __func__.7
     /tmp/ccWHsT5O.s:3690   .text.VD6G_SetFlickerMode:00000000 $t
     /tmp/ccWHsT5O.s:3696   .text.VD6G_SetFlickerMode:00000000 VD6G_SetFlickerMode
     /tmp/ccWHsT5O.s:3736   .text.VD6G_SetExposureMode:00000000 $t
     /tmp/ccWHsT5O.s:3742   .text.VD6G_SetExposureMode:00000000 VD6G_SetExposureMode
     /tmp/ccWHsT5O.s:3782   .text.VD6G_GetAnalogGainRegRange:00000000 $t
     /tmp/ccWHsT5O.s:3788   .text.VD6G_GetAnalogGainRegRange:00000000 VD6G_GetAnalogGainRegRange
     /tmp/ccWHsT5O.s:3912   .text.VD6G_GetAnalogGainRegRange:00000070 $d
     /tmp/ccWHsT5O.s:4665   .rodata.__func__.6:00000000 __func__.6
     /tmp/ccWHsT5O.s:3918   .text.VD6G_SetAnalogGain:00000000 $t
     /tmp/ccWHsT5O.s:3924   .text.VD6G_SetAnalogGain:00000000 VD6G_SetAnalogGain
     /tmp/ccWHsT5O.s:4015   .text.VD6G_SetAnalogGain:00000058 $d
     /tmp/ccWHsT5O.s:4660   .rodata.__func__.5:00000000 __func__.5
     /tmp/ccWHsT5O.s:4021   .text.VD6G_GetDigitalGainRegRange:00000000 $t
     /tmp/ccWHsT5O.s:4027   .text.VD6G_GetDigitalGainRegRange:00000000 VD6G_GetDigitalGainRegRange
     /tmp/ccWHsT5O.s:4126   .text.VD6G_GetDigitalGainRegRange:00000054 $d
     /tmp/ccWHsT5O.s:4655   .rodata.__func__.4:00000000 __func__.4
     /tmp/ccWHsT5O.s:4132   .text.VD6G_SetDigitalGain:00000000 $t
     /tmp/ccWHsT5O.s:4138   .text.VD6G_SetDigitalGain:00000000 VD6G_SetDigitalGain
     /tmp/ccWHsT5O.s:4302   .text.VD6G_SetDigitalGain:000000a4 $d
     /tmp/ccWHsT5O.s:4650   .rodata.__func__.3:00000000 __func__.3
     /tmp/ccWHsT5O.s:4308   .text.VD6G_GetExposureRegRange:00000000 $t
     /tmp/ccWHsT5O.s:4314   .text.VD6G_GetExposureRegRange:00000000 VD6G_GetExposureRegRange
     /tmp/ccWHsT5O.s:4463   .text.VD6G_GetExposureRegRange:00000090 $d
     /tmp/ccWHsT5O.s:4645   .rodata.__func__.2:00000000 __func__.2
     /tmp/ccWHsT5O.s:4469   .text.VD6G_SetExposureTime:00000000 $t
ARM GAS  /tmp/ccWHsT5O.s 			page 215


     /tmp/ccWHsT5O.s:4475   .text.VD6G_SetExposureTime:00000000 VD6G_SetExposureTime
     /tmp/ccWHsT5O.s:4586   .text.VD6G_SetExposureTime:00000064 $d
     /tmp/ccWHsT5O.s:4635   .rodata.__func__.0:00000000 __func__.0
     /tmp/ccWHsT5O.s:4599   .rodata.CSWTCH.83:00000000 $d
     /tmp/ccWHsT5O.s:4619   .rodata.CSWTCH.58:00000000 $d
     /tmp/ccWHsT5O.s:4791   .rodata.vdg_supported_modes:00000000 vdg_supported_modes
     /tmp/ccWHsT5O.s:4788   .rodata.vdg_supported_modes:00000000 $d
     /tmp/ccWHsT5O.s:4866   .data.vtpatch_area_nb:00000000 $d
     /tmp/ccWHsT5O.s:4873   .data.vtpatch_desc:00000000 $d
     /tmp/ccWHsT5O.s:6009   .rodata:00000000 $d
                           .group:00000000 wm4.0.c552ae9005b0f2cca11872fae5d4b7f2
                           .group:00000000 wm4._newlib_version.h.4.411db44ea2338a62eca2f0777f81481b
                           .group:00000000 wm4.features.h.33.e0c9f337c65cb9f22ed5f23d082bc78b
                           .group:00000000 wm4._default_types.h.15.247e5cd201eca3442cbf5404108c4935
                           .group:00000000 wm4._intsup.h.10.48bafbb683905c4daa4565a85aeeb264
                           .group:00000000 wm4._stdint.h.10.c24fa3af3bc1706662bb5593a907e841
                           .group:00000000 wm4.stdint.h.23.d53047a68f4a85177f80b422d52785ed
                           .group:00000000 wm4.stdarg.h.31.f7f4f3bfddce9ed034956076d59396f7
                           .group:00000000 wm4.vd6g.h.28.e0d0912c3f84720af4bb820d9f4fcf1c
                           .group:00000000 wm4.newlib.h.7.591ac1bd65c1f5b34864757667a05252
                           .group:00000000 wm4.ieeefp.h.77.bd5feb87d9990dd328793ced294f6a87
                           .group:00000000 wm4.config.h.224.10ee1ad185d877c6e334e6581faab44d
                           .group:00000000 wm4._ansi.h.31.de524f58584151836e90d8620a16f8e8
                           .group:00000000 wm4.assert.h.11.db24e541f16414db224bf986d21017e2
                           .group:00000000 wm4.stddef.h.39.0dc9006b34572d4d9cae4c8b422c4971

UNDEFINED SYMBOLS
__assert_func
__aeabi_uldivmod
__aeabi_ldivmod
